GAS LISTING C:\DOCUME~1\ADMINI~1\LOCALS~1\Temp/ccDY2BDA.s 			page 1


   1               		.file	"phat16.c"
   2               	__SREG__ = 0x3f
   3               	__SP_H__ = 0x3e
   4               	__SP_L__ = 0x3d
   5               	__CCP__  = 0x34
   6               	__tmp_reg__ = 0
   7               	__zero_reg__ = 1
   8               		.text
   9               		.type	PhatTableLoc, @function
  10               	PhatTableLoc:
  11 0000 2F92      		push r2
  12 0002 3F92      		push r3
  13 0004 4F92      		push r4
  14 0006 5F92      		push r5
  15 0008 6F92      		push r6
  16 000a 7F92      		push r7
  17 000c 8F92      		push r8
  18 000e 9F92      		push r9
  19 0010 AF92      		push r10
  20 0012 BF92      		push r11
  21 0014 CF92      		push r12
  22 0016 DF92      		push r13
  23 0018 EF92      		push r14
  24 001a FF92      		push r15
  25 001c 0F93      		push r16
  26 001e 1F93      		push r17
  27               	/* prologue: function */
  28               	/* frame size = 0 */
  29 0020 3C01      		movw r6,r24
  30 0022 5A01      		movw r10,r20
  31 0024 6B01      		movw r12,r22
  32 0026 4901      		movw r8,r18
  33 0028 2801      		movw r4,r16
  34 002a 1701      		movw r2,r14
  35 002c AA0C      		lsl r10
  36 002e BB1C      		rol r11
  37 0030 CC1C      		rol r12
  38 0032 DD1C      		rol r13
  39 0034 F301      		movw r30,r6
  40 0036 E688      		ldd r14,Z+22
  41 0038 F788      		ldd r15,Z+23
  42 003a 00E0      		ldi r16,lo8(0)
  43 003c 10E0      		ldi r17,hi8(0)
  44 003e C601      		movw r24,r12
  45 0040 B501      		movw r22,r10
  46 0042 A801      		movw r20,r16
  47 0044 9701      		movw r18,r14
  48 0046 0E94 0000 		call __udivmodsi4
  49 004a 880C      		lsl r8
  50 004c 991C      		rol r9
  51 004e 880C      		lsl r8
  52 0050 991C      		rol r9
  53 0052 680C      		add r6,r8
  54 0054 791C      		adc r7,r9
  55 0056 F301      		movw r30,r6
  56 0058 868D      		ldd r24,Z+30
  57 005a 978D      		ldd r25,Z+31
GAS LISTING C:\DOCUME~1\ADMINI~1\LOCALS~1\Temp/ccDY2BDA.s 			page 2


  58 005c A0A1      		ldd r26,Z+32
  59 005e B1A1      		ldd r27,Z+33
  60 0060 820F      		add r24,r18
  61 0062 931F      		adc r25,r19
  62 0064 A41F      		adc r26,r20
  63 0066 B51F      		adc r27,r21
  64 0068 F201      		movw r30,r4
  65 006a 8083      		st Z,r24
  66 006c 9183      		std Z+1,r25
  67 006e A283      		std Z+2,r26
  68 0070 B383      		std Z+3,r27
  69 0072 C601      		movw r24,r12
  70 0074 B501      		movw r22,r10
  71 0076 A801      		movw r20,r16
  72 0078 9701      		movw r18,r14
  73 007a 0E94 0000 		call __udivmodsi4
  74 007e F101      		movw r30,r2
  75 0080 6083      		st Z,r22
  76 0082 7183      		std Z+1,r23
  77 0084 8283      		std Z+2,r24
  78 0086 9383      		std Z+3,r25
  79               	/* epilogue start */
  80 0088 1F91      		pop r17
  81 008a 0F91      		pop r16
  82 008c FF90      		pop r15
  83 008e EF90      		pop r14
  84 0090 DF90      		pop r13
  85 0092 CF90      		pop r12
  86 0094 BF90      		pop r11
  87 0096 AF90      		pop r10
  88 0098 9F90      		pop r9
  89 009a 8F90      		pop r8
  90 009c 7F90      		pop r7
  91 009e 6F90      		pop r6
  92 00a0 5F90      		pop r5
  93 00a2 4F90      		pop r4
  94 00a4 3F90      		pop r3
  95 00a6 2F90      		pop r2
  96 00a8 0895      		ret
  97               		.size	PhatTableLoc, .-PhatTableLoc
  98               	.global	Phat16SetClusterLink
  99               		.type	Phat16SetClusterLink, @function
 100               	Phat16SetClusterLink:
 101 00aa 2F92      		push r2
 102 00ac 3F92      		push r3
 103 00ae 4F92      		push r4
 104 00b0 5F92      		push r5
 105 00b2 6F92      		push r6
 106 00b4 7F92      		push r7
 107 00b6 8F92      		push r8
 108 00b8 9F92      		push r9
 109 00ba AF92      		push r10
 110 00bc BF92      		push r11
 111 00be CF92      		push r12
 112 00c0 DF92      		push r13
 113 00c2 EF92      		push r14
 114 00c4 FF92      		push r15
GAS LISTING C:\DOCUME~1\ADMINI~1\LOCALS~1\Temp/ccDY2BDA.s 			page 3


 115 00c6 0F93      		push r16
 116 00c8 1F93      		push r17
 117 00ca DF93      		push r29
 118 00cc CF93      		push r28
 119 00ce CDB7      		in r28,__SP_L__
 120 00d0 DEB7      		in r29,__SP_H__
 121 00d2 2D97      		sbiw r28,13
 122 00d4 0FB6      		in __tmp_reg__,__SREG__
 123 00d6 F894      		cli
 124 00d8 DEBF      		out __SP_H__,r29
 125 00da 0FBE      		out __SREG__,__tmp_reg__
 126 00dc CDBF      		out __SP_L__,r28
 127               	/* prologue: function */
 128               	/* frame size = 13 */
 129 00de 1C01      		movw r2,r24
 130 00e0 4A87      		std Y+10,r20
 131 00e2 5B87      		std Y+11,r21
 132 00e4 6C87      		std Y+12,r22
 133 00e6 7D87      		std Y+13,r23
 134 00e8 2801      		movw r4,r16
 135 00ea 3901      		movw r6,r18
 136 00ec FC01      		movw r30,r24
 137 00ee A188      		ldd r10,Z+17
 138 00f0 B288      		ldd r11,Z+18
 139 00f2 BB27      		clr r27
 140 00f4 A32F      		mov r26,r19
 141 00f6 922F      		mov r25,r18
 142 00f8 812F      		mov r24,r17
 143 00fa 8987      		std Y+9,r24
 144 00fc 4501      		movw r8,r10
 145 00fe CC24      		clr r12
 146 0100 DD24      		clr r13
 147 0102 00C0      		rjmp .L4
 148               	.L8:
 149 0104 C501      		movw r24,r10
 150 0106 4A85      		ldd r20,Y+10
 151 0108 5B85      		ldd r21,Y+11
 152 010a 6C85      		ldd r22,Y+12
 153 010c 7D85      		ldd r23,Y+13
 154 010e 9601      		movw r18,r12
 155 0110 8E01      		movw r16,r28
 156 0112 0F5F      		subi r16,lo8(-(1))
 157 0114 1F4F      		sbci r17,hi8(-(1))
 158 0116 E5E0      		ldi r30,lo8(5)
 159 0118 EE2E      		mov r14,r30
 160 011a F12C      		mov r15,__zero_reg__
 161 011c EC0E      		add r14,r28
 162 011e FD1E      		adc r15,r29
 163 0120 0E94 0000 		call PhatTableLoc
 164 0124 4981      		ldd r20,Y+1
 165 0126 5A81      		ldd r21,Y+2
 166 0128 6B81      		ldd r22,Y+3
 167 012a 7C81      		ldd r23,Y+4
 168 012c C101      		movw r24,r2
 169 012e 0E94 0000 		call PhatSectorLoad
 170 0132 9C01      		movw r18,r24
 171 0134 97FF      		sbrs r25,7
GAS LISTING C:\DOCUME~1\ADMINI~1\LOCALS~1\Temp/ccDY2BDA.s 			page 4


 172 0136 00C0      		rjmp .L5
 173 0138 2FEF      		ldi r18,lo8(-1)
 174 013a 3FEF      		ldi r19,hi8(-1)
 175 013c 00C0      		rjmp .L6
 176               	.L5:
 177 013e DC01      		movw r26,r24
 178 0140 53E0      		ldi r21,3
 179 0142 AA0F      	1:	lsl r26
 180 0144 BB1F      		rol r27
 181 0146 5A95      		dec r21
 182 0148 01F4      		brne 1b
 183 014a AA0D      		add r26,r10
 184 014c BB1D      		adc r27,r11
 185 014e 1A96      		adiw r26,10
 186 0150 ED91      		ld r30,X+
 187 0152 FC91      		ld r31,X
 188 0154 1B97      		sbiw r26,10+1
 189 0156 8D81      		ldd r24,Y+5
 190 0158 9E81      		ldd r25,Y+6
 191 015a E80F      		add r30,r24
 192 015c F91F      		adc r31,r25
 193 015e 4082      		st Z,r4
 194 0160 1A96      		adiw r26,10
 195 0162 ED91      		ld r30,X+
 196 0164 FC91      		ld r31,X
 197 0166 1B97      		sbiw r26,10+1
 198 0168 8D81      		ldd r24,Y+5
 199 016a 9E81      		ldd r25,Y+6
 200 016c E80F      		add r30,r24
 201 016e F91F      		adc r31,r25
 202 0170 8985      		ldd r24,Y+9
 203 0172 8183      		std Z+1,r24
 204 0174 2E5F      		subi r18,lo8(-(2))
 205 0176 3F4F      		sbci r19,hi8(-(2))
 206 0178 43E0      		ldi r20,3
 207 017a 220F      	1:	lsl r18
 208 017c 331F      		rol r19
 209 017e 4A95      		dec r20
 210 0180 01F4      		brne 1b
 211 0182 2A0D      		add r18,r10
 212 0184 3B1D      		adc r19,r11
 213 0186 81E0      		ldi r24,lo8(1)
 214 0188 90E0      		ldi r25,hi8(1)
 215 018a F901      		movw r30,r18
 216 018c 9183      		std Z+1,r25
 217 018e 8083      		st Z,r24
 218 0190 0894      		sec
 219 0192 C11C      		adc r12,__zero_reg__
 220 0194 D11C      		adc r13,__zero_reg__
 221 0196 E4E0      		ldi r30,lo8(4)
 222 0198 F0E0      		ldi r31,hi8(4)
 223 019a 8E0E      		add r8,r30
 224 019c 9F1E      		adc r9,r31
 225 019e F2E0      		ldi r31,lo8(2)
 226 01a0 CF16      		cp r12,r31
 227 01a2 D104      		cpc r13,__zero_reg__
 228 01a4 01F0      		breq .L7
GAS LISTING C:\DOCUME~1\ADMINI~1\LOCALS~1\Temp/ccDY2BDA.s 			page 5


 229               	.L4:
 230 01a6 F401      		movw r30,r8
 231 01a8 868D      		ldd r24,Z+30
 232 01aa 978D      		ldd r25,Z+31
 233 01ac A0A1      		ldd r26,Z+32
 234 01ae B1A1      		ldd r27,Z+33
 235 01b0 0097      		sbiw r24,0
 236 01b2 A105      		cpc r26,__zero_reg__
 237 01b4 B105      		cpc r27,__zero_reg__
 238 01b6 01F0      		breq .+2
 239 01b8 00C0      		rjmp .L8
 240               	.L7:
 241 01ba 20E0      		ldi r18,lo8(0)
 242 01bc 30E0      		ldi r19,hi8(0)
 243               	.L6:
 244 01be C901      		movw r24,r18
 245               	/* epilogue start */
 246 01c0 2D96      		adiw r28,13
 247 01c2 0FB6      		in __tmp_reg__,__SREG__
 248 01c4 F894      		cli
 249 01c6 DEBF      		out __SP_H__,r29
 250 01c8 0FBE      		out __SREG__,__tmp_reg__
 251 01ca CDBF      		out __SP_L__,r28
 252 01cc CF91      		pop r28
 253 01ce DF91      		pop r29
 254 01d0 1F91      		pop r17
 255 01d2 0F91      		pop r16
 256 01d4 FF90      		pop r15
 257 01d6 EF90      		pop r14
 258 01d8 DF90      		pop r13
 259 01da CF90      		pop r12
 260 01dc BF90      		pop r11
 261 01de AF90      		pop r10
 262 01e0 9F90      		pop r9
 263 01e2 8F90      		pop r8
 264 01e4 7F90      		pop r7
 265 01e6 6F90      		pop r6
 266 01e8 5F90      		pop r5
 267 01ea 4F90      		pop r4
 268 01ec 3F90      		pop r3
 269 01ee 2F90      		pop r2
 270 01f0 0895      		ret
 271               		.size	Phat16SetClusterLink, .-Phat16SetClusterLink
 272               	.global	Phat16GetClusterLink
 273               		.type	Phat16GetClusterLink, @function
 274               	Phat16GetClusterLink:
 275 01f2 8F92      		push r8
 276 01f4 9F92      		push r9
 277 01f6 AF92      		push r10
 278 01f8 BF92      		push r11
 279 01fa CF92      		push r12
 280 01fc DF92      		push r13
 281 01fe EF92      		push r14
 282 0200 FF92      		push r15
 283 0202 0F93      		push r16
 284 0204 1F93      		push r17
 285 0206 DF93      		push r29
GAS LISTING C:\DOCUME~1\ADMINI~1\LOCALS~1\Temp/ccDY2BDA.s 			page 6


 286 0208 CF93      		push r28
 287 020a CDB7      		in r28,__SP_L__
 288 020c DEB7      		in r29,__SP_H__
 289 020e 2897      		sbiw r28,8
 290 0210 0FB6      		in __tmp_reg__,__SREG__
 291 0212 F894      		cli
 292 0214 DEBF      		out __SP_H__,r29
 293 0216 0FBE      		out __SREG__,__tmp_reg__
 294 0218 CDBF      		out __SP_L__,r28
 295               	/* prologue: function */
 296               	/* frame size = 8 */
 297 021a 5C01      		movw r10,r24
 298 021c 4901      		movw r8,r18
 299 021e DC01      		movw r26,r24
 300 0220 5196      		adiw r26,17
 301 0222 8C91      		ld r24,X
 302 0224 5197      		sbiw r26,17
 303 0226 5296      		adiw r26,18
 304 0228 9C91      		ld r25,X
 305 022a 483F      		cpi r20,lo8(65528)
 306 022c BFEF      		ldi r27,hi8(65528)
 307 022e 5B07      		cpc r21,r27
 308 0230 B0E0      		ldi r27,hlo8(65528)
 309 0232 6B07      		cpc r22,r27
 310 0234 B0E0      		ldi r27,hhi8(65528)
 311 0236 7B07      		cpc r23,r27
 312 0238 00F0      		brlo .+2
 313 023a 00C0      		rjmp .L11
 314 023c 6C01      		movw r12,r24
 315 023e C601      		movw r24,r12
 316 0240 20E0      		ldi r18,lo8(0)
 317 0242 30E0      		ldi r19,hi8(0)
 318 0244 8E01      		movw r16,r28
 319 0246 0F5F      		subi r16,lo8(-(1))
 320 0248 1F4F      		sbci r17,hi8(-(1))
 321 024a E5E0      		ldi r30,lo8(5)
 322 024c EE2E      		mov r14,r30
 323 024e F12C      		mov r15,__zero_reg__
 324 0250 EC0E      		add r14,r28
 325 0252 FD1E      		adc r15,r29
 326 0254 0E94 0000 		call PhatTableLoc
 327 0258 4981      		ldd r20,Y+1
 328 025a 5A81      		ldd r21,Y+2
 329 025c 6B81      		ldd r22,Y+3
 330 025e 7C81      		ldd r23,Y+4
 331 0260 C501      		movw r24,r10
 332 0262 0E94 0000 		call PhatSectorLoad
 333 0266 97FD      		sbrc r25,7
 334 0268 00C0      		rjmp .L11
 335 026a 03E0      		ldi r16,3
 336 026c 880F      	1:	lsl r24
 337 026e 991F      		rol r25
 338 0270 0A95      		dec r16
 339 0272 01F4      		brne 1b
 340 0274 C80E      		add r12,r24
 341 0276 D91E      		adc r13,r25
 342 0278 D601      		movw r26,r12
GAS LISTING C:\DOCUME~1\ADMINI~1\LOCALS~1\Temp/ccDY2BDA.s 			page 7


 343 027a 1A96      		adiw r26,10
 344 027c ED91      		ld r30,X+
 345 027e FC91      		ld r31,X
 346 0280 1B97      		sbiw r26,10+1
 347 0282 8D81      		ldd r24,Y+5
 348 0284 9E81      		ldd r25,Y+6
 349 0286 E80F      		add r30,r24
 350 0288 F91F      		adc r31,r25
 351 028a 2081      		ld r18,Z
 352 028c 30E0      		ldi r19,lo8(0)
 353 028e 40E0      		ldi r20,lo8(0)
 354 0290 50E0      		ldi r21,hi8(0)
 355 0292 D401      		movw r26,r8
 356 0294 2D93      		st X+,r18
 357 0296 3D93      		st X+,r19
 358 0298 4D93      		st X+,r20
 359 029a 5C93      		st X,r21
 360 029c 1397      		sbiw r26,3
 361 029e 8181      		ldd r24,Z+1
 362 02a0 90E0      		ldi r25,lo8(0)
 363 02a2 A0E0      		ldi r26,lo8(0)
 364 02a4 B0E0      		ldi r27,hi8(0)
 365 02a6 BA2F      		mov r27,r26
 366 02a8 A92F      		mov r26,r25
 367 02aa 982F      		mov r25,r24
 368 02ac 8827      		clr r24
 369 02ae 820F      		add r24,r18
 370 02b0 931F      		adc r25,r19
 371 02b2 A41F      		adc r26,r20
 372 02b4 B51F      		adc r27,r21
 373 02b6 F401      		movw r30,r8
 374 02b8 8083      		st Z,r24
 375 02ba 9183      		std Z+1,r25
 376 02bc A283      		std Z+2,r26
 377 02be B383      		std Z+3,r27
 378 02c0 20E0      		ldi r18,lo8(0)
 379 02c2 30E0      		ldi r19,hi8(0)
 380 02c4 00C0      		rjmp .L12
 381               	.L11:
 382 02c6 2FEF      		ldi r18,lo8(-1)
 383 02c8 3FEF      		ldi r19,hi8(-1)
 384               	.L12:
 385 02ca C901      		movw r24,r18
 386               	/* epilogue start */
 387 02cc 2896      		adiw r28,8
 388 02ce 0FB6      		in __tmp_reg__,__SREG__
 389 02d0 F894      		cli
 390 02d2 DEBF      		out __SP_H__,r29
 391 02d4 0FBE      		out __SREG__,__tmp_reg__
 392 02d6 CDBF      		out __SP_L__,r28
 393 02d8 CF91      		pop r28
 394 02da DF91      		pop r29
 395 02dc 1F91      		pop r17
 396 02de 0F91      		pop r16
 397 02e0 FF90      		pop r15
 398 02e2 EF90      		pop r14
 399 02e4 DF90      		pop r13
GAS LISTING C:\DOCUME~1\ADMINI~1\LOCALS~1\Temp/ccDY2BDA.s 			page 8


 400 02e6 CF90      		pop r12
 401 02e8 BF90      		pop r11
 402 02ea AF90      		pop r10
 403 02ec 9F90      		pop r9
 404 02ee 8F90      		pop r8
 405 02f0 0895      		ret
 406               		.size	Phat16GetClusterLink, .-Phat16GetClusterLink
 407               	.global	Phat16ReleaseChain
 408               		.type	Phat16ReleaseChain, @function
 409               	Phat16ReleaseChain:
 410 02f2 8F92      		push r8
 411 02f4 9F92      		push r9
 412 02f6 AF92      		push r10
 413 02f8 BF92      		push r11
 414 02fa CF92      		push r12
 415 02fc DF92      		push r13
 416 02fe EF92      		push r14
 417 0300 FF92      		push r15
 418 0302 0F93      		push r16
 419 0304 1F93      		push r17
 420 0306 DF93      		push r29
 421 0308 CF93      		push r28
 422 030a 00D0      		rcall .
 423 030c 00D0      		rcall .
 424 030e CDB7      		in r28,__SP_L__
 425 0310 DEB7      		in r29,__SP_H__
 426               	/* prologue: function */
 427               	/* frame size = 4 */
 428 0312 6C01      		movw r12,r24
 429 0314 7A01      		movw r14,r20
 430 0316 8B01      		movw r16,r22
 431 0318 FC01      		movw r30,r24
 432 031a A188      		ldd r10,Z+17
 433 031c B288      		ldd r11,Z+18
 434 031e 4E01      		movw r8,r28
 435 0320 0894      		sec
 436 0322 811C      		adc r8,__zero_reg__
 437 0324 911C      		adc r9,__zero_reg__
 438 0326 00C0      		rjmp .L15
 439               	.L18:
 440 0328 C601      		movw r24,r12
 441 032a B801      		movw r22,r16
 442 032c A701      		movw r20,r14
 443 032e 9401      		movw r18,r8
 444 0330 0E94 0000 		call Phat16GetClusterLink
 445 0334 892B      		or r24,r25
 446 0336 01F4      		brne .L16
 447 0338 8981      		ldd r24,Y+1
 448 033a 9A81      		ldd r25,Y+2
 449 033c AB81      		ldd r26,Y+3
 450 033e BC81      		ldd r27,Y+4
 451 0340 0297      		sbiw r24,2
 452 0342 A105      		cpc r26,__zero_reg__
 453 0344 B105      		cpc r27,__zero_reg__
 454 0346 00F0      		brlo .L17
 455 0348 C601      		movw r24,r12
 456 034a B801      		movw r22,r16
GAS LISTING C:\DOCUME~1\ADMINI~1\LOCALS~1\Temp/ccDY2BDA.s 			page 9


 457 034c A701      		movw r20,r14
 458 034e 00E0      		ldi r16,lo8(0)
 459 0350 10E0      		ldi r17,hi8(0)
 460 0352 20E0      		ldi r18,hlo8(0)
 461 0354 30E0      		ldi r19,hhi8(0)
 462 0356 0E94 0000 		call Phat16SetClusterLink
 463 035a 892B      		or r24,r25
 464 035c 01F4      		brne .L16
 465 035e F501      		movw r30,r10
 466 0360 8281      		ldd r24,Z+2
 467 0362 9381      		ldd r25,Z+3
 468 0364 A481      		ldd r26,Z+4
 469 0366 B581      		ldd r27,Z+5
 470 0368 0196      		adiw r24,1
 471 036a A11D      		adc r26,__zero_reg__
 472 036c B11D      		adc r27,__zero_reg__
 473 036e 8283      		std Z+2,r24
 474 0370 9383      		std Z+3,r25
 475 0372 A483      		std Z+4,r26
 476 0374 B583      		std Z+5,r27
 477 0376 E980      		ldd r14,Y+1
 478 0378 FA80      		ldd r15,Y+2
 479 037a 0B81      		ldd r16,Y+3
 480 037c 1C81      		ldd r17,Y+4
 481               	.L15:
 482 037e F8EF      		ldi r31,lo8(65528)
 483 0380 EF16      		cp r14,r31
 484 0382 FFEF      		ldi r31,hi8(65528)
 485 0384 FF06      		cpc r15,r31
 486 0386 F0E0      		ldi r31,hlo8(65528)
 487 0388 0F07      		cpc r16,r31
 488 038a F0E0      		ldi r31,hhi8(65528)
 489 038c 1F07      		cpc r17,r31
 490 038e 00F0      		brlo .L18
 491 0390 00C0      		rjmp .L17
 492               	.L16:
 493 0392 2FEF      		ldi r18,lo8(-1)
 494 0394 3FEF      		ldi r19,hi8(-1)
 495 0396 00C0      		rjmp .L19
 496               	.L17:
 497 0398 20E0      		ldi r18,lo8(0)
 498 039a 30E0      		ldi r19,hi8(0)
 499               	.L19:
 500 039c C901      		movw r24,r18
 501               	/* epilogue start */
 502 039e 0F90      		pop __tmp_reg__
 503 03a0 0F90      		pop __tmp_reg__
 504 03a2 0F90      		pop __tmp_reg__
 505 03a4 0F90      		pop __tmp_reg__
 506 03a6 CF91      		pop r28
 507 03a8 DF91      		pop r29
 508 03aa 1F91      		pop r17
 509 03ac 0F91      		pop r16
 510 03ae FF90      		pop r15
 511 03b0 EF90      		pop r14
 512 03b2 DF90      		pop r13
 513 03b4 CF90      		pop r12
GAS LISTING C:\DOCUME~1\ADMINI~1\LOCALS~1\Temp/ccDY2BDA.s 			page 10


 514 03b6 BF90      		pop r11
 515 03b8 AF90      		pop r10
 516 03ba 9F90      		pop r9
 517 03bc 8F90      		pop r8
 518 03be 0895      		ret
 519               		.size	Phat16ReleaseChain, .-Phat16ReleaseChain
GAS LISTING C:\DOCUME~1\ADMINI~1\LOCALS~1\Temp/ccDY2BDA.s 			page 11


DEFINED SYMBOLS
                            *ABS*:00000000 phat16.c
C:\DOCUME~1\ADMINI~1\LOCALS~1\Temp/ccDY2BDA.s:2      *ABS*:0000003f __SREG__
C:\DOCUME~1\ADMINI~1\LOCALS~1\Temp/ccDY2BDA.s:3      *ABS*:0000003e __SP_H__
C:\DOCUME~1\ADMINI~1\LOCALS~1\Temp/ccDY2BDA.s:4      *ABS*:0000003d __SP_L__
C:\DOCUME~1\ADMINI~1\LOCALS~1\Temp/ccDY2BDA.s:5      *ABS*:00000034 __CCP__
C:\DOCUME~1\ADMINI~1\LOCALS~1\Temp/ccDY2BDA.s:6      *ABS*:00000000 __tmp_reg__
C:\DOCUME~1\ADMINI~1\LOCALS~1\Temp/ccDY2BDA.s:7      *ABS*:00000001 __zero_reg__
C:\DOCUME~1\ADMINI~1\LOCALS~1\Temp/ccDY2BDA.s:10     .text:00000000 PhatTableLoc
C:\DOCUME~1\ADMINI~1\LOCALS~1\Temp/ccDY2BDA.s:100    .text:000000aa Phat16SetClusterLink
C:\DOCUME~1\ADMINI~1\LOCALS~1\Temp/ccDY2BDA.s:274    .text:000001f2 Phat16GetClusterLink
C:\DOCUME~1\ADMINI~1\LOCALS~1\Temp/ccDY2BDA.s:409    .text:000002f2 Phat16ReleaseChain

UNDEFINED SYMBOLS
__udivmodsi4
PhatSectorLoad
