GAS LISTING C:\DOCUME~1\ADMINI~1\LOCALS~1\Temp/cc2DDUo5.s 			page 1


   1               		.file	"md5.c"
   2               	__SREG__ = 0x3f
   3               	__SP_H__ = 0x3e
   4               	__SP_L__ = 0x3d
   5               	__CCP__  = 0x34
   6               	__tmp_reg__ = 0
   7               	__zero_reg__ = 1
   8               		.text
   9               		.type	NutMD5Transform, @function
  10               	NutMD5Transform:
  11 0000 2F92      		push r2
  12 0002 3F92      		push r3
  13 0004 4F92      		push r4
  14 0006 5F92      		push r5
  15 0008 6F92      		push r6
  16 000a 7F92      		push r7
  17 000c 8F92      		push r8
  18 000e 9F92      		push r9
  19 0010 AF92      		push r10
  20 0012 BF92      		push r11
  21 0014 CF92      		push r12
  22 0016 DF92      		push r13
  23 0018 EF92      		push r14
  24 001a FF92      		push r15
  25 001c 0F93      		push r16
  26 001e 1F93      		push r17
  27 0020 DF93      		push r29
  28 0022 CF93      		push r28
  29 0024 CDB7      		in r28,__SP_L__
  30 0026 DEB7      		in r29,__SP_H__
  31 0028 C256      		subi r28,lo8(-(-98))
  32 002a D040      		sbci r29,hi8(-(-98))
  33 002c 0FB6      		in __tmp_reg__,__SREG__
  34 002e F894      		cli
  35 0030 DEBF      		out __SP_H__,r29
  36 0032 0FBE      		out __SREG__,__tmp_reg__
  37 0034 CDBF      		out __SP_L__,r28
  38               	/* prologue: function */
  39               	/* frame size = 98 */
  40 0036 A396      		adiw r28,97-62
  41 0038 9FAF      		std Y+63,r25
  42 003a 8EAF      		std Y+62,r24
  43 003c A397      		sbiw r28,97-62
  44 003e DC01      		movw r26,r24
  45 0040 6D90      		ld r6,X+
  46 0042 7D90      		ld r7,X+
  47 0044 8D90      		ld r8,X+
  48 0046 9C90      		ld r9,X
  49 0048 1397      		sbiw r26,3
  50 004a 6D8E      		std Y+29,r6
  51 004c 7E8E      		std Y+30,r7
  52 004e 8F8E      		std Y+31,r8
  53 0050 98A2      		std Y+32,r9
  54 0052 1496      		adiw r26,4
  55 0054 AD90      		ld r10,X+
  56 0056 BD90      		ld r11,X+
  57 0058 CD90      		ld r12,X+
GAS LISTING C:\DOCUME~1\ADMINI~1\LOCALS~1\Temp/cc2DDUo5.s 			page 2


  58 005a DC90      		ld r13,X
  59 005c 1797      		sbiw r26,4+3
  60 005e 1896      		adiw r26,8
  61 0060 6D90      		ld r6,X+
  62 0062 7D90      		ld r7,X+
  63 0064 8D90      		ld r8,X+
  64 0066 9C90      		ld r9,X
  65 0068 1B97      		sbiw r26,8+3
  66 006a 1C96      		adiw r26,12
  67 006c ED90      		ld r14,X+
  68 006e FD90      		ld r15,X+
  69 0070 0D91      		ld r16,X+
  70 0072 1C91      		ld r17,X
  71 0074 1F97      		sbiw r26,12+3
  72 0076 DB01      		movw r26,r22
  73 0078 2D91      		ld r18,X+
  74 007a 3D91      		ld r19,X+
  75 007c 4D91      		ld r20,X+
  76 007e 5C91      		ld r21,X
  77 0080 A196      		adiw r28,93-60
  78 0082 2CAF      		std Y+60,r18
  79 0084 3DAF      		std Y+61,r19
  80 0086 4EAF      		std Y+62,r20
  81 0088 5FAF      		std Y+63,r21
  82 008a A197      		sbiw r28,93-60
  83 008c 2D8D      		ldd r18,Y+29
  84 008e 3E8D      		ldd r19,Y+30
  85 0090 4F8D      		ldd r20,Y+31
  86 0092 58A1      		ldd r21,Y+32
  87 0094 2858      		subi r18,lo8(-(-680876936))
  88 0096 3B45      		sbci r19,hi8(-(-680876936))
  89 0098 4549      		sbci r20,hlo8(-(-680876936))
  90 009a 5842      		sbci r21,hhi8(-(-680876936))
  91 009c A196      		adiw r28,93-60
  92 009e 8CAD      		ldd r24,Y+60
  93 00a0 9DAD      		ldd r25,Y+61
  94 00a2 AEAD      		ldd r26,Y+62
  95 00a4 BFAD      		ldd r27,Y+63
  96 00a6 A197      		sbiw r28,93-60
  97 00a8 280F      		add r18,r24
  98 00aa 391F      		adc r19,r25
  99 00ac 4A1F      		adc r20,r26
 100 00ae 5B1F      		adc r21,r27
 101 00b0 D801      		movw r26,r16
 102 00b2 C701      		movw r24,r14
 103 00b4 8625      		eor r24,r6
 104 00b6 9725      		eor r25,r7
 105 00b8 A825      		eor r26,r8
 106 00ba B925      		eor r27,r9
 107 00bc 8A21      		and r24,r10
 108 00be 9B21      		and r25,r11
 109 00c0 AC21      		and r26,r12
 110 00c2 BD21      		and r27,r13
 111 00c4 8E25      		eor r24,r14
 112 00c6 9F25      		eor r25,r15
 113 00c8 A027      		eor r26,r16
 114 00ca B127      		eor r27,r17
GAS LISTING C:\DOCUME~1\ADMINI~1\LOCALS~1\Temp/cc2DDUo5.s 			page 3


 115 00cc 280F      		add r18,r24
 116 00ce 391F      		adc r19,r25
 117 00d0 4A1F      		adc r20,r26
 118 00d2 5B1F      		adc r21,r27
 119 00d4 1901      		movw r2,r18
 120 00d6 2A01      		movw r4,r20
 121 00d8 97E0      		ldi r25,7
 122 00da 220C      	1:	lsl r2
 123 00dc 331C      		rol r3
 124 00de 441C      		rol r4
 125 00e0 551C      		rol r5
 126 00e2 9A95      		dec r25
 127 00e4 01F4      		brne 1b
 128 00e6 89E1      		ldi r24,25
 129 00e8 5695      	1:	lsr r21
 130 00ea 4795      		ror r20
 131 00ec 3795      		ror r19
 132 00ee 2795      		ror r18
 133 00f0 8A95      		dec r24
 134 00f2 01F4      		brne 1b
 135 00f4 222A      		or r2,r18
 136 00f6 332A      		or r3,r19
 137 00f8 442A      		or r4,r20
 138 00fa 552A      		or r5,r21
 139 00fc 2A0C      		add r2,r10
 140 00fe 3B1C      		adc r3,r11
 141 0100 4C1C      		adc r4,r12
 142 0102 5D1C      		adc r5,r13
 143 0104 DB01      		movw r26,r22
 144 0106 1496      		adiw r26,4
 145 0108 2D91      		ld r18,X+
 146 010a 3D91      		ld r19,X+
 147 010c 4D91      		ld r20,X+
 148 010e 5C91      		ld r21,X
 149 0110 1797      		sbiw r26,4+3
 150 0112 6D96      		adiw r28,89-60
 151 0114 2CAF      		std Y+60,r18
 152 0116 3DAF      		std Y+61,r19
 153 0118 4EAF      		std Y+62,r20
 154 011a 5FAF      		std Y+63,r21
 155 011c 6D97      		sbiw r28,89-60
 156 011e 26E5      		ldi r18,lo8(-389564586)
 157 0120 37EB      		ldi r19,hi8(-389564586)
 158 0122 47EC      		ldi r20,hlo8(-389564586)
 159 0124 58EE      		ldi r21,hhi8(-389564586)
 160 0126 E20E      		add r14,r18
 161 0128 F31E      		adc r15,r19
 162 012a 041F      		adc r16,r20
 163 012c 151F      		adc r17,r21
 164 012e 6D96      		adiw r28,89-60
 165 0130 8CAD      		ldd r24,Y+60
 166 0132 9DAD      		ldd r25,Y+61
 167 0134 AEAD      		ldd r26,Y+62
 168 0136 BFAD      		ldd r27,Y+63
 169 0138 6D97      		sbiw r28,89-60
 170 013a E80E      		add r14,r24
 171 013c F91E      		adc r15,r25
GAS LISTING C:\DOCUME~1\ADMINI~1\LOCALS~1\Temp/cc2DDUo5.s 			page 4


 172 013e 0A1F      		adc r16,r26
 173 0140 1B1F      		adc r17,r27
 174 0142 D401      		movw r26,r8
 175 0144 C301      		movw r24,r6
 176 0146 8A25      		eor r24,r10
 177 0148 9B25      		eor r25,r11
 178 014a AC25      		eor r26,r12
 179 014c BD25      		eor r27,r13
 180 014e 8221      		and r24,r2
 181 0150 9321      		and r25,r3
 182 0152 A421      		and r26,r4
 183 0154 B521      		and r27,r5
 184 0156 8625      		eor r24,r6
 185 0158 9725      		eor r25,r7
 186 015a A825      		eor r26,r8
 187 015c B925      		eor r27,r9
 188 015e E80E      		add r14,r24
 189 0160 F91E      		adc r15,r25
 190 0162 0A1F      		adc r16,r26
 191 0164 1B1F      		adc r17,r27
 192 0166 A801      		movw r20,r16
 193 0168 9701      		movw r18,r14
 194 016a BCE0      		ldi r27,12
 195 016c 220F      	1:	lsl r18
 196 016e 331F      		rol r19
 197 0170 441F      		rol r20
 198 0172 551F      		rol r21
 199 0174 BA95      		dec r27
 200 0176 01F4      		brne 1b
 201 0178 A4E1      		ldi r26,20
 202 017a 1695      	1:	lsr r17
 203 017c 0795      		ror r16
 204 017e F794      		ror r15
 205 0180 E794      		ror r14
 206 0182 AA95      		dec r26
 207 0184 01F4      		brne 1b
 208 0186 2E29      		or r18,r14
 209 0188 3F29      		or r19,r15
 210 018a 402B      		or r20,r16
 211 018c 512B      		or r21,r17
 212 018e 220D      		add r18,r2
 213 0190 331D      		adc r19,r3
 214 0192 441D      		adc r20,r4
 215 0194 551D      		adc r21,r5
 216 0196 298F      		std Y+25,r18
 217 0198 3A8F      		std Y+26,r19
 218 019a 4B8F      		std Y+27,r20
 219 019c 5C8F      		std Y+28,r21
 220 019e DB01      		movw r26,r22
 221 01a0 1896      		adiw r26,8
 222 01a2 8D91      		ld r24,X+
 223 01a4 9D91      		ld r25,X+
 224 01a6 0D90      		ld __tmp_reg__,X+
 225 01a8 BC91      		ld r27,X
 226 01aa A02D      		mov r26,__tmp_reg__
 227 01ac 6996      		adiw r28,85-60
 228 01ae 8CAF      		std Y+60,r24
GAS LISTING C:\DOCUME~1\ADMINI~1\LOCALS~1\Temp/cc2DDUo5.s 			page 5


 229 01b0 9DAF      		std Y+61,r25
 230 01b2 AEAF      		std Y+62,r26
 231 01b4 BFAF      		std Y+63,r27
 232 01b6 6997      		sbiw r28,85-60
 233 01b8 FBED      		ldi r31,lo8(606105819)
 234 01ba EF2E      		mov r14,r31
 235 01bc F0E7      		ldi r31,hi8(606105819)
 236 01be FF2E      		mov r15,r31
 237 01c0 F0E2      		ldi r31,hlo8(606105819)
 238 01c2 0F2F      		mov r16,r31
 239 01c4 F4E2      		ldi r31,hhi8(606105819)
 240 01c6 1F2F      		mov r17,r31
 241 01c8 6E0C      		add r6,r14
 242 01ca 7F1C      		adc r7,r15
 243 01cc 801E      		adc r8,r16
 244 01ce 911E      		adc r9,r17
 245 01d0 680E      		add r6,r24
 246 01d2 791E      		adc r7,r25
 247 01d4 8A1E      		adc r8,r26
 248 01d6 9B1E      		adc r9,r27
 249 01d8 D201      		movw r26,r4
 250 01da C101      		movw r24,r2
 251 01dc 8A25      		eor r24,r10
 252 01de 9B25      		eor r25,r11
 253 01e0 AC25      		eor r26,r12
 254 01e2 BD25      		eor r27,r13
 255 01e4 8223      		and r24,r18
 256 01e6 9323      		and r25,r19
 257 01e8 A423      		and r26,r20
 258 01ea B523      		and r27,r21
 259 01ec 8A25      		eor r24,r10
 260 01ee 9B25      		eor r25,r11
 261 01f0 AC25      		eor r26,r12
 262 01f2 BD25      		eor r27,r13
 263 01f4 680E      		add r6,r24
 264 01f6 791E      		adc r7,r25
 265 01f8 8A1E      		adc r8,r26
 266 01fa 9B1E      		adc r9,r27
 267 01fc 8401      		movw r16,r8
 268 01fe 7301      		movw r14,r6
 269 0200 E1E1      		ldi r30,17
 270 0202 EE0C      	1:	lsl r14
 271 0204 FF1C      		rol r15
 272 0206 001F      		rol r16
 273 0208 111F      		rol r17
 274 020a EA95      		dec r30
 275 020c 01F4      		brne 1b
 276 020e 9FE0      		ldi r25,15
 277 0210 9694      	1:	lsr r9
 278 0212 8794      		ror r8
 279 0214 7794      		ror r7
 280 0216 6794      		ror r6
 281 0218 9A95      		dec r25
 282 021a 01F4      		brne 1b
 283 021c E628      		or r14,r6
 284 021e F728      		or r15,r7
 285 0220 0829      		or r16,r8
GAS LISTING C:\DOCUME~1\ADMINI~1\LOCALS~1\Temp/cc2DDUo5.s 			page 6


 286 0222 1929      		or r17,r9
 287 0224 E20E      		add r14,r18
 288 0226 F31E      		adc r15,r19
 289 0228 041F      		adc r16,r20
 290 022a 151F      		adc r17,r21
 291 022c DB01      		movw r26,r22
 292 022e 1C96      		adiw r26,12
 293 0230 2D91      		ld r18,X+
 294 0232 3D91      		ld r19,X+
 295 0234 4D91      		ld r20,X+
 296 0236 5C91      		ld r21,X
 297 0238 1F97      		sbiw r26,12+3
 298 023a 6596      		adiw r28,81-60
 299 023c 2CAF      		std Y+60,r18
 300 023e 3DAF      		std Y+61,r19
 301 0240 4EAF      		std Y+62,r20
 302 0242 5FAF      		std Y+63,r21
 303 0244 6597      		sbiw r28,81-60
 304 0246 8EEE      		ldi r24,lo8(-1044525330)
 305 0248 682E      		mov r6,r24
 306 024a 8EEC      		ldi r24,hi8(-1044525330)
 307 024c 782E      		mov r7,r24
 308 024e 8DEB      		ldi r24,hlo8(-1044525330)
 309 0250 882E      		mov r8,r24
 310 0252 81EC      		ldi r24,hhi8(-1044525330)
 311 0254 982E      		mov r9,r24
 312 0256 A60C      		add r10,r6
 313 0258 B71C      		adc r11,r7
 314 025a C81C      		adc r12,r8
 315 025c D91C      		adc r13,r9
 316 025e A20E      		add r10,r18
 317 0260 B31E      		adc r11,r19
 318 0262 C41E      		adc r12,r20
 319 0264 D51E      		adc r13,r21
 320 0266 898D      		ldd r24,Y+25
 321 0268 9A8D      		ldd r25,Y+26
 322 026a AB8D      		ldd r26,Y+27
 323 026c BC8D      		ldd r27,Y+28
 324 026e 8225      		eor r24,r2
 325 0270 9325      		eor r25,r3
 326 0272 A425      		eor r26,r4
 327 0274 B525      		eor r27,r5
 328 0276 8E21      		and r24,r14
 329 0278 9F21      		and r25,r15
 330 027a A023      		and r26,r16
 331 027c B123      		and r27,r17
 332 027e 8225      		eor r24,r2
 333 0280 9325      		eor r25,r3
 334 0282 A425      		eor r26,r4
 335 0284 B525      		eor r27,r5
 336 0286 A80E      		add r10,r24
 337 0288 B91E      		adc r11,r25
 338 028a CA1E      		adc r12,r26
 339 028c DB1E      		adc r13,r27
 340 028e 3501      		movw r6,r10
 341 0290 4601      		movw r8,r12
 342 0292 B6E1      		ldi r27,22
GAS LISTING C:\DOCUME~1\ADMINI~1\LOCALS~1\Temp/cc2DDUo5.s 			page 7


 343 0294 660C      	1:	lsl r6
 344 0296 771C      		rol r7
 345 0298 881C      		rol r8
 346 029a 991C      		rol r9
 347 029c BA95      		dec r27
 348 029e 01F4      		brne 1b
 349 02a0 AAE0      		ldi r26,10
 350 02a2 D694      	1:	lsr r13
 351 02a4 C794      		ror r12
 352 02a6 B794      		ror r11
 353 02a8 A794      		ror r10
 354 02aa AA95      		dec r26
 355 02ac 01F4      		brne 1b
 356 02ae 6A28      		or r6,r10
 357 02b0 7B28      		or r7,r11
 358 02b2 8C28      		or r8,r12
 359 02b4 9D28      		or r9,r13
 360 02b6 6E0C      		add r6,r14
 361 02b8 7F1C      		adc r7,r15
 362 02ba 801E      		adc r8,r16
 363 02bc 911E      		adc r9,r17
 364 02be DB01      		movw r26,r22
 365 02c0 5096      		adiw r26,16
 366 02c2 AD90      		ld r10,X+
 367 02c4 BD90      		ld r11,X+
 368 02c6 CD90      		ld r12,X+
 369 02c8 DC90      		ld r13,X
 370 02ca 5397      		sbiw r26,16+3
 371 02cc 6196      		adiw r28,77-60
 372 02ce ACAE      		std Y+60,r10
 373 02d0 BDAE      		std Y+61,r11
 374 02d2 CEAE      		std Y+62,r12
 375 02d4 DFAE      		std Y+63,r13
 376 02d6 6197      		sbiw r28,77-60
 377 02d8 A601      		movw r20,r12
 378 02da 9501      		movw r18,r10
 379 02dc 2155      		subi r18,lo8(-(-176418897))
 380 02de 304F      		sbci r19,hi8(-(-176418897))
 381 02e0 4348      		sbci r20,hlo8(-(-176418897))
 382 02e2 5A40      		sbci r21,hhi8(-(-176418897))
 383 02e4 220D      		add r18,r2
 384 02e6 331D      		adc r19,r3
 385 02e8 441D      		adc r20,r4
 386 02ea 551D      		adc r21,r5
 387 02ec 898D      		ldd r24,Y+25
 388 02ee 9A8D      		ldd r25,Y+26
 389 02f0 AB8D      		ldd r26,Y+27
 390 02f2 BC8D      		ldd r27,Y+28
 391 02f4 8E25      		eor r24,r14
 392 02f6 9F25      		eor r25,r15
 393 02f8 A027      		eor r26,r16
 394 02fa B127      		eor r27,r17
 395 02fc 8621      		and r24,r6
 396 02fe 9721      		and r25,r7
 397 0300 A821      		and r26,r8
 398 0302 B921      		and r27,r9
 399 0304 A98C      		ldd r10,Y+25
GAS LISTING C:\DOCUME~1\ADMINI~1\LOCALS~1\Temp/cc2DDUo5.s 			page 8


 400 0306 BA8C      		ldd r11,Y+26
 401 0308 CB8C      		ldd r12,Y+27
 402 030a DC8C      		ldd r13,Y+28
 403 030c 8A25      		eor r24,r10
 404 030e 9B25      		eor r25,r11
 405 0310 AC25      		eor r26,r12
 406 0312 BD25      		eor r27,r13
 407 0314 280F      		add r18,r24
 408 0316 391F      		adc r19,r25
 409 0318 4A1F      		adc r20,r26
 410 031a 5B1F      		adc r21,r27
 411 031c 5901      		movw r10,r18
 412 031e 6A01      		movw r12,r20
 413 0320 F7E0      		ldi r31,7
 414 0322 AA0C      	1:	lsl r10
 415 0324 BB1C      		rol r11
 416 0326 CC1C      		rol r12
 417 0328 DD1C      		rol r13
 418 032a FA95      		dec r31
 419 032c 01F4      		brne 1b
 420 032e E9E1      		ldi r30,25
 421 0330 5695      	1:	lsr r21
 422 0332 4795      		ror r20
 423 0334 3795      		ror r19
 424 0336 2795      		ror r18
 425 0338 EA95      		dec r30
 426 033a 01F4      		brne 1b
 427 033c A22A      		or r10,r18
 428 033e B32A      		or r11,r19
 429 0340 C42A      		or r12,r20
 430 0342 D52A      		or r13,r21
 431 0344 A60C      		add r10,r6
 432 0346 B71C      		adc r11,r7
 433 0348 C81C      		adc r12,r8
 434 034a D91C      		adc r13,r9
 435 034c DB01      		movw r26,r22
 436 034e 5496      		adiw r26,20
 437 0350 2D91      		ld r18,X+
 438 0352 3D91      		ld r19,X+
 439 0354 4D91      		ld r20,X+
 440 0356 5C91      		ld r21,X
 441 0358 5797      		sbiw r26,20+3
 442 035a 2D96      		adiw r28,73-60
 443 035c 2CAF      		std Y+60,r18
 444 035e 3DAF      		std Y+61,r19
 445 0360 4EAF      		std Y+62,r20
 446 0362 5FAF      		std Y+63,r21
 447 0364 2D97      		sbiw r28,73-60
 448 0366 265D      		subi r18,lo8(-(1200080426))
 449 0368 3943      		sbci r19,hi8(-(1200080426))
 450 036a 4847      		sbci r20,hlo8(-(1200080426))
 451 036c 584B      		sbci r21,hhi8(-(1200080426))
 452 036e 898D      		ldd r24,Y+25
 453 0370 9A8D      		ldd r25,Y+26
 454 0372 AB8D      		ldd r26,Y+27
 455 0374 BC8D      		ldd r27,Y+28
 456 0376 280F      		add r18,r24
GAS LISTING C:\DOCUME~1\ADMINI~1\LOCALS~1\Temp/cc2DDUo5.s 			page 9


 457 0378 391F      		adc r19,r25
 458 037a 4A1F      		adc r20,r26
 459 037c 5B1F      		adc r21,r27
 460 037e D401      		movw r26,r8
 461 0380 C301      		movw r24,r6
 462 0382 8E25      		eor r24,r14
 463 0384 9F25      		eor r25,r15
 464 0386 A027      		eor r26,r16
 465 0388 B127      		eor r27,r17
 466 038a 8A21      		and r24,r10
 467 038c 9B21      		and r25,r11
 468 038e AC21      		and r26,r12
 469 0390 BD21      		and r27,r13
 470 0392 8E25      		eor r24,r14
 471 0394 9F25      		eor r25,r15
 472 0396 A027      		eor r26,r16
 473 0398 B127      		eor r27,r17
 474 039a 280F      		add r18,r24
 475 039c 391F      		adc r19,r25
 476 039e 4A1F      		adc r20,r26
 477 03a0 5B1F      		adc r21,r27
 478 03a2 1901      		movw r2,r18
 479 03a4 2A01      		movw r4,r20
 480 03a6 9CE0      		ldi r25,12
 481 03a8 220C      	1:	lsl r2
 482 03aa 331C      		rol r3
 483 03ac 441C      		rol r4
 484 03ae 551C      		rol r5
 485 03b0 9A95      		dec r25
 486 03b2 01F4      		brne 1b
 487 03b4 84E1      		ldi r24,20
 488 03b6 5695      	1:	lsr r21
 489 03b8 4795      		ror r20
 490 03ba 3795      		ror r19
 491 03bc 2795      		ror r18
 492 03be 8A95      		dec r24
 493 03c0 01F4      		brne 1b
 494 03c2 222A      		or r2,r18
 495 03c4 332A      		or r3,r19
 496 03c6 442A      		or r4,r20
 497 03c8 552A      		or r5,r21
 498 03ca 2A0C      		add r2,r10
 499 03cc 3B1C      		adc r3,r11
 500 03ce 4C1C      		adc r4,r12
 501 03d0 5D1C      		adc r5,r13
 502 03d2 DB01      		movw r26,r22
 503 03d4 5896      		adiw r26,24
 504 03d6 2D91      		ld r18,X+
 505 03d8 3D91      		ld r19,X+
 506 03da 4D91      		ld r20,X+
 507 03dc 5C91      		ld r21,X
 508 03de 5B97      		sbiw r26,24+3
 509 03e0 2996      		adiw r28,69-60
 510 03e2 2CAF      		std Y+60,r18
 511 03e4 3DAF      		std Y+61,r19
 512 03e6 4EAF      		std Y+62,r20
 513 03e8 5FAF      		std Y+63,r21
GAS LISTING C:\DOCUME~1\ADMINI~1\LOCALS~1\Temp/cc2DDUo5.s 			page 10


 514 03ea 2997      		sbiw r28,69-60
 515 03ec 2D5E      		subi r18,lo8(-(-1473231341))
 516 03ee 394B      		sbci r19,hi8(-(-1473231341))
 517 03f0 4F4C      		sbci r20,hlo8(-(-1473231341))
 518 03f2 5745      		sbci r21,hhi8(-(-1473231341))
 519 03f4 2E0D      		add r18,r14
 520 03f6 3F1D      		adc r19,r15
 521 03f8 401F      		adc r20,r16
 522 03fa 511F      		adc r21,r17
 523 03fc D601      		movw r26,r12
 524 03fe C501      		movw r24,r10
 525 0400 8625      		eor r24,r6
 526 0402 9725      		eor r25,r7
 527 0404 A825      		eor r26,r8
 528 0406 B925      		eor r27,r9
 529 0408 8221      		and r24,r2
 530 040a 9321      		and r25,r3
 531 040c A421      		and r26,r4
 532 040e B521      		and r27,r5
 533 0410 8625      		eor r24,r6
 534 0412 9725      		eor r25,r7
 535 0414 A825      		eor r26,r8
 536 0416 B925      		eor r27,r9
 537 0418 280F      		add r18,r24
 538 041a 391F      		adc r19,r25
 539 041c 4A1F      		adc r20,r26
 540 041e 5B1F      		adc r21,r27
 541 0420 7901      		movw r14,r18
 542 0422 8A01      		movw r16,r20
 543 0424 B1E1      		ldi r27,17
 544 0426 EE0C      	1:	lsl r14
 545 0428 FF1C      		rol r15
 546 042a 001F      		rol r16
 547 042c 111F      		rol r17
 548 042e BA95      		dec r27
 549 0430 01F4      		brne 1b
 550 0432 AFE0      		ldi r26,15
 551 0434 5695      	1:	lsr r21
 552 0436 4795      		ror r20
 553 0438 3795      		ror r19
 554 043a 2795      		ror r18
 555 043c AA95      		dec r26
 556 043e 01F4      		brne 1b
 557 0440 E22A      		or r14,r18
 558 0442 F32A      		or r15,r19
 559 0444 042B      		or r16,r20
 560 0446 152B      		or r17,r21
 561 0448 E20C      		add r14,r2
 562 044a F31C      		adc r15,r3
 563 044c 041D      		adc r16,r4
 564 044e 151D      		adc r17,r5
 565 0450 DB01      		movw r26,r22
 566 0452 5C96      		adiw r26,28
 567 0454 2D91      		ld r18,X+
 568 0456 3D91      		ld r19,X+
 569 0458 4D91      		ld r20,X+
 570 045a 5C91      		ld r21,X
GAS LISTING C:\DOCUME~1\ADMINI~1\LOCALS~1\Temp/cc2DDUo5.s 			page 11


 571 045c 5F97      		sbiw r26,28+3
 572 045e 2596      		adiw r28,65-60
 573 0460 2CAF      		std Y+60,r18
 574 0462 3DAF      		std Y+61,r19
 575 0464 4EAF      		std Y+62,r20
 576 0466 5FAF      		std Y+63,r21
 577 0468 2597      		sbiw r28,65-60
 578 046a 2F5F      		subi r18,lo8(-(-45705983))
 579 046c 3A46      		sbci r19,hi8(-(-45705983))
 580 046e 494B      		sbci r20,hlo8(-(-45705983))
 581 0470 5240      		sbci r21,hhi8(-(-45705983))
 582 0472 260D      		add r18,r6
 583 0474 371D      		adc r19,r7
 584 0476 481D      		adc r20,r8
 585 0478 591D      		adc r21,r9
 586 047a D201      		movw r26,r4
 587 047c C101      		movw r24,r2
 588 047e 8A25      		eor r24,r10
 589 0480 9B25      		eor r25,r11
 590 0482 AC25      		eor r26,r12
 591 0484 BD25      		eor r27,r13
 592 0486 8E21      		and r24,r14
 593 0488 9F21      		and r25,r15
 594 048a A023      		and r26,r16
 595 048c B123      		and r27,r17
 596 048e 8A25      		eor r24,r10
 597 0490 9B25      		eor r25,r11
 598 0492 AC25      		eor r26,r12
 599 0494 BD25      		eor r27,r13
 600 0496 280F      		add r18,r24
 601 0498 391F      		adc r19,r25
 602 049a 4A1F      		adc r20,r26
 603 049c 5B1F      		adc r21,r27
 604 049e 3901      		movw r6,r18
 605 04a0 4A01      		movw r8,r20
 606 04a2 F6E1      		ldi r31,22
 607 04a4 660C      	1:	lsl r6
 608 04a6 771C      		rol r7
 609 04a8 881C      		rol r8
 610 04aa 991C      		rol r9
 611 04ac FA95      		dec r31
 612 04ae 01F4      		brne 1b
 613 04b0 EAE0      		ldi r30,10
 614 04b2 5695      	1:	lsr r21
 615 04b4 4795      		ror r20
 616 04b6 3795      		ror r19
 617 04b8 2795      		ror r18
 618 04ba EA95      		dec r30
 619 04bc 01F4      		brne 1b
 620 04be 622A      		or r6,r18
 621 04c0 732A      		or r7,r19
 622 04c2 842A      		or r8,r20
 623 04c4 952A      		or r9,r21
 624 04c6 6E0C      		add r6,r14
 625 04c8 7F1C      		adc r7,r15
 626 04ca 801E      		adc r8,r16
 627 04cc 911E      		adc r9,r17
GAS LISTING C:\DOCUME~1\ADMINI~1\LOCALS~1\Temp/cc2DDUo5.s 			page 12


 628 04ce DB01      		movw r26,r22
 629 04d0 9096      		adiw r26,32
 630 04d2 2D91      		ld r18,X+
 631 04d4 3D91      		ld r19,X+
 632 04d6 4D91      		ld r20,X+
 633 04d8 5C91      		ld r21,X
 634 04da 9397      		sbiw r26,32+3
 635 04dc 2196      		adiw r28,61-60
 636 04de 2CAF      		std Y+60,r18
 637 04e0 3DAF      		std Y+61,r19
 638 04e2 4EAF      		std Y+62,r20
 639 04e4 5FAF      		std Y+63,r21
 640 04e6 2197      		sbiw r28,61-60
 641 04e8 2852      		subi r18,lo8(-(1770035416))
 642 04ea 3746      		sbci r19,hi8(-(1770035416))
 643 04ec 4F47      		sbci r20,hlo8(-(1770035416))
 644 04ee 5649      		sbci r21,hhi8(-(1770035416))
 645 04f0 2A0D      		add r18,r10
 646 04f2 3B1D      		adc r19,r11
 647 04f4 4C1D      		adc r20,r12
 648 04f6 5D1D      		adc r21,r13
 649 04f8 D801      		movw r26,r16
 650 04fa C701      		movw r24,r14
 651 04fc 8225      		eor r24,r2
 652 04fe 9325      		eor r25,r3
 653 0500 A425      		eor r26,r4
 654 0502 B525      		eor r27,r5
 655 0504 8621      		and r24,r6
 656 0506 9721      		and r25,r7
 657 0508 A821      		and r26,r8
 658 050a B921      		and r27,r9
 659 050c 8225      		eor r24,r2
 660 050e 9325      		eor r25,r3
 661 0510 A425      		eor r26,r4
 662 0512 B525      		eor r27,r5
 663 0514 280F      		add r18,r24
 664 0516 391F      		adc r19,r25
 665 0518 4A1F      		adc r20,r26
 666 051a 5B1F      		adc r21,r27
 667 051c 5901      		movw r10,r18
 668 051e 6A01      		movw r12,r20
 669 0520 97E0      		ldi r25,7
 670 0522 AA0C      	1:	lsl r10
 671 0524 BB1C      		rol r11
 672 0526 CC1C      		rol r12
 673 0528 DD1C      		rol r13
 674 052a 9A95      		dec r25
 675 052c 01F4      		brne 1b
 676 052e 89E1      		ldi r24,25
 677 0530 5695      	1:	lsr r21
 678 0532 4795      		ror r20
 679 0534 3795      		ror r19
 680 0536 2795      		ror r18
 681 0538 8A95      		dec r24
 682 053a 01F4      		brne 1b
 683 053c A22A      		or r10,r18
 684 053e B32A      		or r11,r19
GAS LISTING C:\DOCUME~1\ADMINI~1\LOCALS~1\Temp/cc2DDUo5.s 			page 13


 685 0540 C42A      		or r12,r20
 686 0542 D52A      		or r13,r21
 687 0544 A60C      		add r10,r6
 688 0546 B71C      		adc r11,r7
 689 0548 C81C      		adc r12,r8
 690 054a D91C      		adc r13,r9
 691 054c DB01      		movw r26,r22
 692 054e 9496      		adiw r26,36
 693 0550 2D91      		ld r18,X+
 694 0552 3D91      		ld r19,X+
 695 0554 4D91      		ld r20,X+
 696 0556 5C91      		ld r21,X
 697 0558 9797      		sbiw r26,36+3
 698 055a 29AF      		std Y+57,r18
 699 055c 3AAF      		std Y+58,r19
 700 055e 4BAF      		std Y+59,r20
 701 0560 5CAF      		std Y+60,r21
 702 0562 2155      		subi r18,lo8(-(-1958414417))
 703 0564 3840      		sbci r19,hi8(-(-1958414417))
 704 0566 4B4B      		sbci r20,hlo8(-(-1958414417))
 705 0568 5447      		sbci r21,hhi8(-(-1958414417))
 706 056a 220D      		add r18,r2
 707 056c 331D      		adc r19,r3
 708 056e 441D      		adc r20,r4
 709 0570 551D      		adc r21,r5
 710 0572 D401      		movw r26,r8
 711 0574 C301      		movw r24,r6
 712 0576 8E25      		eor r24,r14
 713 0578 9F25      		eor r25,r15
 714 057a A027      		eor r26,r16
 715 057c B127      		eor r27,r17
 716 057e 8A21      		and r24,r10
 717 0580 9B21      		and r25,r11
 718 0582 AC21      		and r26,r12
 719 0584 BD21      		and r27,r13
 720 0586 8E25      		eor r24,r14
 721 0588 9F25      		eor r25,r15
 722 058a A027      		eor r26,r16
 723 058c B127      		eor r27,r17
 724 058e 280F      		add r18,r24
 725 0590 391F      		adc r19,r25
 726 0592 4A1F      		adc r20,r26
 727 0594 5B1F      		adc r21,r27
 728 0596 1901      		movw r2,r18
 729 0598 2A01      		movw r4,r20
 730 059a BCE0      		ldi r27,12
 731 059c 220C      	1:	lsl r2
 732 059e 331C      		rol r3
 733 05a0 441C      		rol r4
 734 05a2 551C      		rol r5
 735 05a4 BA95      		dec r27
 736 05a6 01F4      		brne 1b
 737 05a8 A4E1      		ldi r26,20
 738 05aa 5695      	1:	lsr r21
 739 05ac 4795      		ror r20
 740 05ae 3795      		ror r19
 741 05b0 2795      		ror r18
GAS LISTING C:\DOCUME~1\ADMINI~1\LOCALS~1\Temp/cc2DDUo5.s 			page 14


 742 05b2 AA95      		dec r26
 743 05b4 01F4      		brne 1b
 744 05b6 222A      		or r2,r18
 745 05b8 332A      		or r3,r19
 746 05ba 442A      		or r4,r20
 747 05bc 552A      		or r5,r21
 748 05be 2A0C      		add r2,r10
 749 05c0 3B1C      		adc r3,r11
 750 05c2 4C1C      		adc r4,r12
 751 05c4 5D1C      		adc r5,r13
 752 05c6 DB01      		movw r26,r22
 753 05c8 9896      		adiw r26,40
 754 05ca 2D91      		ld r18,X+
 755 05cc 3D91      		ld r19,X+
 756 05ce 4D91      		ld r20,X+
 757 05d0 5C91      		ld r21,X
 758 05d2 9B97      		sbiw r26,40+3
 759 05d4 2DAB      		std Y+53,r18
 760 05d6 3EAB      		std Y+54,r19
 761 05d8 4FAB      		std Y+55,r20
 762 05da 58AF      		std Y+56,r21
 763 05dc 2F54      		subi r18,lo8(-(-42063))
 764 05de 344A      		sbci r19,hi8(-(-42063))
 765 05e0 4040      		sbci r20,hlo8(-(-42063))
 766 05e2 5040      		sbci r21,hhi8(-(-42063))
 767 05e4 2E0D      		add r18,r14
 768 05e6 3F1D      		adc r19,r15
 769 05e8 401F      		adc r20,r16
 770 05ea 511F      		adc r21,r17
 771 05ec D601      		movw r26,r12
 772 05ee C501      		movw r24,r10
 773 05f0 8625      		eor r24,r6
 774 05f2 9725      		eor r25,r7
 775 05f4 A825      		eor r26,r8
 776 05f6 B925      		eor r27,r9
 777 05f8 8221      		and r24,r2
 778 05fa 9321      		and r25,r3
 779 05fc A421      		and r26,r4
 780 05fe B521      		and r27,r5
 781 0600 8625      		eor r24,r6
 782 0602 9725      		eor r25,r7
 783 0604 A825      		eor r26,r8
 784 0606 B925      		eor r27,r9
 785 0608 280F      		add r18,r24
 786 060a 391F      		adc r19,r25
 787 060c 4A1F      		adc r20,r26
 788 060e 5B1F      		adc r21,r27
 789 0610 7901      		movw r14,r18
 790 0612 8A01      		movw r16,r20
 791 0614 F1E1      		ldi r31,17
 792 0616 EE0C      	1:	lsl r14
 793 0618 FF1C      		rol r15
 794 061a 001F      		rol r16
 795 061c 111F      		rol r17
 796 061e FA95      		dec r31
 797 0620 01F4      		brne 1b
 798 0622 EFE0      		ldi r30,15
GAS LISTING C:\DOCUME~1\ADMINI~1\LOCALS~1\Temp/cc2DDUo5.s 			page 15


 799 0624 5695      	1:	lsr r21
 800 0626 4795      		ror r20
 801 0628 3795      		ror r19
 802 062a 2795      		ror r18
 803 062c EA95      		dec r30
 804 062e 01F4      		brne 1b
 805 0630 E22A      		or r14,r18
 806 0632 F32A      		or r15,r19
 807 0634 042B      		or r16,r20
 808 0636 152B      		or r17,r21
 809 0638 E20C      		add r14,r2
 810 063a F31C      		adc r15,r3
 811 063c 041D      		adc r16,r4
 812 063e 151D      		adc r17,r5
 813 0640 DB01      		movw r26,r22
 814 0642 9C96      		adiw r26,44
 815 0644 2D91      		ld r18,X+
 816 0646 3D91      		ld r19,X+
 817 0648 4D91      		ld r20,X+
 818 064a 5C91      		ld r21,X
 819 064c 9F97      		sbiw r26,44+3
 820 064e 29AB      		std Y+49,r18
 821 0650 3AAB      		std Y+50,r19
 822 0652 4BAB      		std Y+51,r20
 823 0654 5CAB      		std Y+52,r21
 824 0656 2254      		subi r18,lo8(-(-1990404162))
 825 0658 3842      		sbci r19,hi8(-(-1990404162))
 826 065a 434A      		sbci r20,hlo8(-(-1990404162))
 827 065c 5647      		sbci r21,hhi8(-(-1990404162))
 828 065e 260D      		add r18,r6
 829 0660 371D      		adc r19,r7
 830 0662 481D      		adc r20,r8
 831 0664 591D      		adc r21,r9
 832 0666 D201      		movw r26,r4
 833 0668 C101      		movw r24,r2
 834 066a 8A25      		eor r24,r10
 835 066c 9B25      		eor r25,r11
 836 066e AC25      		eor r26,r12
 837 0670 BD25      		eor r27,r13
 838 0672 8E21      		and r24,r14
 839 0674 9F21      		and r25,r15
 840 0676 A023      		and r26,r16
 841 0678 B123      		and r27,r17
 842 067a 8A25      		eor r24,r10
 843 067c 9B25      		eor r25,r11
 844 067e AC25      		eor r26,r12
 845 0680 BD25      		eor r27,r13
 846 0682 280F      		add r18,r24
 847 0684 391F      		adc r19,r25
 848 0686 4A1F      		adc r20,r26
 849 0688 5B1F      		adc r21,r27
 850 068a 3901      		movw r6,r18
 851 068c 4A01      		movw r8,r20
 852 068e 96E1      		ldi r25,22
 853 0690 660C      	1:	lsl r6
 854 0692 771C      		rol r7
 855 0694 881C      		rol r8
GAS LISTING C:\DOCUME~1\ADMINI~1\LOCALS~1\Temp/cc2DDUo5.s 			page 16


 856 0696 991C      		rol r9
 857 0698 9A95      		dec r25
 858 069a 01F4      		brne 1b
 859 069c 8AE0      		ldi r24,10
 860 069e 5695      	1:	lsr r21
 861 06a0 4795      		ror r20
 862 06a2 3795      		ror r19
 863 06a4 2795      		ror r18
 864 06a6 8A95      		dec r24
 865 06a8 01F4      		brne 1b
 866 06aa 622A      		or r6,r18
 867 06ac 732A      		or r7,r19
 868 06ae 842A      		or r8,r20
 869 06b0 952A      		or r9,r21
 870 06b2 6E0C      		add r6,r14
 871 06b4 7F1C      		adc r7,r15
 872 06b6 801E      		adc r8,r16
 873 06b8 911E      		adc r9,r17
 874 06ba DB01      		movw r26,r22
 875 06bc D096      		adiw r26,48
 876 06be 2D91      		ld r18,X+
 877 06c0 3D91      		ld r19,X+
 878 06c2 4D91      		ld r20,X+
 879 06c4 5C91      		ld r21,X
 880 06c6 D397      		sbiw r26,48+3
 881 06c8 2DA7      		std Y+45,r18
 882 06ca 3EA7      		std Y+46,r19
 883 06cc 4FA7      		std Y+47,r20
 884 06ce 58AB      		std Y+48,r21
 885 06d0 2E5D      		subi r18,lo8(-(1804603682))
 886 06d2 3E4E      		sbci r19,hi8(-(1804603682))
 887 06d4 4F46      		sbci r20,hlo8(-(1804603682))
 888 06d6 5449      		sbci r21,hhi8(-(1804603682))
 889 06d8 2A0D      		add r18,r10
 890 06da 3B1D      		adc r19,r11
 891 06dc 4C1D      		adc r20,r12
 892 06de 5D1D      		adc r21,r13
 893 06e0 D801      		movw r26,r16
 894 06e2 C701      		movw r24,r14
 895 06e4 8225      		eor r24,r2
 896 06e6 9325      		eor r25,r3
 897 06e8 A425      		eor r26,r4
 898 06ea B525      		eor r27,r5
 899 06ec 8621      		and r24,r6
 900 06ee 9721      		and r25,r7
 901 06f0 A821      		and r26,r8
 902 06f2 B921      		and r27,r9
 903 06f4 8225      		eor r24,r2
 904 06f6 9325      		eor r25,r3
 905 06f8 A425      		eor r26,r4
 906 06fa B525      		eor r27,r5
 907 06fc 280F      		add r18,r24
 908 06fe 391F      		adc r19,r25
 909 0700 4A1F      		adc r20,r26
 910 0702 5B1F      		adc r21,r27
 911 0704 5901      		movw r10,r18
 912 0706 6A01      		movw r12,r20
GAS LISTING C:\DOCUME~1\ADMINI~1\LOCALS~1\Temp/cc2DDUo5.s 			page 17


 913 0708 B7E0      		ldi r27,7
 914 070a AA0C      	1:	lsl r10
 915 070c BB1C      		rol r11
 916 070e CC1C      		rol r12
 917 0710 DD1C      		rol r13
 918 0712 BA95      		dec r27
 919 0714 01F4      		brne 1b
 920 0716 A9E1      		ldi r26,25
 921 0718 5695      	1:	lsr r21
 922 071a 4795      		ror r20
 923 071c 3795      		ror r19
 924 071e 2795      		ror r18
 925 0720 AA95      		dec r26
 926 0722 01F4      		brne 1b
 927 0724 A22A      		or r10,r18
 928 0726 B32A      		or r11,r19
 929 0728 C42A      		or r12,r20
 930 072a D52A      		or r13,r21
 931 072c A60C      		add r10,r6
 932 072e B71C      		adc r11,r7
 933 0730 C81C      		adc r12,r8
 934 0732 D91C      		adc r13,r9
 935 0734 DB01      		movw r26,r22
 936 0736 D496      		adiw r26,52
 937 0738 2D91      		ld r18,X+
 938 073a 3D91      		ld r19,X+
 939 073c 4D91      		ld r20,X+
 940 073e 5C91      		ld r21,X
 941 0740 D797      		sbiw r26,52+3
 942 0742 29A7      		std Y+41,r18
 943 0744 3AA7      		std Y+42,r19
 944 0746 4BA7      		std Y+43,r20
 945 0748 5CA7      		std Y+44,r21
 946 074a 2D56      		subi r18,lo8(-(-40341101))
 947 074c 3E48      		sbci r19,hi8(-(-40341101))
 948 074e 4746      		sbci r20,hlo8(-(-40341101))
 949 0750 5240      		sbci r21,hhi8(-(-40341101))
 950 0752 220D      		add r18,r2
 951 0754 331D      		adc r19,r3
 952 0756 441D      		adc r20,r4
 953 0758 551D      		adc r21,r5
 954 075a D401      		movw r26,r8
 955 075c C301      		movw r24,r6
 956 075e 8E25      		eor r24,r14
 957 0760 9F25      		eor r25,r15
 958 0762 A027      		eor r26,r16
 959 0764 B127      		eor r27,r17
 960 0766 8A21      		and r24,r10
 961 0768 9B21      		and r25,r11
 962 076a AC21      		and r26,r12
 963 076c BD21      		and r27,r13
 964 076e 8E25      		eor r24,r14
 965 0770 9F25      		eor r25,r15
 966 0772 A027      		eor r26,r16
 967 0774 B127      		eor r27,r17
 968 0776 280F      		add r18,r24
 969 0778 391F      		adc r19,r25
GAS LISTING C:\DOCUME~1\ADMINI~1\LOCALS~1\Temp/cc2DDUo5.s 			page 18


 970 077a 4A1F      		adc r20,r26
 971 077c 5B1F      		adc r21,r27
 972 077e DA01      		movw r26,r20
 973 0780 C901      		movw r24,r18
 974 0782 FCE0      		ldi r31,12
 975 0784 880F      	1:	lsl r24
 976 0786 991F      		rol r25
 977 0788 AA1F      		rol r26
 978 078a BB1F      		rol r27
 979 078c FA95      		dec r31
 980 078e 01F4      		brne 1b
 981 0790 E4E1      		ldi r30,20
 982 0792 5695      	1:	lsr r21
 983 0794 4795      		ror r20
 984 0796 3795      		ror r19
 985 0798 2795      		ror r18
 986 079a EA95      		dec r30
 987 079c 01F4      		brne 1b
 988 079e 822B      		or r24,r18
 989 07a0 932B      		or r25,r19
 990 07a2 A42B      		or r26,r20
 991 07a4 B52B      		or r27,r21
 992 07a6 8A0D      		add r24,r10
 993 07a8 9B1D      		adc r25,r11
 994 07aa AC1D      		adc r26,r12
 995 07ac BD1D      		adc r27,r13
 996 07ae 8D8B      		std Y+21,r24
 997 07b0 9E8B      		std Y+22,r25
 998 07b2 AF8B      		std Y+23,r26
 999 07b4 B88F      		std Y+24,r27
 1000 07b6 DB01      		movw r26,r22
 1001 07b8 D896      		adiw r26,56
 1002 07ba 2D91      		ld r18,X+
 1003 07bc 3D91      		ld r19,X+
 1004 07be 4D91      		ld r20,X+
 1005 07c0 5C91      		ld r21,X
 1006 07c2 DB97      		sbiw r26,56+3
 1007 07c4 2DA3      		std Y+37,r18
 1008 07c6 3EA3      		std Y+38,r19
 1009 07c8 4FA3      		std Y+39,r20
 1010 07ca 58A7      		std Y+40,r21
 1011 07cc 2257      		subi r18,lo8(-(-1502002290))
 1012 07ce 3C4B      		sbci r19,hi8(-(-1502002290))
 1013 07d0 4648      		sbci r20,hlo8(-(-1502002290))
 1014 07d2 5945      		sbci r21,hhi8(-(-1502002290))
 1015 07d4 2E0D      		add r18,r14
 1016 07d6 3F1D      		adc r19,r15
 1017 07d8 401F      		adc r20,r16
 1018 07da 511F      		adc r21,r17
 1019 07dc D601      		movw r26,r12
 1020 07de C501      		movw r24,r10
 1021 07e0 8625      		eor r24,r6
 1022 07e2 9725      		eor r25,r7
 1023 07e4 A825      		eor r26,r8
 1024 07e6 B925      		eor r27,r9
 1025 07e8 ED88      		ldd r14,Y+21
 1026 07ea FE88      		ldd r15,Y+22
GAS LISTING C:\DOCUME~1\ADMINI~1\LOCALS~1\Temp/cc2DDUo5.s 			page 19


 1027 07ec 0F89      		ldd r16,Y+23
 1028 07ee 188D      		ldd r17,Y+24
 1029 07f0 8E21      		and r24,r14
 1030 07f2 9F21      		and r25,r15
 1031 07f4 A023      		and r26,r16
 1032 07f6 B123      		and r27,r17
 1033 07f8 8625      		eor r24,r6
 1034 07fa 9725      		eor r25,r7
 1035 07fc A825      		eor r26,r8
 1036 07fe B925      		eor r27,r9
 1037 0800 280F      		add r18,r24
 1038 0802 391F      		adc r19,r25
 1039 0804 4A1F      		adc r20,r26
 1040 0806 5B1F      		adc r21,r27
 1041 0808 1901      		movw r2,r18
 1042 080a 2A01      		movw r4,r20
 1043 080c F1E1      		ldi r31,17
 1044 080e 220C      	1:	lsl r2
 1045 0810 331C      		rol r3
 1046 0812 441C      		rol r4
 1047 0814 551C      		rol r5
 1048 0816 FA95      		dec r31
 1049 0818 01F4      		brne 1b
 1050 081a EFE0      		ldi r30,15
 1051 081c 5695      	1:	lsr r21
 1052 081e 4795      		ror r20
 1053 0820 3795      		ror r19
 1054 0822 2795      		ror r18
 1055 0824 EA95      		dec r30
 1056 0826 01F4      		brne 1b
 1057 0828 222A      		or r2,r18
 1058 082a 332A      		or r3,r19
 1059 082c 442A      		or r4,r20
 1060 082e 552A      		or r5,r21
 1061 0830 2E0C      		add r2,r14
 1062 0832 3F1C      		adc r3,r15
 1063 0834 401E      		adc r4,r16
 1064 0836 511E      		adc r5,r17
 1065 0838 DB01      		movw r26,r22
 1066 083a DC96      		adiw r26,60
 1067 083c 0D91      		ld r16,X+
 1068 083e 1D91      		ld r17,X+
 1069 0840 2D91      		ld r18,X+
 1070 0842 3C91      		ld r19,X
 1071 0844 DF97      		sbiw r26,60+3
 1072 0846 09A3      		std Y+33,r16
 1073 0848 1AA3      		std Y+34,r17
 1074 084a 2BA3      		std Y+35,r18
 1075 084c 3CA3      		std Y+36,r19
 1076 084e A901      		movw r20,r18
 1077 0850 9801      		movw r18,r16
 1078 0852 2F5D      		subi r18,lo8(-(1236535329))
 1079 0854 374F      		sbci r19,hi8(-(1236535329))
 1080 0856 4B44      		sbci r20,hlo8(-(1236535329))
 1081 0858 564B      		sbci r21,hhi8(-(1236535329))
 1082 085a 260D      		add r18,r6
 1083 085c 371D      		adc r19,r7
GAS LISTING C:\DOCUME~1\ADMINI~1\LOCALS~1\Temp/cc2DDUo5.s 			page 20


 1084 085e 481D      		adc r20,r8
 1085 0860 591D      		adc r21,r9
 1086 0862 8D89      		ldd r24,Y+21
 1087 0864 9E89      		ldd r25,Y+22
 1088 0866 AF89      		ldd r26,Y+23
 1089 0868 B88D      		ldd r27,Y+24
 1090 086a 8A25      		eor r24,r10
 1091 086c 9B25      		eor r25,r11
 1092 086e AC25      		eor r26,r12
 1093 0870 BD25      		eor r27,r13
 1094 0872 8221      		and r24,r2
 1095 0874 9321      		and r25,r3
 1096 0876 A421      		and r26,r4
 1097 0878 B521      		and r27,r5
 1098 087a 8A25      		eor r24,r10
 1099 087c 9B25      		eor r25,r11
 1100 087e AC25      		eor r26,r12
 1101 0880 BD25      		eor r27,r13
 1102 0882 280F      		add r18,r24
 1103 0884 391F      		adc r19,r25
 1104 0886 4A1F      		adc r20,r26
 1105 0888 5B1F      		adc r21,r27
 1106 088a 7901      		movw r14,r18
 1107 088c 8A01      		movw r16,r20
 1108 088e 96E1      		ldi r25,22
 1109 0890 EE0C      	1:	lsl r14
 1110 0892 FF1C      		rol r15
 1111 0894 001F      		rol r16
 1112 0896 111F      		rol r17
 1113 0898 9A95      		dec r25
 1114 089a 01F4      		brne 1b
 1115 089c 8AE0      		ldi r24,10
 1116 089e 5695      	1:	lsr r21
 1117 08a0 4795      		ror r20
 1118 08a2 3795      		ror r19
 1119 08a4 2795      		ror r18
 1120 08a6 8A95      		dec r24
 1121 08a8 01F4      		brne 1b
 1122 08aa E22A      		or r14,r18
 1123 08ac F32A      		or r15,r19
 1124 08ae 042B      		or r16,r20
 1125 08b0 152B      		or r17,r21
 1126 08b2 E20C      		add r14,r2
 1127 08b4 F31C      		adc r15,r3
 1128 08b6 041D      		adc r16,r4
 1129 08b8 151D      		adc r17,r5
 1130 08ba 6D96      		adiw r28,89-60
 1131 08bc 2CAD      		ldd r18,Y+60
 1132 08be 3DAD      		ldd r19,Y+61
 1133 08c0 4EAD      		ldd r20,Y+62
 1134 08c2 5FAD      		ldd r21,Y+63
 1135 08c4 6D97      		sbiw r28,89-60
 1136 08c6 2E59      		subi r18,lo8(-(-165796510))
 1137 08c8 3A4D      		sbci r19,hi8(-(-165796510))
 1138 08ca 414E      		sbci r20,hlo8(-(-165796510))
 1139 08cc 5940      		sbci r21,hhi8(-(-165796510))
 1140 08ce 2A0D      		add r18,r10
GAS LISTING C:\DOCUME~1\ADMINI~1\LOCALS~1\Temp/cc2DDUo5.s 			page 21


 1141 08d0 3B1D      		adc r19,r11
 1142 08d2 4C1D      		adc r20,r12
 1143 08d4 5D1D      		adc r21,r13
 1144 08d6 D801      		movw r26,r16
 1145 08d8 C701      		movw r24,r14
 1146 08da 8225      		eor r24,r2
 1147 08dc 9325      		eor r25,r3
 1148 08de A425      		eor r26,r4
 1149 08e0 B525      		eor r27,r5
 1150 08e2 6D88      		ldd r6,Y+21
 1151 08e4 7E88      		ldd r7,Y+22
 1152 08e6 8F88      		ldd r8,Y+23
 1153 08e8 988C      		ldd r9,Y+24
 1154 08ea 8621      		and r24,r6
 1155 08ec 9721      		and r25,r7
 1156 08ee A821      		and r26,r8
 1157 08f0 B921      		and r27,r9
 1158 08f2 8225      		eor r24,r2
 1159 08f4 9325      		eor r25,r3
 1160 08f6 A425      		eor r26,r4
 1161 08f8 B525      		eor r27,r5
 1162 08fa 280F      		add r18,r24
 1163 08fc 391F      		adc r19,r25
 1164 08fe 4A1F      		adc r20,r26
 1165 0900 5B1F      		adc r21,r27
 1166 0902 5901      		movw r10,r18
 1167 0904 6A01      		movw r12,r20
 1168 0906 B5E0      		ldi r27,5
 1169 0908 AA0C      	1:	lsl r10
 1170 090a BB1C      		rol r11
 1171 090c CC1C      		rol r12
 1172 090e DD1C      		rol r13
 1173 0910 BA95      		dec r27
 1174 0912 01F4      		brne 1b
 1175 0914 ABE1      		ldi r26,27
 1176 0916 5695      	1:	lsr r21
 1177 0918 4795      		ror r20
 1178 091a 3795      		ror r19
 1179 091c 2795      		ror r18
 1180 091e AA95      		dec r26
 1181 0920 01F4      		brne 1b
 1182 0922 A22A      		or r10,r18
 1183 0924 B32A      		or r11,r19
 1184 0926 C42A      		or r12,r20
 1185 0928 D52A      		or r13,r21
 1186 092a AE0C      		add r10,r14
 1187 092c BF1C      		adc r11,r15
 1188 092e C01E      		adc r12,r16
 1189 0930 D11E      		adc r13,r17
 1190 0932 2996      		adiw r28,69-60
 1191 0934 2CAD      		ldd r18,Y+60
 1192 0936 3DAD      		ldd r19,Y+61
 1193 0938 4EAD      		ldd r20,Y+62
 1194 093a 5FAD      		ldd r21,Y+63
 1195 093c 2997      		sbiw r28,69-60
 1196 093e 205C      		subi r18,lo8(-(-1069501632))
 1197 0940 3C44      		sbci r19,hi8(-(-1069501632))
GAS LISTING C:\DOCUME~1\ADMINI~1\LOCALS~1\Temp/cc2DDUo5.s 			page 22


 1198 0942 4F4B      		sbci r20,hlo8(-(-1069501632))
 1199 0944 5F43      		sbci r21,hhi8(-(-1069501632))
 1200 0946 260D      		add r18,r6
 1201 0948 371D      		adc r19,r7
 1202 094a 481D      		adc r20,r8
 1203 094c 591D      		adc r21,r9
 1204 094e D601      		movw r26,r12
 1205 0950 C501      		movw r24,r10
 1206 0952 8E25      		eor r24,r14
 1207 0954 9F25      		eor r25,r15
 1208 0956 A027      		eor r26,r16
 1209 0958 B127      		eor r27,r17
 1210 095a 8221      		and r24,r2
 1211 095c 9321      		and r25,r3
 1212 095e A421      		and r26,r4
 1213 0960 B521      		and r27,r5
 1214 0962 8E25      		eor r24,r14
 1215 0964 9F25      		eor r25,r15
 1216 0966 A027      		eor r26,r16
 1217 0968 B127      		eor r27,r17
 1218 096a 280F      		add r18,r24
 1219 096c 391F      		adc r19,r25
 1220 096e 4A1F      		adc r20,r26
 1221 0970 5B1F      		adc r21,r27
 1222 0972 3901      		movw r6,r18
 1223 0974 4A01      		movw r8,r20
 1224 0976 F9E0      		ldi r31,9
 1225 0978 660C      	1:	lsl r6
 1226 097a 771C      		rol r7
 1227 097c 881C      		rol r8
 1228 097e 991C      		rol r9
 1229 0980 FA95      		dec r31
 1230 0982 01F4      		brne 1b
 1231 0984 E7E1      		ldi r30,23
 1232 0986 5695      	1:	lsr r21
 1233 0988 4795      		ror r20
 1234 098a 3795      		ror r19
 1235 098c 2795      		ror r18
 1236 098e EA95      		dec r30
 1237 0990 01F4      		brne 1b
 1238 0992 622A      		or r6,r18
 1239 0994 732A      		or r7,r19
 1240 0996 842A      		or r8,r20
 1241 0998 952A      		or r9,r21
 1242 099a 6A0C      		add r6,r10
 1243 099c 7B1C      		adc r7,r11
 1244 099e 8C1C      		adc r8,r12
 1245 09a0 9D1C      		adc r9,r13
 1246 09a2 29A9      		ldd r18,Y+49
 1247 09a4 3AA9      		ldd r19,Y+50
 1248 09a6 4BA9      		ldd r20,Y+51
 1249 09a8 5CA9      		ldd r21,Y+52
 1250 09aa 2F5A      		subi r18,lo8(-(643717713))
 1251 09ac 354A      		sbci r19,hi8(-(643717713))
 1252 09ae 414A      		sbci r20,hlo8(-(643717713))
 1253 09b0 594D      		sbci r21,hhi8(-(643717713))
 1254 09b2 220D      		add r18,r2
GAS LISTING C:\DOCUME~1\ADMINI~1\LOCALS~1\Temp/cc2DDUo5.s 			page 23


 1255 09b4 331D      		adc r19,r3
 1256 09b6 441D      		adc r20,r4
 1257 09b8 551D      		adc r21,r5
 1258 09ba D401      		movw r26,r8
 1259 09bc C301      		movw r24,r6
 1260 09be 8A25      		eor r24,r10
 1261 09c0 9B25      		eor r25,r11
 1262 09c2 AC25      		eor r26,r12
 1263 09c4 BD25      		eor r27,r13
 1264 09c6 8E21      		and r24,r14
 1265 09c8 9F21      		and r25,r15
 1266 09ca A023      		and r26,r16
 1267 09cc B123      		and r27,r17
 1268 09ce 8A25      		eor r24,r10
 1269 09d0 9B25      		eor r25,r11
 1270 09d2 AC25      		eor r26,r12
 1271 09d4 BD25      		eor r27,r13
 1272 09d6 280F      		add r18,r24
 1273 09d8 391F      		adc r19,r25
 1274 09da 4A1F      		adc r20,r26
 1275 09dc 5B1F      		adc r21,r27
 1276 09de 1901      		movw r2,r18
 1277 09e0 2A01      		movw r4,r20
 1278 09e2 7EE0      		ldi r23,14
 1279 09e4 220C      	1:	lsl r2
 1280 09e6 331C      		rol r3
 1281 09e8 441C      		rol r4
 1282 09ea 551C      		rol r5
 1283 09ec 7A95      		dec r23
 1284 09ee 01F4      		brne 1b
 1285 09f0 62E1      		ldi r22,18
 1286 09f2 5695      	1:	lsr r21
 1287 09f4 4795      		ror r20
 1288 09f6 3795      		ror r19
 1289 09f8 2795      		ror r18
 1290 09fa 6A95      		dec r22
 1291 09fc 01F4      		brne 1b
 1292 09fe 222A      		or r2,r18
 1293 0a00 332A      		or r3,r19
 1294 0a02 442A      		or r4,r20
 1295 0a04 552A      		or r5,r21
 1296 0a06 260C      		add r2,r6
 1297 0a08 371C      		adc r3,r7
 1298 0a0a 481C      		adc r4,r8
 1299 0a0c 591C      		adc r5,r9
 1300 0a0e A196      		adiw r28,93-60
 1301 0a10 2CAD      		ldd r18,Y+60
 1302 0a12 3DAD      		ldd r19,Y+61
 1303 0a14 4EAD      		ldd r20,Y+62
 1304 0a16 5FAD      		ldd r21,Y+63
 1305 0a18 A197      		sbiw r28,93-60
 1306 0a1a 2655      		subi r18,lo8(-(-373897302))
 1307 0a1c 3843      		sbci r19,hi8(-(-373897302))
 1308 0a1e 4944      		sbci r20,hlo8(-(-373897302))
 1309 0a20 5641      		sbci r21,hhi8(-(-373897302))
 1310 0a22 2E0D      		add r18,r14
 1311 0a24 3F1D      		adc r19,r15
GAS LISTING C:\DOCUME~1\ADMINI~1\LOCALS~1\Temp/cc2DDUo5.s 			page 24


 1312 0a26 401F      		adc r20,r16
 1313 0a28 511F      		adc r21,r17
 1314 0a2a D201      		movw r26,r4
 1315 0a2c C101      		movw r24,r2
 1316 0a2e 8625      		eor r24,r6
 1317 0a30 9725      		eor r25,r7
 1318 0a32 A825      		eor r26,r8
 1319 0a34 B925      		eor r27,r9
 1320 0a36 8A21      		and r24,r10
 1321 0a38 9B21      		and r25,r11
 1322 0a3a AC21      		and r26,r12
 1323 0a3c BD21      		and r27,r13
 1324 0a3e 8625      		eor r24,r6
 1325 0a40 9725      		eor r25,r7
 1326 0a42 A825      		eor r26,r8
 1327 0a44 B925      		eor r27,r9
 1328 0a46 280F      		add r18,r24
 1329 0a48 391F      		adc r19,r25
 1330 0a4a 4A1F      		adc r20,r26
 1331 0a4c 5B1F      		adc r21,r27
 1332 0a4e 7901      		movw r14,r18
 1333 0a50 8A01      		movw r16,r20
 1334 0a52 94E1      		ldi r25,20
 1335 0a54 EE0C      	1:	lsl r14
 1336 0a56 FF1C      		rol r15
 1337 0a58 001F      		rol r16
 1338 0a5a 111F      		rol r17
 1339 0a5c 9A95      		dec r25
 1340 0a5e 01F4      		brne 1b
 1341 0a60 8CE0      		ldi r24,12
 1342 0a62 5695      	1:	lsr r21
 1343 0a64 4795      		ror r20
 1344 0a66 3795      		ror r19
 1345 0a68 2795      		ror r18
 1346 0a6a 8A95      		dec r24
 1347 0a6c 01F4      		brne 1b
 1348 0a6e E22A      		or r14,r18
 1349 0a70 F32A      		or r15,r19
 1350 0a72 042B      		or r16,r20
 1351 0a74 152B      		or r17,r21
 1352 0a76 E20C      		add r14,r2
 1353 0a78 F31C      		adc r15,r3
 1354 0a7a 041D      		adc r16,r4
 1355 0a7c 151D      		adc r17,r5
 1356 0a7e 2D96      		adiw r28,73-60
 1357 0a80 2CAD      		ldd r18,Y+60
 1358 0a82 3DAD      		ldd r19,Y+61
 1359 0a84 4EAD      		ldd r20,Y+62
 1360 0a86 5FAD      		ldd r21,Y+63
 1361 0a88 2D97      		sbiw r28,73-60
 1362 0a8a 235A      		subi r18,lo8(-(-701558691))
 1363 0a8c 3F4E      		sbci r19,hi8(-(-701558691))
 1364 0a8e 404D      		sbci r20,hlo8(-(-701558691))
 1365 0a90 5942      		sbci r21,hhi8(-(-701558691))
 1366 0a92 2A0D      		add r18,r10
 1367 0a94 3B1D      		adc r19,r11
 1368 0a96 4C1D      		adc r20,r12
GAS LISTING C:\DOCUME~1\ADMINI~1\LOCALS~1\Temp/cc2DDUo5.s 			page 25


 1369 0a98 5D1D      		adc r21,r13
 1370 0a9a D801      		movw r26,r16
 1371 0a9c C701      		movw r24,r14
 1372 0a9e 8225      		eor r24,r2
 1373 0aa0 9325      		eor r25,r3
 1374 0aa2 A425      		eor r26,r4
 1375 0aa4 B525      		eor r27,r5
 1376 0aa6 8621      		and r24,r6
 1377 0aa8 9721      		and r25,r7
 1378 0aaa A821      		and r26,r8
 1379 0aac B921      		and r27,r9
 1380 0aae 8225      		eor r24,r2
 1381 0ab0 9325      		eor r25,r3
 1382 0ab2 A425      		eor r26,r4
 1383 0ab4 B525      		eor r27,r5
 1384 0ab6 280F      		add r18,r24
 1385 0ab8 391F      		adc r19,r25
 1386 0aba 4A1F      		adc r20,r26
 1387 0abc 5B1F      		adc r21,r27
 1388 0abe 5901      		movw r10,r18
 1389 0ac0 6A01      		movw r12,r20
 1390 0ac2 B5E0      		ldi r27,5
 1391 0ac4 AA0C      	1:	lsl r10
 1392 0ac6 BB1C      		rol r11
 1393 0ac8 CC1C      		rol r12
 1394 0aca DD1C      		rol r13
 1395 0acc BA95      		dec r27
 1396 0ace 01F4      		brne 1b
 1397 0ad0 ABE1      		ldi r26,27
 1398 0ad2 5695      	1:	lsr r21
 1399 0ad4 4795      		ror r20
 1400 0ad6 3795      		ror r19
 1401 0ad8 2795      		ror r18
 1402 0ada AA95      		dec r26
 1403 0adc 01F4      		brne 1b
 1404 0ade A22A      		or r10,r18
 1405 0ae0 B32A      		or r11,r19
 1406 0ae2 C42A      		or r12,r20
 1407 0ae4 D52A      		or r13,r21
 1408 0ae6 AE0C      		add r10,r14
 1409 0ae8 BF1C      		adc r11,r15
 1410 0aea C01E      		adc r12,r16
 1411 0aec D11E      		adc r13,r17
 1412 0aee 2DA9      		ldd r18,Y+53
 1413 0af0 3EA9      		ldd r19,Y+54
 1414 0af2 4FA9      		ldd r20,Y+55
 1415 0af4 58AD      		ldd r21,Y+56
 1416 0af6 2D5A      		subi r18,lo8(-(38016083))
 1417 0af8 3B4E      		sbci r19,hi8(-(38016083))
 1418 0afa 4B4B      		sbci r20,hlo8(-(38016083))
 1419 0afc 5D4F      		sbci r21,hhi8(-(38016083))
 1420 0afe 260D      		add r18,r6
 1421 0b00 371D      		adc r19,r7
 1422 0b02 481D      		adc r20,r8
 1423 0b04 591D      		adc r21,r9
 1424 0b06 D601      		movw r26,r12
 1425 0b08 C501      		movw r24,r10
GAS LISTING C:\DOCUME~1\ADMINI~1\LOCALS~1\Temp/cc2DDUo5.s 			page 26


 1426 0b0a 8E25      		eor r24,r14
 1427 0b0c 9F25      		eor r25,r15
 1428 0b0e A027      		eor r26,r16
 1429 0b10 B127      		eor r27,r17
 1430 0b12 8221      		and r24,r2
 1431 0b14 9321      		and r25,r3
 1432 0b16 A421      		and r26,r4
 1433 0b18 B521      		and r27,r5
 1434 0b1a 8E25      		eor r24,r14
 1435 0b1c 9F25      		eor r25,r15
 1436 0b1e A027      		eor r26,r16
 1437 0b20 B127      		eor r27,r17
 1438 0b22 280F      		add r18,r24
 1439 0b24 391F      		adc r19,r25
 1440 0b26 4A1F      		adc r20,r26
 1441 0b28 5B1F      		adc r21,r27
 1442 0b2a 3901      		movw r6,r18
 1443 0b2c 4A01      		movw r8,r20
 1444 0b2e F9E0      		ldi r31,9
 1445 0b30 660C      	1:	lsl r6
 1446 0b32 771C      		rol r7
 1447 0b34 881C      		rol r8
 1448 0b36 991C      		rol r9
 1449 0b38 FA95      		dec r31
 1450 0b3a 01F4      		brne 1b
 1451 0b3c E7E1      		ldi r30,23
 1452 0b3e 5695      	1:	lsr r21
 1453 0b40 4795      		ror r20
 1454 0b42 3795      		ror r19
 1455 0b44 2795      		ror r18
 1456 0b46 EA95      		dec r30
 1457 0b48 01F4      		brne 1b
 1458 0b4a 622A      		or r6,r18
 1459 0b4c 732A      		or r7,r19
 1460 0b4e 842A      		or r8,r20
 1461 0b50 952A      		or r9,r21
 1462 0b52 6A0C      		add r6,r10
 1463 0b54 7B1C      		adc r7,r11
 1464 0b56 8C1C      		adc r8,r12
 1465 0b58 9D1C      		adc r9,r13
 1466 0b5a 29A1      		ldd r18,Y+33
 1467 0b5c 3AA1      		ldd r19,Y+34
 1468 0b5e 4BA1      		ldd r20,Y+35
 1469 0b60 5CA1      		ldd r21,Y+36
 1470 0b62 2F57      		subi r18,lo8(-(-660478335))
 1471 0b64 3941      		sbci r19,hi8(-(-660478335))
 1472 0b66 4E45      		sbci r20,hlo8(-(-660478335))
 1473 0b68 5742      		sbci r21,hhi8(-(-660478335))
 1474 0b6a 220D      		add r18,r2
 1475 0b6c 331D      		adc r19,r3
 1476 0b6e 441D      		adc r20,r4
 1477 0b70 551D      		adc r21,r5
 1478 0b72 D401      		movw r26,r8
 1479 0b74 C301      		movw r24,r6
 1480 0b76 8A25      		eor r24,r10
 1481 0b78 9B25      		eor r25,r11
 1482 0b7a AC25      		eor r26,r12
GAS LISTING C:\DOCUME~1\ADMINI~1\LOCALS~1\Temp/cc2DDUo5.s 			page 27


 1483 0b7c BD25      		eor r27,r13
 1484 0b7e 8E21      		and r24,r14
 1485 0b80 9F21      		and r25,r15
 1486 0b82 A023      		and r26,r16
 1487 0b84 B123      		and r27,r17
 1488 0b86 8A25      		eor r24,r10
 1489 0b88 9B25      		eor r25,r11
 1490 0b8a AC25      		eor r26,r12
 1491 0b8c BD25      		eor r27,r13
 1492 0b8e 280F      		add r18,r24
 1493 0b90 391F      		adc r19,r25
 1494 0b92 4A1F      		adc r20,r26
 1495 0b94 5B1F      		adc r21,r27
 1496 0b96 1901      		movw r2,r18
 1497 0b98 2A01      		movw r4,r20
 1498 0b9a 7EE0      		ldi r23,14
 1499 0b9c 220C      	1:	lsl r2
 1500 0b9e 331C      		rol r3
 1501 0ba0 441C      		rol r4
 1502 0ba2 551C      		rol r5
 1503 0ba4 7A95      		dec r23
 1504 0ba6 01F4      		brne 1b
 1505 0ba8 62E1      		ldi r22,18
 1506 0baa 5695      	1:	lsr r21
 1507 0bac 4795      		ror r20
 1508 0bae 3795      		ror r19
 1509 0bb0 2795      		ror r18
 1510 0bb2 6A95      		dec r22
 1511 0bb4 01F4      		brne 1b
 1512 0bb6 222A      		or r2,r18
 1513 0bb8 332A      		or r3,r19
 1514 0bba 442A      		or r4,r20
 1515 0bbc 552A      		or r5,r21
 1516 0bbe 260C      		add r2,r6
 1517 0bc0 371C      		adc r3,r7
 1518 0bc2 481C      		adc r4,r8
 1519 0bc4 591C      		adc r5,r9
 1520 0bc6 6196      		adiw r28,77-60
 1521 0bc8 2CAD      		ldd r18,Y+60
 1522 0bca 3DAD      		ldd r19,Y+61
 1523 0bcc 4EAD      		ldd r20,Y+62
 1524 0bce 5FAD      		ldd r21,Y+63
 1525 0bd0 6197      		sbiw r28,77-60
 1526 0bd2 2853      		subi r18,lo8(-(-405537848))
 1527 0bd4 3440      		sbci r19,hi8(-(-405537848))
 1528 0bd6 4C42      		sbci r20,hlo8(-(-405537848))
 1529 0bd8 5841      		sbci r21,hhi8(-(-405537848))
 1530 0bda 2E0D      		add r18,r14
 1531 0bdc 3F1D      		adc r19,r15
 1532 0bde 401F      		adc r20,r16
 1533 0be0 511F      		adc r21,r17
 1534 0be2 D201      		movw r26,r4
 1535 0be4 C101      		movw r24,r2
 1536 0be6 8625      		eor r24,r6
 1537 0be8 9725      		eor r25,r7
 1538 0bea A825      		eor r26,r8
 1539 0bec B925      		eor r27,r9
GAS LISTING C:\DOCUME~1\ADMINI~1\LOCALS~1\Temp/cc2DDUo5.s 			page 28


 1540 0bee 8A21      		and r24,r10
 1541 0bf0 9B21      		and r25,r11
 1542 0bf2 AC21      		and r26,r12
 1543 0bf4 BD21      		and r27,r13
 1544 0bf6 8625      		eor r24,r6
 1545 0bf8 9725      		eor r25,r7
 1546 0bfa A825      		eor r26,r8
 1547 0bfc B925      		eor r27,r9
 1548 0bfe 280F      		add r18,r24
 1549 0c00 391F      		adc r19,r25
 1550 0c02 4A1F      		adc r20,r26
 1551 0c04 5B1F      		adc r21,r27
 1552 0c06 7901      		movw r14,r18
 1553 0c08 8A01      		movw r16,r20
 1554 0c0a 94E1      		ldi r25,20
 1555 0c0c EE0C      	1:	lsl r14
 1556 0c0e FF1C      		rol r15
 1557 0c10 001F      		rol r16
 1558 0c12 111F      		rol r17
 1559 0c14 9A95      		dec r25
 1560 0c16 01F4      		brne 1b
 1561 0c18 8CE0      		ldi r24,12
 1562 0c1a 5695      	1:	lsr r21
 1563 0c1c 4795      		ror r20
 1564 0c1e 3795      		ror r19
 1565 0c20 2795      		ror r18
 1566 0c22 8A95      		dec r24
 1567 0c24 01F4      		brne 1b
 1568 0c26 E22A      		or r14,r18
 1569 0c28 F32A      		or r15,r19
 1570 0c2a 042B      		or r16,r20
 1571 0c2c 152B      		or r17,r21
 1572 0c2e E20C      		add r14,r2
 1573 0c30 F31C      		adc r15,r3
 1574 0c32 041D      		adc r16,r4
 1575 0c34 151D      		adc r17,r5
 1576 0c36 29AD      		ldd r18,Y+57
 1577 0c38 3AAD      		ldd r19,Y+58
 1578 0c3a 4BAD      		ldd r20,Y+59
 1579 0c3c 5CAD      		ldd r21,Y+60
 1580 0c3e 2A51      		subi r18,lo8(-(568446438))
 1581 0c40 3243      		sbci r19,hi8(-(568446438))
 1582 0c42 4E41      		sbci r20,hlo8(-(568446438))
 1583 0c44 5E4D      		sbci r21,hhi8(-(568446438))
 1584 0c46 2A0D      		add r18,r10
 1585 0c48 3B1D      		adc r19,r11
 1586 0c4a 4C1D      		adc r20,r12
 1587 0c4c 5D1D      		adc r21,r13
 1588 0c4e D801      		movw r26,r16
 1589 0c50 C701      		movw r24,r14
 1590 0c52 8225      		eor r24,r2
 1591 0c54 9325      		eor r25,r3
 1592 0c56 A425      		eor r26,r4
 1593 0c58 B525      		eor r27,r5
 1594 0c5a 8621      		and r24,r6
 1595 0c5c 9721      		and r25,r7
 1596 0c5e A821      		and r26,r8
GAS LISTING C:\DOCUME~1\ADMINI~1\LOCALS~1\Temp/cc2DDUo5.s 			page 29


 1597 0c60 B921      		and r27,r9
 1598 0c62 8225      		eor r24,r2
 1599 0c64 9325      		eor r25,r3
 1600 0c66 A425      		eor r26,r4
 1601 0c68 B525      		eor r27,r5
 1602 0c6a 280F      		add r18,r24
 1603 0c6c 391F      		adc r19,r25
 1604 0c6e 4A1F      		adc r20,r26
 1605 0c70 5B1F      		adc r21,r27
 1606 0c72 5901      		movw r10,r18
 1607 0c74 6A01      		movw r12,r20
 1608 0c76 B5E0      		ldi r27,5
 1609 0c78 AA0C      	1:	lsl r10
 1610 0c7a BB1C      		rol r11
 1611 0c7c CC1C      		rol r12
 1612 0c7e DD1C      		rol r13
 1613 0c80 BA95      		dec r27
 1614 0c82 01F4      		brne 1b
 1615 0c84 ABE1      		ldi r26,27
 1616 0c86 5695      	1:	lsr r21
 1617 0c88 4795      		ror r20
 1618 0c8a 3795      		ror r19
 1619 0c8c 2795      		ror r18
 1620 0c8e AA95      		dec r26
 1621 0c90 01F4      		brne 1b
 1622 0c92 A22A      		or r10,r18
 1623 0c94 B32A      		or r11,r19
 1624 0c96 C42A      		or r12,r20
 1625 0c98 D52A      		or r13,r21
 1626 0c9a AE0C      		add r10,r14
 1627 0c9c BF1C      		adc r11,r15
 1628 0c9e C01E      		adc r12,r16
 1629 0ca0 D11E      		adc r13,r17
 1630 0ca2 2DA1      		ldd r18,Y+37
 1631 0ca4 3EA1      		ldd r19,Y+38
 1632 0ca6 4FA1      		ldd r20,Y+39
 1633 0ca8 58A5      		ldd r21,Y+40
 1634 0caa 2A52      		subi r18,lo8(-(-1019803690))
 1635 0cac 384F      		sbci r19,hi8(-(-1019803690))
 1636 0cae 484C      		sbci r20,hlo8(-(-1019803690))
 1637 0cb0 5C43      		sbci r21,hhi8(-(-1019803690))
 1638 0cb2 260D      		add r18,r6
 1639 0cb4 371D      		adc r19,r7
 1640 0cb6 481D      		adc r20,r8
 1641 0cb8 591D      		adc r21,r9
 1642 0cba D601      		movw r26,r12
 1643 0cbc C501      		movw r24,r10
 1644 0cbe 8E25      		eor r24,r14
 1645 0cc0 9F25      		eor r25,r15
 1646 0cc2 A027      		eor r26,r16
 1647 0cc4 B127      		eor r27,r17
 1648 0cc6 8221      		and r24,r2
 1649 0cc8 9321      		and r25,r3
 1650 0cca A421      		and r26,r4
 1651 0ccc B521      		and r27,r5
 1652 0cce 8E25      		eor r24,r14
 1653 0cd0 9F25      		eor r25,r15
GAS LISTING C:\DOCUME~1\ADMINI~1\LOCALS~1\Temp/cc2DDUo5.s 			page 30


 1654 0cd2 A027      		eor r26,r16
 1655 0cd4 B127      		eor r27,r17
 1656 0cd6 280F      		add r18,r24
 1657 0cd8 391F      		adc r19,r25
 1658 0cda 4A1F      		adc r20,r26
 1659 0cdc 5B1F      		adc r21,r27
 1660 0cde 3901      		movw r6,r18
 1661 0ce0 4A01      		movw r8,r20
 1662 0ce2 F9E0      		ldi r31,9
 1663 0ce4 660C      	1:	lsl r6
 1664 0ce6 771C      		rol r7
 1665 0ce8 881C      		rol r8
 1666 0cea 991C      		rol r9
 1667 0cec FA95      		dec r31
 1668 0cee 01F4      		brne 1b
 1669 0cf0 E7E1      		ldi r30,23
 1670 0cf2 5695      	1:	lsr r21
 1671 0cf4 4795      		ror r20
 1672 0cf6 3795      		ror r19
 1673 0cf8 2795      		ror r18
 1674 0cfa EA95      		dec r30
 1675 0cfc 01F4      		brne 1b
 1676 0cfe 622A      		or r6,r18
 1677 0d00 732A      		or r7,r19
 1678 0d02 842A      		or r8,r20
 1679 0d04 952A      		or r9,r21
 1680 0d06 6A0C      		add r6,r10
 1681 0d08 7B1C      		adc r7,r11
 1682 0d0a 8C1C      		adc r8,r12
 1683 0d0c 9D1C      		adc r9,r13
 1684 0d0e 6596      		adiw r28,81-60
 1685 0d10 2CAD      		ldd r18,Y+60
 1686 0d12 3DAD      		ldd r19,Y+61
 1687 0d14 4EAD      		ldd r20,Y+62
 1688 0d16 5FAD      		ldd r21,Y+63
 1689 0d18 6597      		sbiw r28,81-60
 1690 0d1a 2957      		subi r18,lo8(-(-187363961))
 1691 0d1c 324F      		sbci r19,hi8(-(-187363961))
 1692 0d1e 4A42      		sbci r20,hlo8(-(-187363961))
 1693 0d20 5B40      		sbci r21,hhi8(-(-187363961))
 1694 0d22 220D      		add r18,r2
 1695 0d24 331D      		adc r19,r3
 1696 0d26 441D      		adc r20,r4
 1697 0d28 551D      		adc r21,r5
 1698 0d2a D401      		movw r26,r8
 1699 0d2c C301      		movw r24,r6
 1700 0d2e 8A25      		eor r24,r10
 1701 0d30 9B25      		eor r25,r11
 1702 0d32 AC25      		eor r26,r12
 1703 0d34 BD25      		eor r27,r13
 1704 0d36 8E21      		and r24,r14
 1705 0d38 9F21      		and r25,r15
 1706 0d3a A023      		and r26,r16
 1707 0d3c B123      		and r27,r17
 1708 0d3e 8A25      		eor r24,r10
 1709 0d40 9B25      		eor r25,r11
 1710 0d42 AC25      		eor r26,r12
GAS LISTING C:\DOCUME~1\ADMINI~1\LOCALS~1\Temp/cc2DDUo5.s 			page 31


 1711 0d44 BD25      		eor r27,r13
 1712 0d46 280F      		add r18,r24
 1713 0d48 391F      		adc r19,r25
 1714 0d4a 4A1F      		adc r20,r26
 1715 0d4c 5B1F      		adc r21,r27
 1716 0d4e 1901      		movw r2,r18
 1717 0d50 2A01      		movw r4,r20
 1718 0d52 7EE0      		ldi r23,14
 1719 0d54 220C      	1:	lsl r2
 1720 0d56 331C      		rol r3
 1721 0d58 441C      		rol r4
 1722 0d5a 551C      		rol r5
 1723 0d5c 7A95      		dec r23
 1724 0d5e 01F4      		brne 1b
 1725 0d60 62E1      		ldi r22,18
 1726 0d62 5695      	1:	lsr r21
 1727 0d64 4795      		ror r20
 1728 0d66 3795      		ror r19
 1729 0d68 2795      		ror r18
 1730 0d6a 6A95      		dec r22
 1731 0d6c 01F4      		brne 1b
 1732 0d6e 222A      		or r2,r18
 1733 0d70 332A      		or r3,r19
 1734 0d72 442A      		or r4,r20
 1735 0d74 552A      		or r5,r21
 1736 0d76 260C      		add r2,r6
 1737 0d78 371C      		adc r3,r7
 1738 0d7a 481C      		adc r4,r8
 1739 0d7c 591C      		adc r5,r9
 1740 0d7e 2196      		adiw r28,61-60
 1741 0d80 2CAD      		ldd r18,Y+60
 1742 0d82 3DAD      		ldd r19,Y+61
 1743 0d84 4EAD      		ldd r20,Y+62
 1744 0d86 5FAD      		ldd r21,Y+63
 1745 0d88 2197      		sbiw r28,61-60
 1746 0d8a 2351      		subi r18,lo8(-(1163531501))
 1747 0d8c 3B4E      		sbci r19,hi8(-(1163531501))
 1748 0d8e 454A      		sbci r20,hlo8(-(1163531501))
 1749 0d90 5A4B      		sbci r21,hhi8(-(1163531501))
 1750 0d92 2E0D      		add r18,r14
 1751 0d94 3F1D      		adc r19,r15
 1752 0d96 401F      		adc r20,r16
 1753 0d98 511F      		adc r21,r17
 1754 0d9a D201      		movw r26,r4
 1755 0d9c C101      		movw r24,r2
 1756 0d9e 8625      		eor r24,r6
 1757 0da0 9725      		eor r25,r7
 1758 0da2 A825      		eor r26,r8
 1759 0da4 B925      		eor r27,r9
 1760 0da6 8A21      		and r24,r10
 1761 0da8 9B21      		and r25,r11
 1762 0daa AC21      		and r26,r12
 1763 0dac BD21      		and r27,r13
 1764 0dae 8625      		eor r24,r6
 1765 0db0 9725      		eor r25,r7
 1766 0db2 A825      		eor r26,r8
 1767 0db4 B925      		eor r27,r9
GAS LISTING C:\DOCUME~1\ADMINI~1\LOCALS~1\Temp/cc2DDUo5.s 			page 32


 1768 0db6 280F      		add r18,r24
 1769 0db8 391F      		adc r19,r25
 1770 0dba 4A1F      		adc r20,r26
 1771 0dbc 5B1F      		adc r21,r27
 1772 0dbe 7901      		movw r14,r18
 1773 0dc0 8A01      		movw r16,r20
 1774 0dc2 94E1      		ldi r25,20
 1775 0dc4 EE0C      	1:	lsl r14
 1776 0dc6 FF1C      		rol r15
 1777 0dc8 001F      		rol r16
 1778 0dca 111F      		rol r17
 1779 0dcc 9A95      		dec r25
 1780 0dce 01F4      		brne 1b
 1781 0dd0 8CE0      		ldi r24,12
 1782 0dd2 5695      	1:	lsr r21
 1783 0dd4 4795      		ror r20
 1784 0dd6 3795      		ror r19
 1785 0dd8 2795      		ror r18
 1786 0dda 8A95      		dec r24
 1787 0ddc 01F4      		brne 1b
 1788 0dde E22A      		or r14,r18
 1789 0de0 F32A      		or r15,r19
 1790 0de2 042B      		or r16,r20
 1791 0de4 152B      		or r17,r21
 1792 0de6 E20C      		add r14,r2
 1793 0de8 F31C      		adc r15,r3
 1794 0dea 041D      		adc r16,r4
 1795 0dec 151D      		adc r17,r5
 1796 0dee E98A      		std Y+17,r14
 1797 0df0 FA8A      		std Y+18,r15
 1798 0df2 0B8B      		std Y+19,r16
 1799 0df4 1C8B      		std Y+20,r17
 1800 0df6 29A5      		ldd r18,Y+41
 1801 0df8 3AA5      		ldd r19,Y+42
 1802 0dfa 4BA5      		ldd r20,Y+43
 1803 0dfc 5CA5      		ldd r21,Y+44
 1804 0dfe 2B5F      		subi r18,lo8(-(-1444681467))
 1805 0e00 3641      		sbci r19,hi8(-(-1444681467))
 1806 0e02 4C41      		sbci r20,hlo8(-(-1444681467))
 1807 0e04 5645      		sbci r21,hhi8(-(-1444681467))
 1808 0e06 2A0D      		add r18,r10
 1809 0e08 3B1D      		adc r19,r11
 1810 0e0a 4C1D      		adc r20,r12
 1811 0e0c 5D1D      		adc r21,r13
 1812 0e0e D801      		movw r26,r16
 1813 0e10 C701      		movw r24,r14
 1814 0e12 8225      		eor r24,r2
 1815 0e14 9325      		eor r25,r3
 1816 0e16 A425      		eor r26,r4
 1817 0e18 B525      		eor r27,r5
 1818 0e1a 8621      		and r24,r6
 1819 0e1c 9721      		and r25,r7
 1820 0e1e A821      		and r26,r8
 1821 0e20 B921      		and r27,r9
 1822 0e22 8225      		eor r24,r2
 1823 0e24 9325      		eor r25,r3
 1824 0e26 A425      		eor r26,r4
GAS LISTING C:\DOCUME~1\ADMINI~1\LOCALS~1\Temp/cc2DDUo5.s 			page 33


 1825 0e28 B525      		eor r27,r5
 1826 0e2a 280F      		add r18,r24
 1827 0e2c 391F      		adc r19,r25
 1828 0e2e 4A1F      		adc r20,r26
 1829 0e30 5B1F      		adc r21,r27
 1830 0e32 7901      		movw r14,r18
 1831 0e34 8A01      		movw r16,r20
 1832 0e36 B5E0      		ldi r27,5
 1833 0e38 EE0C      	1:	lsl r14
 1834 0e3a FF1C      		rol r15
 1835 0e3c 001F      		rol r16
 1836 0e3e 111F      		rol r17
 1837 0e40 BA95      		dec r27
 1838 0e42 01F4      		brne 1b
 1839 0e44 ABE1      		ldi r26,27
 1840 0e46 5695      	1:	lsr r21
 1841 0e48 4795      		ror r20
 1842 0e4a 3795      		ror r19
 1843 0e4c 2795      		ror r18
 1844 0e4e AA95      		dec r26
 1845 0e50 01F4      		brne 1b
 1846 0e52 E22A      		or r14,r18
 1847 0e54 F32A      		or r15,r19
 1848 0e56 042B      		or r16,r20
 1849 0e58 152B      		or r17,r21
 1850 0e5a 2989      		ldd r18,Y+17
 1851 0e5c 3A89      		ldd r19,Y+18
 1852 0e5e 4B89      		ldd r20,Y+19
 1853 0e60 5C89      		ldd r21,Y+20
 1854 0e62 E20E      		add r14,r18
 1855 0e64 F31E      		adc r15,r19
 1856 0e66 041F      		adc r16,r20
 1857 0e68 151F      		adc r17,r21
 1858 0e6a 6996      		adiw r28,85-60
 1859 0e6c 2CAD      		ldd r18,Y+60
 1860 0e6e 3DAD      		ldd r19,Y+61
 1861 0e70 4EAD      		ldd r20,Y+62
 1862 0e72 5FAD      		ldd r21,Y+63
 1863 0e74 6997      		sbiw r28,85-60
 1864 0e76 2850      		subi r18,lo8(-(-51403784))
 1865 0e78 3C45      		sbci r19,hi8(-(-51403784))
 1866 0e7a 4041      		sbci r20,hlo8(-(-51403784))
 1867 0e7c 5340      		sbci r21,hhi8(-(-51403784))
 1868 0e7e 260D      		add r18,r6
 1869 0e80 371D      		adc r19,r7
 1870 0e82 481D      		adc r20,r8
 1871 0e84 591D      		adc r21,r9
 1872 0e86 8989      		ldd r24,Y+17
 1873 0e88 9A89      		ldd r25,Y+18
 1874 0e8a AB89      		ldd r26,Y+19
 1875 0e8c BC89      		ldd r27,Y+20
 1876 0e8e 8E25      		eor r24,r14
 1877 0e90 9F25      		eor r25,r15
 1878 0e92 A027      		eor r26,r16
 1879 0e94 B127      		eor r27,r17
 1880 0e96 8221      		and r24,r2
 1881 0e98 9321      		and r25,r3
GAS LISTING C:\DOCUME~1\ADMINI~1\LOCALS~1\Temp/cc2DDUo5.s 			page 34


 1882 0e9a A421      		and r26,r4
 1883 0e9c B521      		and r27,r5
 1884 0e9e 6988      		ldd r6,Y+17
 1885 0ea0 7A88      		ldd r7,Y+18
 1886 0ea2 8B88      		ldd r8,Y+19
 1887 0ea4 9C88      		ldd r9,Y+20
 1888 0ea6 8625      		eor r24,r6
 1889 0ea8 9725      		eor r25,r7
 1890 0eaa A825      		eor r26,r8
 1891 0eac B925      		eor r27,r9
 1892 0eae 280F      		add r18,r24
 1893 0eb0 391F      		adc r19,r25
 1894 0eb2 4A1F      		adc r20,r26
 1895 0eb4 5B1F      		adc r21,r27
 1896 0eb6 4901      		movw r8,r18
 1897 0eb8 5A01      		movw r10,r20
 1898 0eba F9E0      		ldi r31,9
 1899 0ebc 880C      	1:	lsl r8
 1900 0ebe 991C      		rol r9
 1901 0ec0 AA1C      		rol r10
 1902 0ec2 BB1C      		rol r11
 1903 0ec4 FA95      		dec r31
 1904 0ec6 01F4      		brne 1b
 1905 0ec8 E7E1      		ldi r30,23
 1906 0eca 5695      	1:	lsr r21
 1907 0ecc 4795      		ror r20
 1908 0ece 3795      		ror r19
 1909 0ed0 2795      		ror r18
 1910 0ed2 EA95      		dec r30
 1911 0ed4 01F4      		brne 1b
 1912 0ed6 822A      		or r8,r18
 1913 0ed8 932A      		or r9,r19
 1914 0eda A42A      		or r10,r20
 1915 0edc B52A      		or r11,r21
 1916 0ede 8E0C      		add r8,r14
 1917 0ee0 9F1C      		adc r9,r15
 1918 0ee2 A01E      		adc r10,r16
 1919 0ee4 B11E      		adc r11,r17
 1920 0ee6 8D86      		std Y+13,r8
 1921 0ee8 9E86      		std Y+14,r9
 1922 0eea AF86      		std Y+15,r10
 1923 0eec B88A      		std Y+16,r11
 1924 0eee 2596      		adiw r28,65-60
 1925 0ef0 2CAD      		ldd r18,Y+60
 1926 0ef2 3DAD      		ldd r19,Y+61
 1927 0ef4 4EAD      		ldd r20,Y+62
 1928 0ef6 5FAD      		ldd r21,Y+63
 1929 0ef8 2597      		sbiw r28,65-60
 1930 0efa 2752      		subi r18,lo8(-(1735328473))
 1931 0efc 3D4F      		sbci r19,hi8(-(1735328473))
 1932 0efe 4049      		sbci r20,hlo8(-(1735328473))
 1933 0f00 5849      		sbci r21,hhi8(-(1735328473))
 1934 0f02 220D      		add r18,r2
 1935 0f04 331D      		adc r19,r3
 1936 0f06 441D      		adc r20,r4
 1937 0f08 551D      		adc r21,r5
 1938 0f0a D501      		movw r26,r10
GAS LISTING C:\DOCUME~1\ADMINI~1\LOCALS~1\Temp/cc2DDUo5.s 			page 35


 1939 0f0c C401      		movw r24,r8
 1940 0f0e 8E25      		eor r24,r14
 1941 0f10 9F25      		eor r25,r15
 1942 0f12 A027      		eor r26,r16
 1943 0f14 B127      		eor r27,r17
 1944 0f16 A988      		ldd r10,Y+17
 1945 0f18 BA88      		ldd r11,Y+18
 1946 0f1a CB88      		ldd r12,Y+19
 1947 0f1c DC88      		ldd r13,Y+20
 1948 0f1e 8A21      		and r24,r10
 1949 0f20 9B21      		and r25,r11
 1950 0f22 AC21      		and r26,r12
 1951 0f24 BD21      		and r27,r13
 1952 0f26 8E25      		eor r24,r14
 1953 0f28 9F25      		eor r25,r15
 1954 0f2a A027      		eor r26,r16
 1955 0f2c B127      		eor r27,r17
 1956 0f2e 280F      		add r18,r24
 1957 0f30 391F      		adc r19,r25
 1958 0f32 4A1F      		adc r20,r26
 1959 0f34 5B1F      		adc r21,r27
 1960 0f36 DA01      		movw r26,r20
 1961 0f38 C901      		movw r24,r18
 1962 0f3a 7EE0      		ldi r23,14
 1963 0f3c 880F      	1:	lsl r24
 1964 0f3e 991F      		rol r25
 1965 0f40 AA1F      		rol r26
 1966 0f42 BB1F      		rol r27
 1967 0f44 7A95      		dec r23
 1968 0f46 01F4      		brne 1b
 1969 0f48 62E1      		ldi r22,18
 1970 0f4a 5695      	1:	lsr r21
 1971 0f4c 4795      		ror r20
 1972 0f4e 3795      		ror r19
 1973 0f50 2795      		ror r18
 1974 0f52 6A95      		dec r22
 1975 0f54 01F4      		brne 1b
 1976 0f56 822B      		or r24,r18
 1977 0f58 932B      		or r25,r19
 1978 0f5a A42B      		or r26,r20
 1979 0f5c B52B      		or r27,r21
 1980 0f5e 6D84      		ldd r6,Y+13
 1981 0f60 7E84      		ldd r7,Y+14
 1982 0f62 8F84      		ldd r8,Y+15
 1983 0f64 9888      		ldd r9,Y+16
 1984 0f66 860D      		add r24,r6
 1985 0f68 971D      		adc r25,r7
 1986 0f6a A81D      		adc r26,r8
 1987 0f6c B91D      		adc r27,r9
 1988 0f6e 8987      		std Y+9,r24
 1989 0f70 9A87      		std Y+10,r25
 1990 0f72 AB87      		std Y+11,r26
 1991 0f74 BC87      		std Y+12,r27
 1992 0f76 3C01      		movw r6,r24
 1993 0f78 4D01      		movw r8,r26
 1994 0f7a AD84      		ldd r10,Y+13
 1995 0f7c BE84      		ldd r11,Y+14
GAS LISTING C:\DOCUME~1\ADMINI~1\LOCALS~1\Temp/cc2DDUo5.s 			page 36


 1996 0f7e CF84      		ldd r12,Y+15
 1997 0f80 D888      		ldd r13,Y+16
 1998 0f82 6A24      		eor r6,r10
 1999 0f84 7B24      		eor r7,r11
 2000 0f86 8C24      		eor r8,r12
 2001 0f88 9D24      		eor r9,r13
 2002 0f8a 2DA5      		ldd r18,Y+45
 2003 0f8c 3EA5      		ldd r19,Y+46
 2004 0f8e 4FA5      		ldd r20,Y+47
 2005 0f90 58A9      		ldd r21,Y+48
 2006 0f92 2657      		subi r18,lo8(-(-1926607734))
 2007 0f94 334B      		sbci r19,hi8(-(-1926607734))
 2008 0f96 454D      		sbci r20,hlo8(-(-1926607734))
 2009 0f98 5247      		sbci r21,hhi8(-(-1926607734))
 2010 0f9a 8989      		ldd r24,Y+17
 2011 0f9c 9A89      		ldd r25,Y+18
 2012 0f9e AB89      		ldd r26,Y+19
 2013 0fa0 BC89      		ldd r27,Y+20
 2014 0fa2 280F      		add r18,r24
 2015 0fa4 391F      		adc r19,r25
 2016 0fa6 4A1F      		adc r20,r26
 2017 0fa8 5B1F      		adc r21,r27
 2018 0faa D401      		movw r26,r8
 2019 0fac C301      		movw r24,r6
 2020 0fae 8E21      		and r24,r14
 2021 0fb0 9F21      		and r25,r15
 2022 0fb2 A023      		and r26,r16
 2023 0fb4 B123      		and r27,r17
 2024 0fb6 8A25      		eor r24,r10
 2025 0fb8 9B25      		eor r25,r11
 2026 0fba AC25      		eor r26,r12
 2027 0fbc BD25      		eor r27,r13
 2028 0fbe 280F      		add r18,r24
 2029 0fc0 391F      		adc r19,r25
 2030 0fc2 4A1F      		adc r20,r26
 2031 0fc4 5B1F      		adc r21,r27
 2032 0fc6 5901      		movw r10,r18
 2033 0fc8 6A01      		movw r12,r20
 2034 0fca B4E1      		ldi r27,20
 2035 0fcc AA0C      	1:	lsl r10
 2036 0fce BB1C      		rol r11
 2037 0fd0 CC1C      		rol r12
 2038 0fd2 DD1C      		rol r13
 2039 0fd4 BA95      		dec r27
 2040 0fd6 01F4      		brne 1b
 2041 0fd8 ACE0      		ldi r26,12
 2042 0fda 5695      	1:	lsr r21
 2043 0fdc 4795      		ror r20
 2044 0fde 3795      		ror r19
 2045 0fe0 2795      		ror r18
 2046 0fe2 AA95      		dec r26
 2047 0fe4 01F4      		brne 1b
 2048 0fe6 A22A      		or r10,r18
 2049 0fe8 B32A      		or r11,r19
 2050 0fea C42A      		or r12,r20
 2051 0fec D52A      		or r13,r21
 2052 0fee 2985      		ldd r18,Y+9
GAS LISTING C:\DOCUME~1\ADMINI~1\LOCALS~1\Temp/cc2DDUo5.s 			page 37


 2053 0ff0 3A85      		ldd r19,Y+10
 2054 0ff2 4B85      		ldd r20,Y+11
 2055 0ff4 5C85      		ldd r21,Y+12
 2056 0ff6 A20E      		add r10,r18
 2057 0ff8 B31E      		adc r11,r19
 2058 0ffa C41E      		adc r12,r20
 2059 0ffc D51E      		adc r13,r21
 2060 0ffe 2D96      		adiw r28,73-60
 2061 1000 8CAD      		ldd r24,Y+60
 2062 1002 9DAD      		ldd r25,Y+61
 2063 1004 AEAD      		ldd r26,Y+62
 2064 1006 BFAD      		ldd r27,Y+63
 2065 1008 2D97      		sbiw r28,73-60
 2066 100a 8E5B      		subi r24,lo8(-(-378558))
 2067 100c 964C      		sbci r25,hi8(-(-378558))
 2068 100e A540      		sbci r26,hlo8(-(-378558))
 2069 1010 B040      		sbci r27,hhi8(-(-378558))
 2070 1012 2D96      		adiw r28,73-60
 2071 1014 8CAF      		std Y+60,r24
 2072 1016 9DAF      		std Y+61,r25
 2073 1018 AEAF      		std Y+62,r26
 2074 101a BFAF      		std Y+63,r27
 2075 101c 2D97      		sbiw r28,73-60
 2076 101e 8E0D      		add r24,r14
 2077 1020 9F1D      		adc r25,r15
 2078 1022 A01F      		adc r26,r16
 2079 1024 B11F      		adc r27,r17
 2080 1026 6A24      		eor r6,r10
 2081 1028 7B24      		eor r7,r11
 2082 102a 8C24      		eor r8,r12
 2083 102c 9D24      		eor r9,r13
 2084 102e 860D      		add r24,r6
 2085 1030 971D      		adc r25,r7
 2086 1032 A81D      		adc r26,r8
 2087 1034 B91D      		adc r27,r9
 2088 1036 3C01      		movw r6,r24
 2089 1038 4D01      		movw r8,r26
 2090 103a F4E0      		ldi r31,4
 2091 103c 660C      	1:	lsl r6
 2092 103e 771C      		rol r7
 2093 1040 881C      		rol r8
 2094 1042 991C      		rol r9
 2095 1044 FA95      		dec r31
 2096 1046 01F4      		brne 1b
 2097 1048 ECE1      		ldi r30,28
 2098 104a B695      	1:	lsr r27
 2099 104c A795      		ror r26
 2100 104e 9795      		ror r25
 2101 1050 8795      		ror r24
 2102 1052 EA95      		dec r30
 2103 1054 01F4      		brne 1b
 2104 1056 682A      		or r6,r24
 2105 1058 792A      		or r7,r25
 2106 105a 8A2A      		or r8,r26
 2107 105c 9B2A      		or r9,r27
 2108 105e 6A0C      		add r6,r10
 2109 1060 7B1C      		adc r7,r11
GAS LISTING C:\DOCUME~1\ADMINI~1\LOCALS~1\Temp/cc2DDUo5.s 			page 38


 2110 1062 8C1C      		adc r8,r12
 2111 1064 9D1C      		adc r9,r13
 2112 1066 2196      		adiw r28,61-60
 2113 1068 0CAD      		ldd r16,Y+60
 2114 106a 1DAD      		ldd r17,Y+61
 2115 106c 2EAD      		ldd r18,Y+62
 2116 106e 3FAD      		ldd r19,Y+63
 2117 1070 2197      		sbiw r28,61-60
 2118 1072 0F57      		subi r16,lo8(-(-2022574463))
 2119 1074 1940      		sbci r17,hi8(-(-2022574463))
 2120 1076 2E48      		sbci r18,hlo8(-(-2022574463))
 2121 1078 3847      		sbci r19,hhi8(-(-2022574463))
 2122 107a 2196      		adiw r28,61-60
 2123 107c 0CAF      		std Y+60,r16
 2124 107e 1DAF      		std Y+61,r17
 2125 1080 2EAF      		std Y+62,r18
 2126 1082 3FAF      		std Y+63,r19
 2127 1084 2197      		sbiw r28,61-60
 2128 1086 A901      		movw r20,r18
 2129 1088 9801      		movw r18,r16
 2130 108a 8D85      		ldd r24,Y+13
 2131 108c 9E85      		ldd r25,Y+14
 2132 108e AF85      		ldd r26,Y+15
 2133 1090 B889      		ldd r27,Y+16
 2134 1092 280F      		add r18,r24
 2135 1094 391F      		adc r19,r25
 2136 1096 4A1F      		adc r20,r26
 2137 1098 5B1F      		adc r21,r27
 2138 109a 8985      		ldd r24,Y+9
 2139 109c 9A85      		ldd r25,Y+10
 2140 109e AB85      		ldd r26,Y+11
 2141 10a0 BC85      		ldd r27,Y+12
 2142 10a2 8A25      		eor r24,r10
 2143 10a4 9B25      		eor r25,r11
 2144 10a6 AC25      		eor r26,r12
 2145 10a8 BD25      		eor r27,r13
 2146 10aa 8625      		eor r24,r6
 2147 10ac 9725      		eor r25,r7
 2148 10ae A825      		eor r26,r8
 2149 10b0 B925      		eor r27,r9
 2150 10b2 280F      		add r18,r24
 2151 10b4 391F      		adc r19,r25
 2152 10b6 4A1F      		adc r20,r26
 2153 10b8 5B1F      		adc r21,r27
 2154 10ba 1901      		movw r2,r18
 2155 10bc 2A01      		movw r4,r20
 2156 10be 7BE0      		ldi r23,11
 2157 10c0 220C      	1:	lsl r2
 2158 10c2 331C      		rol r3
 2159 10c4 441C      		rol r4
 2160 10c6 551C      		rol r5
 2161 10c8 7A95      		dec r23
 2162 10ca 01F4      		brne 1b
 2163 10cc 65E1      		ldi r22,21
 2164 10ce 5695      	1:	lsr r21
 2165 10d0 4795      		ror r20
 2166 10d2 3795      		ror r19
GAS LISTING C:\DOCUME~1\ADMINI~1\LOCALS~1\Temp/cc2DDUo5.s 			page 39


 2167 10d4 2795      		ror r18
 2168 10d6 6A95      		dec r22
 2169 10d8 01F4      		brne 1b
 2170 10da 222A      		or r2,r18
 2171 10dc 332A      		or r3,r19
 2172 10de 442A      		or r4,r20
 2173 10e0 552A      		or r5,r21
 2174 10e2 260C      		add r2,r6
 2175 10e4 371C      		adc r3,r7
 2176 10e6 481C      		adc r4,r8
 2177 10e8 591C      		adc r5,r9
 2178 10ea 09A9      		ldd r16,Y+49
 2179 10ec 1AA9      		ldd r17,Y+50
 2180 10ee 2BA9      		ldd r18,Y+51
 2181 10f0 3CA9      		ldd r19,Y+52
 2182 10f2 0E5D      		subi r16,lo8(-(1839030562))
 2183 10f4 1E49      		sbci r17,hi8(-(1839030562))
 2184 10f6 2246      		sbci r18,hlo8(-(1839030562))
 2185 10f8 3249      		sbci r19,hhi8(-(1839030562))
 2186 10fa 09AB      		std Y+49,r16
 2187 10fc 1AAB      		std Y+50,r17
 2188 10fe 2BAB      		std Y+51,r18
 2189 1100 3CAB      		std Y+52,r19
 2190 1102 7801      		movw r14,r16
 2191 1104 8901      		movw r16,r18
 2192 1106 2985      		ldd r18,Y+9
 2193 1108 3A85      		ldd r19,Y+10
 2194 110a 4B85      		ldd r20,Y+11
 2195 110c 5C85      		ldd r21,Y+12
 2196 110e E20E      		add r14,r18
 2197 1110 F31E      		adc r15,r19
 2198 1112 041F      		adc r16,r20
 2199 1114 151F      		adc r17,r21
 2200 1116 D401      		movw r26,r8
 2201 1118 C301      		movw r24,r6
 2202 111a 8A25      		eor r24,r10
 2203 111c 9B25      		eor r25,r11
 2204 111e AC25      		eor r26,r12
 2205 1120 BD25      		eor r27,r13
 2206 1122 8225      		eor r24,r2
 2207 1124 9325      		eor r25,r3
 2208 1126 A425      		eor r26,r4
 2209 1128 B525      		eor r27,r5
 2210 112a E80E      		add r14,r24
 2211 112c F91E      		adc r15,r25
 2212 112e 0A1F      		adc r16,r26
 2213 1130 1B1F      		adc r17,r27
 2214 1132 C801      		movw r24,r16
 2215 1134 AA27      		clr r26
 2216 1136 BB27      		clr r27
 2217 1138 8701      		movw r16,r14
 2218 113a FF24      		clr r15
 2219 113c EE24      		clr r14
 2220 113e E82A      		or r14,r24
 2221 1140 F92A      		or r15,r25
 2222 1142 0A2B      		or r16,r26
 2223 1144 1B2B      		or r17,r27
GAS LISTING C:\DOCUME~1\ADMINI~1\LOCALS~1\Temp/cc2DDUo5.s 			page 40


 2224 1146 E20C      		add r14,r2
 2225 1148 F31C      		adc r15,r3
 2226 114a 041D      		adc r16,r4
 2227 114c 151D      		adc r17,r5
 2228 114e 8DA1      		ldd r24,Y+37
 2229 1150 9EA1      		ldd r25,Y+38
 2230 1152 AFA1      		ldd r26,Y+39
 2231 1154 B8A5      		ldd r27,Y+40
 2232 1156 845F      		subi r24,lo8(-(-35309556))
 2233 1158 974C      		sbci r25,hi8(-(-35309556))
 2234 115a AA41      		sbci r26,hlo8(-(-35309556))
 2235 115c B240      		sbci r27,hhi8(-(-35309556))
 2236 115e 8DA3      		std Y+37,r24
 2237 1160 9EA3      		std Y+38,r25
 2238 1162 AFA3      		std Y+39,r26
 2239 1164 B8A7      		std Y+40,r27
 2240 1166 9C01      		movw r18,r24
 2241 1168 AD01      		movw r20,r26
 2242 116a 2A0D      		add r18,r10
 2243 116c 3B1D      		adc r19,r11
 2244 116e 4C1D      		adc r20,r12
 2245 1170 5D1D      		adc r21,r13
 2246 1172 D201      		movw r26,r4
 2247 1174 C101      		movw r24,r2
 2248 1176 8625      		eor r24,r6
 2249 1178 9725      		eor r25,r7
 2250 117a A825      		eor r26,r8
 2251 117c B925      		eor r27,r9
 2252 117e 8E25      		eor r24,r14
 2253 1180 9F25      		eor r25,r15
 2254 1182 A027      		eor r26,r16
 2255 1184 B127      		eor r27,r17
 2256 1186 280F      		add r18,r24
 2257 1188 391F      		adc r19,r25
 2258 118a 4A1F      		adc r20,r26
 2259 118c 5B1F      		adc r21,r27
 2260 118e 5901      		movw r10,r18
 2261 1190 6A01      		movw r12,r20
 2262 1192 B7E1      		ldi r27,23
 2263 1194 AA0C      	1:	lsl r10
 2264 1196 BB1C      		rol r11
 2265 1198 CC1C      		rol r12
 2266 119a DD1C      		rol r13
 2267 119c BA95      		dec r27
 2268 119e 01F4      		brne 1b
 2269 11a0 A9E0      		ldi r26,9
 2270 11a2 5695      	1:	lsr r21
 2271 11a4 4795      		ror r20
 2272 11a6 3795      		ror r19
 2273 11a8 2795      		ror r18
 2274 11aa AA95      		dec r26
 2275 11ac 01F4      		brne 1b
 2276 11ae A22A      		or r10,r18
 2277 11b0 B32A      		or r11,r19
 2278 11b2 C42A      		or r12,r20
 2279 11b4 D52A      		or r13,r21
 2280 11b6 AE0C      		add r10,r14
GAS LISTING C:\DOCUME~1\ADMINI~1\LOCALS~1\Temp/cc2DDUo5.s 			page 41


 2281 11b8 BF1C      		adc r11,r15
 2282 11ba C01E      		adc r12,r16
 2283 11bc D11E      		adc r13,r17
 2284 11be 6D96      		adiw r28,89-60
 2285 11c0 2CAD      		ldd r18,Y+60
 2286 11c2 3DAD      		ldd r19,Y+61
 2287 11c4 4EAD      		ldd r20,Y+62
 2288 11c6 5FAD      		ldd r21,Y+63
 2289 11c8 6D97      		sbiw r28,89-60
 2290 11ca 2C5B      		subi r18,lo8(-(-1530992060))
 2291 11cc 3541      		sbci r19,hi8(-(-1530992060))
 2292 11ce 4144      		sbci r20,hlo8(-(-1530992060))
 2293 11d0 5B45      		sbci r21,hhi8(-(-1530992060))
 2294 11d2 6D96      		adiw r28,89-60
 2295 11d4 2CAF      		std Y+60,r18
 2296 11d6 3DAF      		std Y+61,r19
 2297 11d8 4EAF      		std Y+62,r20
 2298 11da 5FAF      		std Y+63,r21
 2299 11dc 6D97      		sbiw r28,89-60
 2300 11de 260D      		add r18,r6
 2301 11e0 371D      		adc r19,r7
 2302 11e2 481D      		adc r20,r8
 2303 11e4 591D      		adc r21,r9
 2304 11e6 D801      		movw r26,r16
 2305 11e8 C701      		movw r24,r14
 2306 11ea 8225      		eor r24,r2
 2307 11ec 9325      		eor r25,r3
 2308 11ee A425      		eor r26,r4
 2309 11f0 B525      		eor r27,r5
 2310 11f2 8A25      		eor r24,r10
 2311 11f4 9B25      		eor r25,r11
 2312 11f6 AC25      		eor r26,r12
 2313 11f8 BD25      		eor r27,r13
 2314 11fa 280F      		add r18,r24
 2315 11fc 391F      		adc r19,r25
 2316 11fe 4A1F      		adc r20,r26
 2317 1200 5B1F      		adc r21,r27
 2318 1202 3901      		movw r6,r18
 2319 1204 4A01      		movw r8,r20
 2320 1206 F4E0      		ldi r31,4
 2321 1208 660C      	1:	lsl r6
 2322 120a 771C      		rol r7
 2323 120c 881C      		rol r8
 2324 120e 991C      		rol r9
 2325 1210 FA95      		dec r31
 2326 1212 01F4      		brne 1b
 2327 1214 ECE1      		ldi r30,28
 2328 1216 5695      	1:	lsr r21
 2329 1218 4795      		ror r20
 2330 121a 3795      		ror r19
 2331 121c 2795      		ror r18
 2332 121e EA95      		dec r30
 2333 1220 01F4      		brne 1b
 2334 1222 622A      		or r6,r18
 2335 1224 732A      		or r7,r19
 2336 1226 842A      		or r8,r20
 2337 1228 952A      		or r9,r21
GAS LISTING C:\DOCUME~1\ADMINI~1\LOCALS~1\Temp/cc2DDUo5.s 			page 42


 2338 122a 6A0C      		add r6,r10
 2339 122c 7B1C      		adc r7,r11
 2340 122e 8C1C      		adc r8,r12
 2341 1230 9D1C      		adc r9,r13
 2342 1232 6196      		adiw r28,77-60
 2343 1234 8CAD      		ldd r24,Y+60
 2344 1236 9DAD      		ldd r25,Y+61
 2345 1238 AEAD      		ldd r26,Y+62
 2346 123a BFAD      		ldd r27,Y+63
 2347 123c 6197      		sbiw r28,77-60
 2348 123e 8755      		subi r24,lo8(-(1272893353))
 2349 1240 9043      		sbci r25,hi8(-(1272893353))
 2350 1242 A142      		sbci r26,hlo8(-(1272893353))
 2351 1244 B44B      		sbci r27,hhi8(-(1272893353))
 2352 1246 6196      		adiw r28,77-60
 2353 1248 8CAF      		std Y+60,r24
 2354 124a 9DAF      		std Y+61,r25
 2355 124c AEAF      		std Y+62,r26
 2356 124e BFAF      		std Y+63,r27
 2357 1250 6197      		sbiw r28,77-60
 2358 1252 9C01      		movw r18,r24
 2359 1254 AD01      		movw r20,r26
 2360 1256 220D      		add r18,r2
 2361 1258 331D      		adc r19,r3
 2362 125a 441D      		adc r20,r4
 2363 125c 551D      		adc r21,r5
 2364 125e D601      		movw r26,r12
 2365 1260 C501      		movw r24,r10
 2366 1262 8E25      		eor r24,r14
 2367 1264 9F25      		eor r25,r15
 2368 1266 A027      		eor r26,r16
 2369 1268 B127      		eor r27,r17
 2370 126a 8625      		eor r24,r6
 2371 126c 9725      		eor r25,r7
 2372 126e A825      		eor r26,r8
 2373 1270 B925      		eor r27,r9
 2374 1272 280F      		add r18,r24
 2375 1274 391F      		adc r19,r25
 2376 1276 4A1F      		adc r20,r26
 2377 1278 5B1F      		adc r21,r27
 2378 127a 1901      		movw r2,r18
 2379 127c 2A01      		movw r4,r20
 2380 127e 7BE0      		ldi r23,11
 2381 1280 220C      	1:	lsl r2
 2382 1282 331C      		rol r3
 2383 1284 441C      		rol r4
 2384 1286 551C      		rol r5
 2385 1288 7A95      		dec r23
 2386 128a 01F4      		brne 1b
 2387 128c 65E1      		ldi r22,21
 2388 128e 5695      	1:	lsr r21
 2389 1290 4795      		ror r20
 2390 1292 3795      		ror r19
 2391 1294 2795      		ror r18
 2392 1296 6A95      		dec r22
 2393 1298 01F4      		brne 1b
 2394 129a 222A      		or r2,r18
GAS LISTING C:\DOCUME~1\ADMINI~1\LOCALS~1\Temp/cc2DDUo5.s 			page 43


 2395 129c 332A      		or r3,r19
 2396 129e 442A      		or r4,r20
 2397 12a0 552A      		or r5,r21
 2398 12a2 260C      		add r2,r6
 2399 12a4 371C      		adc r3,r7
 2400 12a6 481C      		adc r4,r8
 2401 12a8 591C      		adc r5,r9
 2402 12aa 2596      		adiw r28,65-60
 2403 12ac 2CAD      		ldd r18,Y+60
 2404 12ae 3DAD      		ldd r19,Y+61
 2405 12b0 4EAD      		ldd r20,Y+62
 2406 12b2 5FAD      		ldd r21,Y+63
 2407 12b4 2597      		sbiw r28,65-60
 2408 12b6 205A      		subi r18,lo8(-(-155497632))
 2409 12b8 344B      		sbci r19,hi8(-(-155497632))
 2410 12ba 4444      		sbci r20,hlo8(-(-155497632))
 2411 12bc 5940      		sbci r21,hhi8(-(-155497632))
 2412 12be 2596      		adiw r28,65-60
 2413 12c0 2CAF      		std Y+60,r18
 2414 12c2 3DAF      		std Y+61,r19
 2415 12c4 4EAF      		std Y+62,r20
 2416 12c6 5FAF      		std Y+63,r21
 2417 12c8 2597      		sbiw r28,65-60
 2418 12ca E20E      		add r14,r18
 2419 12cc F31E      		adc r15,r19
 2420 12ce 041F      		adc r16,r20
 2421 12d0 151F      		adc r17,r21
 2422 12d2 D401      		movw r26,r8
 2423 12d4 C301      		movw r24,r6
 2424 12d6 8A25      		eor r24,r10
 2425 12d8 9B25      		eor r25,r11
 2426 12da AC25      		eor r26,r12
 2427 12dc BD25      		eor r27,r13
 2428 12de 8225      		eor r24,r2
 2429 12e0 9325      		eor r25,r3
 2430 12e2 A425      		eor r26,r4
 2431 12e4 B525      		eor r27,r5
 2432 12e6 E80E      		add r14,r24
 2433 12e8 F91E      		adc r15,r25
 2434 12ea 0A1F      		adc r16,r26
 2435 12ec 1B1F      		adc r17,r27
 2436 12ee C801      		movw r24,r16
 2437 12f0 AA27      		clr r26
 2438 12f2 BB27      		clr r27
 2439 12f4 8701      		movw r16,r14
 2440 12f6 FF24      		clr r15
 2441 12f8 EE24      		clr r14
 2442 12fa E82A      		or r14,r24
 2443 12fc F92A      		or r15,r25
 2444 12fe 0A2B      		or r16,r26
 2445 1300 1B2B      		or r17,r27
 2446 1302 E20C      		add r14,r2
 2447 1304 F31C      		adc r15,r3
 2448 1306 041D      		adc r16,r4
 2449 1308 151D      		adc r17,r5
 2450 130a 8DA9      		ldd r24,Y+53
 2451 130c 9EA9      		ldd r25,Y+54
GAS LISTING C:\DOCUME~1\ADMINI~1\LOCALS~1\Temp/cc2DDUo5.s 			page 44


 2452 130e AFA9      		ldd r26,Y+55
 2453 1310 B8AD      		ldd r27,Y+56
 2454 1312 8059      		subi r24,lo8(-(-1094730640))
 2455 1314 9344      		sbci r25,hi8(-(-1094730640))
 2456 1316 A044      		sbci r26,hlo8(-(-1094730640))
 2457 1318 B144      		sbci r27,hhi8(-(-1094730640))
 2458 131a 8DAB      		std Y+53,r24
 2459 131c 9EAB      		std Y+54,r25
 2460 131e AFAB      		std Y+55,r26
 2461 1320 B8AF      		std Y+56,r27
 2462 1322 9C01      		movw r18,r24
 2463 1324 AD01      		movw r20,r26
 2464 1326 2A0D      		add r18,r10
 2465 1328 3B1D      		adc r19,r11
 2466 132a 4C1D      		adc r20,r12
 2467 132c 5D1D      		adc r21,r13
 2468 132e D201      		movw r26,r4
 2469 1330 C101      		movw r24,r2
 2470 1332 8625      		eor r24,r6
 2471 1334 9725      		eor r25,r7
 2472 1336 A825      		eor r26,r8
 2473 1338 B925      		eor r27,r9
 2474 133a 8E25      		eor r24,r14
 2475 133c 9F25      		eor r25,r15
 2476 133e A027      		eor r26,r16
 2477 1340 B127      		eor r27,r17
 2478 1342 280F      		add r18,r24
 2479 1344 391F      		adc r19,r25
 2480 1346 4A1F      		adc r20,r26
 2481 1348 5B1F      		adc r21,r27
 2482 134a 5901      		movw r10,r18
 2483 134c 6A01      		movw r12,r20
 2484 134e B7E1      		ldi r27,23
 2485 1350 AA0C      	1:	lsl r10
 2486 1352 BB1C      		rol r11
 2487 1354 CC1C      		rol r12
 2488 1356 DD1C      		rol r13
 2489 1358 BA95      		dec r27
 2490 135a 01F4      		brne 1b
 2491 135c A9E0      		ldi r26,9
 2492 135e 5695      	1:	lsr r21
 2493 1360 4795      		ror r20
 2494 1362 3795      		ror r19
 2495 1364 2795      		ror r18
 2496 1366 AA95      		dec r26
 2497 1368 01F4      		brne 1b
 2498 136a A22A      		or r10,r18
 2499 136c B32A      		or r11,r19
 2500 136e C42A      		or r12,r20
 2501 1370 D52A      		or r13,r21
 2502 1372 AE0C      		add r10,r14
 2503 1374 BF1C      		adc r11,r15
 2504 1376 C01E      		adc r12,r16
 2505 1378 D11E      		adc r13,r17
 2506 137a 29A5      		ldd r18,Y+41
 2507 137c 3AA5      		ldd r19,Y+42
 2508 137e 4BA5      		ldd r20,Y+43
GAS LISTING C:\DOCUME~1\ADMINI~1\LOCALS~1\Temp/cc2DDUo5.s 			page 45


 2509 1380 5CA5      		ldd r21,Y+44
 2510 1382 2A53      		subi r18,lo8(-(681279174))
 2511 1384 3148      		sbci r19,hi8(-(681279174))
 2512 1386 4446      		sbci r20,hlo8(-(681279174))
 2513 1388 574D      		sbci r21,hhi8(-(681279174))
 2514 138a 29A7      		std Y+41,r18
 2515 138c 3AA7      		std Y+42,r19
 2516 138e 4BA7      		std Y+43,r20
 2517 1390 5CA7      		std Y+44,r21
 2518 1392 260D      		add r18,r6
 2519 1394 371D      		adc r19,r7
 2520 1396 481D      		adc r20,r8
 2521 1398 591D      		adc r21,r9
 2522 139a D801      		movw r26,r16
 2523 139c C701      		movw r24,r14
 2524 139e 8225      		eor r24,r2
 2525 13a0 9325      		eor r25,r3
 2526 13a2 A425      		eor r26,r4
 2527 13a4 B525      		eor r27,r5
 2528 13a6 8A25      		eor r24,r10
 2529 13a8 9B25      		eor r25,r11
 2530 13aa AC25      		eor r26,r12
 2531 13ac BD25      		eor r27,r13
 2532 13ae 280F      		add r18,r24
 2533 13b0 391F      		adc r19,r25
 2534 13b2 4A1F      		adc r20,r26
 2535 13b4 5B1F      		adc r21,r27
 2536 13b6 3901      		movw r6,r18
 2537 13b8 4A01      		movw r8,r20
 2538 13ba F4E0      		ldi r31,4
 2539 13bc 660C      	1:	lsl r6
 2540 13be 771C      		rol r7
 2541 13c0 881C      		rol r8
 2542 13c2 991C      		rol r9
 2543 13c4 FA95      		dec r31
 2544 13c6 01F4      		brne 1b
 2545 13c8 ECE1      		ldi r30,28
 2546 13ca 5695      	1:	lsr r21
 2547 13cc 4795      		ror r20
 2548 13ce 3795      		ror r19
 2549 13d0 2795      		ror r18
 2550 13d2 EA95      		dec r30
 2551 13d4 01F4      		brne 1b
 2552 13d6 622A      		or r6,r18
 2553 13d8 732A      		or r7,r19
 2554 13da 842A      		or r8,r20
 2555 13dc 952A      		or r9,r21
 2556 13de 6A0C      		add r6,r10
 2557 13e0 7B1C      		adc r7,r11
 2558 13e2 8C1C      		adc r8,r12
 2559 13e4 9D1C      		adc r9,r13
 2560 13e6 A196      		adiw r28,93-60
 2561 13e8 8CAD      		ldd r24,Y+60
 2562 13ea 9DAD      		ldd r25,Y+61
 2563 13ec AEAD      		ldd r26,Y+62
 2564 13ee BFAD      		ldd r27,Y+63
 2565 13f0 A197      		sbiw r28,93-60
GAS LISTING C:\DOCUME~1\ADMINI~1\LOCALS~1\Temp/cc2DDUo5.s 			page 46


 2566 13f2 8650      		subi r24,lo8(-(-358537222))
 2567 13f4 984D      		sbci r25,hi8(-(-358537222))
 2568 13f6 AE45      		sbci r26,hlo8(-(-358537222))
 2569 13f8 B541      		sbci r27,hhi8(-(-358537222))
 2570 13fa A196      		adiw r28,93-60
 2571 13fc 8CAF      		std Y+60,r24
 2572 13fe 9DAF      		std Y+61,r25
 2573 1400 AEAF      		std Y+62,r26
 2574 1402 BFAF      		std Y+63,r27
 2575 1404 A197      		sbiw r28,93-60
 2576 1406 9C01      		movw r18,r24
 2577 1408 AD01      		movw r20,r26
 2578 140a 220D      		add r18,r2
 2579 140c 331D      		adc r19,r3
 2580 140e 441D      		adc r20,r4
 2581 1410 551D      		adc r21,r5
 2582 1412 D601      		movw r26,r12
 2583 1414 C501      		movw r24,r10
 2584 1416 8E25      		eor r24,r14
 2585 1418 9F25      		eor r25,r15
 2586 141a A027      		eor r26,r16
 2587 141c B127      		eor r27,r17
 2588 141e 8625      		eor r24,r6
 2589 1420 9725      		eor r25,r7
 2590 1422 A825      		eor r26,r8
 2591 1424 B925      		eor r27,r9
 2592 1426 280F      		add r18,r24
 2593 1428 391F      		adc r19,r25
 2594 142a 4A1F      		adc r20,r26
 2595 142c 5B1F      		adc r21,r27
 2596 142e 1901      		movw r2,r18
 2597 1430 2A01      		movw r4,r20
 2598 1432 7BE0      		ldi r23,11
 2599 1434 220C      	1:	lsl r2
 2600 1436 331C      		rol r3
 2601 1438 441C      		rol r4
 2602 143a 551C      		rol r5
 2603 143c 7A95      		dec r23
 2604 143e 01F4      		brne 1b
 2605 1440 65E1      		ldi r22,21
 2606 1442 5695      	1:	lsr r21
 2607 1444 4795      		ror r20
 2608 1446 3795      		ror r19
 2609 1448 2795      		ror r18
 2610 144a 6A95      		dec r22
 2611 144c 01F4      		brne 1b
 2612 144e 222A      		or r2,r18
 2613 1450 332A      		or r3,r19
 2614 1452 442A      		or r4,r20
 2615 1454 552A      		or r5,r21
 2616 1456 260C      		add r2,r6
 2617 1458 371C      		adc r3,r7
 2618 145a 481C      		adc r4,r8
 2619 145c 591C      		adc r5,r9
 2620 145e 6596      		adiw r28,81-60
 2621 1460 2CAD      		ldd r18,Y+60
 2622 1462 3DAD      		ldd r19,Y+61
GAS LISTING C:\DOCUME~1\ADMINI~1\LOCALS~1\Temp/cc2DDUo5.s 			page 47


 2623 1464 4EAD      		ldd r20,Y+62
 2624 1466 5FAD      		ldd r21,Y+63
 2625 1468 6597      		sbiw r28,81-60
 2626 146a 2B57      		subi r18,lo8(-(-722521979))
 2627 146c 3F4C      		sbci r19,hi8(-(-722521979))
 2628 146e 4041      		sbci r20,hlo8(-(-722521979))
 2629 1470 5B42      		sbci r21,hhi8(-(-722521979))
 2630 1472 6596      		adiw r28,81-60
 2631 1474 2CAF      		std Y+60,r18
 2632 1476 3DAF      		std Y+61,r19
 2633 1478 4EAF      		std Y+62,r20
 2634 147a 5FAF      		std Y+63,r21
 2635 147c 6597      		sbiw r28,81-60
 2636 147e E20E      		add r14,r18
 2637 1480 F31E      		adc r15,r19
 2638 1482 041F      		adc r16,r20
 2639 1484 151F      		adc r17,r21
 2640 1486 D401      		movw r26,r8
 2641 1488 C301      		movw r24,r6
 2642 148a 8A25      		eor r24,r10
 2643 148c 9B25      		eor r25,r11
 2644 148e AC25      		eor r26,r12
 2645 1490 BD25      		eor r27,r13
 2646 1492 8225      		eor r24,r2
 2647 1494 9325      		eor r25,r3
 2648 1496 A425      		eor r26,r4
 2649 1498 B525      		eor r27,r5
 2650 149a E80E      		add r14,r24
 2651 149c F91E      		adc r15,r25
 2652 149e 0A1F      		adc r16,r26
 2653 14a0 1B1F      		adc r17,r27
 2654 14a2 C801      		movw r24,r16
 2655 14a4 AA27      		clr r26
 2656 14a6 BB27      		clr r27
 2657 14a8 8701      		movw r16,r14
 2658 14aa FF24      		clr r15
 2659 14ac EE24      		clr r14
 2660 14ae E82A      		or r14,r24
 2661 14b0 F92A      		or r15,r25
 2662 14b2 0A2B      		or r16,r26
 2663 14b4 1B2B      		or r17,r27
 2664 14b6 E20C      		add r14,r2
 2665 14b8 F31C      		adc r15,r3
 2666 14ba 041D      		adc r16,r4
 2667 14bc 151D      		adc r17,r5
 2668 14be 2996      		adiw r28,69-60
 2669 14c0 8CAD      		ldd r24,Y+60
 2670 14c2 9DAD      		ldd r25,Y+61
 2671 14c4 AEAD      		ldd r26,Y+62
 2672 14c6 BFAD      		ldd r27,Y+63
 2673 14c8 2997      		sbiw r28,69-60
 2674 14ca 8B5F      		subi r24,lo8(-(76029189))
 2675 14cc 924E      		sbci r25,hi8(-(76029189))
 2676 14ce A747      		sbci r26,hlo8(-(76029189))
 2677 14d0 BB4F      		sbci r27,hhi8(-(76029189))
 2678 14d2 2996      		adiw r28,69-60
 2679 14d4 8CAF      		std Y+60,r24
GAS LISTING C:\DOCUME~1\ADMINI~1\LOCALS~1\Temp/cc2DDUo5.s 			page 48


 2680 14d6 9DAF      		std Y+61,r25
 2681 14d8 AEAF      		std Y+62,r26
 2682 14da BFAF      		std Y+63,r27
 2683 14dc 2997      		sbiw r28,69-60
 2684 14de 9C01      		movw r18,r24
 2685 14e0 AD01      		movw r20,r26
 2686 14e2 2A0D      		add r18,r10
 2687 14e4 3B1D      		adc r19,r11
 2688 14e6 4C1D      		adc r20,r12
 2689 14e8 5D1D      		adc r21,r13
 2690 14ea D201      		movw r26,r4
 2691 14ec C101      		movw r24,r2
 2692 14ee 8625      		eor r24,r6
 2693 14f0 9725      		eor r25,r7
 2694 14f2 A825      		eor r26,r8
 2695 14f4 B925      		eor r27,r9
 2696 14f6 8E25      		eor r24,r14
 2697 14f8 9F25      		eor r25,r15
 2698 14fa A027      		eor r26,r16
 2699 14fc B127      		eor r27,r17
 2700 14fe 280F      		add r18,r24
 2701 1500 391F      		adc r19,r25
 2702 1502 4A1F      		adc r20,r26
 2703 1504 5B1F      		adc r21,r27
 2704 1506 5901      		movw r10,r18
 2705 1508 6A01      		movw r12,r20
 2706 150a B7E1      		ldi r27,23
 2707 150c AA0C      	1:	lsl r10
 2708 150e BB1C      		rol r11
 2709 1510 CC1C      		rol r12
 2710 1512 DD1C      		rol r13
 2711 1514 BA95      		dec r27
 2712 1516 01F4      		brne 1b
 2713 1518 A9E0      		ldi r26,9
 2714 151a 5695      	1:	lsr r21
 2715 151c 4795      		ror r20
 2716 151e 3795      		ror r19
 2717 1520 2795      		ror r18
 2718 1522 AA95      		dec r26
 2719 1524 01F4      		brne 1b
 2720 1526 A22A      		or r10,r18
 2721 1528 B32A      		or r11,r19
 2722 152a C42A      		or r12,r20
 2723 152c D52A      		or r13,r21
 2724 152e AE0C      		add r10,r14
 2725 1530 BF1C      		adc r11,r15
 2726 1532 C01E      		adc r12,r16
 2727 1534 D11E      		adc r13,r17
 2728 1536 29AD      		ldd r18,Y+57
 2729 1538 3AAD      		ldd r19,Y+58
 2730 153a 4BAD      		ldd r20,Y+59
 2731 153c 5CAD      		ldd r21,Y+60
 2732 153e 275C      		subi r18,lo8(-(-640364487))
 2733 1540 3F42      		sbci r19,hi8(-(-640364487))
 2734 1542 4B42      		sbci r20,hlo8(-(-640364487))
 2735 1544 5642      		sbci r21,hhi8(-(-640364487))
 2736 1546 29AF      		std Y+57,r18
GAS LISTING C:\DOCUME~1\ADMINI~1\LOCALS~1\Temp/cc2DDUo5.s 			page 49


 2737 1548 3AAF      		std Y+58,r19
 2738 154a 4BAF      		std Y+59,r20
 2739 154c 5CAF      		std Y+60,r21
 2740 154e 260D      		add r18,r6
 2741 1550 371D      		adc r19,r7
 2742 1552 481D      		adc r20,r8
 2743 1554 591D      		adc r21,r9
 2744 1556 D801      		movw r26,r16
 2745 1558 C701      		movw r24,r14
 2746 155a 8225      		eor r24,r2
 2747 155c 9325      		eor r25,r3
 2748 155e A425      		eor r26,r4
 2749 1560 B525      		eor r27,r5
 2750 1562 8A25      		eor r24,r10
 2751 1564 9B25      		eor r25,r11
 2752 1566 AC25      		eor r26,r12
 2753 1568 BD25      		eor r27,r13
 2754 156a 280F      		add r18,r24
 2755 156c 391F      		adc r19,r25
 2756 156e 4A1F      		adc r20,r26
 2757 1570 5B1F      		adc r21,r27
 2758 1572 3901      		movw r6,r18
 2759 1574 4A01      		movw r8,r20
 2760 1576 F4E0      		ldi r31,4
 2761 1578 660C      	1:	lsl r6
 2762 157a 771C      		rol r7
 2763 157c 881C      		rol r8
 2764 157e 991C      		rol r9
 2765 1580 FA95      		dec r31
 2766 1582 01F4      		brne 1b
 2767 1584 ECE1      		ldi r30,28
 2768 1586 5695      	1:	lsr r21
 2769 1588 4795      		ror r20
 2770 158a 3795      		ror r19
 2771 158c 2795      		ror r18
 2772 158e EA95      		dec r30
 2773 1590 01F4      		brne 1b
 2774 1592 622A      		or r6,r18
 2775 1594 732A      		or r7,r19
 2776 1596 842A      		or r8,r20
 2777 1598 952A      		or r9,r21
 2778 159a 6A0C      		add r6,r10
 2779 159c 7B1C      		adc r7,r11
 2780 159e 8C1C      		adc r8,r12
 2781 15a0 9D1C      		adc r9,r13
 2782 15a2 8DA5      		ldd r24,Y+45
 2783 15a4 9EA5      		ldd r25,Y+46
 2784 15a6 AFA5      		ldd r26,Y+47
 2785 15a8 B8A9      		ldd r27,Y+48
 2786 15aa 8B51      		subi r24,lo8(-(-421815835))
 2787 15ac 9646      		sbci r25,hi8(-(-421815835))
 2788 15ae A442      		sbci r26,hlo8(-(-421815835))
 2789 15b0 B941      		sbci r27,hhi8(-(-421815835))
 2790 15b2 8DA7      		std Y+45,r24
 2791 15b4 9EA7      		std Y+46,r25
 2792 15b6 AFA7      		std Y+47,r26
 2793 15b8 B8AB      		std Y+48,r27
GAS LISTING C:\DOCUME~1\ADMINI~1\LOCALS~1\Temp/cc2DDUo5.s 			page 50


 2794 15ba 9C01      		movw r18,r24
 2795 15bc AD01      		movw r20,r26
 2796 15be 220D      		add r18,r2
 2797 15c0 331D      		adc r19,r3
 2798 15c2 441D      		adc r20,r4
 2799 15c4 551D      		adc r21,r5
 2800 15c6 D601      		movw r26,r12
 2801 15c8 C501      		movw r24,r10
 2802 15ca 8E25      		eor r24,r14
 2803 15cc 9F25      		eor r25,r15
 2804 15ce A027      		eor r26,r16
 2805 15d0 B127      		eor r27,r17
 2806 15d2 8625      		eor r24,r6
 2807 15d4 9725      		eor r25,r7
 2808 15d6 A825      		eor r26,r8
 2809 15d8 B925      		eor r27,r9
 2810 15da 280F      		add r18,r24
 2811 15dc 391F      		adc r19,r25
 2812 15de 4A1F      		adc r20,r26
 2813 15e0 5B1F      		adc r21,r27
 2814 15e2 1901      		movw r2,r18
 2815 15e4 2A01      		movw r4,r20
 2816 15e6 7BE0      		ldi r23,11
 2817 15e8 220C      	1:	lsl r2
 2818 15ea 331C      		rol r3
 2819 15ec 441C      		rol r4
 2820 15ee 551C      		rol r5
 2821 15f0 7A95      		dec r23
 2822 15f2 01F4      		brne 1b
 2823 15f4 65E1      		ldi r22,21
 2824 15f6 5695      	1:	lsr r21
 2825 15f8 4795      		ror r20
 2826 15fa 3795      		ror r19
 2827 15fc 2795      		ror r18
 2828 15fe 6A95      		dec r22
 2829 1600 01F4      		brne 1b
 2830 1602 222A      		or r2,r18
 2831 1604 332A      		or r3,r19
 2832 1606 442A      		or r4,r20
 2833 1608 552A      		or r5,r21
 2834 160a 260C      		add r2,r6
 2835 160c 371C      		adc r3,r7
 2836 160e 481C      		adc r4,r8
 2837 1610 591C      		adc r5,r9
 2838 1612 29A1      		ldd r18,Y+33
 2839 1614 3AA1      		ldd r19,Y+34
 2840 1616 4BA1      		ldd r20,Y+35
 2841 1618 5CA1      		ldd r21,Y+36
 2842 161a 2850      		subi r18,lo8(-(530742520))
 2843 161c 3348      		sbci r19,hi8(-(530742520))
 2844 161e 4D45      		sbci r20,hlo8(-(530742520))
 2845 1620 504E      		sbci r21,hhi8(-(530742520))
 2846 1622 29A3      		std Y+33,r18
 2847 1624 3AA3      		std Y+34,r19
 2848 1626 4BA3      		std Y+35,r20
 2849 1628 5CA3      		std Y+36,r21
 2850 162a E20E      		add r14,r18
GAS LISTING C:\DOCUME~1\ADMINI~1\LOCALS~1\Temp/cc2DDUo5.s 			page 51


 2851 162c F31E      		adc r15,r19
 2852 162e 041F      		adc r16,r20
 2853 1630 151F      		adc r17,r21
 2854 1632 D401      		movw r26,r8
 2855 1634 C301      		movw r24,r6
 2856 1636 8A25      		eor r24,r10
 2857 1638 9B25      		eor r25,r11
 2858 163a AC25      		eor r26,r12
 2859 163c BD25      		eor r27,r13
 2860 163e 8225      		eor r24,r2
 2861 1640 9325      		eor r25,r3
 2862 1642 A425      		eor r26,r4
 2863 1644 B525      		eor r27,r5
 2864 1646 E80E      		add r14,r24
 2865 1648 F91E      		adc r15,r25
 2866 164a 0A1F      		adc r16,r26
 2867 164c 1B1F      		adc r17,r27
 2868 164e C801      		movw r24,r16
 2869 1650 AA27      		clr r26
 2870 1652 BB27      		clr r27
 2871 1654 8701      		movw r16,r14
 2872 1656 FF24      		clr r15
 2873 1658 EE24      		clr r14
 2874 165a E82A      		or r14,r24
 2875 165c F92A      		or r15,r25
 2876 165e 0A2B      		or r16,r26
 2877 1660 1B2B      		or r17,r27
 2878 1662 E20C      		add r14,r2
 2879 1664 F31C      		adc r15,r3
 2880 1666 041D      		adc r16,r4
 2881 1668 151D      		adc r17,r5
 2882 166a 6996      		adiw r28,85-60
 2883 166c 8CAD      		ldd r24,Y+60
 2884 166e 9DAD      		ldd r25,Y+61
 2885 1670 AEAD      		ldd r26,Y+62
 2886 1672 BFAD      		ldd r27,Y+63
 2887 1674 6997      		sbiw r28,85-60
 2888 1676 8B59      		subi r24,lo8(-(-995338651))
 2889 1678 994A      		sbci r25,hi8(-(-995338651))
 2890 167a A345      		sbci r26,hlo8(-(-995338651))
 2891 167c BB43      		sbci r27,hhi8(-(-995338651))
 2892 167e 6996      		adiw r28,85-60
 2893 1680 8CAF      		std Y+60,r24
 2894 1682 9DAF      		std Y+61,r25
 2895 1684 AEAF      		std Y+62,r26
 2896 1686 BFAF      		std Y+63,r27
 2897 1688 6997      		sbiw r28,85-60
 2898 168a 9C01      		movw r18,r24
 2899 168c AD01      		movw r20,r26
 2900 168e 2A0D      		add r18,r10
 2901 1690 3B1D      		adc r19,r11
 2902 1692 4C1D      		adc r20,r12
 2903 1694 5D1D      		adc r21,r13
 2904 1696 D201      		movw r26,r4
 2905 1698 C101      		movw r24,r2
 2906 169a 8625      		eor r24,r6
 2907 169c 9725      		eor r25,r7
GAS LISTING C:\DOCUME~1\ADMINI~1\LOCALS~1\Temp/cc2DDUo5.s 			page 52


 2908 169e A825      		eor r26,r8
 2909 16a0 B925      		eor r27,r9
 2910 16a2 8E25      		eor r24,r14
 2911 16a4 9F25      		eor r25,r15
 2912 16a6 A027      		eor r26,r16
 2913 16a8 B127      		eor r27,r17
 2914 16aa 280F      		add r18,r24
 2915 16ac 391F      		adc r19,r25
 2916 16ae 4A1F      		adc r20,r26
 2917 16b0 5B1F      		adc r21,r27
 2918 16b2 5901      		movw r10,r18
 2919 16b4 6A01      		movw r12,r20
 2920 16b6 B7E1      		ldi r27,23
 2921 16b8 AA0C      	1:	lsl r10
 2922 16ba BB1C      		rol r11
 2923 16bc CC1C      		rol r12
 2924 16be DD1C      		rol r13
 2925 16c0 BA95      		dec r27
 2926 16c2 01F4      		brne 1b
 2927 16c4 A9E0      		ldi r26,9
 2928 16c6 5695      	1:	lsr r21
 2929 16c8 4795      		ror r20
 2930 16ca 3795      		ror r19
 2931 16cc 2795      		ror r18
 2932 16ce AA95      		dec r26
 2933 16d0 01F4      		brne 1b
 2934 16d2 A22A      		or r10,r18
 2935 16d4 B32A      		or r11,r19
 2936 16d6 C42A      		or r12,r20
 2937 16d8 D52A      		or r13,r21
 2938 16da AE0C      		add r10,r14
 2939 16dc BF1C      		adc r11,r15
 2940 16de C01E      		adc r12,r16
 2941 16e0 D11E      		adc r13,r17
 2942 16e2 A196      		adiw r28,93-60
 2943 16e4 2CAD      		ldd r18,Y+60
 2944 16e6 3DAD      		ldd r19,Y+61
 2945 16e8 4EAD      		ldd r20,Y+62
 2946 16ea 5FAD      		ldd r21,Y+63
 2947 16ec A197      		sbiw r28,93-60
 2948 16ee 265B      		subi r18,lo8(-(159906378))
 2949 16f0 3540      		sbci r19,hi8(-(159906378))
 2950 16f2 4847      		sbci r20,hlo8(-(159906378))
 2951 16f4 564F      		sbci r21,hhi8(-(159906378))
 2952 16f6 260D      		add r18,r6
 2953 16f8 371D      		adc r19,r7
 2954 16fa 481D      		adc r20,r8
 2955 16fc 591D      		adc r21,r9
 2956 16fe D201      		movw r26,r4
 2957 1700 C101      		movw r24,r2
 2958 1702 8095      		com r24
 2959 1704 9095      		com r25
 2960 1706 A095      		com r26
 2961 1708 B095      		com r27
 2962 170a 8A29      		or r24,r10
 2963 170c 9B29      		or r25,r11
 2964 170e AC29      		or r26,r12
GAS LISTING C:\DOCUME~1\ADMINI~1\LOCALS~1\Temp/cc2DDUo5.s 			page 53


 2965 1710 BD29      		or r27,r13
 2966 1712 8E25      		eor r24,r14
 2967 1714 9F25      		eor r25,r15
 2968 1716 A027      		eor r26,r16
 2969 1718 B127      		eor r27,r17
 2970 171a 280F      		add r18,r24
 2971 171c 391F      		adc r19,r25
 2972 171e 4A1F      		adc r20,r26
 2973 1720 5B1F      		adc r21,r27
 2974 1722 2D83      		std Y+5,r18
 2975 1724 3E83      		std Y+6,r19
 2976 1726 4F83      		std Y+7,r20
 2977 1728 5887      		std Y+8,r21
 2978 172a F6E0      		ldi r31,6
 2979 172c 220F      	1:	lsl r18
 2980 172e 331F      		rol r19
 2981 1730 441F      		rol r20
 2982 1732 551F      		rol r21
 2983 1734 FA95      		dec r31
 2984 1736 01F4      		brne 1b
 2985 1738 8D81      		ldd r24,Y+5
 2986 173a 9E81      		ldd r25,Y+6
 2987 173c AF81      		ldd r26,Y+7
 2988 173e B885      		ldd r27,Y+8
 2989 1740 EAE1      		ldi r30,26
 2990 1742 B695      	1:	lsr r27
 2991 1744 A795      		ror r26
 2992 1746 9795      		ror r25
 2993 1748 8795      		ror r24
 2994 174a EA95      		dec r30
 2995 174c 01F4      		brne 1b
 2996 174e 282B      		or r18,r24
 2997 1750 392B      		or r19,r25
 2998 1752 4A2B      		or r20,r26
 2999 1754 5B2B      		or r21,r27
 3000 1756 2A0D      		add r18,r10
 3001 1758 3B1D      		adc r19,r11
 3002 175a 4C1D      		adc r20,r12
 3003 175c 5D1D      		adc r21,r13
 3004 175e 2596      		adiw r28,65-60
 3005 1760 8CAD      		ldd r24,Y+60
 3006 1762 9DAD      		ldd r25,Y+61
 3007 1764 AEAD      		ldd r26,Y+62
 3008 1766 BFAD      		ldd r27,Y+63
 3009 1768 2597      		sbiw r28,65-60
 3010 176a 895C      		subi r24,lo8(-(1282389047))
 3011 176c 9B44      		sbci r25,hi8(-(1282389047))
 3012 176e A049      		sbci r26,hlo8(-(1282389047))
 3013 1770 B34B      		sbci r27,hhi8(-(1282389047))
 3014 1772 820D      		add r24,r2
 3015 1774 931D      		adc r25,r3
 3016 1776 A41D      		adc r26,r4
 3017 1778 B51D      		adc r27,r5
 3018 177a 8983      		std Y+1,r24
 3019 177c 9A83      		std Y+2,r25
 3020 177e AB83      		std Y+3,r26
 3021 1780 BC83      		std Y+4,r27
GAS LISTING C:\DOCUME~1\ADMINI~1\LOCALS~1\Temp/cc2DDUo5.s 			page 54


 3022 1782 D801      		movw r26,r16
 3023 1784 C701      		movw r24,r14
 3024 1786 8095      		com r24
 3025 1788 9095      		com r25
 3026 178a A095      		com r26
 3027 178c B095      		com r27
 3028 178e 822B      		or r24,r18
 3029 1790 932B      		or r25,r19
 3030 1792 A42B      		or r26,r20
 3031 1794 B52B      		or r27,r21
 3032 1796 8A25      		eor r24,r10
 3033 1798 9B25      		eor r25,r11
 3034 179a AC25      		eor r26,r12
 3035 179c BD25      		eor r27,r13
 3036 179e 6980      		ldd r6,Y+1
 3037 17a0 7A80      		ldd r7,Y+2
 3038 17a2 8B80      		ldd r8,Y+3
 3039 17a4 9C80      		ldd r9,Y+4
 3040 17a6 680E      		add r6,r24
 3041 17a8 791E      		adc r7,r25
 3042 17aa 8A1E      		adc r8,r26
 3043 17ac 9B1E      		adc r9,r27
 3044 17ae 6982      		std Y+1,r6
 3045 17b0 7A82      		std Y+2,r7
 3046 17b2 8B82      		std Y+3,r8
 3047 17b4 9C82      		std Y+4,r9
 3048 17b6 7AE0      		ldi r23,10
 3049 17b8 660C      	1:	lsl r6
 3050 17ba 771C      		rol r7
 3051 17bc 881C      		rol r8
 3052 17be 991C      		rol r9
 3053 17c0 7A95      		dec r23
 3054 17c2 01F4      		brne 1b
 3055 17c4 8981      		ldd r24,Y+1
 3056 17c6 9A81      		ldd r25,Y+2
 3057 17c8 AB81      		ldd r26,Y+3
 3058 17ca BC81      		ldd r27,Y+4
 3059 17cc 66E1      		ldi r22,22
 3060 17ce B695      	1:	lsr r27
 3061 17d0 A795      		ror r26
 3062 17d2 9795      		ror r25
 3063 17d4 8795      		ror r24
 3064 17d6 6A95      		dec r22
 3065 17d8 01F4      		brne 1b
 3066 17da 682A      		or r6,r24
 3067 17dc 792A      		or r7,r25
 3068 17de 8A2A      		or r8,r26
 3069 17e0 9B2A      		or r9,r27
 3070 17e2 620E      		add r6,r18
 3071 17e4 731E      		adc r7,r19
 3072 17e6 841E      		adc r8,r20
 3073 17e8 951E      		adc r9,r21
 3074 17ea 2DA0      		ldd r2,Y+37
 3075 17ec 3EA0      		ldd r3,Y+38
 3076 17ee 4FA0      		ldd r4,Y+39
 3077 17f0 58A4      		ldd r5,Y+40
 3078 17f2 8BE9      		ldi r24,lo8(-1381045349)
GAS LISTING C:\DOCUME~1\ADMINI~1\LOCALS~1\Temp/cc2DDUo5.s 			page 55


 3079 17f4 9BEE      		ldi r25,hi8(-1381045349)
 3080 17f6 AEEA      		ldi r26,hlo8(-1381045349)
 3081 17f8 BDEA      		ldi r27,hhi8(-1381045349)
 3082 17fa 280E      		add r2,r24
 3083 17fc 391E      		adc r3,r25
 3084 17fe 4A1E      		adc r4,r26
 3085 1800 5B1E      		adc r5,r27
 3086 1802 2E0C      		add r2,r14
 3087 1804 3F1C      		adc r3,r15
 3088 1806 401E      		adc r4,r16
 3089 1808 511E      		adc r5,r17
 3090 180a D601      		movw r26,r12
 3091 180c C501      		movw r24,r10
 3092 180e 8095      		com r24
 3093 1810 9095      		com r25
 3094 1812 A095      		com r26
 3095 1814 B095      		com r27
 3096 1816 8629      		or r24,r6
 3097 1818 9729      		or r25,r7
 3098 181a A829      		or r26,r8
 3099 181c B929      		or r27,r9
 3100 181e 8227      		eor r24,r18
 3101 1820 9327      		eor r25,r19
 3102 1822 A427      		eor r26,r20
 3103 1824 B527      		eor r27,r21
 3104 1826 280E      		add r2,r24
 3105 1828 391E      		adc r3,r25
 3106 182a 4A1E      		adc r4,r26
 3107 182c 5B1E      		adc r5,r27
 3108 182e 8201      		movw r16,r4
 3109 1830 7101      		movw r14,r2
 3110 1832 FFE0      		ldi r31,15
 3111 1834 EE0C      	1:	lsl r14
 3112 1836 FF1C      		rol r15
 3113 1838 001F      		rol r16
 3114 183a 111F      		rol r17
 3115 183c FA95      		dec r31
 3116 183e 01F4      		brne 1b
 3117 1840 E1E1      		ldi r30,17
 3118 1842 5694      	1:	lsr r5
 3119 1844 4794      		ror r4
 3120 1846 3794      		ror r3
 3121 1848 2794      		ror r2
 3122 184a EA95      		dec r30
 3123 184c 01F4      		brne 1b
 3124 184e E228      		or r14,r2
 3125 1850 F328      		or r15,r3
 3126 1852 0429      		or r16,r4
 3127 1854 1529      		or r17,r5
 3128 1856 E60C      		add r14,r6
 3129 1858 F71C      		adc r15,r7
 3130 185a 081D      		adc r16,r8
 3131 185c 191D      		adc r17,r9
 3132 185e 2D96      		adiw r28,73-60
 3133 1860 2CAC      		ldd r2,Y+60
 3134 1862 3DAC      		ldd r3,Y+61
 3135 1864 4EAC      		ldd r4,Y+62
GAS LISTING C:\DOCUME~1\ADMINI~1\LOCALS~1\Temp/cc2DDUo5.s 			page 56


 3136 1866 5FAC      		ldd r5,Y+63
 3137 1868 2D97      		sbiw r28,73-60
 3138 186a 87EF      		ldi r24,lo8(-57055497)
 3139 186c 96E6      		ldi r25,hi8(-57055497)
 3140 186e A9E9      		ldi r26,hlo8(-57055497)
 3141 1870 BCEF      		ldi r27,hhi8(-57055497)
 3142 1872 280E      		add r2,r24
 3143 1874 391E      		adc r3,r25
 3144 1876 4A1E      		adc r4,r26
 3145 1878 5B1E      		adc r5,r27
 3146 187a 2A0C      		add r2,r10
 3147 187c 3B1C      		adc r3,r11
 3148 187e 4C1C      		adc r4,r12
 3149 1880 5D1C      		adc r5,r13
 3150 1882 DA01      		movw r26,r20
 3151 1884 C901      		movw r24,r18
 3152 1886 8095      		com r24
 3153 1888 9095      		com r25
 3154 188a A095      		com r26
 3155 188c B095      		com r27
 3156 188e 8E29      		or r24,r14
 3157 1890 9F29      		or r25,r15
 3158 1892 A02B      		or r26,r16
 3159 1894 B12B      		or r27,r17
 3160 1896 8625      		eor r24,r6
 3161 1898 9725      		eor r25,r7
 3162 189a A825      		eor r26,r8
 3163 189c B925      		eor r27,r9
 3164 189e 280E      		add r2,r24
 3165 18a0 391E      		adc r3,r25
 3166 18a2 4A1E      		adc r4,r26
 3167 18a4 5B1E      		adc r5,r27
 3168 18a6 6201      		movw r12,r4
 3169 18a8 5101      		movw r10,r2
 3170 18aa 75E1      		ldi r23,21
 3171 18ac AA0C      	1:	lsl r10
 3172 18ae BB1C      		rol r11
 3173 18b0 CC1C      		rol r12
 3174 18b2 DD1C      		rol r13
 3175 18b4 7A95      		dec r23
 3176 18b6 01F4      		brne 1b
 3177 18b8 6BE0      		ldi r22,11
 3178 18ba 5694      	1:	lsr r5
 3179 18bc 4794      		ror r4
 3180 18be 3794      		ror r3
 3181 18c0 2794      		ror r2
 3182 18c2 6A95      		dec r22
 3183 18c4 01F4      		brne 1b
 3184 18c6 A228      		or r10,r2
 3185 18c8 B328      		or r11,r3
 3186 18ca C428      		or r12,r4
 3187 18cc D528      		or r13,r5
 3188 18ce AE0C      		add r10,r14
 3189 18d0 BF1C      		adc r11,r15
 3190 18d2 C01E      		adc r12,r16
 3191 18d4 D11E      		adc r13,r17
 3192 18d6 2DA4      		ldd r2,Y+45
GAS LISTING C:\DOCUME~1\ADMINI~1\LOCALS~1\Temp/cc2DDUo5.s 			page 57


 3193 18d8 3EA4      		ldd r3,Y+46
 3194 18da 4FA4      		ldd r4,Y+47
 3195 18dc 58A8      		ldd r5,Y+48
 3196 18de 8EED      		ldi r24,lo8(2122301406)
 3197 18e0 9FEB      		ldi r25,hi8(2122301406)
 3198 18e2 AFE7      		ldi r26,hlo8(2122301406)
 3199 18e4 BEE7      		ldi r27,hhi8(2122301406)
 3200 18e6 280E      		add r2,r24
 3201 18e8 391E      		adc r3,r25
 3202 18ea 4A1E      		adc r4,r26
 3203 18ec 5B1E      		adc r5,r27
 3204 18ee 220E      		add r2,r18
 3205 18f0 331E      		adc r3,r19
 3206 18f2 441E      		adc r4,r20
 3207 18f4 551E      		adc r5,r21
 3208 18f6 D401      		movw r26,r8
 3209 18f8 C301      		movw r24,r6
 3210 18fa 8095      		com r24
 3211 18fc 9095      		com r25
 3212 18fe A095      		com r26
 3213 1900 B095      		com r27
 3214 1902 8A29      		or r24,r10
 3215 1904 9B29      		or r25,r11
 3216 1906 AC29      		or r26,r12
 3217 1908 BD29      		or r27,r13
 3218 190a 8E25      		eor r24,r14
 3219 190c 9F25      		eor r25,r15
 3220 190e A027      		eor r26,r16
 3221 1910 B127      		eor r27,r17
 3222 1912 280E      		add r2,r24
 3223 1914 391E      		adc r3,r25
 3224 1916 4A1E      		adc r4,r26
 3225 1918 5B1E      		adc r5,r27
 3226 191a A201      		movw r20,r4
 3227 191c 9101      		movw r18,r2
 3228 191e 96E0      		ldi r25,6
 3229 1920 220F      	1:	lsl r18
 3230 1922 331F      		rol r19
 3231 1924 441F      		rol r20
 3232 1926 551F      		rol r21
 3233 1928 9A95      		dec r25
 3234 192a 01F4      		brne 1b
 3235 192c 8AE1      		ldi r24,26
 3236 192e 5694      	1:	lsr r5
 3237 1930 4794      		ror r4
 3238 1932 3794      		ror r3
 3239 1934 2794      		ror r2
 3240 1936 8A95      		dec r24
 3241 1938 01F4      		brne 1b
 3242 193a 2229      		or r18,r2
 3243 193c 3329      		or r19,r3
 3244 193e 4429      		or r20,r4
 3245 1940 5529      		or r21,r5
 3246 1942 2A0D      		add r18,r10
 3247 1944 3B1D      		adc r19,r11
 3248 1946 4C1D      		adc r20,r12
 3249 1948 5D1D      		adc r21,r13
GAS LISTING C:\DOCUME~1\ADMINI~1\LOCALS~1\Temp/cc2DDUo5.s 			page 58


 3250 194a 6596      		adiw r28,81-60
 3251 194c 2CAC      		ldd r2,Y+60
 3252 194e 3DAC      		ldd r3,Y+61
 3253 1950 4EAC      		ldd r4,Y+62
 3254 1952 5FAC      		ldd r5,Y+63
 3255 1954 6597      		sbiw r28,81-60
 3256 1956 8DE0      		ldi r24,lo8(-1172464627)
 3257 1958 9CE9      		ldi r25,hi8(-1172464627)
 3258 195a ADE1      		ldi r26,hlo8(-1172464627)
 3259 195c BAEB      		ldi r27,hhi8(-1172464627)
 3260 195e 280E      		add r2,r24
 3261 1960 391E      		adc r3,r25
 3262 1962 4A1E      		adc r4,r26
 3263 1964 5B1E      		adc r5,r27
 3264 1966 260C      		add r2,r6
 3265 1968 371C      		adc r3,r7
 3266 196a 481C      		adc r4,r8
 3267 196c 591C      		adc r5,r9
 3268 196e D801      		movw r26,r16
 3269 1970 C701      		movw r24,r14
 3270 1972 8095      		com r24
 3271 1974 9095      		com r25
 3272 1976 A095      		com r26
 3273 1978 B095      		com r27
 3274 197a 822B      		or r24,r18
 3275 197c 932B      		or r25,r19
 3276 197e A42B      		or r26,r20
 3277 1980 B52B      		or r27,r21
 3278 1982 8A25      		eor r24,r10
 3279 1984 9B25      		eor r25,r11
 3280 1986 AC25      		eor r26,r12
 3281 1988 BD25      		eor r27,r13
 3282 198a 280E      		add r2,r24
 3283 198c 391E      		adc r3,r25
 3284 198e 4A1E      		adc r4,r26
 3285 1990 5B1E      		adc r5,r27
 3286 1992 4201      		movw r8,r4
 3287 1994 3101      		movw r6,r2
 3288 1996 BAE0      		ldi r27,10
 3289 1998 660C      	1:	lsl r6
 3290 199a 771C      		rol r7
 3291 199c 881C      		rol r8
 3292 199e 991C      		rol r9
 3293 19a0 BA95      		dec r27
 3294 19a2 01F4      		brne 1b
 3295 19a4 A6E1      		ldi r26,22
 3296 19a6 5694      	1:	lsr r5
 3297 19a8 4794      		ror r4
 3298 19aa 3794      		ror r3
 3299 19ac 2794      		ror r2
 3300 19ae AA95      		dec r26
 3301 19b0 01F4      		brne 1b
 3302 19b2 6228      		or r6,r2
 3303 19b4 7328      		or r7,r3
 3304 19b6 8428      		or r8,r4
 3305 19b8 9528      		or r9,r5
 3306 19ba 620E      		add r6,r18
GAS LISTING C:\DOCUME~1\ADMINI~1\LOCALS~1\Temp/cc2DDUo5.s 			page 59


 3307 19bc 731E      		adc r7,r19
 3308 19be 841E      		adc r8,r20
 3309 19c0 951E      		adc r9,r21
 3310 19c2 2DA8      		ldd r2,Y+53
 3311 19c4 3EA8      		ldd r3,Y+54
 3312 19c6 4FA8      		ldd r4,Y+55
 3313 19c8 58AC      		ldd r5,Y+56
 3314 19ca 8DE0      		ldi r24,lo8(1093679117)
 3315 19cc 98E3      		ldi r25,hi8(1093679117)
 3316 19ce A0E3      		ldi r26,hlo8(1093679117)
 3317 19d0 B1E4      		ldi r27,hhi8(1093679117)
 3318 19d2 280E      		add r2,r24
 3319 19d4 391E      		adc r3,r25
 3320 19d6 4A1E      		adc r4,r26
 3321 19d8 5B1E      		adc r5,r27
 3322 19da 2E0C      		add r2,r14
 3323 19dc 3F1C      		adc r3,r15
 3324 19de 401E      		adc r4,r16
 3325 19e0 511E      		adc r5,r17
 3326 19e2 D601      		movw r26,r12
 3327 19e4 C501      		movw r24,r10
 3328 19e6 8095      		com r24
 3329 19e8 9095      		com r25
 3330 19ea A095      		com r26
 3331 19ec B095      		com r27
 3332 19ee 8629      		or r24,r6
 3333 19f0 9729      		or r25,r7
 3334 19f2 A829      		or r26,r8
 3335 19f4 B929      		or r27,r9
 3336 19f6 8227      		eor r24,r18
 3337 19f8 9327      		eor r25,r19
 3338 19fa A427      		eor r26,r20
 3339 19fc B527      		eor r27,r21
 3340 19fe 280E      		add r2,r24
 3341 1a00 391E      		adc r3,r25
 3342 1a02 4A1E      		adc r4,r26
 3343 1a04 5B1E      		adc r5,r27
 3344 1a06 8201      		movw r16,r4
 3345 1a08 7101      		movw r14,r2
 3346 1a0a FFE0      		ldi r31,15
 3347 1a0c EE0C      	1:	lsl r14
 3348 1a0e FF1C      		rol r15
 3349 1a10 001F      		rol r16
 3350 1a12 111F      		rol r17
 3351 1a14 FA95      		dec r31
 3352 1a16 01F4      		brne 1b
 3353 1a18 E1E1      		ldi r30,17
 3354 1a1a 5694      	1:	lsr r5
 3355 1a1c 4794      		ror r4
 3356 1a1e 3794      		ror r3
 3357 1a20 2794      		ror r2
 3358 1a22 EA95      		dec r30
 3359 1a24 01F4      		brne 1b
 3360 1a26 E228      		or r14,r2
 3361 1a28 F328      		or r15,r3
 3362 1a2a 0429      		or r16,r4
 3363 1a2c 1529      		or r17,r5
GAS LISTING C:\DOCUME~1\ADMINI~1\LOCALS~1\Temp/cc2DDUo5.s 			page 60


 3364 1a2e E60C      		add r14,r6
 3365 1a30 F71C      		adc r15,r7
 3366 1a32 081D      		adc r16,r8
 3367 1a34 191D      		adc r17,r9
 3368 1a36 6D96      		adiw r28,89-60
 3369 1a38 2CAC      		ldd r2,Y+60
 3370 1a3a 3DAC      		ldd r3,Y+61
 3371 1a3c 4EAC      		ldd r4,Y+62
 3372 1a3e 5FAC      		ldd r5,Y+63
 3373 1a40 6D97      		sbiw r28,89-60
 3374 1a42 8DE8      		ldi r24,lo8(-523930739)
 3375 1a44 93E7      		ldi r25,hi8(-523930739)
 3376 1a46 A5EC      		ldi r26,hlo8(-523930739)
 3377 1a48 B0EE      		ldi r27,hhi8(-523930739)
 3378 1a4a 280E      		add r2,r24
 3379 1a4c 391E      		adc r3,r25
 3380 1a4e 4A1E      		adc r4,r26
 3381 1a50 5B1E      		adc r5,r27
 3382 1a52 2A0C      		add r2,r10
 3383 1a54 3B1C      		adc r3,r11
 3384 1a56 4C1C      		adc r4,r12
 3385 1a58 5D1C      		adc r5,r13
 3386 1a5a DA01      		movw r26,r20
 3387 1a5c C901      		movw r24,r18
 3388 1a5e 8095      		com r24
 3389 1a60 9095      		com r25
 3390 1a62 A095      		com r26
 3391 1a64 B095      		com r27
 3392 1a66 8E29      		or r24,r14
 3393 1a68 9F29      		or r25,r15
 3394 1a6a A02B      		or r26,r16
 3395 1a6c B12B      		or r27,r17
 3396 1a6e 8625      		eor r24,r6
 3397 1a70 9725      		eor r25,r7
 3398 1a72 A825      		eor r26,r8
 3399 1a74 B925      		eor r27,r9
 3400 1a76 280E      		add r2,r24
 3401 1a78 391E      		adc r3,r25
 3402 1a7a 4A1E      		adc r4,r26
 3403 1a7c 5B1E      		adc r5,r27
 3404 1a7e 6201      		movw r12,r4
 3405 1a80 5101      		movw r10,r2
 3406 1a82 75E1      		ldi r23,21
 3407 1a84 AA0C      	1:	lsl r10
 3408 1a86 BB1C      		rol r11
 3409 1a88 CC1C      		rol r12
 3410 1a8a DD1C      		rol r13
 3411 1a8c 7A95      		dec r23
 3412 1a8e 01F4      		brne 1b
 3413 1a90 6BE0      		ldi r22,11
 3414 1a92 5694      	1:	lsr r5
 3415 1a94 4794      		ror r4
 3416 1a96 3794      		ror r3
 3417 1a98 2794      		ror r2
 3418 1a9a 6A95      		dec r22
 3419 1a9c 01F4      		brne 1b
 3420 1a9e A228      		or r10,r2
GAS LISTING C:\DOCUME~1\ADMINI~1\LOCALS~1\Temp/cc2DDUo5.s 			page 61


 3421 1aa0 B328      		or r11,r3
 3422 1aa2 C428      		or r12,r4
 3423 1aa4 D528      		or r13,r5
 3424 1aa6 AE0C      		add r10,r14
 3425 1aa8 BF1C      		adc r11,r15
 3426 1aaa C01E      		adc r12,r16
 3427 1aac D11E      		adc r13,r17
 3428 1aae 2196      		adiw r28,61-60
 3429 1ab0 2CAC      		ldd r2,Y+60
 3430 1ab2 3DAC      		ldd r3,Y+61
 3431 1ab4 4EAC      		ldd r4,Y+62
 3432 1ab6 5FAC      		ldd r5,Y+63
 3433 1ab8 2197      		sbiw r28,61-60
 3434 1aba 8EEC      		ldi r24,lo8(-399079474)
 3435 1abc 97E8      		ldi r25,hi8(-399079474)
 3436 1abe A6E3      		ldi r26,hlo8(-399079474)
 3437 1ac0 B8EE      		ldi r27,hhi8(-399079474)
 3438 1ac2 280E      		add r2,r24
 3439 1ac4 391E      		adc r3,r25
 3440 1ac6 4A1E      		adc r4,r26
 3441 1ac8 5B1E      		adc r5,r27
 3442 1aca 220E      		add r2,r18
 3443 1acc 331E      		adc r3,r19
 3444 1ace 441E      		adc r4,r20
 3445 1ad0 551E      		adc r5,r21
 3446 1ad2 D401      		movw r26,r8
 3447 1ad4 C301      		movw r24,r6
 3448 1ad6 8095      		com r24
 3449 1ad8 9095      		com r25
 3450 1ada A095      		com r26
 3451 1adc B095      		com r27
 3452 1ade 8A29      		or r24,r10
 3453 1ae0 9B29      		or r25,r11
 3454 1ae2 AC29      		or r26,r12
 3455 1ae4 BD29      		or r27,r13
 3456 1ae6 8E25      		eor r24,r14
 3457 1ae8 9F25      		eor r25,r15
 3458 1aea A027      		eor r26,r16
 3459 1aec B127      		eor r27,r17
 3460 1aee 280E      		add r2,r24
 3461 1af0 391E      		adc r3,r25
 3462 1af2 4A1E      		adc r4,r26
 3463 1af4 5B1E      		adc r5,r27
 3464 1af6 A201      		movw r20,r4
 3465 1af8 9101      		movw r18,r2
 3466 1afa 96E0      		ldi r25,6
 3467 1afc 220F      	1:	lsl r18
 3468 1afe 331F      		rol r19
 3469 1b00 441F      		rol r20
 3470 1b02 551F      		rol r21
 3471 1b04 9A95      		dec r25
 3472 1b06 01F4      		brne 1b
 3473 1b08 8AE1      		ldi r24,26
 3474 1b0a 5694      	1:	lsr r5
 3475 1b0c 4794      		ror r4
 3476 1b0e 3794      		ror r3
 3477 1b10 2794      		ror r2
GAS LISTING C:\DOCUME~1\ADMINI~1\LOCALS~1\Temp/cc2DDUo5.s 			page 62


 3478 1b12 8A95      		dec r24
 3479 1b14 01F4      		brne 1b
 3480 1b16 2229      		or r18,r2
 3481 1b18 3329      		or r19,r3
 3482 1b1a 4429      		or r20,r4
 3483 1b1c 5529      		or r21,r5
 3484 1b1e 2A0D      		add r18,r10
 3485 1b20 3B1D      		adc r19,r11
 3486 1b22 4C1D      		adc r20,r12
 3487 1b24 5D1D      		adc r21,r13
 3488 1b26 29A0      		ldd r2,Y+33
 3489 1b28 3AA0      		ldd r3,Y+34
 3490 1b2a 4BA0      		ldd r4,Y+35
 3491 1b2c 5CA0      		ldd r5,Y+36
 3492 1b2e 88EE      		ldi r24,lo8(-561354264)
 3493 1b30 99E6      		ldi r25,hi8(-561354264)
 3494 1b32 AAE8      		ldi r26,hlo8(-561354264)
 3495 1b34 BEED      		ldi r27,hhi8(-561354264)
 3496 1b36 280E      		add r2,r24
 3497 1b38 391E      		adc r3,r25
 3498 1b3a 4A1E      		adc r4,r26
 3499 1b3c 5B1E      		adc r5,r27
 3500 1b3e 260C      		add r2,r6
 3501 1b40 371C      		adc r3,r7
 3502 1b42 481C      		adc r4,r8
 3503 1b44 591C      		adc r5,r9
 3504 1b46 D801      		movw r26,r16
 3505 1b48 C701      		movw r24,r14
 3506 1b4a 8095      		com r24
 3507 1b4c 9095      		com r25
 3508 1b4e A095      		com r26
 3509 1b50 B095      		com r27
 3510 1b52 822B      		or r24,r18
 3511 1b54 932B      		or r25,r19
 3512 1b56 A42B      		or r26,r20
 3513 1b58 B52B      		or r27,r21
 3514 1b5a 8A25      		eor r24,r10
 3515 1b5c 9B25      		eor r25,r11
 3516 1b5e AC25      		eor r26,r12
 3517 1b60 BD25      		eor r27,r13
 3518 1b62 280E      		add r2,r24
 3519 1b64 391E      		adc r3,r25
 3520 1b66 4A1E      		adc r4,r26
 3521 1b68 5B1E      		adc r5,r27
 3522 1b6a 4201      		movw r8,r4
 3523 1b6c 3101      		movw r6,r2
 3524 1b6e BAE0      		ldi r27,10
 3525 1b70 660C      	1:	lsl r6
 3526 1b72 771C      		rol r7
 3527 1b74 881C      		rol r8
 3528 1b76 991C      		rol r9
 3529 1b78 BA95      		dec r27
 3530 1b7a 01F4      		brne 1b
 3531 1b7c A6E1      		ldi r26,22
 3532 1b7e 5694      	1:	lsr r5
 3533 1b80 4794      		ror r4
 3534 1b82 3794      		ror r3
GAS LISTING C:\DOCUME~1\ADMINI~1\LOCALS~1\Temp/cc2DDUo5.s 			page 63


 3535 1b84 2794      		ror r2
 3536 1b86 AA95      		dec r26
 3537 1b88 01F4      		brne 1b
 3538 1b8a 6228      		or r6,r2
 3539 1b8c 7328      		or r7,r3
 3540 1b8e 8428      		or r8,r4
 3541 1b90 9528      		or r9,r5
 3542 1b92 620E      		add r6,r18
 3543 1b94 731E      		adc r7,r19
 3544 1b96 841E      		adc r8,r20
 3545 1b98 951E      		adc r9,r21
 3546 1b9a 2996      		adiw r28,69-60
 3547 1b9c 2CAC      		ldd r2,Y+60
 3548 1b9e 3DAC      		ldd r3,Y+61
 3549 1ba0 4EAC      		ldd r4,Y+62
 3550 1ba2 5FAC      		ldd r5,Y+63
 3551 1ba4 2997      		sbiw r28,69-60
 3552 1ba6 8FE0      		ldi r24,lo8(-1636227569)
 3553 1ba8 96E2      		ldi r25,hi8(-1636227569)
 3554 1baa A9E7      		ldi r26,hlo8(-1636227569)
 3555 1bac BEE9      		ldi r27,hhi8(-1636227569)
 3556 1bae 280E      		add r2,r24
 3557 1bb0 391E      		adc r3,r25
 3558 1bb2 4A1E      		adc r4,r26
 3559 1bb4 5B1E      		adc r5,r27
 3560 1bb6 2E0C      		add r2,r14
 3561 1bb8 3F1C      		adc r3,r15
 3562 1bba 401E      		adc r4,r16
 3563 1bbc 511E      		adc r5,r17
 3564 1bbe D601      		movw r26,r12
 3565 1bc0 C501      		movw r24,r10
 3566 1bc2 8095      		com r24
 3567 1bc4 9095      		com r25
 3568 1bc6 A095      		com r26
 3569 1bc8 B095      		com r27
 3570 1bca 8629      		or r24,r6
 3571 1bcc 9729      		or r25,r7
 3572 1bce A829      		or r26,r8
 3573 1bd0 B929      		or r27,r9
 3574 1bd2 8227      		eor r24,r18
 3575 1bd4 9327      		eor r25,r19
 3576 1bd6 A427      		eor r26,r20
 3577 1bd8 B527      		eor r27,r21
 3578 1bda 280E      		add r2,r24
 3579 1bdc 391E      		adc r3,r25
 3580 1bde 4A1E      		adc r4,r26
 3581 1be0 5B1E      		adc r5,r27
 3582 1be2 8201      		movw r16,r4
 3583 1be4 7101      		movw r14,r2
 3584 1be6 FFE0      		ldi r31,15
 3585 1be8 EE0C      	1:	lsl r14
 3586 1bea FF1C      		rol r15
 3587 1bec 001F      		rol r16
 3588 1bee 111F      		rol r17
 3589 1bf0 FA95      		dec r31
 3590 1bf2 01F4      		brne 1b
 3591 1bf4 E1E1      		ldi r30,17
GAS LISTING C:\DOCUME~1\ADMINI~1\LOCALS~1\Temp/cc2DDUo5.s 			page 64


 3592 1bf6 5694      	1:	lsr r5
 3593 1bf8 4794      		ror r4
 3594 1bfa 3794      		ror r3
 3595 1bfc 2794      		ror r2
 3596 1bfe EA95      		dec r30
 3597 1c00 01F4      		brne 1b
 3598 1c02 E228      		or r14,r2
 3599 1c04 F328      		or r15,r3
 3600 1c06 0429      		or r16,r4
 3601 1c08 1529      		or r17,r5
 3602 1c0a E60C      		add r14,r6
 3603 1c0c F71C      		adc r15,r7
 3604 1c0e 081D      		adc r16,r8
 3605 1c10 191D      		adc r17,r9
 3606 1c12 29A4      		ldd r2,Y+41
 3607 1c14 3AA4      		ldd r3,Y+42
 3608 1c16 4BA4      		ldd r4,Y+43
 3609 1c18 5CA4      		ldd r5,Y+44
 3610 1c1a 8BED      		ldi r24,lo8(627872475)
 3611 1c1c 92E9      		ldi r25,hi8(627872475)
 3612 1c1e ACE6      		ldi r26,hlo8(627872475)
 3613 1c20 B5E2      		ldi r27,hhi8(627872475)
 3614 1c22 280E      		add r2,r24
 3615 1c24 391E      		adc r3,r25
 3616 1c26 4A1E      		adc r4,r26
 3617 1c28 5B1E      		adc r5,r27
 3618 1c2a 2A0C      		add r2,r10
 3619 1c2c 3B1C      		adc r3,r11
 3620 1c2e 4C1C      		adc r4,r12
 3621 1c30 5D1C      		adc r5,r13
 3622 1c32 DA01      		movw r26,r20
 3623 1c34 C901      		movw r24,r18
 3624 1c36 8095      		com r24
 3625 1c38 9095      		com r25
 3626 1c3a A095      		com r26
 3627 1c3c B095      		com r27
 3628 1c3e 8E29      		or r24,r14
 3629 1c40 9F29      		or r25,r15
 3630 1c42 A02B      		or r26,r16
 3631 1c44 B12B      		or r27,r17
 3632 1c46 8625      		eor r24,r6
 3633 1c48 9725      		eor r25,r7
 3634 1c4a A825      		eor r26,r8
 3635 1c4c B925      		eor r27,r9
 3636 1c4e 280E      		add r2,r24
 3637 1c50 391E      		adc r3,r25
 3638 1c52 4A1E      		adc r4,r26
 3639 1c54 5B1E      		adc r5,r27
 3640 1c56 6201      		movw r12,r4
 3641 1c58 5101      		movw r10,r2
 3642 1c5a 75E1      		ldi r23,21
 3643 1c5c AA0C      	1:	lsl r10
 3644 1c5e BB1C      		rol r11
 3645 1c60 CC1C      		rol r12
 3646 1c62 DD1C      		rol r13
 3647 1c64 7A95      		dec r23
 3648 1c66 01F4      		brne 1b
GAS LISTING C:\DOCUME~1\ADMINI~1\LOCALS~1\Temp/cc2DDUo5.s 			page 65


 3649 1c68 6BE0      		ldi r22,11
 3650 1c6a 5694      	1:	lsr r5
 3651 1c6c 4794      		ror r4
 3652 1c6e 3794      		ror r3
 3653 1c70 2794      		ror r2
 3654 1c72 6A95      		dec r22
 3655 1c74 01F4      		brne 1b
 3656 1c76 A228      		or r10,r2
 3657 1c78 B328      		or r11,r3
 3658 1c7a C428      		or r12,r4
 3659 1c7c D528      		or r13,r5
 3660 1c7e AE0C      		add r10,r14
 3661 1c80 BF1C      		adc r11,r15
 3662 1c82 C01E      		adc r12,r16
 3663 1c84 D11E      		adc r13,r17
 3664 1c86 6196      		adiw r28,77-60
 3665 1c88 2CAC      		ldd r2,Y+60
 3666 1c8a 3DAC      		ldd r3,Y+61
 3667 1c8c 4EAC      		ldd r4,Y+62
 3668 1c8e 5FAC      		ldd r5,Y+63
 3669 1c90 6197      		sbiw r28,77-60
 3670 1c92 89ED      		ldi r24,lo8(-1418416423)
 3671 1c94 9EEA      		ldi r25,hi8(-1418416423)
 3672 1c96 A4E7      		ldi r26,hlo8(-1418416423)
 3673 1c98 BBEA      		ldi r27,hhi8(-1418416423)
 3674 1c9a 280E      		add r2,r24
 3675 1c9c 391E      		adc r3,r25
 3676 1c9e 4A1E      		adc r4,r26
 3677 1ca0 5B1E      		adc r5,r27
 3678 1ca2 220E      		add r2,r18
 3679 1ca4 331E      		adc r3,r19
 3680 1ca6 441E      		adc r4,r20
 3681 1ca8 551E      		adc r5,r21
 3682 1caa D401      		movw r26,r8
 3683 1cac C301      		movw r24,r6
 3684 1cae 8095      		com r24
 3685 1cb0 9095      		com r25
 3686 1cb2 A095      		com r26
 3687 1cb4 B095      		com r27
 3688 1cb6 8A29      		or r24,r10
 3689 1cb8 9B29      		or r25,r11
 3690 1cba AC29      		or r26,r12
 3691 1cbc BD29      		or r27,r13
 3692 1cbe 8E25      		eor r24,r14
 3693 1cc0 9F25      		eor r25,r15
 3694 1cc2 A027      		eor r26,r16
 3695 1cc4 B127      		eor r27,r17
 3696 1cc6 280E      		add r2,r24
 3697 1cc8 391E      		adc r3,r25
 3698 1cca 4A1E      		adc r4,r26
 3699 1ccc 5B1E      		adc r5,r27
 3700 1cce A201      		movw r20,r4
 3701 1cd0 9101      		movw r18,r2
 3702 1cd2 96E0      		ldi r25,6
 3703 1cd4 220F      	1:	lsl r18
 3704 1cd6 331F      		rol r19
 3705 1cd8 441F      		rol r20
GAS LISTING C:\DOCUME~1\ADMINI~1\LOCALS~1\Temp/cc2DDUo5.s 			page 66


 3706 1cda 551F      		rol r21
 3707 1cdc 9A95      		dec r25
 3708 1cde 01F4      		brne 1b
 3709 1ce0 8AE1      		ldi r24,26
 3710 1ce2 5694      	1:	lsr r5
 3711 1ce4 4794      		ror r4
 3712 1ce6 3794      		ror r3
 3713 1ce8 2794      		ror r2
 3714 1cea 8A95      		dec r24
 3715 1cec 01F4      		brne 1b
 3716 1cee 2229      		or r18,r2
 3717 1cf0 3329      		or r19,r3
 3718 1cf2 4429      		or r20,r4
 3719 1cf4 5529      		or r21,r5
 3720 1cf6 2A0D      		add r18,r10
 3721 1cf8 3B1D      		adc r19,r11
 3722 1cfa 4C1D      		adc r20,r12
 3723 1cfc 5D1D      		adc r21,r13
 3724 1cfe 29A8      		ldd r2,Y+49
 3725 1d00 3AA8      		ldd r3,Y+50
 3726 1d02 4BA8      		ldd r4,Y+51
 3727 1d04 5CA8      		ldd r5,Y+52
 3728 1d06 83E1      		ldi r24,lo8(1335726355)
 3729 1d08 91E9      		ldi r25,hi8(1335726355)
 3730 1d0a ADE9      		ldi r26,hlo8(1335726355)
 3731 1d0c BFE4      		ldi r27,hhi8(1335726355)
 3732 1d0e 280E      		add r2,r24
 3733 1d10 391E      		adc r3,r25
 3734 1d12 4A1E      		adc r4,r26
 3735 1d14 5B1E      		adc r5,r27
 3736 1d16 260C      		add r2,r6
 3737 1d18 371C      		adc r3,r7
 3738 1d1a 481C      		adc r4,r8
 3739 1d1c 591C      		adc r5,r9
 3740 1d1e D801      		movw r26,r16
 3741 1d20 C701      		movw r24,r14
 3742 1d22 8095      		com r24
 3743 1d24 9095      		com r25
 3744 1d26 A095      		com r26
 3745 1d28 B095      		com r27
 3746 1d2a 822B      		or r24,r18
 3747 1d2c 932B      		or r25,r19
 3748 1d2e A42B      		or r26,r20
 3749 1d30 B52B      		or r27,r21
 3750 1d32 8A25      		eor r24,r10
 3751 1d34 9B25      		eor r25,r11
 3752 1d36 AC25      		eor r26,r12
 3753 1d38 BD25      		eor r27,r13
 3754 1d3a 280E      		add r2,r24
 3755 1d3c 391E      		adc r3,r25
 3756 1d3e 4A1E      		adc r4,r26
 3757 1d40 5B1E      		adc r5,r27
 3758 1d42 4201      		movw r8,r4
 3759 1d44 3101      		movw r6,r2
 3760 1d46 BAE0      		ldi r27,10
 3761 1d48 660C      	1:	lsl r6
 3762 1d4a 771C      		rol r7
GAS LISTING C:\DOCUME~1\ADMINI~1\LOCALS~1\Temp/cc2DDUo5.s 			page 67


 3763 1d4c 881C      		rol r8
 3764 1d4e 991C      		rol r9
 3765 1d50 BA95      		dec r27
 3766 1d52 01F4      		brne 1b
 3767 1d54 A6E1      		ldi r26,22
 3768 1d56 5694      	1:	lsr r5
 3769 1d58 4794      		ror r4
 3770 1d5a 3794      		ror r3
 3771 1d5c 2794      		ror r2
 3772 1d5e AA95      		dec r26
 3773 1d60 01F4      		brne 1b
 3774 1d62 6228      		or r6,r2
 3775 1d64 7328      		or r7,r3
 3776 1d66 8428      		or r8,r4
 3777 1d68 9528      		or r9,r5
 3778 1d6a 620E      		add r6,r18
 3779 1d6c 731E      		adc r7,r19
 3780 1d6e 841E      		adc r8,r20
 3781 1d70 951E      		adc r9,r21
 3782 1d72 6996      		adiw r28,85-60
 3783 1d74 2CAC      		ldd r2,Y+60
 3784 1d76 3DAC      		ldd r3,Y+61
 3785 1d78 4EAC      		ldd r4,Y+62
 3786 1d7a 5FAC      		ldd r5,Y+63
 3787 1d7c 6997      		sbiw r28,85-60
 3788 1d7e 86E5      		ldi r24,lo8(1714125910)
 3789 1d80 9CE7      		ldi r25,hi8(1714125910)
 3790 1d82 ABE2      		ldi r26,hlo8(1714125910)
 3791 1d84 B6E6      		ldi r27,hhi8(1714125910)
 3792 1d86 280E      		add r2,r24
 3793 1d88 391E      		adc r3,r25
 3794 1d8a 4A1E      		adc r4,r26
 3795 1d8c 5B1E      		adc r5,r27
 3796 1d8e 2E0C      		add r2,r14
 3797 1d90 3F1C      		adc r3,r15
 3798 1d92 401E      		adc r4,r16
 3799 1d94 511E      		adc r5,r17
 3800 1d96 D601      		movw r26,r12
 3801 1d98 C501      		movw r24,r10
 3802 1d9a 8095      		com r24
 3803 1d9c 9095      		com r25
 3804 1d9e A095      		com r26
 3805 1da0 B095      		com r27
 3806 1da2 8629      		or r24,r6
 3807 1da4 9729      		or r25,r7
 3808 1da6 A829      		or r26,r8
 3809 1da8 B929      		or r27,r9
 3810 1daa 8227      		eor r24,r18
 3811 1dac 9327      		eor r25,r19
 3812 1dae A427      		eor r26,r20
 3813 1db0 B527      		eor r27,r21
 3814 1db2 280E      		add r2,r24
 3815 1db4 391E      		adc r3,r25
 3816 1db6 4A1E      		adc r4,r26
 3817 1db8 5B1E      		adc r5,r27
 3818 1dba 8201      		movw r16,r4
 3819 1dbc 7101      		movw r14,r2
GAS LISTING C:\DOCUME~1\ADMINI~1\LOCALS~1\Temp/cc2DDUo5.s 			page 68


 3820 1dbe FFE0      		ldi r31,15
 3821 1dc0 EE0C      	1:	lsl r14
 3822 1dc2 FF1C      		rol r15
 3823 1dc4 001F      		rol r16
 3824 1dc6 111F      		rol r17
 3825 1dc8 FA95      		dec r31
 3826 1dca 01F4      		brne 1b
 3827 1dcc E1E1      		ldi r30,17
 3828 1dce 5694      	1:	lsr r5
 3829 1dd0 4794      		ror r4
 3830 1dd2 3794      		ror r3
 3831 1dd4 2794      		ror r2
 3832 1dd6 EA95      		dec r30
 3833 1dd8 01F4      		brne 1b
 3834 1dda E228      		or r14,r2
 3835 1ddc F328      		or r15,r3
 3836 1dde 0429      		or r16,r4
 3837 1de0 1529      		or r17,r5
 3838 1de2 E60C      		add r14,r6
 3839 1de4 F71C      		adc r15,r7
 3840 1de6 081D      		adc r16,r8
 3841 1de8 191D      		adc r17,r9
 3842 1dea 29AC      		ldd r2,Y+57
 3843 1dec 3AAC      		ldd r3,Y+58
 3844 1dee 4BAC      		ldd r4,Y+59
 3845 1df0 5CAC      		ldd r5,Y+60
 3846 1df2 88E5      		ldi r24,lo8(296878936)
 3847 1df4 93E0      		ldi r25,hi8(296878936)
 3848 1df6 A2EB      		ldi r26,hlo8(296878936)
 3849 1df8 B1E1      		ldi r27,hhi8(296878936)
 3850 1dfa 280E      		add r2,r24
 3851 1dfc 391E      		adc r3,r25
 3852 1dfe 4A1E      		adc r4,r26
 3853 1e00 5B1E      		adc r5,r27
 3854 1e02 2A0C      		add r2,r10
 3855 1e04 3B1C      		adc r3,r11
 3856 1e06 4C1C      		adc r4,r12
 3857 1e08 5D1C      		adc r5,r13
 3858 1e0a DA01      		movw r26,r20
 3859 1e0c C901      		movw r24,r18
 3860 1e0e 8095      		com r24
 3861 1e10 9095      		com r25
 3862 1e12 A095      		com r26
 3863 1e14 B095      		com r27
 3864 1e16 8E29      		or r24,r14
 3865 1e18 9F29      		or r25,r15
 3866 1e1a A02B      		or r26,r16
 3867 1e1c B12B      		or r27,r17
 3868 1e1e 8625      		eor r24,r6
 3869 1e20 9725      		eor r25,r7
 3870 1e22 A825      		eor r26,r8
 3871 1e24 B925      		eor r27,r9
 3872 1e26 280E      		add r2,r24
 3873 1e28 391E      		adc r3,r25
 3874 1e2a 4A1E      		adc r4,r26
 3875 1e2c 5B1E      		adc r5,r27
 3876 1e2e AD8C      		ldd r10,Y+29
GAS LISTING C:\DOCUME~1\ADMINI~1\LOCALS~1\Temp/cc2DDUo5.s 			page 69


 3877 1e30 BE8C      		ldd r11,Y+30
 3878 1e32 CF8C      		ldd r12,Y+31
 3879 1e34 D8A0      		ldd r13,Y+32
 3880 1e36 2A0D      		add r18,r10
 3881 1e38 3B1D      		adc r19,r11
 3882 1e3a 4C1D      		adc r20,r12
 3883 1e3c 5D1D      		adc r21,r13
 3884 1e3e A396      		adiw r28,97-62
 3885 1e40 AEAD      		ldd r26,Y+62
 3886 1e42 BFAD      		ldd r27,Y+63
 3887 1e44 A397      		sbiw r28,97-62
 3888 1e46 2D93      		st X+,r18
 3889 1e48 3D93      		st X+,r19
 3890 1e4a 4D93      		st X+,r20
 3891 1e4c 5C93      		st X,r21
 3892 1e4e 1397      		sbiw r26,3
 3893 1e50 1496      		adiw r26,4
 3894 1e52 2D91      		ld r18,X+
 3895 1e54 3D91      		ld r19,X+
 3896 1e56 4D91      		ld r20,X+
 3897 1e58 5C91      		ld r21,X
 3898 1e5a 1797      		sbiw r26,4+3
 3899 1e5c 2E0D      		add r18,r14
 3900 1e5e 3F1D      		adc r19,r15
 3901 1e60 401F      		adc r20,r16
 3902 1e62 511F      		adc r21,r17
 3903 1e64 D201      		movw r26,r4
 3904 1e66 C101      		movw r24,r2
 3905 1e68 75E1      		ldi r23,21
 3906 1e6a 880F      	1:	lsl r24
 3907 1e6c 991F      		rol r25
 3908 1e6e AA1F      		rol r26
 3909 1e70 BB1F      		rol r27
 3910 1e72 7A95      		dec r23
 3911 1e74 01F4      		brne 1b
 3912 1e76 6BE0      		ldi r22,11
 3913 1e78 5694      	1:	lsr r5
 3914 1e7a 4794      		ror r4
 3915 1e7c 3794      		ror r3
 3916 1e7e 2794      		ror r2
 3917 1e80 6A95      		dec r22
 3918 1e82 01F4      		brne 1b
 3919 1e84 8229      		or r24,r2
 3920 1e86 9329      		or r25,r3
 3921 1e88 A429      		or r26,r4
 3922 1e8a B529      		or r27,r5
 3923 1e8c 280F      		add r18,r24
 3924 1e8e 391F      		adc r19,r25
 3925 1e90 4A1F      		adc r20,r26
 3926 1e92 5B1F      		adc r21,r27
 3927 1e94 A396      		adiw r28,97-62
 3928 1e96 EEAD      		ldd r30,Y+62
 3929 1e98 FFAD      		ldd r31,Y+63
 3930 1e9a A397      		sbiw r28,97-62
 3931 1e9c 2483      		std Z+4,r18
 3932 1e9e 3583      		std Z+5,r19
 3933 1ea0 4683      		std Z+6,r20
GAS LISTING C:\DOCUME~1\ADMINI~1\LOCALS~1\Temp/cc2DDUo5.s 			page 70


 3934 1ea2 5783      		std Z+7,r21
 3935 1ea4 8085      		ldd r24,Z+8
 3936 1ea6 9185      		ldd r25,Z+9
 3937 1ea8 A285      		ldd r26,Z+10
 3938 1eaa B385      		ldd r27,Z+11
 3939 1eac 8E0D      		add r24,r14
 3940 1eae 9F1D      		adc r25,r15
 3941 1eb0 A01F      		adc r26,r16
 3942 1eb2 B11F      		adc r27,r17
 3943 1eb4 8087      		std Z+8,r24
 3944 1eb6 9187      		std Z+9,r25
 3945 1eb8 A287      		std Z+10,r26
 3946 1eba B387      		std Z+11,r27
 3947 1ebc 8485      		ldd r24,Z+12
 3948 1ebe 9585      		ldd r25,Z+13
 3949 1ec0 A685      		ldd r26,Z+14
 3950 1ec2 B785      		ldd r27,Z+15
 3951 1ec4 860D      		add r24,r6
 3952 1ec6 971D      		adc r25,r7
 3953 1ec8 A81D      		adc r26,r8
 3954 1eca B91D      		adc r27,r9
 3955 1ecc 8487      		std Z+12,r24
 3956 1ece 9587      		std Z+13,r25
 3957 1ed0 A687      		std Z+14,r26
 3958 1ed2 B787      		std Z+15,r27
 3959               	/* epilogue start */
 3960 1ed4 CE59      		subi r28,lo8(-(98))
 3961 1ed6 DF4F      		sbci r29,hi8(-(98))
 3962 1ed8 0FB6      		in __tmp_reg__,__SREG__
 3963 1eda F894      		cli
 3964 1edc DEBF      		out __SP_H__,r29
 3965 1ede 0FBE      		out __SREG__,__tmp_reg__
 3966 1ee0 CDBF      		out __SP_L__,r28
 3967 1ee2 CF91      		pop r28
 3968 1ee4 DF91      		pop r29
 3969 1ee6 1F91      		pop r17
 3970 1ee8 0F91      		pop r16
 3971 1eea FF90      		pop r15
 3972 1eec EF90      		pop r14
 3973 1eee DF90      		pop r13
 3974 1ef0 CF90      		pop r12
 3975 1ef2 BF90      		pop r11
 3976 1ef4 AF90      		pop r10
 3977 1ef6 9F90      		pop r9
 3978 1ef8 8F90      		pop r8
 3979 1efa 7F90      		pop r7
 3980 1efc 6F90      		pop r6
 3981 1efe 5F90      		pop r5
 3982 1f00 4F90      		pop r4
 3983 1f02 3F90      		pop r3
 3984 1f04 2F90      		pop r2
 3985 1f06 0895      		ret
 3986               		.size	NutMD5Transform, .-NutMD5Transform
 3987               	.global	NutMD5Init
 3988               		.type	NutMD5Init, @function
 3989               	NutMD5Init:
 3990               	/* prologue: function */
GAS LISTING C:\DOCUME~1\ADMINI~1\LOCALS~1\Temp/cc2DDUo5.s 			page 71


 3991               	/* frame size = 0 */
 3992 1f08 FC01      		movw r30,r24
 3993 1f0a 81E0      		ldi r24,lo8(1732584193)
 3994 1f0c 93E2      		ldi r25,hi8(1732584193)
 3995 1f0e A5E4      		ldi r26,hlo8(1732584193)
 3996 1f10 B7E6      		ldi r27,hhi8(1732584193)
 3997 1f12 8083      		st Z,r24
 3998 1f14 9183      		std Z+1,r25
 3999 1f16 A283      		std Z+2,r26
 4000 1f18 B383      		std Z+3,r27
 4001 1f1a 89E8      		ldi r24,lo8(-271733879)
 4002 1f1c 9BEA      		ldi r25,hi8(-271733879)
 4003 1f1e ADEC      		ldi r26,hlo8(-271733879)
 4004 1f20 BFEE      		ldi r27,hhi8(-271733879)
 4005 1f22 8483      		std Z+4,r24
 4006 1f24 9583      		std Z+5,r25
 4007 1f26 A683      		std Z+6,r26
 4008 1f28 B783      		std Z+7,r27
 4009 1f2a 8EEF      		ldi r24,lo8(-1732584194)
 4010 1f2c 9CED      		ldi r25,hi8(-1732584194)
 4011 1f2e AAEB      		ldi r26,hlo8(-1732584194)
 4012 1f30 B8E9      		ldi r27,hhi8(-1732584194)
 4013 1f32 8087      		std Z+8,r24
 4014 1f34 9187      		std Z+9,r25
 4015 1f36 A287      		std Z+10,r26
 4016 1f38 B387      		std Z+11,r27
 4017 1f3a 86E7      		ldi r24,lo8(271733878)
 4018 1f3c 94E5      		ldi r25,hi8(271733878)
 4019 1f3e A2E3      		ldi r26,hlo8(271733878)
 4020 1f40 B0E1      		ldi r27,hhi8(271733878)
 4021 1f42 8487      		std Z+12,r24
 4022 1f44 9587      		std Z+13,r25
 4023 1f46 A687      		std Z+14,r26
 4024 1f48 B787      		std Z+15,r27
 4025 1f4a 108A      		std Z+16,__zero_reg__
 4026 1f4c 118A      		std Z+17,__zero_reg__
 4027 1f4e 128A      		std Z+18,__zero_reg__
 4028 1f50 138A      		std Z+19,__zero_reg__
 4029 1f52 148A      		std Z+20,__zero_reg__
 4030 1f54 158A      		std Z+21,__zero_reg__
 4031 1f56 168A      		std Z+22,__zero_reg__
 4032 1f58 178A      		std Z+23,__zero_reg__
 4033               	/* epilogue start */
 4034 1f5a 0895      		ret
 4035               		.size	NutMD5Init, .-NutMD5Init
 4036               	.global	NutMD5Final
 4037               		.type	NutMD5Final, @function
 4038               	NutMD5Final:
 4039 1f5c EF92      		push r14
 4040 1f5e FF92      		push r15
 4041 1f60 0F93      		push r16
 4042 1f62 1F93      		push r17
 4043 1f64 CF93      		push r28
 4044 1f66 DF93      		push r29
 4045               	/* prologue: function */
 4046               	/* frame size = 0 */
 4047 1f68 EC01      		movw r28,r24
GAS LISTING C:\DOCUME~1\ADMINI~1\LOCALS~1\Temp/cc2DDUo5.s 			page 72


 4048 1f6a F62E      		mov r15,r22
 4049 1f6c E72E      		mov r14,r23
 4050 1f6e 8889      		ldd r24,Y+16
 4051 1f70 9989      		ldd r25,Y+17
 4052 1f72 AA89      		ldd r26,Y+18
 4053 1f74 BB89      		ldd r27,Y+19
 4054 1f76 23E0      		ldi r18,3
 4055 1f78 B695      	1:	lsr r27
 4056 1f7a A795      		ror r26
 4057 1f7c 9795      		ror r25
 4058 1f7e 8795      		ror r24
 4059 1f80 2A95      		dec r18
 4060 1f82 01F4      		brne 1b
 4061 1f84 8F73      		andi r24,lo8(63)
 4062 1f86 9070      		andi r25,hi8(63)
 4063 1f88 AE01      		movw r20,r28
 4064 1f8a 480F      		add r20,r24
 4065 1f8c 591F      		adc r21,r25
 4066 1f8e FA01      		movw r30,r20
 4067 1f90 20E8      		ldi r18,lo8(-128)
 4068 1f92 208F      		std Z+24,r18
 4069 1f94 475E      		subi r20,lo8(-(25))
 4070 1f96 5F4F      		sbci r21,hi8(-(25))
 4071 1f98 2FE3      		ldi r18,lo8(63)
 4072 1f9a 30E0      		ldi r19,hi8(63)
 4073 1f9c 281B      		sub r18,r24
 4074 1f9e 390B      		sbc r19,r25
 4075 1fa0 2830      		cpi r18,8
 4076 1fa2 3105      		cpc r19,__zero_reg__
 4077 1fa4 00F4      		brsh .L6
 4078 1fa6 CA01      		movw r24,r20
 4079 1fa8 60E0      		ldi r22,lo8(0)
 4080 1faa 70E0      		ldi r23,hi8(0)
 4081 1fac A901      		movw r20,r18
 4082 1fae 0E94 0000 		call memset
 4083 1fb2 8E01      		movw r16,r28
 4084 1fb4 085E      		subi r16,lo8(-(24))
 4085 1fb6 1F4F      		sbci r17,hi8(-(24))
 4086 1fb8 CE01      		movw r24,r28
 4087 1fba B801      		movw r22,r16
 4088 1fbc 0E94 0000 		call NutMD5Transform
 4089 1fc0 88E3      		ldi r24,lo8(56)
 4090 1fc2 D801      		movw r26,r16
 4091 1fc4 1D92      		st X+,__zero_reg__
 4092 1fc6 8A95      	        dec r24
 4093 1fc8 01F4      		brne .-6
 4094 1fca 00C0      		rjmp .L7
 4095               	.L6:
 4096 1fcc 2850      		subi r18,lo8(-(-8))
 4097 1fce 3040      		sbci r19,hi8(-(-8))
 4098 1fd0 CA01      		movw r24,r20
 4099 1fd2 60E0      		ldi r22,lo8(0)
 4100 1fd4 70E0      		ldi r23,hi8(0)
 4101 1fd6 A901      		movw r20,r18
 4102 1fd8 0E94 0000 		call memset
 4103               	.L7:
 4104 1fdc 8889      		ldd r24,Y+16
GAS LISTING C:\DOCUME~1\ADMINI~1\LOCALS~1\Temp/cc2DDUo5.s 			page 73


 4105 1fde 9989      		ldd r25,Y+17
 4106 1fe0 AA89      		ldd r26,Y+18
 4107 1fe2 BB89      		ldd r27,Y+19
 4108 1fe4 C05B      		subi r28,lo8(-(80))
 4109 1fe6 DF4F      		sbci r29,hi8(-(80))
 4110 1fe8 8883      		st Y,r24
 4111 1fea 9983      		std Y+1,r25
 4112 1fec AA83      		std Y+2,r26
 4113 1fee BB83      		std Y+3,r27
 4114 1ff0 C055      		subi r28,lo8(-(-80))
 4115 1ff2 D040      		sbci r29,hi8(-(-80))
 4116 1ff4 8C89      		ldd r24,Y+20
 4117 1ff6 9D89      		ldd r25,Y+21
 4118 1ff8 AE89      		ldd r26,Y+22
 4119 1ffa BF89      		ldd r27,Y+23
 4120 1ffc CC5A      		subi r28,lo8(-(84))
 4121 1ffe DF4F      		sbci r29,hi8(-(84))
 4122 2000 8883      		st Y,r24
 4123 2002 9983      		std Y+1,r25
 4124 2004 AA83      		std Y+2,r26
 4125 2006 BB83      		std Y+3,r27
 4126 2008 C455      		subi r28,lo8(-(-84))
 4127 200a D040      		sbci r29,hi8(-(-84))
 4128 200c BE01      		movw r22,r28
 4129 200e 685E      		subi r22,lo8(-(24))
 4130 2010 7F4F      		sbci r23,hi8(-(24))
 4131 2012 CE01      		movw r24,r28
 4132 2014 0E94 0000 		call NutMD5Transform
 4133 2018 2F2D      		mov r18,r15
 4134 201a 3E2D      		mov r19,r14
 4135 201c C901      		movw r24,r18
 4136 201e DC01      		movw r26,r24
 4137 2020 FE01      		movw r30,r28
 4138 2022 80E1      		ldi r24,lo8(16)
 4139               	.L8:
 4140 2024 0190      		ld r0,Z+
 4141 2026 0D92      		st X+,r0
 4142 2028 8150      		subi r24,lo8(-(-1))
 4143 202a 01F4      		brne .L8
 4144 202c 88E5      		ldi r24,lo8(88)
 4145 202e FE01      		movw r30,r28
 4146 2030 1192      		st Z+,__zero_reg__
 4147 2032 8A95      	        dec r24
 4148 2034 01F4      		brne .-6
 4149               	/* epilogue start */
 4150 2036 DF91      		pop r29
 4151 2038 CF91      		pop r28
 4152 203a 1F91      		pop r17
 4153 203c 0F91      		pop r16
 4154 203e FF90      		pop r15
 4155 2040 EF90      		pop r14
 4156 2042 0895      		ret
 4157               		.size	NutMD5Final, .-NutMD5Final
 4158               	.global	NutMD5Update
 4159               		.type	NutMD5Update, @function
 4160               	NutMD5Update:
 4161 2044 4F92      		push r4
GAS LISTING C:\DOCUME~1\ADMINI~1\LOCALS~1\Temp/cc2DDUo5.s 			page 74


 4162 2046 5F92      		push r5
 4163 2048 6F92      		push r6
 4164 204a 7F92      		push r7
 4165 204c 8F92      		push r8
 4166 204e 9F92      		push r9
 4167 2050 AF92      		push r10
 4168 2052 BF92      		push r11
 4169 2054 CF92      		push r12
 4170 2056 DF92      		push r13
 4171 2058 EF92      		push r14
 4172 205a FF92      		push r15
 4173 205c 0F93      		push r16
 4174 205e 1F93      		push r17
 4175 2060 CF93      		push r28
 4176 2062 DF93      		push r29
 4177               	/* prologue: function */
 4178               	/* frame size = 0 */
 4179 2064 EC01      		movw r28,r24
 4180 2066 4B01      		movw r8,r22
 4181 2068 5901      		movw r10,r18
 4182 206a 6A01      		movw r12,r20
 4183 206c E888      		ldd r14,Y+16
 4184 206e F988      		ldd r15,Y+17
 4185 2070 0A89      		ldd r16,Y+18
 4186 2072 1B89      		ldd r17,Y+19
 4187 2074 DA01      		movw r26,r20
 4188 2076 C901      		movw r24,r18
 4189 2078 23E0      		ldi r18,3
 4190 207a 880F      	1:	lsl r24
 4191 207c 991F      		rol r25
 4192 207e AA1F      		rol r26
 4193 2080 BB1F      		rol r27
 4194 2082 2A95      		dec r18
 4195 2084 01F4      		brne 1b
 4196 2086 8E0D      		add r24,r14
 4197 2088 9F1D      		adc r25,r15
 4198 208a A01F      		adc r26,r16
 4199 208c B11F      		adc r27,r17
 4200 208e 888B      		std Y+16,r24
 4201 2090 998B      		std Y+17,r25
 4202 2092 AA8B      		std Y+18,r26
 4203 2094 BB8B      		std Y+19,r27
 4204 2096 8E15      		cp r24,r14
 4205 2098 9F05      		cpc r25,r15
 4206 209a A007      		cpc r26,r16
 4207 209c B107      		cpc r27,r17
 4208 209e 00F4      		brsh .L12
 4209 20a0 8C89      		ldd r24,Y+20
 4210 20a2 9D89      		ldd r25,Y+21
 4211 20a4 AE89      		ldd r26,Y+22
 4212 20a6 BF89      		ldd r27,Y+23
 4213 20a8 0196      		adiw r24,1
 4214 20aa A11D      		adc r26,__zero_reg__
 4215 20ac B11D      		adc r27,__zero_reg__
 4216 20ae 8C8B      		std Y+20,r24
 4217 20b0 9D8B      		std Y+21,r25
 4218 20b2 AE8B      		std Y+22,r26
GAS LISTING C:\DOCUME~1\ADMINI~1\LOCALS~1\Temp/cc2DDUo5.s 			page 75


 4219 20b4 BF8B      		std Y+23,r27
 4220               	.L12:
 4221 20b6 A601      		movw r20,r12
 4222 20b8 9501      		movw r18,r10
 4223 20ba ADE1      		ldi r26,29
 4224 20bc 5695      	1:	lsr r21
 4225 20be 4795      		ror r20
 4226 20c0 3795      		ror r19
 4227 20c2 2795      		ror r18
 4228 20c4 AA95      		dec r26
 4229 20c6 01F4      		brne 1b
 4230 20c8 8C89      		ldd r24,Y+20
 4231 20ca 9D89      		ldd r25,Y+21
 4232 20cc AE89      		ldd r26,Y+22
 4233 20ce BF89      		ldd r27,Y+23
 4234 20d0 820F      		add r24,r18
 4235 20d2 931F      		adc r25,r19
 4236 20d4 A41F      		adc r26,r20
 4237 20d6 B51F      		adc r27,r21
 4238 20d8 8C8B      		std Y+20,r24
 4239 20da 9D8B      		std Y+21,r25
 4240 20dc AE8B      		std Y+22,r26
 4241 20de BF8B      		std Y+23,r27
 4242 20e0 A801      		movw r20,r16
 4243 20e2 9701      		movw r18,r14
 4244 20e4 F3E0      		ldi r31,3
 4245 20e6 5695      	1:	lsr r21
 4246 20e8 4795      		ror r20
 4247 20ea 3795      		ror r19
 4248 20ec 2795      		ror r18
 4249 20ee FA95      		dec r31
 4250 20f0 01F4      		brne 1b
 4251 20f2 2F73      		andi r18,lo8(63)
 4252 20f4 3070      		andi r19,hi8(63)
 4253 20f6 4070      		andi r20,hlo8(63)
 4254 20f8 5070      		andi r21,hhi8(63)
 4255 20fa 2115      		cp r18,__zero_reg__
 4256 20fc 3105      		cpc r19,__zero_reg__
 4257 20fe 4105      		cpc r20,__zero_reg__
 4258 2100 5105      		cpc r21,__zero_reg__
 4259 2102 01F0      		breq .L13
 4260 2104 B901      		movw r22,r18
 4261 2106 685E      		subi r22,lo8(-(24))
 4262 2108 7F4F      		sbci r23,hi8(-(24))
 4263 210a 6C0F      		add r22,r28
 4264 210c 7D1F      		adc r23,r29
 4265 210e E0E4      		ldi r30,lo8(64)
 4266 2110 EE2E      		mov r14,r30
 4267 2112 F12C      		mov r15,__zero_reg__
 4268 2114 012D      		mov r16,__zero_reg__
 4269 2116 112D      		mov r17,__zero_reg__
 4270 2118 E21A      		sub r14,r18
 4271 211a F30A      		sbc r15,r19
 4272 211c 040B      		sbc r16,r20
 4273 211e 150B      		sbc r17,r21
 4274 2120 AE14      		cp r10,r14
 4275 2122 BF04      		cpc r11,r15
GAS LISTING C:\DOCUME~1\ADMINI~1\LOCALS~1\Temp/cc2DDUo5.s 			page 76


 4276 2124 C006      		cpc r12,r16
 4277 2126 D106      		cpc r13,r17
 4278 2128 00F4      		brsh .L14
 4279 212a CB01      		movw r24,r22
 4280 212c B401      		movw r22,r8
 4281 212e 00C0      		rjmp .L24
 4282               	.L14:
 4283 2130 CB01      		movw r24,r22
 4284 2132 B401      		movw r22,r8
 4285 2134 A701      		movw r20,r14
 4286 2136 0E94 0000 		call memcpy
 4287 213a BE01      		movw r22,r28
 4288 213c 685E      		subi r22,lo8(-(24))
 4289 213e 7F4F      		sbci r23,hi8(-(24))
 4290 2140 CE01      		movw r24,r28
 4291 2142 0E94 0000 		call NutMD5Transform
 4292 2146 8E0C      		add r8,r14
 4293 2148 9F1C      		adc r9,r15
 4294 214a AE18      		sub r10,r14
 4295 214c BF08      		sbc r11,r15
 4296 214e C00A      		sbc r12,r16
 4297 2150 D10A      		sbc r13,r17
 4298               	.L13:
 4299 2152 78E1      		ldi r23,lo8(24)
 4300 2154 672E      		mov r6,r23
 4301 2156 712C      		mov r7,__zero_reg__
 4302 2158 6C0E      		add r6,r28
 4303 215a 7D1E      		adc r7,r29
 4304 215c 2E01      		movw r4,r28
 4305 215e E401      		movw r28,r8
 4306 2160 8601      		movw r16,r12
 4307 2162 7501      		movw r14,r10
 4308 2164 00C0      		rjmp .L18
 4309               	.L20:
 4310 2166 D301      		movw r26,r6
 4311 2168 FE01      		movw r30,r28
 4312 216a 80E4      		ldi r24,lo8(64)
 4313               	.L19:
 4314 216c 0190      		ld r0,Z+
 4315 216e 0D92      		st X+,r0
 4316 2170 8150      		subi r24,lo8(-(-1))
 4317 2172 01F4      		brne .L19
 4318 2174 C201      		movw r24,r4
 4319 2176 B301      		movw r22,r6
 4320 2178 0E94 0000 		call NutMD5Transform
 4321 217c C05C      		subi r28,lo8(-(64))
 4322 217e DF4F      		sbci r29,hi8(-(64))
 4323 2180 20EC      		ldi r18,lo8(-64)
 4324 2182 3FEF      		ldi r19,hi8(-64)
 4325 2184 4FEF      		ldi r20,hlo8(-64)
 4326 2186 5FEF      		ldi r21,hhi8(-64)
 4327 2188 E20E      		add r14,r18
 4328 218a F31E      		adc r15,r19
 4329 218c 041F      		adc r16,r20
 4330 218e 151F      		adc r17,r21
 4331               	.L18:
 4332 2190 30E4      		ldi r19,lo8(64)
GAS LISTING C:\DOCUME~1\ADMINI~1\LOCALS~1\Temp/cc2DDUo5.s 			page 77


 4333 2192 E316      		cp r14,r19
 4334 2194 F104      		cpc r15,__zero_reg__
 4335 2196 0105      		cpc r16,__zero_reg__
 4336 2198 1105      		cpc r17,__zero_reg__
 4337 219a 00F4      		brsh .L20
 4338 219c A601      		movw r20,r12
 4339 219e 9501      		movw r18,r10
 4340 21a0 66E0      		ldi r22,6
 4341 21a2 5695      	1:	lsr r21
 4342 21a4 4795      		ror r20
 4343 21a6 3795      		ror r19
 4344 21a8 2795      		ror r18
 4345 21aa 6A95      		dec r22
 4346 21ac 01F4      		brne 1b
 4347 21ae 46E0      		ldi r20,6
 4348 21b0 220F      	1:	lsl r18
 4349 21b2 331F      		rol r19
 4350 21b4 4A95      		dec r20
 4351 21b6 01F4      		brne 1b
 4352 21b8 280D      		add r18,r8
 4353 21ba 391D      		adc r19,r9
 4354 21bc C301      		movw r24,r6
 4355 21be B901      		movw r22,r18
 4356 21c0 2FE3      		ldi r18,lo8(63)
 4357 21c2 30E0      		ldi r19,hi8(63)
 4358 21c4 40E0      		ldi r20,hlo8(63)
 4359 21c6 50E0      		ldi r21,hhi8(63)
 4360 21c8 A222      		and r10,r18
 4361 21ca B322      		and r11,r19
 4362 21cc C422      		and r12,r20
 4363 21ce D522      		and r13,r21
 4364               	.L24:
 4365 21d0 A501      		movw r20,r10
 4366 21d2 0E94 0000 		call memcpy
 4367               	/* epilogue start */
 4368 21d6 DF91      		pop r29
 4369 21d8 CF91      		pop r28
 4370 21da 1F91      		pop r17
 4371 21dc 0F91      		pop r16
 4372 21de FF90      		pop r15
 4373 21e0 EF90      		pop r14
 4374 21e2 DF90      		pop r13
 4375 21e4 CF90      		pop r12
 4376 21e6 BF90      		pop r11
 4377 21e8 AF90      		pop r10
 4378 21ea 9F90      		pop r9
 4379 21ec 8F90      		pop r8
 4380 21ee 7F90      		pop r7
 4381 21f0 6F90      		pop r6
 4382 21f2 5F90      		pop r5
 4383 21f4 4F90      		pop r4
 4384 21f6 0895      		ret
 4385               		.size	NutMD5Update, .-NutMD5Update
GAS LISTING C:\DOCUME~1\ADMINI~1\LOCALS~1\Temp/cc2DDUo5.s 			page 78


DEFINED SYMBOLS
                            *ABS*:00000000 md5.c
C:\DOCUME~1\ADMINI~1\LOCALS~1\Temp/cc2DDUo5.s:2      *ABS*:0000003f __SREG__
C:\DOCUME~1\ADMINI~1\LOCALS~1\Temp/cc2DDUo5.s:3      *ABS*:0000003e __SP_H__
C:\DOCUME~1\ADMINI~1\LOCALS~1\Temp/cc2DDUo5.s:4      *ABS*:0000003d __SP_L__
C:\DOCUME~1\ADMINI~1\LOCALS~1\Temp/cc2DDUo5.s:5      *ABS*:00000034 __CCP__
C:\DOCUME~1\ADMINI~1\LOCALS~1\Temp/cc2DDUo5.s:6      *ABS*:00000000 __tmp_reg__
C:\DOCUME~1\ADMINI~1\LOCALS~1\Temp/cc2DDUo5.s:7      *ABS*:00000001 __zero_reg__
C:\DOCUME~1\ADMINI~1\LOCALS~1\Temp/cc2DDUo5.s:10     .text:00000000 NutMD5Transform
C:\DOCUME~1\ADMINI~1\LOCALS~1\Temp/cc2DDUo5.s:3989   .text:00001f08 NutMD5Init
C:\DOCUME~1\ADMINI~1\LOCALS~1\Temp/cc2DDUo5.s:4038   .text:00001f5c NutMD5Final
C:\DOCUME~1\ADMINI~1\LOCALS~1\Temp/cc2DDUo5.s:4160   .text:00002044 NutMD5Update

UNDEFINED SYMBOLS
memset
memcpy
