GAS LISTING C:\DOCUME~1\ADMINI~1\LOCALS~1\Temp/cciq7To4.s 			page 1


   1               		.file	"snmp_api.c"
   2               	__SREG__ = 0x3f
   3               	__SP_H__ = 0x3e
   4               	__SP_L__ = 0x3d
   5               	__CCP__  = 0x34
   6               	__tmp_reg__ = 0
   7               	__zero_reg__ = 1
   8               		.text
   9               	.global	SnmpOidLenCmp
  10               		.type	SnmpOidLenCmp, @function
  11               	SnmpOidLenCmp:
  12 0000 CF93      		push r28
  13 0002 DF93      		push r29
  14               	/* prologue: function */
  15               	/* frame size = 0 */
  16 0004 EC01      		movw r28,r24
  17 0006 FB01      		movw r30,r22
  18 0008 BA01      		movw r22,r20
  19 000a 00C0      		rjmp .L2
  20               	.L6:
  21 000c 2881      		ld r18,Y
  22 000e 3981      		ldd r19,Y+1
  23 0010 4A81      		ldd r20,Y+2
  24 0012 5B81      		ldd r21,Y+3
  25 0014 8081      		ld r24,Z
  26 0016 9181      		ldd r25,Z+1
  27 0018 A281      		ldd r26,Z+2
  28 001a B381      		ldd r27,Z+3
  29 001c 2817      		cp r18,r24
  30 001e 3907      		cpc r19,r25
  31 0020 4A07      		cpc r20,r26
  32 0022 5B07      		cpc r21,r27
  33 0024 00F4      		brsh .L3
  34 0026 2FEF      		ldi r18,lo8(-1)
  35 0028 3FEF      		ldi r19,hi8(-1)
  36 002a 00C0      		rjmp .L4
  37               	.L3:
  38 002c 6150      		subi r22,lo8(-(-1))
  39 002e 7040      		sbci r23,hi8(-(-1))
  40 0030 8217      		cp r24,r18
  41 0032 9307      		cpc r25,r19
  42 0034 A407      		cpc r26,r20
  43 0036 B507      		cpc r27,r21
  44 0038 00F4      		brsh .L5
  45 003a 21E0      		ldi r18,lo8(1)
  46 003c 30E0      		ldi r19,hi8(1)
  47 003e 00C0      		rjmp .L4
  48               	.L5:
  49 0040 2496      		adiw r28,4
  50 0042 3496      		adiw r30,4
  51               	.L2:
  52 0044 6115      		cp r22,__zero_reg__
  53 0046 7105      		cpc r23,__zero_reg__
  54 0048 01F4      		brne .L6
  55 004a 20E0      		ldi r18,lo8(0)
  56 004c 30E0      		ldi r19,hi8(0)
  57               	.L4:
GAS LISTING C:\DOCUME~1\ADMINI~1\LOCALS~1\Temp/cciq7To4.s 			page 2


  58 004e C901      		movw r24,r18
  59               	/* epilogue start */
  60 0050 DF91      		pop r29
  61 0052 CF91      		pop r28
  62 0054 0895      		ret
  63               		.size	SnmpOidLenCmp, .-SnmpOidLenCmp
  64               	.global	SnmpOidCmp
  65               		.type	SnmpOidCmp, @function
  66               	SnmpOidCmp:
  67 0056 0F93      		push r16
  68 0058 1F93      		push r17
  69 005a CF93      		push r28
  70 005c DF93      		push r29
  71               	/* prologue: function */
  72               	/* frame size = 0 */
  73 005e FC01      		movw r30,r24
  74 0060 8B01      		movw r16,r22
  75 0062 E901      		movw r28,r18
  76 0064 C901      		movw r24,r18
  77 0066 322F      		mov r19,r18
  78 0068 292F      		mov r18,r25
  79 006a 6C17      		cp r22,r28
  80 006c 7D07      		cpc r23,r29
  81 006e 00F4      		brsh .L9
  82 0070 CB01      		movw r24,r22
  83 0072 362F      		mov r19,r22
  84 0074 292F      		mov r18,r25
  85               	.L9:
  86 0076 CF01      		movw r24,r30
  87 0078 BA01      		movw r22,r20
  88 007a 432F      		mov r20,r19
  89 007c 522F      		mov r21,r18
  90 007e 0E94 0000 		call SnmpOidLenCmp
  91 0082 9C01      		movw r18,r24
  92 0084 0097      		sbiw r24,0
  93 0086 01F4      		brne .L10
  94 0088 0C17      		cp r16,r28
  95 008a 1D07      		cpc r17,r29
  96 008c 00F4      		brsh .L11
  97 008e 2FEF      		ldi r18,lo8(-1)
  98 0090 3FEF      		ldi r19,hi8(-1)
  99 0092 00C0      		rjmp .L10
 100               	.L11:
 101 0094 C017      		cp r28,r16
 102 0096 D107      		cpc r29,r17
 103 0098 00F4      		brsh .L10
 104 009a 21E0      		ldi r18,lo8(1)
 105 009c 30E0      		ldi r19,hi8(1)
 106               	.L10:
 107 009e C901      		movw r24,r18
 108               	/* epilogue start */
 109 00a0 DF91      		pop r29
 110 00a2 CF91      		pop r28
 111 00a4 1F91      		pop r17
 112 00a6 0F91      		pop r16
 113 00a8 0895      		ret
 114               		.size	SnmpOidCmp, .-SnmpOidCmp
GAS LISTING C:\DOCUME~1\ADMINI~1\LOCALS~1\Temp/cciq7To4.s 			page 3


 115               	.global	SnmpOidTreeCmp
 116               		.type	SnmpOidTreeCmp, @function
 117               	SnmpOidTreeCmp:
 118 00aa 0F93      		push r16
 119 00ac 1F93      		push r17
 120 00ae CF93      		push r28
 121 00b0 DF93      		push r29
 122               	/* prologue: function */
 123               	/* frame size = 0 */
 124 00b2 FC01      		movw r30,r24
 125 00b4 8B01      		movw r16,r22
 126 00b6 E901      		movw r28,r18
 127 00b8 C901      		movw r24,r18
 128 00ba 322F      		mov r19,r18
 129 00bc 292F      		mov r18,r25
 130 00be 6C17      		cp r22,r28
 131 00c0 7D07      		cpc r23,r29
 132 00c2 00F4      		brsh .L15
 133 00c4 CB01      		movw r24,r22
 134 00c6 362F      		mov r19,r22
 135 00c8 292F      		mov r18,r25
 136               	.L15:
 137 00ca CF01      		movw r24,r30
 138 00cc BA01      		movw r22,r20
 139 00ce 432F      		mov r20,r19
 140 00d0 522F      		mov r21,r18
 141 00d2 0E94 0000 		call SnmpOidLenCmp
 142 00d6 9C01      		movw r18,r24
 143 00d8 0097      		sbiw r24,0
 144 00da 01F4      		brne .L16
 145 00dc 0C17      		cp r16,r28
 146 00de 1D07      		cpc r17,r29
 147 00e0 00F4      		brsh .L16
 148 00e2 2FEF      		ldi r18,lo8(-1)
 149 00e4 3FEF      		ldi r19,hi8(-1)
 150               	.L16:
 151 00e6 C901      		movw r24,r18
 152               	/* epilogue start */
 153 00e8 DF91      		pop r29
 154 00ea CF91      		pop r28
 155 00ec 1F91      		pop r17
 156 00ee 0F91      		pop r16
 157 00f0 0895      		ret
 158               		.size	SnmpOidTreeCmp, .-SnmpOidTreeCmp
 159               	.global	SnmpOidCmpIdx
 160               		.type	SnmpOidCmpIdx, @function
 161               	SnmpOidCmpIdx:
 162 00f2 8F92      		push r8
 163 00f4 9F92      		push r9
 164 00f6 AF92      		push r10
 165 00f8 BF92      		push r11
 166 00fa CF92      		push r12
 167 00fc DF92      		push r13
 168 00fe EF92      		push r14
 169 0100 FF92      		push r15
 170 0102 0F93      		push r16
 171 0104 1F93      		push r17
GAS LISTING C:\DOCUME~1\ADMINI~1\LOCALS~1\Temp/cciq7To4.s 			page 4


 172 0106 CF93      		push r28
 173 0108 DF93      		push r29
 174               	/* prologue: function */
 175               	/* frame size = 0 */
 176 010a 4C01      		movw r8,r24
 177 010c 5B01      		movw r10,r22
 178 010e 6901      		movw r12,r18
 179 0110 E901      		movw r28,r18
 180 0112 6217      		cp r22,r18
 181 0114 7307      		cpc r23,r19
 182 0116 00F4      		brsh .L19
 183 0118 EB01      		movw r28,r22
 184               	.L19:
 185 011a C401      		movw r24,r8
 186 011c BA01      		movw r22,r20
 187 011e AE01      		movw r20,r28
 188 0120 0E94 0000 		call SnmpOidLenCmp
 189 0124 9C01      		movw r18,r24
 190 0126 0097      		sbiw r24,0
 191 0128 01F4      		brne .L20
 192 012a AC14      		cp r10,r12
 193 012c BD04      		cpc r11,r13
 194 012e 00F0      		brlo .L21
 195 0130 CA14      		cp r12,r10
 196 0132 DB04      		cpc r13,r11
 197 0134 00F4      		brsh .L20
 198 0136 CC0F      		lsl r28
 199 0138 DD1F      		rol r29
 200 013a CC0F      		lsl r28
 201 013c DD1F      		rol r29
 202 013e C80D      		add r28,r8
 203 0140 D91D      		adc r29,r9
 204 0142 4881      		ld r20,Y
 205 0144 5981      		ldd r21,Y+1
 206 0146 6A81      		ldd r22,Y+2
 207 0148 7B81      		ldd r23,Y+3
 208 014a 4E15      		cp r20,r14
 209 014c 5F05      		cpc r21,r15
 210 014e 6007      		cpc r22,r16
 211 0150 7107      		cpc r23,r17
 212 0152 00F0      		brlo .L21
 213 0154 E416      		cp r14,r20
 214 0156 F506      		cpc r15,r21
 215 0158 0607      		cpc r16,r22
 216 015a 1707      		cpc r17,r23
 217 015c 00F0      		brlo .L25
 218               	.L22:
 219 015e 0894      		sec
 220 0160 C11C      		adc r12,__zero_reg__
 221 0162 D11C      		adc r13,__zero_reg__
 222 0164 CA14      		cp r12,r10
 223 0166 DB04      		cpc r13,r11
 224 0168 00F4      		brsh .L20
 225               	.L25:
 226 016a 21E0      		ldi r18,lo8(1)
 227 016c 30E0      		ldi r19,hi8(1)
 228 016e 00C0      		rjmp .L20
GAS LISTING C:\DOCUME~1\ADMINI~1\LOCALS~1\Temp/cciq7To4.s 			page 5


 229               	.L21:
 230 0170 2FEF      		ldi r18,lo8(-1)
 231 0172 3FEF      		ldi r19,hi8(-1)
 232               	.L20:
 233 0174 C901      		movw r24,r18
 234               	/* epilogue start */
 235 0176 DF91      		pop r29
 236 0178 CF91      		pop r28
 237 017a 1F91      		pop r17
 238 017c 0F91      		pop r16
 239 017e FF90      		pop r15
 240 0180 EF90      		pop r14
 241 0182 DF90      		pop r13
 242 0184 CF90      		pop r12
 243 0186 BF90      		pop r11
 244 0188 AF90      		pop r10
 245 018a 9F90      		pop r9
 246 018c 8F90      		pop r8
 247 018e 0895      		ret
 248               		.size	SnmpOidCmpIdx, .-SnmpOidCmpIdx
 249               	.global	SnmpStatsInc
 250               		.type	SnmpStatsInc, @function
 251               	SnmpStatsInc:
 252               	/* prologue: function */
 253               	/* frame size = 0 */
 254 0190 8C31      		cpi r24,28
 255 0192 9105      		cpc r25,__zero_reg__
 256 0194 00F4      		brsh .L28
 257 0196 FC01      		movw r30,r24
 258 0198 EE0F      		lsl r30
 259 019a FF1F      		rol r31
 260 019c EE0F      		lsl r30
 261 019e FF1F      		rol r31
 262 01a0 E050      		subi r30,lo8(-(statistics))
 263 01a2 F040      		sbci r31,hi8(-(statistics))
 264 01a4 8081      		ld r24,Z
 265 01a6 9181      		ldd r25,Z+1
 266 01a8 A281      		ldd r26,Z+2
 267 01aa B381      		ldd r27,Z+3
 268 01ac 0196      		adiw r24,1
 269 01ae A11D      		adc r26,__zero_reg__
 270 01b0 B11D      		adc r27,__zero_reg__
 271 01b2 8083      		st Z,r24
 272 01b4 9183      		std Z+1,r25
 273 01b6 A283      		std Z+2,r26
 274 01b8 B383      		std Z+3,r27
 275               	.L28:
 276 01ba 0895      		ret
 277               		.size	SnmpStatsInc, .-SnmpStatsInc
 278               	.global	SnmpStatsGet
 279               		.type	SnmpStatsGet, @function
 280               	SnmpStatsGet:
 281               	/* prologue: function */
 282               	/* frame size = 0 */
 283 01bc FC01      		movw r30,r24
 284 01be 8C31      		cpi r24,28
 285 01c0 9105      		cpc r25,__zero_reg__
GAS LISTING C:\DOCUME~1\ADMINI~1\LOCALS~1\Temp/cciq7To4.s 			page 6


 286 01c2 00F0      		brlo .L30
 287 01c4 20E0      		ldi r18,lo8(0)
 288 01c6 30E0      		ldi r19,hi8(0)
 289 01c8 40E0      		ldi r20,hlo8(0)
 290 01ca 50E0      		ldi r21,hhi8(0)
 291 01cc 00C0      		rjmp .L31
 292               	.L30:
 293 01ce EE0F      		lsl r30
 294 01d0 FF1F      		rol r31
 295 01d2 EE0F      		lsl r30
 296 01d4 FF1F      		rol r31
 297 01d6 E050      		subi r30,lo8(-(statistics))
 298 01d8 F040      		sbci r31,hi8(-(statistics))
 299 01da 2081      		ld r18,Z
 300 01dc 3181      		ldd r19,Z+1
 301 01de 4281      		ldd r20,Z+2
 302 01e0 5381      		ldd r21,Z+3
 303               	.L31:
 304 01e2 B901      		movw r22,r18
 305 01e4 CA01      		movw r24,r20
 306               	/* epilogue start */
 307 01e6 0895      		ret
 308               		.size	SnmpStatsGet, .-SnmpStatsGet
 309               	.global	SnmpStatsSet
 310               		.type	SnmpStatsSet, @function
 311               	SnmpStatsSet:
 312               	/* prologue: function */
 313               	/* frame size = 0 */
 314 01e8 FC01      		movw r30,r24
 315 01ea 8C31      		cpi r24,28
 316 01ec 9105      		cpc r25,__zero_reg__
 317 01ee 00F4      		brsh .L35
 318 01f0 EE0F      		lsl r30
 319 01f2 FF1F      		rol r31
 320 01f4 EE0F      		lsl r30
 321 01f6 FF1F      		rol r31
 322 01f8 E050      		subi r30,lo8(-(statistics))
 323 01fa F040      		sbci r31,hi8(-(statistics))
 324 01fc 4083      		st Z,r20
 325 01fe 5183      		std Z+1,r21
 326 0200 6283      		std Z+2,r22
 327 0202 7383      		std Z+3,r23
 328               	.L35:
 329 0204 0895      		ret
 330               		.size	SnmpStatsSet, .-SnmpStatsSet
 331               	.global	SnmpOidEquals
 332               		.type	SnmpOidEquals, @function
 333               	SnmpOidEquals:
 334               	/* prologue: function */
 335               	/* frame size = 0 */
 336 0206 FB01      		movw r30,r22
 337 0208 6217      		cp r22,r18
 338 020a 7307      		cpc r23,r19
 339 020c 01F4      		brne .L37
 340 020e BA01      		movw r22,r20
 341 0210 AF01      		movw r20,r30
 342 0212 0E94 0000 		call memcmp
GAS LISTING C:\DOCUME~1\ADMINI~1\LOCALS~1\Temp/cciq7To4.s 			page 7


 343 0216 0097      		sbiw r24,0
 344 0218 01F4      		brne .L37
 345 021a 20E0      		ldi r18,lo8(0)
 346 021c 30E0      		ldi r19,hi8(0)
 347 021e 00C0      		rjmp .L38
 348               	.L37:
 349 0220 2FEF      		ldi r18,lo8(-1)
 350 0222 3FEF      		ldi r19,hi8(-1)
 351               	.L38:
 352 0224 C901      		movw r24,r18
 353               	/* epilogue start */
 354 0226 0895      		ret
 355               		.size	SnmpOidEquals, .-SnmpOidEquals
 356               		.lcomm statistics,112
 357               	.global __do_clear_bss
GAS LISTING C:\DOCUME~1\ADMINI~1\LOCALS~1\Temp/cciq7To4.s 			page 8


DEFINED SYMBOLS
                            *ABS*:00000000 snmp_api.c
C:\DOCUME~1\ADMINI~1\LOCALS~1\Temp/cciq7To4.s:2      *ABS*:0000003f __SREG__
C:\DOCUME~1\ADMINI~1\LOCALS~1\Temp/cciq7To4.s:3      *ABS*:0000003e __SP_H__
C:\DOCUME~1\ADMINI~1\LOCALS~1\Temp/cciq7To4.s:4      *ABS*:0000003d __SP_L__
C:\DOCUME~1\ADMINI~1\LOCALS~1\Temp/cciq7To4.s:5      *ABS*:00000034 __CCP__
C:\DOCUME~1\ADMINI~1\LOCALS~1\Temp/cciq7To4.s:6      *ABS*:00000000 __tmp_reg__
C:\DOCUME~1\ADMINI~1\LOCALS~1\Temp/cciq7To4.s:7      *ABS*:00000001 __zero_reg__
C:\DOCUME~1\ADMINI~1\LOCALS~1\Temp/cciq7To4.s:11     .text:00000000 SnmpOidLenCmp
C:\DOCUME~1\ADMINI~1\LOCALS~1\Temp/cciq7To4.s:66     .text:00000056 SnmpOidCmp
C:\DOCUME~1\ADMINI~1\LOCALS~1\Temp/cciq7To4.s:117    .text:000000aa SnmpOidTreeCmp
C:\DOCUME~1\ADMINI~1\LOCALS~1\Temp/cciq7To4.s:161    .text:000000f2 SnmpOidCmpIdx
C:\DOCUME~1\ADMINI~1\LOCALS~1\Temp/cciq7To4.s:251    .text:00000190 SnmpStatsInc
                             .bss:00000000 statistics
C:\DOCUME~1\ADMINI~1\LOCALS~1\Temp/cciq7To4.s:280    .text:000001bc SnmpStatsGet
C:\DOCUME~1\ADMINI~1\LOCALS~1\Temp/cciq7To4.s:311    .text:000001e8 SnmpStatsSet
C:\DOCUME~1\ADMINI~1\LOCALS~1\Temp/cciq7To4.s:333    .text:00000206 SnmpOidEquals

UNDEFINED SYMBOLS
memcmp
__do_clear_bss
