GAS LISTING C:\DOCUME~1\ADMINI~1\LOCALS~1\Temp/ccjmSMkU.s 			page 1


   1               		.file	"snmp_mib.c"
   2               	__SREG__ = 0x3f
   3               	__SP_H__ = 0x3e
   4               	__SP_L__ = 0x3d
   5               	__CCP__  = 0x34
   6               	__tmp_reg__ = 0
   7               	__zero_reg__ = 1
   8               		.text
   9               	.global	SnmpMibFind
  10               		.type	SnmpMibFind, @function
  11               	SnmpMibFind:
  12 0000 2F92      		push r2
  13 0002 3F92      		push r3
  14 0004 4F92      		push r4
  15 0006 5F92      		push r5
  16 0008 6F92      		push r6
  17 000a 7F92      		push r7
  18 000c 8F92      		push r8
  19 000e 9F92      		push r9
  20 0010 AF92      		push r10
  21 0012 BF92      		push r11
  22 0014 CF92      		push r12
  23 0016 DF92      		push r13
  24 0018 EF92      		push r14
  25 001a FF92      		push r15
  26 001c 0F93      		push r16
  27 001e 1F93      		push r17
  28 0020 DF93      		push r29
  29 0022 CF93      		push r28
  30 0024 CDB7      		in r28,__SP_L__
  31 0026 DEB7      		in r29,__SP_H__
  32 0028 6697      		sbiw r28,22
  33 002a 0FB6      		in __tmp_reg__,__SREG__
  34 002c F894      		cli
  35 002e DEBF      		out __SP_H__,r29
  36 0030 0FBE      		out __SREG__,__tmp_reg__
  37 0032 CDBF      		out __SP_L__,r28
  38               	/* prologue: function */
  39               	/* frame size = 22 */
  40 0034 2C01      		movw r4,r24
  41 0036 1B01      		movw r2,r22
  42 0038 5C87      		std Y+12,r21
  43 003a 4B87      		std Y+11,r20
  44 003c 3E87      		std Y+14,r19
  45 003e 2D87      		std Y+13,r18
  46 0040 188B      		std Y+16,r17
  47 0042 0F87      		std Y+15,r16
  48 0044 3701      		movw r6,r14
  49 0046 DA8A      		std Y+18,r13
  50 0048 C98A      		std Y+17,r12
  51 004a BC8A      		std Y+20,r11
  52 004c AB8A      		std Y+19,r10
  53 004e E114      		cp r14,__zero_reg__
  54 0050 F104      		cpc r15,__zero_reg__
  55 0052 01F0      		breq .L2
  56 0054 8824      		clr r8
  57 0056 9924      		clr r9
GAS LISTING C:\DOCUME~1\ADMINI~1\LOCALS~1\Temp/ccjmSMkU.s 			page 2


  58 0058 1C82      		std Y+4,__zero_reg__
  59 005a 1B82      		std Y+3,__zero_reg__
  60 005c 00C0      		rjmp .L3
  61               	.L2:
  62 005e DB01      		movw r26,r22
  63 0060 8D91      		ld r24,X+
  64 0062 9C91      		ld r25,X
  65 0064 880F      		lsl r24
  66 0066 991F      		rol r25
  67 0068 880F      		lsl r24
  68 006a 991F      		rol r25
  69 006c 0E94 0000 		call malloc
  70 0070 4C01      		movw r8,r24
  71 0072 0097      		sbiw r24,0
  72 0074 01F4      		brne .+2
  73 0076 00C0      		rjmp .L28
  74               	.L4:
  75 0078 F101      		movw r30,r2
  76 007a 2081      		ld r18,Z
  77 007c 3181      		ldd r19,Z+1
  78 007e 220F      		lsl r18
  79 0080 331F      		rol r19
  80 0082 220F      		lsl r18
  81 0084 331F      		rol r19
  82 0086 B201      		movw r22,r4
  83 0088 A901      		movw r20,r18
  84 008a 0E94 0000 		call memcpy
  85 008e D101      		movw r26,r2
  86 0090 0D90      		ld __tmp_reg__,X+
  87 0092 BC91      		ld r27,X
  88 0094 A02D      		mov r26,__tmp_reg__
  89 0096 BC83      		std Y+4,r27
  90 0098 AB83      		std Y+3,r26
  91               	.L3:
  92 009a E989      		ldd r30,Y+17
  93 009c FA89      		ldd r31,Y+18
  94 009e 1182      		std Z+1,__zero_reg__
  95 00a0 1082      		st Z,__zero_reg__
  96 00a2 A090 0000 		lds r10,mibtree
  97 00a6 B090 0000 		lds r11,(mibtree)+1
  98 00aa 1A82      		std Y+2,__zero_reg__
  99 00ac 1982      		std Y+1,__zero_reg__
 100 00ae 00C0      		rjmp .L7
 101               	.L25:
 102 00b0 D101      		movw r26,r2
 103 00b2 6D91      		ld r22,X+
 104 00b4 7C91      		ld r23,X
 105 00b6 A501      		movw r20,r10
 106 00b8 485F      		subi r20,lo8(-(8))
 107 00ba 5F4F      		sbci r21,hi8(-(8))
 108 00bc F501      		movw r30,r10
 109 00be 2681      		ldd r18,Z+6
 110 00c0 3781      		ldd r19,Z+7
 111 00c2 C201      		movw r24,r4
 112 00c4 0E94 0000 		call SnmpOidTreeCmp
 113 00c8 6C01      		movw r12,r24
 114 00ca 0097      		sbiw r24,0
GAS LISTING C:\DOCUME~1\ADMINI~1\LOCALS~1\Temp/ccjmSMkU.s 			page 3


 115 00cc 01F0      		breq .L8
 116 00ce 97FF      		sbrs r25,7
 117 00d0 00C0      		rjmp .L9
 118 00d2 6114      		cp r6,__zero_reg__
 119 00d4 7104      		cpc r7,__zero_reg__
 120 00d6 01F0      		breq .+2
 121 00d8 00C0      		rjmp .L9
 122               	.L8:
 123 00da D501      		movw r26,r10
 124 00dc 1696      		adiw r26,6
 125 00de 8D91      		ld r24,X+
 126 00e0 9C91      		ld r25,X
 127 00e2 1797      		sbiw r26,6+1
 128 00e4 F101      		movw r30,r2
 129 00e6 0190      		ld __tmp_reg__,Z+
 130 00e8 F081      		ld r31,Z
 131 00ea E02D      		mov r30,__tmp_reg__
 132 00ec E81B      		sub r30,r24
 133 00ee F90B      		sbc r31,r25
 134 00f0 FE83      		std Y+6,r31
 135 00f2 ED83      		std Y+5,r30
 136 00f4 9C01      		movw r18,r24
 137 00f6 220F      		lsl r18
 138 00f8 331F      		rol r19
 139 00fa 220F      		lsl r18
 140 00fc 331F      		rol r19
 141 00fe 240D      		add r18,r4
 142 0100 351D      		adc r19,r5
 143 0102 3887      		std Y+8,r19
 144 0104 2F83      		std Y+7,r18
 145 0106 1496      		adiw r26,4
 146 0108 8D91      		ld r24,X+
 147 010a 9C91      		ld r25,X
 148 010c 1597      		sbiw r26,4+1
 149 010e 9E8B      		std Y+22,r25
 150 0110 8D8B      		std Y+21,r24
 151 0112 1A86      		std Y+10,__zero_reg__
 152 0114 1986      		std Y+9,__zero_reg__
 153 0116 00C0      		rjmp .L10
 154               	.L22:
 155 0118 AD89      		ldd r26,Y+21
 156 011a BE89      		ldd r27,Y+22
 157 011c 1696      		adiw r26,6
 158 011e 2D91      		ld r18,X+
 159 0120 3C91      		ld r19,X
 160 0122 1797      		sbiw r26,6+1
 161 0124 2115      		cp r18,__zero_reg__
 162 0126 3105      		cpc r19,__zero_reg__
 163 0128 01F0      		breq .L11
 164 012a 6114      		cp r6,__zero_reg__
 165 012c 7104      		cpc r7,__zero_reg__
 166 012e 01F4      		brne .L12
 167 0130 D7FC      		sbrc r13,7
 168 0132 00C0      		rjmp .L13
 169               	.L12:
 170 0134 4D89      		ldd r20,Y+21
 171 0136 5E89      		ldd r21,Y+22
GAS LISTING C:\DOCUME~1\ADMINI~1\LOCALS~1\Temp/ccjmSMkU.s 			page 4


 172 0138 485F      		subi r20,lo8(-(8))
 173 013a 5F4F      		sbci r21,hi8(-(8))
 174 013c 8F81      		ldd r24,Y+7
 175 013e 9885      		ldd r25,Y+8
 176 0140 6D81      		ldd r22,Y+5
 177 0142 7E81      		ldd r23,Y+6
 178 0144 0E94 0000 		call SnmpOidTreeCmp
 179 0148 6C01      		movw r12,r24
 180               	.L11:
 181 014a 6114      		cp r6,__zero_reg__
 182 014c 7104      		cpc r7,__zero_reg__
 183 014e 01F0      		breq .L14
 184 0150 C114      		cp r12,__zero_reg__
 185 0152 D104      		cpc r13,__zero_reg__
 186 0154 01F0      		breq .L13
 187 0156 00C0      		rjmp .L15
 188               	.L14:
 189 0158 1C14      		cp __zero_reg__,r12
 190 015a 1D04      		cpc __zero_reg__,r13
 191 015c 04F4      		brge .L13
 192               	.L15:
 193 015e ED89      		ldd r30,Y+21
 194 0160 FE89      		ldd r31,Y+22
 195 0162 8681      		ldd r24,Z+6
 196 0164 9781      		ldd r25,Z+7
 197 0166 892B      		or r24,r25
 198 0168 01F4      		brne .L16
 199               	.L13:
 200 016a AD89      		ldd r26,Y+21
 201 016c BE89      		ldd r27,Y+22
 202 016e 1496      		adiw r26,4
 203 0170 ED91      		ld r30,X+
 204 0172 FC91      		ld r31,X
 205 0174 1597      		sbiw r26,4+1
 206 0176 CD01      		movw r24,r26
 207 0178 B201      		movw r22,r4
 208 017a A101      		movw r20,r2
 209 017c 9301      		movw r18,r6
 210 017e 0D85      		ldd r16,Y+13
 211 0180 1E85      		ldd r17,Y+14
 212 0182 E988      		ldd r14,Y+17
 213 0184 FA88      		ldd r15,Y+18
 214 0186 0995      		icall
 215 0188 8C01      		movw r16,r24
 216 018a E988      		ldd r14,Y+17
 217 018c FA88      		ldd r15,Y+18
 218 018e EF28      		or r14,r15
 219 0190 01F0      		breq .L17
 220 0192 ED89      		ldd r30,Y+21
 221 0194 FE89      		ldd r31,Y+22
 222 0196 8281      		ldd r24,Z+2
 223 0198 9381      		ldd r25,Z+3
 224 019a AF85      		ldd r26,Y+15
 225 019c B889      		ldd r27,Y+16
 226 019e 8D93      		st X+,r24
 227 01a0 9C93      		st X,r25
 228               	.L17:
GAS LISTING C:\DOCUME~1\ADMINI~1\LOCALS~1\Temp/ccjmSMkU.s 			page 5


 229 01a2 6114      		cp r6,__zero_reg__
 230 01a4 7104      		cpc r7,__zero_reg__
 231 01a6 01F0      		breq .L18
 232 01a8 E1E0      		ldi r30,lo8(1)
 233 01aa F0E0      		ldi r31,hi8(1)
 234 01ac FA83      		std Y+2,r31
 235 01ae E983      		std Y+1,r30
 236               	.L18:
 237 01b0 0115      		cp r16,__zero_reg__
 238 01b2 1105      		cpc r17,__zero_reg__
 239 01b4 01F4      		brne .L19
 240               	.L16:
 241 01b6 6114      		cp r6,__zero_reg__
 242 01b8 7104      		cpc r7,__zero_reg__
 243 01ba 01F0      		breq .L20
 244 01bc 1C14      		cp __zero_reg__,r12
 245 01be 1D04      		cpc __zero_reg__,r13
 246 01c0 04F0      		brlt .L20
 247 01c2 AD89      		ldd r26,Y+21
 248 01c4 BE89      		ldd r27,Y+22
 249 01c6 1196      		adiw r26,1
 250 01c8 8C91      		ld r24,X
 251 01ca 1197      		sbiw r26,1
 252 01cc EB85      		ldd r30,Y+11
 253 01ce FC85      		ldd r31,Y+12
 254 01d0 8083      		st Z,r24
 255 01d2 1296      		adiw r26,2
 256 01d4 8D91      		ld r24,X+
 257 01d6 9C91      		ld r25,X
 258 01d8 1397      		sbiw r26,2+1
 259 01da AF85      		ldd r26,Y+15
 260 01dc B889      		ldd r27,Y+16
 261 01de 8D93      		st X+,r24
 262 01e0 9C93      		st X,r25
 263 01e2 EB89      		ldd r30,Y+19
 264 01e4 FC89      		ldd r31,Y+20
 265 01e6 1182      		std Z+1,__zero_reg__
 266 01e8 1082      		st Z,__zero_reg__
 267 01ea 2981      		ldd r18,Y+1
 268 01ec 3A81      		ldd r19,Y+2
 269 01ee 232B      		or r18,r19
 270 01f0 01F0      		breq .+2
 271 01f2 00C0      		rjmp .L28
 272 01f4 81E0      		ldi r24,lo8(1)
 273 01f6 90E0      		ldi r25,hi8(1)
 274 01f8 9183      		std Z+1,r25
 275 01fa 8083      		st Z,r24
 276 01fc 00C0      		rjmp .L28
 277               	.L20:
 278 01fe 8985      		ldd r24,Y+9
 279 0200 9A85      		ldd r25,Y+10
 280 0202 0196      		adiw r24,1
 281 0204 9A87      		std Y+10,r25
 282 0206 8987      		std Y+9,r24
 283 0208 AD89      		ldd r26,Y+21
 284 020a BE89      		ldd r27,Y+22
 285 020c A857      		subi r26,lo8(-(136))
GAS LISTING C:\DOCUME~1\ADMINI~1\LOCALS~1\Temp/ccjmSMkU.s 			page 6


 286 020e BF4F      		sbci r27,hi8(-(136))
 287 0210 BE8B      		std Y+22,r27
 288 0212 AD8B      		std Y+21,r26
 289               	.L10:
 290 0214 F501      		movw r30,r10
 291 0216 8281      		ldd r24,Z+2
 292 0218 9381      		ldd r25,Z+3
 293 021a 2985      		ldd r18,Y+9
 294 021c 3A85      		ldd r19,Y+10
 295 021e 2817      		cp r18,r24
 296 0220 3907      		cpc r19,r25
 297 0222 04F4      		brge .+2
 298 0224 00C0      		rjmp .L22
 299 0226 00C0      		rjmp .L9
 300               	.L19:
 301 0228 8114      		cp r8,__zero_reg__
 302 022a 9104      		cpc r9,__zero_reg__
 303 022c 01F4      		brne .L23
 304 022e 00C0      		rjmp .L24
 305               	.L9:
 306 0230 D501      		movw r26,r10
 307 0232 AD90      		ld r10,X+
 308 0234 BC90      		ld r11,X
 309               	.L7:
 310 0236 A114      		cp r10,__zero_reg__
 311 0238 B104      		cpc r11,__zero_reg__
 312 023a 01F0      		breq .+2
 313 023c 00C0      		rjmp .L25
 314 023e 00C0      		rjmp .L33
 315               	.L34:
 316 0240 2B81      		ldd r18,Y+3
 317 0242 3C81      		ldd r19,Y+4
 318 0244 220F      		lsl r18
 319 0246 331F      		rol r19
 320 0248 220F      		lsl r18
 321 024a 331F      		rol r19
 322 024c C201      		movw r24,r4
 323 024e B401      		movw r22,r8
 324 0250 A901      		movw r20,r18
 325 0252 0E94 0000 		call memcpy
 326 0256 2B81      		ldd r18,Y+3
 327 0258 3C81      		ldd r19,Y+4
 328 025a F101      		movw r30,r2
 329 025c 3183      		std Z+1,r19
 330 025e 2083      		st Z,r18
 331 0260 C401      		movw r24,r8
 332 0262 0E94 0000 		call free
 333               	.L30:
 334 0266 AB89      		ldd r26,Y+19
 335 0268 BC89      		ldd r27,Y+20
 336 026a 1196      		adiw r26,1
 337 026c 1C92      		st X,__zero_reg__
 338 026e 1E92      		st -X,__zero_reg__
 339 0270 E981      		ldd r30,Y+1
 340 0272 FA81      		ldd r31,Y+2
 341 0274 EF2B      		or r30,r31
 342 0276 01F4      		brne .L28
GAS LISTING C:\DOCUME~1\ADMINI~1\LOCALS~1\Temp/ccjmSMkU.s 			page 7


 343 0278 81E0      		ldi r24,lo8(1)
 344 027a 90E0      		ldi r25,hi8(1)
 345 027c 8D93      		st X+,r24
 346 027e 9C93      		st X,r25
 347               	.L28:
 348 0280 00E0      		ldi r16,lo8(0)
 349 0282 10E0      		ldi r17,hi8(0)
 350 0284 00C0      		rjmp .L5
 351               	.L23:
 352 0286 C401      		movw r24,r8
 353 0288 0E94 0000 		call free
 354               	.L24:
 355 028c AD89      		ldd r26,Y+21
 356 028e BE89      		ldd r27,Y+22
 357 0290 1196      		adiw r26,1
 358 0292 8C91      		ld r24,X
 359 0294 1197      		sbiw r26,1
 360 0296 EB85      		ldd r30,Y+11
 361 0298 FC85      		ldd r31,Y+12
 362 029a 8083      		st Z,r24
 363 029c 1296      		adiw r26,2
 364 029e 8D91      		ld r24,X+
 365 02a0 9C91      		ld r25,X
 366 02a2 1397      		sbiw r26,2+1
 367 02a4 AF85      		ldd r26,Y+15
 368 02a6 B889      		ldd r27,Y+16
 369 02a8 8D93      		st X+,r24
 370 02aa 9C93      		st X,r25
 371               	.L5:
 372 02ac C801      		movw r24,r16
 373               	/* epilogue start */
 374 02ae 6696      		adiw r28,22
 375 02b0 0FB6      		in __tmp_reg__,__SREG__
 376 02b2 F894      		cli
 377 02b4 DEBF      		out __SP_H__,r29
 378 02b6 0FBE      		out __SREG__,__tmp_reg__
 379 02b8 CDBF      		out __SP_L__,r28
 380 02ba CF91      		pop r28
 381 02bc DF91      		pop r29
 382 02be 1F91      		pop r17
 383 02c0 0F91      		pop r16
 384 02c2 FF90      		pop r15
 385 02c4 EF90      		pop r14
 386 02c6 DF90      		pop r13
 387 02c8 CF90      		pop r12
 388 02ca BF90      		pop r11
 389 02cc AF90      		pop r10
 390 02ce 9F90      		pop r9
 391 02d0 8F90      		pop r8
 392 02d2 7F90      		pop r7
 393 02d4 6F90      		pop r6
 394 02d6 5F90      		pop r5
 395 02d8 4F90      		pop r4
 396 02da 3F90      		pop r3
 397 02dc 2F90      		pop r2
 398 02de 0895      		ret
 399               	.L33:
GAS LISTING C:\DOCUME~1\ADMINI~1\LOCALS~1\Temp/ccjmSMkU.s 			page 8


 400 02e0 6728      		or r6,r7
 401 02e2 01F4      		brne .L30
 402 02e4 00C0      		rjmp .L34
 403               		.size	SnmpMibFind, .-SnmpMibFind
 404               	.global	SnmpMibRegister
 405               		.type	SnmpMibRegister, @function
 406               	SnmpMibRegister:
 407 02e6 AF92      		push r10
 408 02e8 BF92      		push r11
 409 02ea CF92      		push r12
 410 02ec DF92      		push r13
 411 02ee EF92      		push r14
 412 02f0 FF92      		push r15
 413 02f2 0F93      		push r16
 414 02f4 1F93      		push r17
 415 02f6 CF93      		push r28
 416 02f8 DF93      		push r29
 417               	/* prologue: function */
 418               	/* frame size = 0 */
 419 02fa B82E      		mov r11,r24
 420 02fc A92E      		mov r10,r25
 421 02fe 6B01      		movw r12,r22
 422 0300 7A01      		movw r14,r20
 423 0302 8901      		movw r16,r18
 424 0304 88E8      		ldi r24,lo8(136)
 425 0306 90E0      		ldi r25,hi8(136)
 426 0308 0E94 0000 		call malloc
 427 030c EC01      		movw r28,r24
 428 030e 0097      		sbiw r24,0
 429 0310 01F4      		brne .L36
 430 0312 2FEF      		ldi r18,lo8(-1)
 431 0314 3FEF      		ldi r19,hi8(-1)
 432 0316 00C0      		rjmp .L37
 433               	.L36:
 434 0318 1B83      		std Y+3,r17
 435 031a 0A83      		std Y+2,r16
 436 031c FD82      		std Y+5,r15
 437 031e EC82      		std Y+4,r14
 438 0320 DF82      		std Y+7,r13
 439 0322 CE82      		std Y+6,r12
 440 0324 78E0      		ldi r23,lo8(8)
 441 0326 E72E      		mov r14,r23
 442 0328 F12C      		mov r15,__zero_reg__
 443 032a E80E      		add r14,r24
 444 032c F91E      		adc r15,r25
 445 032e 9601      		movw r18,r12
 446 0330 220F      		lsl r18
 447 0332 331F      		rol r19
 448 0334 220F      		lsl r18
 449 0336 331F      		rol r19
 450 0338 C701      		movw r24,r14
 451 033a 6B2D      		mov r22,r11
 452 033c 7A2D      		mov r23,r10
 453 033e A901      		movw r20,r18
 454 0340 0E94 0000 		call memcpy
 455 0344 00E0      		ldi r16,lo8(mibtree)
 456 0346 10E0      		ldi r17,hi8(mibtree)
GAS LISTING C:\DOCUME~1\ADMINI~1\LOCALS~1\Temp/ccjmSMkU.s 			page 9


 457 0348 00C0      		rjmp .L39
 458               	.L41:
 459 034a 6681      		ldd r22,Z+6
 460 034c 7781      		ldd r23,Z+7
 461 034e 2E81      		ldd r18,Y+6
 462 0350 3F81      		ldd r19,Y+7
 463 0352 CF01      		movw r24,r30
 464 0354 0896      		adiw r24,8
 465 0356 A701      		movw r20,r14
 466 0358 0E94 0000 		call SnmpOidCmp
 467 035c 1816      		cp __zero_reg__,r24
 468 035e 1906      		cpc __zero_reg__,r25
 469 0360 04F0      		brlt .L40
 470 0362 D801      		movw r26,r16
 471 0364 8C91      		ld r24,X
 472 0366 1196      		adiw r26,1
 473 0368 9C91      		ld r25,X
 474 036a 9C01      		movw r18,r24
 475 036c 8901      		movw r16,r18
 476               	.L39:
 477 036e D801      		movw r26,r16
 478 0370 ED91      		ld r30,X+
 479 0372 FC91      		ld r31,X
 480 0374 3097      		sbiw r30,0
 481 0376 01F4      		brne .L41
 482               	.L40:
 483 0378 F801      		movw r30,r16
 484 037a 8081      		ld r24,Z
 485 037c 9181      		ldd r25,Z+1
 486 037e 9983      		std Y+1,r25
 487 0380 8883      		st Y,r24
 488 0382 D183      		std Z+1,r29
 489 0384 C083      		st Z,r28
 490 0386 20E0      		ldi r18,lo8(0)
 491 0388 30E0      		ldi r19,hi8(0)
 492               	.L37:
 493 038a C901      		movw r24,r18
 494               	/* epilogue start */
 495 038c DF91      		pop r29
 496 038e CF91      		pop r28
 497 0390 1F91      		pop r17
 498 0392 0F91      		pop r16
 499 0394 FF90      		pop r15
 500 0396 EF90      		pop r14
 501 0398 DF90      		pop r13
 502 039a CF90      		pop r12
 503 039c BF90      		pop r11
 504 039e AF90      		pop r10
 505 03a0 0895      		ret
 506               		.size	SnmpMibRegister, .-SnmpMibRegister
 507               		.lcomm mibtree,2
 508               	.global __do_clear_bss
GAS LISTING C:\DOCUME~1\ADMINI~1\LOCALS~1\Temp/ccjmSMkU.s 			page 10


DEFINED SYMBOLS
                            *ABS*:00000000 snmp_mib.c
C:\DOCUME~1\ADMINI~1\LOCALS~1\Temp/ccjmSMkU.s:2      *ABS*:0000003f __SREG__
C:\DOCUME~1\ADMINI~1\LOCALS~1\Temp/ccjmSMkU.s:3      *ABS*:0000003e __SP_H__
C:\DOCUME~1\ADMINI~1\LOCALS~1\Temp/ccjmSMkU.s:4      *ABS*:0000003d __SP_L__
C:\DOCUME~1\ADMINI~1\LOCALS~1\Temp/ccjmSMkU.s:5      *ABS*:00000034 __CCP__
C:\DOCUME~1\ADMINI~1\LOCALS~1\Temp/ccjmSMkU.s:6      *ABS*:00000000 __tmp_reg__
C:\DOCUME~1\ADMINI~1\LOCALS~1\Temp/ccjmSMkU.s:7      *ABS*:00000001 __zero_reg__
C:\DOCUME~1\ADMINI~1\LOCALS~1\Temp/ccjmSMkU.s:11     .text:00000000 SnmpMibFind
                             .bss:00000000 mibtree
C:\DOCUME~1\ADMINI~1\LOCALS~1\Temp/ccjmSMkU.s:406    .text:000002e6 SnmpMibRegister

UNDEFINED SYMBOLS
malloc
memcpy
SnmpOidTreeCmp
free
SnmpOidCmp
__do_clear_bss
