GAS LISTING C:\Temp/ccGwwSHJ.s 			page 1


   1               		.file	"lan91.c"
   2               	__SREG__ = 0x3f
   3               	__SP_H__ = 0x3e
   4               	__SP_L__ = 0x3d
   5               	__CCP__  = 0x34
   6               	__tmp_reg__ = 0
   7               	__zero_reg__ = 1
   8               		.global __do_copy_data
   9               		.global __do_clear_bss
  10               		.text
  11               		.type	NicPhyRegSelect, @function
  12               	NicPhyRegSelect:
  13               	/* prologue: function */
  14               	/* frame size = 0 */
  15 0000 F82F      		mov r31,r24
  16 0002 83E0      		ldi r24,lo8(3)
  17 0004 8093 0EC0 		sts -16370,r24
  18 0008 8091 08C0 		lds r24,-16376
  19 000c 827F      		andi r24,lo8(-14)
  20 000e 482F      		mov r20,r24
  21 0010 4860      		ori r20,lo8(8)
  22 0012 90E0      		ldi r25,lo8(0)
  23 0014 E82F      		mov r30,r24
  24 0016 E960      		ori r30,lo8(9)
  25 0018 782F      		mov r23,r24
  26 001a 7D60      		ori r23,lo8(13)
  27               	.L2:
  28 001c E093 08C0 		sts -16376,r30
  29 0020 7093 08C0 		sts -16376,r23
  30 0024 9F5F      		subi r25,lo8(-(1))
  31 0026 9132      		cpi r25,lo8(33)
  32 0028 01F4      		brne .L2
  33 002a 4093 08C0 		sts -16376,r20
  34 002e 542F      		mov r21,r20
  35 0030 5460      		ori r21,lo8(4)
  36 0032 5093 08C0 		sts -16376,r21
  37 0036 E093 08C0 		sts -16376,r30
  38 003a 7093 08C0 		sts -16376,r23
  39 003e 6623      		tst r22
  40 0040 01F0      		breq .L3
  41 0042 4093 08C0 		sts -16376,r20
  42 0046 5093 08C0 		sts -16376,r21
  43 004a E093 08C0 		sts -16376,r30
  44 004e 7093 08C0 		sts -16376,r23
  45 0052 00C0      		rjmp .L13
  46               	.L3:
  47 0054 E093 08C0 		sts -16376,r30
  48 0058 7093 08C0 		sts -16376,r23
  49 005c 4093 08C0 		sts -16376,r20
  50 0060 5093 08C0 		sts -16376,r21
  51               	.L13:
  52 0064 80E0      		ldi r24,lo8(0)
  53               	.L9:
  54 0066 4093 08C0 		sts -16376,r20
  55 006a 5093 08C0 		sts -16376,r21
  56 006e 8F5F      		subi r24,lo8(-(1))
  57 0070 8530      		cpi r24,lo8(5)
GAS LISTING C:\Temp/ccGwwSHJ.s 			page 2


  58 0072 01F4      		brne .L9
  59 0074 90E1      		ldi r25,lo8(16)
  60 0076 25E0      		ldi r18,lo8(5)
  61 0078 30E0      		ldi r19,hi8(5)
  62               	.L7:
  63 007a 892F      		mov r24,r25
  64 007c 8F23      		and r24,r31
  65 007e 01F0      		breq .L5
  66 0080 E093 08C0 		sts -16376,r30
  67 0084 7093 08C0 		sts -16376,r23
  68 0088 00C0      		rjmp .L6
  69               	.L5:
  70 008a 4093 08C0 		sts -16376,r20
  71 008e 5093 08C0 		sts -16376,r21
  72               	.L6:
  73 0092 9695      		lsr r25
  74 0094 2150      		subi r18,lo8(-(-1))
  75 0096 3040      		sbci r19,hi8(-(-1))
  76 0098 01F4      		brne .L7
  77 009a 4093 08C0 		sts -16376,r20
  78 009e 842F      		mov r24,r20
  79               	/* epilogue start */
  80 00a0 0895      		ret
  81               		.size	NicPhyRegSelect, .-NicPhyRegSelect
  82               		.type	NicPhyRead, @function
  83               	NicPhyRead:
  84               	/* prologue: function */
  85               	/* frame size = 0 */
  86 00a2 60E0      		ldi r22,lo8(0)
  87 00a4 0E94 0000 		call NicPhyRegSelect
  88 00a8 582F      		mov r21,r24
  89 00aa 577F      		andi r21,lo8(-9)
  90 00ac 5093 08C0 		sts -16376,r21
  91 00b0 652F      		mov r22,r21
  92 00b2 6460      		ori r22,lo8(4)
  93 00b4 6093 08C0 		sts -16376,r22
  94 00b8 20E0      		ldi r18,lo8(0)
  95 00ba 30E0      		ldi r19,hi8(0)
  96 00bc 40E0      		ldi r20,lo8(0)
  97               	.L15:
  98 00be 5093 08C0 		sts -16376,r21
  99 00c2 6093 08C0 		sts -16376,r22
 100 00c6 220F      		lsl r18
 101 00c8 331F      		rol r19
 102 00ca 8091 08C0 		lds r24,-16376
 103 00ce 90E0      		ldi r25,lo8(0)
 104 00d0 9695      		lsr r25
 105 00d2 8795      		ror r24
 106 00d4 8170      		andi r24,lo8(1)
 107 00d6 9070      		andi r25,hi8(1)
 108 00d8 282B      		or r18,r24
 109 00da 392B      		or r19,r25
 110 00dc 4F5F      		subi r20,lo8(-(1))
 111 00de 4031      		cpi r20,lo8(16)
 112 00e0 01F4      		brne .L15
 113 00e2 5093 08C0 		sts -16376,r21
 114 00e6 C901      		movw r24,r18
GAS LISTING C:\Temp/ccGwwSHJ.s 			page 3


 115               	/* epilogue start */
 116 00e8 0895      		ret
 117               		.size	NicPhyRead, .-NicPhyRead
 118               		.type	NicPhyWrite, @function
 119               	NicPhyWrite:
 120 00ea CF93      		push r28
 121 00ec DF93      		push r29
 122               	/* prologue: function */
 123               	/* frame size = 0 */
 124 00ee EB01      		movw r28,r22
 125 00f0 61E0      		ldi r22,lo8(1)
 126 00f2 0E94 0000 		call NicPhyRegSelect
 127 00f6 482F      		mov r20,r24
 128 00f8 F82F      		mov r31,r24
 129 00fa F160      		ori r31,lo8(1)
 130 00fc F093 08C0 		sts -16376,r31
 131 0100 E82F      		mov r30,r24
 132 0102 E560      		ori r30,lo8(5)
 133 0104 E093 08C0 		sts -16376,r30
 134 0108 8093 08C0 		sts -16376,r24
 135 010c 582F      		mov r21,r24
 136 010e 5460      		ori r21,lo8(4)
 137 0110 5093 08C0 		sts -16376,r21
 138 0114 60E0      		ldi r22,lo8(-32768)
 139 0116 70E8      		ldi r23,hi8(-32768)
 140 0118 20E1      		ldi r18,lo8(16)
 141 011a 30E0      		ldi r19,hi8(16)
 142               	.L21:
 143 011c CB01      		movw r24,r22
 144 011e 8C23      		and r24,r28
 145 0120 9D23      		and r25,r29
 146 0122 892B      		or r24,r25
 147 0124 01F0      		breq .L19
 148 0126 F093 08C0 		sts -16376,r31
 149 012a E093 08C0 		sts -16376,r30
 150 012e 00C0      		rjmp .L20
 151               	.L19:
 152 0130 4093 08C0 		sts -16376,r20
 153 0134 5093 08C0 		sts -16376,r21
 154               	.L20:
 155 0138 7695      		lsr r23
 156 013a 6795      		ror r22
 157 013c 2150      		subi r18,lo8(-(-1))
 158 013e 3040      		sbci r19,hi8(-(-1))
 159 0140 01F4      		brne .L21
 160 0142 477F      		andi r20,lo8(-9)
 161 0144 4093 08C0 		sts -16376,r20
 162               	/* epilogue start */
 163 0148 DF91      		pop r29
 164 014a CF91      		pop r28
 165 014c 0895      		ret
 166               		.size	NicPhyWrite, .-NicPhyWrite
 167               		.type	NicInterrupt, @function
 168               	NicInterrupt:
 169               	/* prologue: function */
 170               	/* frame size = 0 */
 171 014e FC01      		movw r30,r24
GAS LISTING C:\Temp/ccGwwSHJ.s 			page 4


 172 0150 A189      		ldd r26,Z+17
 173 0152 B289      		ldd r27,Z+18
 174 0154 92E0      		ldi r25,lo8(2)
 175 0156 9093 0EC0 		sts -16370,r25
 176 015a 2091 0DC0 		lds r18,-16371
 177 015e 1092 0DC0 		sts -16371,__zero_reg__
 178 0162 8091 0CC0 		lds r24,-16372
 179 0166 8223      		and r24,r18
 180 0168 382F      		mov r19,r24
 181 016a 82FF      		sbrs r24,2
 182 016c 00C0      		rjmp .L25
 183 016e 84E0      		ldi r24,lo8(4)
 184 0170 8093 0CC0 		sts -16372,r24
 185 0174 2B7F      		andi r18,lo8(-5)
 186 0176 00C0      		rjmp .L26
 187               	.L25:
 188 0178 81FF      		sbrs r24,1
 189 017a 00C0      		rjmp .L26
 190 017c 1092 0EC0 		sts -16370,__zero_reg__
 191 0180 8091 00C0 		lds r24,-16384
 192 0184 8160      		ori r24,lo8(1)
 193 0186 8093 00C0 		sts -16384,r24
 194 018a 8091 00C0 		lds r24,-16384
 195 018e 1092 01C0 		sts -16383,__zero_reg__
 196 0192 9093 0EC0 		sts -16370,r25
 197 0196 9093 0CC0 		sts -16372,r25
 198 019a 80EA      		ldi r24,lo8(-96)
 199 019c 8093 00C0 		sts -16384,r24
 200               	.L26:
 201 01a0 34FF      		sbrs r19,4
 202 01a2 00C0      		rjmp .L27
 203 01a4 80E1      		ldi r24,lo8(16)
 204 01a6 8093 0CC0 		sts -16372,r24
 205 01aa 8D91      		ld r24,X+
 206 01ac 9C91      		ld r25,X
 207 01ae 1197      		sbiw r26,1
 208 01b0 892B      		or r24,r25
 209 01b2 01F4      		brne .L28
 210 01b4 8FEF      		ldi r24,lo8(-1)
 211 01b6 9FEF      		ldi r25,hi8(-1)
 212 01b8 1196      		adiw r26,1
 213 01ba 9C93      		st X,r25
 214 01bc 8E93      		st -X,r24
 215 01be 00C0      		rjmp .L27
 216               	.L28:
 217 01c0 8D91      		ld r24,X+
 218 01c2 9C91      		ld r25,X
 219 01c4 1197      		sbiw r26,1
 220 01c6 8F5F      		subi r24,lo8(-1)
 221 01c8 9F4F      		sbci r25,hi8(-1)
 222 01ca 01F0      		breq .L27
 223 01cc ED91      		ld r30,X+
 224 01ce FC91      		ld r31,X
 225 01d0 1197      		sbiw r26,1
 226 01d2 8481      		ldd r24,Z+4
 227 01d4 9581      		ldd r25,Z+5
 228 01d6 0196      		adiw r24,1
GAS LISTING C:\Temp/ccGwwSHJ.s 			page 5


 229 01d8 9583      		std Z+5,r25
 230 01da 8483      		std Z+4,r24
 231               	.L27:
 232 01dc 36FF      		sbrs r19,6
 233 01de 00C0      		rjmp .L29
 234 01e0 80E4      		ldi r24,lo8(64)
 235 01e2 8093 0CC0 		sts -16372,r24
 236 01e6 8D91      		ld r24,X+
 237 01e8 9C91      		ld r25,X
 238 01ea 1197      		sbiw r26,1
 239 01ec 892B      		or r24,r25
 240 01ee 01F4      		brne .L30
 241 01f0 8FEF      		ldi r24,lo8(-1)
 242 01f2 9FEF      		ldi r25,hi8(-1)
 243 01f4 1196      		adiw r26,1
 244 01f6 9C93      		st X,r25
 245 01f8 8E93      		st -X,r24
 246 01fa 00C0      		rjmp .L29
 247               	.L30:
 248 01fc 8D91      		ld r24,X+
 249 01fe 9C91      		ld r25,X
 250 0200 1197      		sbiw r26,1
 251 0202 8F5F      		subi r24,lo8(-1)
 252 0204 9F4F      		sbci r25,hi8(-1)
 253 0206 01F0      		breq .L29
 254 0208 ED91      		ld r30,X+
 255 020a FC91      		ld r31,X
 256 020c 1197      		sbiw r26,1
 257 020e 8481      		ldd r24,Z+4
 258 0210 9581      		ldd r25,Z+5
 259 0212 0196      		adiw r24,1
 260 0214 9583      		std Z+5,r25
 261 0216 8483      		std Z+4,r24
 262               	.L29:
 263 0218 30FF      		sbrs r19,0
 264 021a 00C0      		rjmp .L31
 265 021c 81E0      		ldi r24,lo8(1)
 266 021e 8093 0CC0 		sts -16372,r24
 267 0222 2E7F      		andi r18,lo8(-2)
 268 0224 8D91      		ld r24,X+
 269 0226 9C91      		ld r25,X
 270 0228 1197      		sbiw r26,1
 271 022a 892B      		or r24,r25
 272 022c 01F4      		brne .L32
 273 022e 8FEF      		ldi r24,lo8(-1)
 274 0230 9FEF      		ldi r25,hi8(-1)
 275 0232 1196      		adiw r26,1
 276 0234 9C93      		st X,r25
 277 0236 8E93      		st -X,r24
 278 0238 00C0      		rjmp .L31
 279               	.L32:
 280 023a 8D91      		ld r24,X+
 281 023c 9C91      		ld r25,X
 282 023e 1197      		sbiw r26,1
 283 0240 8F5F      		subi r24,lo8(-1)
 284 0242 9F4F      		sbci r25,hi8(-1)
 285 0244 01F0      		breq .L31
GAS LISTING C:\Temp/ccGwwSHJ.s 			page 6


 286 0246 ED91      		ld r30,X+
 287 0248 FC91      		ld r31,X
 288 024a 8481      		ldd r24,Z+4
 289 024c 9581      		ldd r25,Z+5
 290 024e 0196      		adiw r24,1
 291 0250 9583      		std Z+5,r25
 292 0252 8483      		std Z+4,r24
 293               	.L31:
 294 0254 33FF      		sbrs r19,3
 295 0256 00C0      		rjmp .L33
 296 0258 277F      		andi r18,lo8(-9)
 297 025a E091 0000 		lds r30,maq
 298 025e F091 0000 		lds r31,(maq)+1
 299 0262 3097      		sbiw r30,0
 300 0264 01F4      		brne .L34
 301 0266 8FEF      		ldi r24,lo8(-1)
 302 0268 9FEF      		ldi r25,hi8(-1)
 303 026a 9093 0000 		sts (maq)+1,r25
 304 026e 8093 0000 		sts maq,r24
 305 0272 00C0      		rjmp .L33
 306               	.L34:
 307 0274 4FEF      		ldi r20,hi8(-1)
 308 0276 EF3F      		cpi r30,lo8(-1)
 309 0278 F407      		cpc r31,r20
 310 027a 01F0      		breq .L33
 311 027c 8481      		ldd r24,Z+4
 312 027e 9581      		ldd r25,Z+5
 313 0280 0196      		adiw r24,1
 314 0282 9583      		std Z+5,r25
 315 0284 8483      		std Z+4,r24
 316               	.L33:
 317 0286 2093 0DC0 		sts -16371,r18
 318               	/* epilogue start */
 319 028a 0895      		ret
 320               		.size	NicInterrupt, .-NicInterrupt
 321               		.type	NicMmuWait, @function
 322               	NicMmuWait:
 323 028c CF93      		push r28
 324 028e DF93      		push r29
 325               	/* prologue: function */
 326               	/* frame size = 0 */
 327 0290 EC01      		movw r28,r24
 328 0292 00C0      		rjmp .L37
 329               	.L39:
 330 0294 8091 00C0 		lds r24,-16384
 331 0298 80FF      		sbrs r24,0
 332 029a 00C0      		rjmp .L38
 333 029c 81E0      		ldi r24,lo8(1)
 334 029e 0E94 0000 		call NutDelay
 335               	.L37:
 336 02a2 2197      		sbiw r28,1
 337 02a4 8FEF      		ldi r24,hi8(-1)
 338 02a6 CF3F      		cpi r28,lo8(-1)
 339 02a8 D807      		cpc r29,r24
 340 02aa 01F4      		brne .L39
 341               	.L38:
 342 02ac CD2B      		or r28,r29
GAS LISTING C:\Temp/ccGwwSHJ.s 			page 7


 343 02ae 01F4      		brne .L40
 344 02b0 2FEF      		ldi r18,lo8(-1)
 345 02b2 3FEF      		ldi r19,hi8(-1)
 346 02b4 00C0      		rjmp .L41
 347               	.L40:
 348 02b6 20E0      		ldi r18,lo8(0)
 349 02b8 30E0      		ldi r19,hi8(0)
 350               	.L41:
 351 02ba C901      		movw r24,r18
 352               	/* epilogue start */
 353 02bc DF91      		pop r29
 354 02be CF91      		pop r28
 355 02c0 0895      		ret
 356               		.size	NicMmuWait, .-NicMmuWait
 357               		.type	Lan91Output, @function
 358               	Lan91Output:
 359 02c2 DF92      		push r13
 360 02c4 EF92      		push r14
 361 02c6 FF92      		push r15
 362 02c8 0F93      		push r16
 363 02ca 1F93      		push r17
 364 02cc CF93      		push r28
 365 02ce DF93      		push r29
 366               	/* prologue: function */
 367               	/* frame size = 0 */
 368 02d0 7B01      		movw r14,r22
 369 02d2 4091 0000 		lds r20,mx_wait.2462
 370 02d6 5091 0000 		lds r21,(mx_wait.2462)+1
 371 02da 60E0      		ldi r22,lo8(0)
 372 02dc 70E0      		ldi r23,hi8(0)
 373 02de 80E0      		ldi r24,lo8(mutex)
 374 02e0 90E0      		ldi r25,hi8(mutex)
 375 02e2 0E94 0000 		call NutEventWait
 376 02e6 892B      		or r24,r25
 377 02e8 01F0      		breq .+2
 378 02ea 00C0      		rjmp .L44
 379 02ec F701      		movw r30,r14
 380 02ee 0585      		ldd r16,Z+13
 381 02f0 1685      		ldd r17,Z+14
 382 02f2 8185      		ldd r24,Z+9
 383 02f4 9285      		ldd r25,Z+10
 384 02f6 080F      		add r16,r24
 385 02f8 191F      		adc r17,r25
 386 02fa 8189      		ldd r24,Z+17
 387 02fc 9289      		ldd r25,Z+18
 388 02fe 080F      		add r16,r24
 389 0300 191F      		adc r17,r25
 390 0302 F5E0      		ldi r31,hi8(1501)
 391 0304 0D3D      		cpi r16,lo8(1501)
 392 0306 1F07      		cpc r17,r31
 393 0308 00F0      		brlo .+2
 394 030a 00C0      		rjmp .L45
 395 030c D090 0DC0 		lds r13,-16371
 396 0310 1092 0DC0 		sts -16371,__zero_reg__
 397 0314 82E0      		ldi r24,lo8(2)
 398 0316 8093 0EC0 		sts -16370,r24
 399 031a 80E2      		ldi r24,lo8(32)
GAS LISTING C:\Temp/ccGwwSHJ.s 			page 8


 400 031c 8093 00C0 		sts -16384,r24
 401 0320 84E6      		ldi r24,lo8(100)
 402 0322 90E0      		ldi r25,hi8(100)
 403 0324 0E94 0000 		call NicMmuWait
 404 0328 892B      		or r24,r25
 405 032a 01F0      		breq .+2
 406 032c 00C0      		rjmp .L45
 407 032e 88E0      		ldi r24,lo8(8)
 408 0330 D82A      		or r13,r24
 409 0332 D092 0DC0 		sts -16371,r13
 410 0336 F701      		movw r30,r14
 411 0338 C581      		ldd r28,Z+5
 412 033a D681      		ldd r29,Z+6
 413 033c 2696      		adiw r28,6
 414 033e C00F      		add r28,r16
 415 0340 D11F      		adc r29,r17
 416 0342 C0FD      		sbrc r28,0
 417 0344 00C0      		rjmp .L46
 418 0346 DD24      		clr r13
 419 0348 00C0      		rjmp .L77
 420               	.L46:
 421 034a 2196      		adiw r28,1
 422 034c DD24      		clr r13
 423 034e D394      		inc r13
 424 0350 00C0      		rjmp .L77
 425               	.L49:
 426 0352 4DE7      		ldi r20,lo8(125)
 427 0354 50E0      		ldi r21,hi8(125)
 428 0356 60E0      		ldi r22,hlo8(125)
 429 0358 70E0      		ldi r23,hhi8(125)
 430 035a 80E0      		ldi r24,lo8(maq)
 431 035c 90E0      		ldi r25,hi8(maq)
 432 035e 0E94 0000 		call NutEventWait
 433 0362 892B      		or r24,r25
 434 0364 01F0      		breq .L72
 435 0366 0093 00C0 		sts -16384,r16
 436 036a 88EE      		ldi r24,lo8(1000)
 437 036c 93E0      		ldi r25,hi8(1000)
 438 036e 0E94 0000 		call NicMmuWait
 439 0372 1093 00C0 		sts -16384,r17
 440 0376 84E6      		ldi r24,lo8(100)
 441 0378 90E0      		ldi r25,hi8(100)
 442 037a 0E94 0000 		call NicMmuWait
 443 037e 892B      		or r24,r25
 444 0380 01F4      		brne .L48
 445 0382 8091 0CC0 		lds r24,-16372
 446 0386 83FD      		sbrc r24,3
 447 0388 00C0      		rjmp .L72
 448               	.L48:
 449 038a 4DE7      		ldi r20,lo8(125)
 450 038c 50E0      		ldi r21,hi8(125)
 451 038e 60E0      		ldi r22,hlo8(125)
 452 0390 70E0      		ldi r23,hhi8(125)
 453 0392 80E0      		ldi r24,lo8(maq)
 454 0394 90E0      		ldi r25,hi8(maq)
 455 0396 0E94 0000 		call NutEventWait
 456 039a 892B      		or r24,r25
GAS LISTING C:\Temp/ccGwwSHJ.s 			page 9


 457 039c 01F0      		breq .L72
 458 039e 00C0      		rjmp .L45
 459               	.L77:
 460 03a0 00E4      		ldi r16,lo8(64)
 461 03a2 10E2      		ldi r17,lo8(32)
 462               	.L72:
 463 03a4 8091 0CC0 		lds r24,-16372
 464 03a8 83FF      		sbrs r24,3
 465 03aa 00C0      		rjmp .L49
 466 03ac 1091 0DC0 		lds r17,-16371
 467 03b0 1092 0DC0 		sts -16371,__zero_reg__
 468 03b4 8091 03C0 		lds r24,-16381
 469 03b8 8093 02C0 		sts -16382,r24
 470 03bc 1092 06C0 		sts -16378,__zero_reg__
 471 03c0 80E4      		ldi r24,lo8(64)
 472 03c2 8093 07C0 		sts -16377,r24
 473 03c6 1092 08C0 		sts -16376,__zero_reg__
 474 03ca 1092 08C0 		sts -16376,__zero_reg__
 475 03ce C093 08C0 		sts -16376,r28
 476 03d2 D093 09C0 		sts -16375,r29
 477 03d6 F701      		movw r30,r14
 478 03d8 7581      		ldd r23,Z+5
 479 03da 472F      		mov r20,r23
 480 03dc 5681      		ldd r21,Z+6
 481 03de 6381      		ldd r22,Z+3
 482 03e0 2481      		ldd r18,Z+4
 483 03e2 4115      		cp r20,__zero_reg__
 484 03e4 5105      		cpc r21,__zero_reg__
 485 03e6 01F0      		breq .L50
 486 03e8 862F      		mov r24,r22
 487 03ea 922F      		mov r25,r18
 488 03ec 9C01      		movw r18,r24
 489 03ee F901      		movw r30,r18
 490 03f0 4150      		subi r20,lo8(-(-1))
 491 03f2 5040      		sbci r21,hi8(-(-1))
 492 03f4 952F      		mov r25,r21
 493 03f6 272F      		mov r18,r23
 494 03f8 260F      		add r18,r22
 495               	.L73:
 496 03fa 8191      		ld r24,Z+
 497 03fc 8093 08C0 		sts -16376,r24
 498 0400 2E17      		cp r18,r30
 499 0402 01F4      		brne .L73
 500 0404 9923      		tst r25
 501 0406 01F0      		breq .L50
 502 0408 9150      		subi r25,lo8(-(-1))
 503 040a 00C0      		rjmp .L73
 504               	.L50:
 505 040c F701      		movw r30,r14
 506 040e 7185      		ldd r23,Z+9
 507 0410 472F      		mov r20,r23
 508 0412 5285      		ldd r21,Z+10
 509 0414 6781      		ldd r22,Z+7
 510 0416 2085      		ldd r18,Z+8
 511 0418 4115      		cp r20,__zero_reg__
 512 041a 5105      		cpc r21,__zero_reg__
 513 041c 01F0      		breq .L52
GAS LISTING C:\Temp/ccGwwSHJ.s 			page 10


 514 041e 862F      		mov r24,r22
 515 0420 922F      		mov r25,r18
 516 0422 9C01      		movw r18,r24
 517 0424 F901      		movw r30,r18
 518 0426 4150      		subi r20,lo8(-(-1))
 519 0428 5040      		sbci r21,hi8(-(-1))
 520 042a 952F      		mov r25,r21
 521 042c 272F      		mov r18,r23
 522 042e 260F      		add r18,r22
 523               	.L74:
 524 0430 8191      		ld r24,Z+
 525 0432 8093 08C0 		sts -16376,r24
 526 0436 2E17      		cp r18,r30
 527 0438 01F4      		brne .L74
 528 043a 9923      		tst r25
 529 043c 01F0      		breq .L52
 530 043e 9150      		subi r25,lo8(-(-1))
 531 0440 00C0      		rjmp .L74
 532               	.L52:
 533 0442 F701      		movw r30,r14
 534 0444 7585      		ldd r23,Z+13
 535 0446 472F      		mov r20,r23
 536 0448 5685      		ldd r21,Z+14
 537 044a 6385      		ldd r22,Z+11
 538 044c 2485      		ldd r18,Z+12
 539 044e 4115      		cp r20,__zero_reg__
 540 0450 5105      		cpc r21,__zero_reg__
 541 0452 01F0      		breq .L54
 542 0454 862F      		mov r24,r22
 543 0456 922F      		mov r25,r18
 544 0458 9C01      		movw r18,r24
 545 045a F901      		movw r30,r18
 546 045c 4150      		subi r20,lo8(-(-1))
 547 045e 5040      		sbci r21,hi8(-(-1))
 548 0460 952F      		mov r25,r21
 549 0462 272F      		mov r18,r23
 550 0464 260F      		add r18,r22
 551               	.L75:
 552 0466 8191      		ld r24,Z+
 553 0468 8093 08C0 		sts -16376,r24
 554 046c 2E17      		cp r18,r30
 555 046e 01F4      		brne .L75
 556 0470 9923      		tst r25
 557 0472 01F0      		breq .L54
 558 0474 9150      		subi r25,lo8(-(-1))
 559 0476 00C0      		rjmp .L75
 560               	.L54:
 561 0478 F701      		movw r30,r14
 562 047a A189      		ldd r26,Z+17
 563 047c 4A2F      		mov r20,r26
 564 047e 5289      		ldd r21,Z+18
 565 0480 7785      		ldd r23,Z+15
 566 0482 6089      		ldd r22,Z+16
 567 0484 4115      		cp r20,__zero_reg__
 568 0486 5105      		cpc r21,__zero_reg__
 569 0488 01F0      		breq .L56
 570 048a 872F      		mov r24,r23
GAS LISTING C:\Temp/ccGwwSHJ.s 			page 11


 571 048c 962F      		mov r25,r22
 572 048e 9C01      		movw r18,r24
 573 0490 F901      		movw r30,r18
 574 0492 4150      		subi r20,lo8(-(-1))
 575 0494 5040      		sbci r21,hi8(-(-1))
 576 0496 952F      		mov r25,r21
 577 0498 2A0F      		add r18,r26
 578               	.L76:
 579 049a 8191      		ld r24,Z+
 580 049c 8093 08C0 		sts -16376,r24
 581 04a0 2E17      		cp r18,r30
 582 04a2 01F4      		brne .L76
 583 04a4 9923      		tst r25
 584 04a6 01F0      		breq .L56
 585 04a8 9150      		subi r25,lo8(-(-1))
 586 04aa 00C0      		rjmp .L76
 587               	.L56:
 588 04ac DD20      		tst r13
 589 04ae 01F0      		breq .L58
 590 04b0 1092 08C0 		sts -16376,__zero_reg__
 591               	.L58:
 592 04b4 1092 08C0 		sts -16376,__zero_reg__
 593 04b8 1092 09C0 		sts -16375,__zero_reg__
 594 04bc 84E6      		ldi r24,lo8(100)
 595 04be 90E0      		ldi r25,hi8(100)
 596 04c0 0E94 0000 		call NicMmuWait
 597 04c4 892B      		or r24,r25
 598 04c6 01F4      		brne .L45
 599 04c8 80EC      		ldi r24,lo8(-64)
 600 04ca 8093 00C0 		sts -16384,r24
 601 04ce 1660      		ori r17,lo8(6)
 602 04d0 1093 0DC0 		sts -16371,r17
 603 04d4 88E8      		ldi r24,lo8(5000)
 604 04d6 93E1      		ldi r25,hi8(5000)
 605 04d8 9093 0000 		sts (mx_wait.2462)+1,r25
 606 04dc 8093 0000 		sts mx_wait.2462,r24
 607 04e0 C0E0      		ldi r28,lo8(0)
 608 04e2 D0E0      		ldi r29,hi8(0)
 609 04e4 00C0      		rjmp .L59
 610               	.L45:
 611 04e6 CFEF      		ldi r28,lo8(-1)
 612 04e8 DFEF      		ldi r29,hi8(-1)
 613               	.L59:
 614 04ea 80E0      		ldi r24,lo8(mutex)
 615 04ec 90E0      		ldi r25,hi8(mutex)
 616 04ee 0E94 0000 		call NutEventPost
 617 04f2 00C0      		rjmp .L60
 618               	.L44:
 619 04f4 84EF      		ldi r24,lo8(500)
 620 04f6 91E0      		ldi r25,hi8(500)
 621 04f8 9093 0000 		sts (mx_wait.2462)+1,r25
 622 04fc 8093 0000 		sts mx_wait.2462,r24
 623 0500 CFEF      		ldi r28,lo8(-1)
 624 0502 DFEF      		ldi r29,hi8(-1)
 625               	.L60:
 626 0504 CE01      		movw r24,r28
 627               	/* epilogue start */
GAS LISTING C:\Temp/ccGwwSHJ.s 			page 12


 628 0506 DF91      		pop r29
 629 0508 CF91      		pop r28
 630 050a 1F91      		pop r17
 631 050c 0F91      		pop r16
 632 050e FF90      		pop r15
 633 0510 EF90      		pop r14
 634 0512 DF90      		pop r13
 635 0514 0895      		ret
 636               		.size	Lan91Output, .-Lan91Output
 637               		.type	Lan91IOCtl, @function
 638               	Lan91IOCtl:
 639 0516 CF93      		push r28
 640 0518 DF93      		push r29
 641               	/* prologue: function */
 642               	/* frame size = 0 */
 643 051a EA01      		movw r28,r20
 644 051c DC01      		movw r26,r24
 645 051e 1F96      		adiw r26,15
 646 0520 ED91      		ld r30,X+
 647 0522 FC91      		ld r31,X
 648 0524 5097      		sbiw r26,15+1
 649 0526 B0E1      		ldi r27,hi8(4100)
 650 0528 6430      		cpi r22,lo8(4100)
 651 052a 7B07      		cpc r23,r27
 652 052c 01F0      		breq .L81
 653 052e 80E1      		ldi r24,hi8(4101)
 654 0530 6530      		cpi r22,lo8(4101)
 655 0532 7807      		cpc r23,r24
 656 0534 04F4      		brge .L84
 657 0536 6350      		subi r22,lo8(4099)
 658 0538 7041      		sbci r23,hi8(4099)
 659 053a 01F4      		brne .L79
 660 053c 00C0      		rjmp .L91
 661               	.L84:
 662 053e B0E1      		ldi r27,hi8(4101)
 663 0540 6530      		cpi r22,lo8(4101)
 664 0542 7B07      		cpc r23,r27
 665 0544 01F0      		breq .L82
 666 0546 6650      		subi r22,lo8(4102)
 667 0548 7041      		sbci r23,hi8(4102)
 668 054a 01F0      		breq .L92
 669               	.L79:
 670 054c 2FEF      		ldi r18,lo8(-1)
 671 054e 3FEF      		ldi r19,hi8(-1)
 672 0550 00C0      		rjmp .L85
 673               	.L81:
 674 0552 8181      		ldd r24,Z+1
 675 0554 9281      		ldd r25,Z+2
 676 0556 A381      		ldd r26,Z+3
 677 0558 B481      		ldd r27,Z+4
 678 055a 8883      		st Y,r24
 679 055c 9983      		std Y+1,r25
 680 055e AA83      		std Y+2,r26
 681 0560 BB83      		std Y+3,r27
 682 0562 00C0      		rjmp .L91
 683               	.L82:
 684 0564 DF01      		movw r26,r30
GAS LISTING C:\Temp/ccGwwSHJ.s 			page 13


 685 0566 1596      		adiw r26,5
 686 0568 FA01      		movw r30,r20
 687 056a 86E0      		ldi r24,lo8(6)
 688               	.L86:
 689 056c 0190      		ld r0,Z+
 690 056e 0D92      		st X+,r0
 691 0570 8150      		subi r24,lo8(-(-1))
 692 0572 01F4      		brne .L86
 693 0574 00C0      		rjmp .L91
 694               	.L92:
 695 0576 DA01      		movw r26,r20
 696 0578 3596      		adiw r30,5
 697 057a 86E0      		ldi r24,lo8(6)
 698               	.L87:
 699 057c 0190      		ld r0,Z+
 700 057e 0D92      		st X+,r0
 701 0580 8150      		subi r24,lo8(-(-1))
 702 0582 01F4      		brne .L87
 703               	.L91:
 704 0584 20E0      		ldi r18,lo8(0)
 705 0586 30E0      		ldi r19,hi8(0)
 706               	.L85:
 707 0588 C901      		movw r24,r18
 708               	/* epilogue start */
 709 058a DF91      		pop r29
 710 058c CF91      		pop r28
 711 058e 0895      		ret
 712               		.size	Lan91IOCtl, .-Lan91IOCtl
 713               		.data
 714               	.LC0:
 715 0000 6C61 6E39 		.string	"lan91rx"
 715      3172 7800 
 716               		.text
 717               		.type	Lan91Init, @function
 718               	Lan91Init:
 719 0590 CF93      		push r28
 720 0592 DF93      		push r29
 721               	/* prologue: function */
 722               	/* frame size = 0 */
 723 0594 EC01      		movw r28,r24
 724 0596 80E0      		ldi r24,lo8(sig_INTERRUPT5)
 725 0598 90E0      		ldi r25,hi8(sig_INTERRUPT5)
 726 059a 0E94 0000 		call NutIrqDisable
 727 059e E989      		ldd r30,Y+17
 728 05a0 FA89      		ldd r31,Y+18
 729 05a2 1082      		st Z,__zero_reg__
 730 05a4 1182      		std Z+1,__zero_reg__
 731 05a6 1282      		std Z+2,__zero_reg__
 732 05a8 1382      		std Z+3,__zero_reg__
 733 05aa AE01      		movw r20,r28
 734 05ac 60E0      		ldi r22,lo8(gs(NicInterrupt))
 735 05ae 70E0      		ldi r23,hi8(gs(NicInterrupt))
 736 05b0 80E0      		ldi r24,lo8(sig_INTERRUPT5)
 737 05b2 90E0      		ldi r25,hi8(sig_INTERRUPT5)
 738 05b4 0E94 0000 		call NutRegisterIrqHandler
 739 05b8 892B      		or r24,r25
 740 05ba 01F0      		breq .L94
GAS LISTING C:\Temp/ccGwwSHJ.s 			page 14


 741 05bc 2FEF      		ldi r18,lo8(-1)
 742 05be 3FEF      		ldi r19,hi8(-1)
 743 05c0 00C0      		rjmp .L95
 744               	.L94:
 745 05c2 20E8      		ldi r18,lo8(640)
 746 05c4 32E0      		ldi r19,hi8(640)
 747 05c6 AE01      		movw r20,r28
 748 05c8 60E0      		ldi r22,lo8(gs(NicRxLanc))
 749 05ca 70E0      		ldi r23,hi8(gs(NicRxLanc))
 750 05cc 80E0      		ldi r24,lo8(.LC0)
 751 05ce 90E0      		ldi r25,hi8(.LC0)
 752 05d0 0E94 0000 		call NutThreadCreate
 753 05d4 20E0      		ldi r18,lo8(0)
 754 05d6 30E0      		ldi r19,hi8(0)
 755               	.L95:
 756 05d8 C901      		movw r24,r18
 757               	/* epilogue start */
 758 05da DF91      		pop r29
 759 05dc CF91      		pop r28
 760 05de 0895      		ret
 761               		.size	Lan91Init, .-Lan91Init
 762               	.global	NicRxLanc
 763               		.type	NicRxLanc, @function
 764               	NicRxLanc:
 765               	/* prologue: function */
 766               	/* frame size = 0 */
 767 05e0 6C01      		movw r12,r24
 768 05e2 EC01      		movw r28,r24
 769 05e4 EF84      		ldd r14,Y+15
 770 05e6 F888      		ldd r15,Y+16
 771 05e8 4988      		ldd r4,Y+17
 772 05ea 3A88      		ldd r3,Y+18
 773               	.L100:
 774 05ec F701      		movw r30,r14
 775 05ee 2581      		ldd r18,Z+5
 776 05f0 8681      		ldd r24,Z+6
 777 05f2 822B      		or r24,r18
 778 05f4 9781      		ldd r25,Z+7
 779 05f6 892B      		or r24,r25
 780 05f8 9085      		ldd r25,Z+8
 781 05fa 892B      		or r24,r25
 782 05fc 9185      		ldd r25,Z+9
 783 05fe 892B      		or r24,r25
 784 0600 9285      		ldd r25,Z+10
 785 0602 892B      		or r24,r25
 786 0604 01F0      		breq .L98
 787 0606 20FF      		sbrs r18,0
 788 0608 00C0      		rjmp .L99
 789               	.L98:
 790 060a 6AE0      		ldi r22,lo8(10)
 791 060c 70E0      		ldi r23,hi8(10)
 792 060e 80E0      		ldi r24,hlo8(10)
 793 0610 90E0      		ldi r25,hhi8(10)
 794 0612 0E94 0000 		call NutSleep
 795 0616 00C0      		rjmp .L100
 796               	.L99:
 797 0618 60E8      		ldi r22,lo8(-128)
GAS LISTING C:\Temp/ccGwwSHJ.s 			page 15


 798 061a B62E      		mov r11,r22
 799 061c 11E0      		ldi r17,lo8(1)
 800 061e 08E0      		ldi r16,lo8(8)
 801 0620 52E0      		ldi r21,lo8(2)
 802 0622 552E      		mov r5,r21
 803 0624 40E4      		ldi r20,lo8(64)
 804 0626 642E      		mov r6,r20
 805 0628 33E0      		ldi r19,lo8(3)
 806 062a 732E      		mov r7,r19
 807 062c 27E0      		ldi r18,lo8(7)
 808 062e 822E      		mov r8,r18
 809 0630 91E8      		ldi r25,lo8(-127)
 810 0632 992E      		mov r9,r25
 811 0634 80E1      		ldi r24,lo8(16)
 812 0636 A82E      		mov r10,r24
 813               	.L123:
 814 0638 1092 0DC0 		sts -16371,__zero_reg__
 815 063c 1092 0EC0 		sts -16370,__zero_reg__
 816 0640 1092 04C0 		sts -16380,__zero_reg__
 817 0644 B092 05C0 		sts -16379,r11
 818 0648 1093 0EC0 		sts -16370,r17
 819 064c 1092 00C0 		sts -16384,__zero_reg__
 820 0650 B092 01C0 		sts -16383,r11
 821 0654 8AE0      		ldi r24,lo8(10)
 822 0656 0E94 0000 		call NutDelay
 823 065a 1092 0EC0 		sts -16370,__zero_reg__
 824 065e 1092 04C0 		sts -16380,__zero_reg__
 825 0662 1092 05C0 		sts -16379,__zero_reg__
 826 0666 1092 00C0 		sts -16384,__zero_reg__
 827 066a 1092 01C0 		sts -16383,__zero_reg__
 828 066e 1093 0EC0 		sts -16370,r17
 829 0672 1092 0CC0 		sts -16372,__zero_reg__
 830 0676 0093 0DC0 		sts -16371,r16
 831 067a 5092 0EC0 		sts -16370,r5
 832 067e 6092 00C0 		sts -16384,r6
 833 0682 88EE      		ldi r24,lo8(1000)
 834 0684 93E0      		ldi r25,hi8(1000)
 835 0686 0E94 0000 		call NicMmuWait
 836 068a 892B      		or r24,r25
 837 068c 01F0      		breq .+2
 838 068e 00C0      		rjmp .L101
 839 0690 00C0      		rjmp .L124
 840               	.L104:
 841 0692 6FE3      		ldi r22,lo8(63)
 842 0694 70E0      		ldi r23,hi8(63)
 843 0696 80E0      		ldi r24,hlo8(63)
 844 0698 90E0      		ldi r25,hhi8(63)
 845 069a 0E94 0000 		call NutSleep
 846 069e 80E0      		ldi r24,lo8(0)
 847 06a0 0E94 0000 		call NicPhyRead
 848 06a4 97FF      		sbrs r25,7
 849 06a6 00C0      		rjmp .L103
 850 06a8 C430      		cpi r28,4
 851 06aa D105      		cpc r29,__zero_reg__
 852 06ac 01F4      		brne .+2
 853 06ae 00C0      		rjmp .L101
 854 06b0 2196      		adiw r28,1
GAS LISTING C:\Temp/ccGwwSHJ.s 			page 16


 855 06b2 00C0      		rjmp .L104
 856               	.L103:
 857 06b4 82E1      		ldi r24,lo8(18)
 858 06b6 0E94 0000 		call NicPhyRead
 859 06ba 60EC      		ldi r22,lo8(16320)
 860 06bc 7FE3      		ldi r23,hi8(16320)
 861 06be 83E1      		ldi r24,lo8(19)
 862 06c0 0E94 0000 		call NicPhyWrite
 863 06c4 1092 0EC0 		sts -16370,__zero_reg__
 864 06c8 A092 0AC0 		sts -16374,r10
 865 06cc 0093 0BC0 		sts -16373,r16
 866 06d0 61EE      		ldi r22,lo8(481)
 867 06d2 71E0      		ldi r23,hi8(481)
 868 06d4 84E0      		ldi r24,lo8(4)
 869 06d6 0E94 0000 		call NicPhyWrite
 870 06da 6FE3      		ldi r22,lo8(63)
 871 06dc 70E0      		ldi r23,hi8(63)
 872 06de 80E0      		ldi r24,hlo8(63)
 873 06e0 90E0      		ldi r25,hhi8(63)
 874 06e2 0E94 0000 		call NutSleep
 875 06e6 C0E0      		ldi r28,lo8(0)
 876 06e8 D0E0      		ldi r29,hi8(0)
 877               	.L107:
 878 06ea CE01      		movw r24,r28
 879 06ec 8F77      		andi r24,lo8(127)
 880 06ee 9070      		andi r25,hi8(127)
 881 06f0 892B      		or r24,r25
 882 06f2 01F4      		brne .L105
 883 06f4 60E0      		ldi r22,lo8(4608)
 884 06f6 72E1      		ldi r23,hi8(4608)
 885 06f8 80E0      		ldi r24,lo8(0)
 886 06fa 0E94 0000 		call NicPhyWrite
 887 06fe 6FE3      		ldi r22,lo8(63)
 888 0700 70E0      		ldi r23,hi8(63)
 889 0702 80E0      		ldi r24,hlo8(63)
 890 0704 90E0      		ldi r25,hhi8(63)
 891 0706 0E94 0000 		call NutSleep
 892               	.L105:
 893 070a 81E0      		ldi r24,lo8(1)
 894 070c 0E94 0000 		call NicPhyRead
 895 0710 85FD      		sbrc r24,5
 896 0712 00C0      		rjmp .L106
 897 0714 6FE3      		ldi r22,lo8(63)
 898 0716 70E0      		ldi r23,hi8(63)
 899 0718 80E0      		ldi r24,hlo8(63)
 900 071a 90E0      		ldi r25,hhi8(63)
 901 071c 0E94 0000 		call NutSleep
 902 0720 2196      		adiw r28,1
 903 0722 F4E0      		ldi r31,hi8(1024)
 904 0724 C030      		cpi r28,lo8(1024)
 905 0726 DF07      		cpc r29,r31
 906 0728 01F4      		brne .L107
 907 072a 00C0      		rjmp .L101
 908               	.L108:
 909 072c 1596      		adiw r26,5
 910 072e 8C91      		ld r24,X
 911 0730 1597      		sbiw r26,5
GAS LISTING C:\Temp/ccGwwSHJ.s 			page 17


 912 0732 8193      		st Z+,r24
 913 0734 1196      		adiw r26,1
 914 0736 20EC      		ldi r18,hi8(-16374)
 915 0738 EA30      		cpi r30,lo8(-16374)
 916 073a F207      		cpc r31,r18
 917 073c 01F4      		brne .L108
 918 073e 82E0      		ldi r24,lo8(2)
 919 0740 8093 0EC0 		sts -16370,r24
 920 0744 81E5      		ldi r24,lo8(81)
 921 0746 8093 0DC0 		sts -16371,r24
 922 074a 66E0      		ldi r22,lo8(6)
 923 074c 70E0      		ldi r23,hi8(6)
 924 074e 80E0      		ldi r24,lo8(sig_INTERRUPT5)
 925 0750 90E0      		ldi r25,hi8(sig_INTERRUPT5)
 926 0752 0E94 0000 		call NutIrqSetMode
 927 0756 80E0      		ldi r24,lo8(sig_INTERRUPT5)
 928 0758 90E0      		ldi r25,hi8(sig_INTERRUPT5)
 929 075a 0E94 0000 		call NutIrqEnable
 930 075e 80E0      		ldi r24,lo8(mutex)
 931 0760 90E0      		ldi r25,hi8(mutex)
 932 0762 0E94 0000 		call NutEventPost
 933 0766 89E0      		ldi r24,lo8(9)
 934 0768 0E94 0000 		call NutThreadSetPriority
 935 076c 02E0      		ldi r16,lo8(2)
 936 076e 802E      		mov r8,r16
 937 0770 10EE      		ldi r17,lo8(-32)
 938 0772 912E      		mov r9,r17
 939 0774 B0E8      		ldi r27,lo8(-128)
 940 0776 AB2E      		mov r10,r27
 941 0778 00C0      		rjmp .L109
 942               	.L101:
 943 077a 68EE      		ldi r22,lo8(1000)
 944 077c 73E0      		ldi r23,hi8(1000)
 945 077e 80E0      		ldi r24,hlo8(1000)
 946 0780 90E0      		ldi r25,hhi8(1000)
 947 0782 0E94 0000 		call NutSleep
 948 0786 00C0      		rjmp .L123
 949               	.L109:
 950 0788 40ED      		ldi r20,lo8(2000)
 951 078a 57E0      		ldi r21,hi8(2000)
 952 078c 60E0      		ldi r22,hlo8(2000)
 953 078e 70E0      		ldi r23,hhi8(2000)
 954 0790 842D      		mov r24,r4
 955 0792 932D      		mov r25,r3
 956 0794 0E94 0000 		call NutEventWait
 957 0798 B090 0DC0 		lds r11,-16371
 958 079c 1092 0DC0 		sts -16371,__zero_reg__
 959 07a0 00C0      		rjmp .L121
 960               	.L116:
 961 07a2 8FEF      		ldi r24,hi8(-1)
 962 07a4 AF3F      		cpi r26,lo8(-1)
 963 07a6 B807      		cpc r27,r24
 964 07a8 01F0      		breq .L121
 965 07aa E701      		movw r28,r14
 966 07ac EF8D      		ldd r30,Y+31
 967 07ae F8A1      		ldd r31,Y+32
 968 07b0 BD01      		movw r22,r26
GAS LISTING C:\Temp/ccGwwSHJ.s 			page 18


 969 07b2 C601      		movw r24,r12
 970 07b4 0995      		icall
 971               	.L121:
 972 07b6 8092 0EC0 		sts -16370,r8
 973 07ba 8091 04C0 		lds r24,-16380
 974 07be 9091 05C0 		lds r25,(-16380)+1
 975 07c2 97FD      		sbrc r25,7
 976 07c4 00C0      		rjmp .L111
 977 07c6 1092 06C0 		sts -16378,__zero_reg__
 978 07ca 9092 07C0 		sts -16377,r9
 979               	/* #APP */
 980               	 ;  607 "../../nut/dev/lan91.c" 1
 981 07ce 0000      		nop
 982               	 ;  0 "" 2
 983               	 ;  608 "../../nut/dev/lan91.c" 1
 984 07d0 0000      		nop
 985               	 ;  0 "" 2
 986               	 ;  609 "../../nut/dev/lan91.c" 1
 987 07d2 0000      		nop
 988               	 ;  0 "" 2
 989               	 ;  610 "../../nut/dev/lan91.c" 1
 990 07d4 0000      		nop
 991               	 ;  0 "" 2
 992               	/* #NOAPP */
 993 07d6 8091 08C0 		lds r24,-16376
 994 07da 9091 09C0 		lds r25,(-16376)+1
 995 07de C091 08C0 		lds r28,-16376
 996 07e2 D091 09C0 		lds r29,(-16376)+1
 997 07e6 8070      		andi r24,lo8(-21504)
 998 07e8 9C7A      		andi r25,hi8(-21504)
 999 07ea 892B      		or r24,r25
 1000 07ec 01F4      		brne .L112
 1001 07ee CE01      		movw r24,r28
 1002 07f0 8254      		subi r24,lo8(-(-66))
 1003 07f2 9040      		sbci r25,hi8(-(-66))
 1004 07f4 835B      		subi r24,lo8(1459)
 1005 07f6 9540      		sbci r25,hi8(1459)
 1006 07f8 00F4      		brsh .L112
 1007 07fa 8E01      		movw r16,r28
 1008 07fc 0350      		subi r16,lo8(-(-3))
 1009 07fe 1040      		sbci r17,hi8(-(-3))
 1010 0800 A801      		movw r20,r16
 1011 0802 60E1      		ldi r22,lo8(16)
 1012 0804 80E0      		ldi r24,lo8(0)
 1013 0806 90E0      		ldi r25,hi8(0)
 1014 0808 0E94 0000 		call NutNetBufAlloc
 1015 080c DC01      		movw r26,r24
 1016 080e 0097      		sbiw r24,0
 1017 0810 01F0      		breq .L113
 1018 0812 1396      		adiw r26,3
 1019 0814 8C91      		ld r24,X
 1020 0816 1397      		sbiw r26,3
 1021 0818 1496      		adiw r26,4
 1022 081a 9C91      		ld r25,X
 1023 081c 1497      		sbiw r26,4
 1024 081e 012B      		or r16,r17
 1025 0820 01F0      		breq .L113
GAS LISTING C:\Temp/ccGwwSHJ.s 			page 19


 1026 0822 FC01      		movw r30,r24
 1027 0824 CE01      		movw r24,r28
 1028 0826 0497      		sbiw r24,4
 1029 0828 292F      		mov r18,r25
 1030 082a 982F      		mov r25,r24
 1031 082c 00C0      		rjmp .L114
 1032               	.L115:
 1033 082e 9150      		subi r25,lo8(-(-1))
 1034               	.L114:
 1035 0830 8091 08C0 		lds r24,-16376
 1036 0834 8193      		st Z+,r24
 1037 0836 9923      		tst r25
 1038 0838 01F4      		brne .L115
 1039 083a 2223      		tst r18
 1040 083c 01F0      		breq .L113
 1041 083e 2150      		subi r18,lo8(-(-1))
 1042 0840 00C0      		rjmp .L115
 1043               	.L112:
 1044 0842 AFEF      		ldi r26,lo8(-1)
 1045 0844 BFEF      		ldi r27,hi8(-1)
 1046               	.L113:
 1047 0846 A092 00C0 		sts -16384,r10
 1048 084a 1097      		sbiw r26,0
 1049 084c 01F0      		breq .+2
 1050 084e 00C0      		rjmp .L116
 1051               	.L111:
 1052 0850 F1E4      		ldi r31,lo8(65)
 1053 0852 BF2A      		or r11,r31
 1054 0854 B092 0DC0 		sts -16371,r11
 1055 0858 00C0      		rjmp .L109
 1056               	.L124:
 1057 085a 7092 0EC0 		sts -16370,r7
 1058 085e 8092 0CC0 		sts -16372,r8
 1059 0862 1092 0EC0 		sts -16370,__zero_reg__
 1060 0866 1092 04C0 		sts -16380,__zero_reg__
 1061 086a 1093 05C0 		sts -16379,r17
 1062 086e 9092 00C0 		sts -16384,r9
 1063 0872 1092 01C0 		sts -16383,__zero_reg__
 1064 0876 60E0      		ldi r22,lo8(-32768)
 1065 0878 70E8      		ldi r23,hi8(-32768)
 1066 087a 80E0      		ldi r24,lo8(0)
 1067 087c 0E94 0000 		call NicPhyWrite
 1068 0880 C0E0      		ldi r28,lo8(0)
 1069 0882 D0E0      		ldi r29,hi8(0)
 1070 0884 00C0      		rjmp .L104
 1071               	.L106:
 1072 0886 81E0      		ldi r24,lo8(1)
 1073 0888 8093 0EC0 		sts -16370,r24
 1074 088c D701      		movw r26,r14
 1075 088e E4E0      		ldi r30,lo8(-16380)
 1076 0890 F0EC      		ldi r31,hi8(-16380)
 1077 0892 00C0      		rjmp .L108
 1078               		.size	NicRxLanc, .-NicRxLanc
 1079               	.global	devLan91
 1080               		.data
 1081               		.type	devLan91, @object
 1082               		.size	devLan91, 35
GAS LISTING C:\Temp/ccGwwSHJ.s 			page 20


 1083               	devLan91:
 1084 0008 0000      		.word	0
 1085 000a 65        		.byte	101
 1086 000b 74        		.byte	116
 1087 000c 68        		.byte	104
 1088 000d 30        		.byte	48
 1089 000e 00        		.byte	0
 1090 000f 00        		.byte	0
 1091 0010 00        		.byte	0
 1092 0011 00        		.byte	0
 1093 0012 00        		.byte	0
 1094 0013 03        		.byte	3
 1095 0014 0000      		.word	0
 1096 0016 00        		.byte	0
 1097 0017 0000      		.word	ifn_eth0
 1098 0019 0000      		.word	dcb_eth0
 1099 001b 0000      		.word	gs(Lan91Init)
 1100 001d 0000      		.word	gs(Lan91IOCtl)
 1101 001f 0000      		.word	0
 1102 0021 0000      		.word	0
 1103 0023 0000      		.word	0
 1104 0025 0000      		.word	0
 1105 0027 0000      		.word	0
 1106 0029 0000      		.word	0
 1107               		.type	mx_wait.2462, @object
 1108               		.size	mx_wait.2462, 2
 1109               	mx_wait.2462:
 1110 002b 8813      		.word	5000
 1111               		.lcomm mutex,2
 1112               		.lcomm maq,2
 1113               		.type	ifn_eth0, @object
 1114               		.size	ifn_eth0, 39
 1115               	ifn_eth0:
 1116 002d 06        		.byte	6
 1117 002e 00        		.byte	0
 1118 002f 00        		.byte	0
 1119 0030 00        		.byte	0
 1120 0031 00        		.byte	0
 1121 0032 00        		.byte	0
 1122 0033 00        		.byte	0
 1123 0034 00        		.byte	0
 1124 0035 00        		.byte	0
 1125 0036 00        		.byte	0
 1126 0037 00        		.byte	0
 1127 0038 00        		.byte	0
 1128 0039 00        		.byte	0
 1129 003a 00        		.byte	0
 1130 003b 00        		.byte	0
 1131 003c 00        		.byte	0
 1132 003d 00        		.byte	0
 1133 003e 00        		.byte	0
 1134 003f 00        		.byte	0
 1135 0040 00        		.byte	0
 1136 0041 00        		.byte	0
 1137 0042 00        		.byte	0
 1138 0043 00        		.byte	0
 1139 0044 DC05      		.word	1500
GAS LISTING C:\Temp/ccGwwSHJ.s 			page 21


 1140 0046 0000      		.word	0
 1141 0048 0000      		.word	0
 1142 004a 0000      		.word	0
 1143 004c 0000      		.word	gs(NutEtherInput)
 1144 004e 0000      		.word	gs(Lan91Output)
 1145 0050 0000      		.word	gs(NutEtherOutput)
 1146 0052 0000      		.word	0
 1147               		.lcomm dcb_eth0,4
GAS LISTING C:\Temp/ccGwwSHJ.s 			page 22


DEFINED SYMBOLS
                            *ABS*:00000000 lan91.c
  C:\Temp/ccGwwSHJ.s:2      *ABS*:0000003f __SREG__
  C:\Temp/ccGwwSHJ.s:3      *ABS*:0000003e __SP_H__
  C:\Temp/ccGwwSHJ.s:4      *ABS*:0000003d __SP_L__
  C:\Temp/ccGwwSHJ.s:5      *ABS*:00000034 __CCP__
  C:\Temp/ccGwwSHJ.s:6      *ABS*:00000000 __tmp_reg__
  C:\Temp/ccGwwSHJ.s:7      *ABS*:00000001 __zero_reg__
  C:\Temp/ccGwwSHJ.s:12     .text:00000000 NicPhyRegSelect
  C:\Temp/ccGwwSHJ.s:83     .text:000000a2 NicPhyRead
  C:\Temp/ccGwwSHJ.s:119    .text:000000ea NicPhyWrite
  C:\Temp/ccGwwSHJ.s:168    .text:0000014e NicInterrupt
  C:\Temp/ccGwwSHJ.s:1111   .bss:00000002 maq
  C:\Temp/ccGwwSHJ.s:322    .text:0000028c NicMmuWait
  C:\Temp/ccGwwSHJ.s:358    .text:000002c2 Lan91Output
  C:\Temp/ccGwwSHJ.s:1109   .data:0000002b mx_wait.2462
                             .bss:00000000 mutex
  C:\Temp/ccGwwSHJ.s:638    .text:00000516 Lan91IOCtl
  C:\Temp/ccGwwSHJ.s:718    .text:00000590 Lan91Init
  C:\Temp/ccGwwSHJ.s:764    .text:000005e0 NicRxLanc
  C:\Temp/ccGwwSHJ.s:1083   .data:00000008 devLan91
  C:\Temp/ccGwwSHJ.s:1115   .data:0000002d ifn_eth0
  C:\Temp/ccGwwSHJ.s:1112   .bss:00000004 dcb_eth0

UNDEFINED SYMBOLS
__do_copy_data
__do_clear_bss
NutDelay
NutEventWait
NutEventPost
sig_INTERRUPT5
NutIrqDisable
NutRegisterIrqHandler
NutThreadCreate
NutSleep
NutIrqSetMode
NutIrqEnable
NutThreadSetPriority
NutNetBufAlloc
NutEtherInput
NutEtherOutput
