GAS LISTING C:\Temp/ccYywWSd.s 			page 1


   1               		.file	"sbi1mmc0.c"
   2               	__SREG__ = 0x3f
   3               	__SP_H__ = 0x3e
   4               	__SP_L__ = 0x3d
   5               	__CCP__  = 0x34
   6               	__tmp_reg__ = 0
   7               	__zero_reg__ = 1
   8               		.global __do_copy_data
   9               		.global __do_clear_bss
  10               		.text
  11               		.type	SbiMmCardInit, @function
  12               	SbiMmCardInit:
  13               	/* prologue: function */
  14               	/* frame size = 0 */
  15 0000 1092 0000 		sts (mmc_dcb+2)+1,__zero_reg__
  16 0004 1092 0000 		sts mmc_dcb+2,__zero_reg__
  17 0008 8091 0000 		lds r24,mmc_dcb
  18 000c 9091 0000 		lds r25,(mmc_dcb)+1
  19 0010 892B      		or r24,r25
  20 0012 01F4      		brne .L2
  21 0014 2FEF      		ldi r18,lo8(-1)
  22 0016 3FEF      		ldi r19,hi8(-1)
  23 0018 00C0      		rjmp .L3
  24               	.L2:
  25 001a 20E0      		ldi r18,lo8(0)
  26 001c 30E0      		ldi r19,hi8(0)
  27               	.L3:
  28 001e C901      		movw r24,r18
  29               	/* epilogue start */
  30 0020 0895      		ret
  31               		.size	SbiMmCardInit, .-SbiMmCardInit
  32               		.type	SbiMmCardSelect, @function
  33               	SbiMmCardSelect:
  34               	/* prologue: function */
  35               	/* frame size = 0 */
  36 0022 81E0      		ldi r24,lo8(1)
  37 0024 90E0      		ldi r25,hi8(1)
  38               	/* epilogue start */
  39 0026 0895      		ret
  40               		.size	SbiMmCardSelect, .-SbiMmCardSelect
  41               		.type	SbiMmCardIo, @function
  42               	SbiMmCardIo:
  43               	/* prologue: function */
  44               	/* frame size = 0 */
  45 0028 90E8      		ldi r25,lo8(-128)
  46 002a 28E0      		ldi r18,lo8(8)
  47 002c 30E0      		ldi r19,hi8(8)
  48               	.L8:
  49               	/* #APP */
  50               	 ;  190 "../../nut/dev/sbi_mmc.c" 1
  51 002e 0000      		nop
  52               	 ;  0 "" 2
  53               	 ;  190 "../../nut/dev/sbi_mmc.c" 1
  54 0030 0000      		nop
  55               	 ;  0 "" 2
  56               	 ;  190 "../../nut/dev/sbi_mmc.c" 1
  57 0032 0000      		nop
GAS LISTING C:\Temp/ccYywWSd.s 			page 2


  58               	 ;  0 "" 2
  59               	 ;  190 "../../nut/dev/sbi_mmc.c" 1
  60 0034 0000      		nop
  61               	 ;  0 "" 2
  62               	 ;  191 "../../nut/dev/sbi_mmc.c" 1
  63 0036 0000      		nop
  64               	 ;  0 "" 2
  65               	 ;  191 "../../nut/dev/sbi_mmc.c" 1
  66 0038 0000      		nop
  67               	 ;  0 "" 2
  68               	 ;  191 "../../nut/dev/sbi_mmc.c" 1
  69 003a 0000      		nop
  70               	 ;  0 "" 2
  71               	 ;  191 "../../nut/dev/sbi_mmc.c" 1
  72 003c 0000      		nop
  73               	 ;  0 "" 2
  74               	 ;  192 "../../nut/dev/sbi_mmc.c" 1
  75 003e 0000      		nop
  76               	 ;  0 "" 2
  77               	 ;  192 "../../nut/dev/sbi_mmc.c" 1
  78 0040 0000      		nop
  79               	 ;  0 "" 2
  80               	 ;  192 "../../nut/dev/sbi_mmc.c" 1
  81 0042 0000      		nop
  82               	 ;  0 "" 2
  83               	 ;  192 "../../nut/dev/sbi_mmc.c" 1
  84 0044 0000      		nop
  85               	 ;  0 "" 2
  86               	 ;  193 "../../nut/dev/sbi_mmc.c" 1
  87 0046 0000      		nop
  88               	 ;  0 "" 2
  89               	 ;  193 "../../nut/dev/sbi_mmc.c" 1
  90 0048 0000      		nop
  91               	 ;  0 "" 2
  92               	 ;  193 "../../nut/dev/sbi_mmc.c" 1
  93 004a 0000      		nop
  94               	 ;  0 "" 2
  95               	 ;  193 "../../nut/dev/sbi_mmc.c" 1
  96 004c 0000      		nop
  97               	 ;  0 "" 2
  98               	/* #NOAPP */
  99 004e 892B      		or r24,r25
 100 0050 9695      		lsr r25
 101 0052 2150      		subi r18,lo8(-(-1))
 102 0054 3040      		sbci r19,hi8(-(-1))
 103 0056 01F4      		brne .L8
 104               	/* epilogue start */
 105 0058 0895      		ret
 106               		.size	SbiMmCardIo, .-SbiMmCardIo
 107               		.type	SbiMmCardAvail, @function
 108               	SbiMmCardAvail:
 109               	/* prologue: function */
 110               	/* frame size = 0 */
 111 005a 8091 0000 		lds r24,mmc_dcb
 112 005e 9091 0000 		lds r25,(mmc_dcb)+1
 113 0062 892B      		or r24,r25
 114 0064 01F4      		brne .L12
GAS LISTING C:\Temp/ccYywWSd.s 			page 3


 115 0066 20E0      		ldi r18,lo8(0)
 116 0068 30E0      		ldi r19,hi8(0)
 117 006a 00C0      		rjmp .L13
 118               	.L12:
 119 006c 8091 0000 		lds r24,mmc_dcb+2
 120 0070 9091 0000 		lds r25,(mmc_dcb+2)+1
 121 0074 892B      		or r24,r25
 122 0076 01F4      		brne .L14
 123 0078 21E0      		ldi r18,lo8(1)
 124 007a 30E0      		ldi r19,hi8(1)
 125 007c 00C0      		rjmp .L13
 126               	.L14:
 127 007e 22E0      		ldi r18,lo8(2)
 128 0080 30E0      		ldi r19,hi8(2)
 129               	.L13:
 130 0082 C901      		movw r24,r18
 131               	/* epilogue start */
 132 0084 0895      		ret
 133               		.size	SbiMmCardAvail, .-SbiMmCardAvail
 134               		.type	SbiMmCardWrProt, @function
 135               	SbiMmCardWrProt:
 136               	/* prologue: function */
 137               	/* frame size = 0 */
 138 0086 80E0      		ldi r24,lo8(0)
 139 0088 90E0      		ldi r25,hi8(0)
 140               	/* epilogue start */
 141 008a 0895      		ret
 142               		.size	SbiMmCardWrProt, .-SbiMmCardWrProt
 143               		.type	SbiMmcIfcInit, @function
 144               	SbiMmcIfcInit:
 145               	/* prologue: function */
 146               	/* frame size = 0 */
 147 008c 21E0      		ldi r18,lo8(1)
 148 008e 30E0      		ldi r19,hi8(1)
 149 0090 3093 0000 		sts (mmc_dcb)+1,r19
 150 0094 2093 0000 		sts mmc_dcb,r18
 151 0098 1092 0000 		sts (mmc_dcb+2)+1,__zero_reg__
 152 009c 1092 0000 		sts mmc_dcb+2,__zero_reg__
 153 00a0 0E94 0000 		call MmCardDevInit
 154               	/* epilogue start */
 155 00a4 0895      		ret
 156               		.size	SbiMmcIfcInit, .-SbiMmcIfcInit
 157               	.global	devSbi1MmCard0
 158               		.data
 159               		.type	devSbi1MmCard0, @object
 160               		.size	devSbi1MmCard0, 35
 161               	devSbi1MmCard0:
 162 0000 0000      		.word	0
 163 0002 4D        		.byte	77
 164 0003 4D        		.byte	77
 165 0004 43        		.byte	67
 166 0005 32        		.byte	50
 167 0006 00        		.byte	0
 168 0007 00        		.byte	0
 169 0008 00        		.byte	0
 170 0009 00        		.byte	0
 171 000a 00        		.byte	0
GAS LISTING C:\Temp/ccYywWSd.s 			page 4


 172 000b 00        		.byte	0
 173 000c 0000      		.word	0
 174 000e 00        		.byte	0
 175 000f 0000      		.word	mmc_ifc
 176 0011 0000      		.word	mmc_dcb
 177 0013 0000      		.word	gs(SbiMmcIfcInit)
 178 0015 0000      		.word	gs(MmCardIOCtl)
 179 0017 0000      		.word	gs(MmCardBlockRead)
 180 0019 0000      		.word	gs(MmCardBlockWrite)
 181 001b 0000      		.word	gs(MmCardBlockWrite_P)
 182 001d 0000      		.word	gs(MmCardMount)
 183 001f 0000      		.word	gs(MmCardUnmount)
 184 0021 0000      		.word	0
 185               		.lcomm mmc_dcb,4
 186               		.type	mmc_ifc, @object
 187               		.size	mmc_ifc, 10
 188               	mmc_ifc:
 189 0023 0000      		.word	gs(SbiMmCardInit)
 190 0025 0000      		.word	gs(SbiMmCardIo)
 191 0027 0000      		.word	gs(SbiMmCardSelect)
 192 0029 0000      		.word	gs(SbiMmCardAvail)
 193 002b 0000      		.word	gs(SbiMmCardWrProt)
GAS LISTING C:\Temp/ccYywWSd.s 			page 5


DEFINED SYMBOLS
                            *ABS*:00000000 sbi1mmc0.c
  C:\Temp/ccYywWSd.s:2      *ABS*:0000003f __SREG__
  C:\Temp/ccYywWSd.s:3      *ABS*:0000003e __SP_H__
  C:\Temp/ccYywWSd.s:4      *ABS*:0000003d __SP_L__
  C:\Temp/ccYywWSd.s:5      *ABS*:00000034 __CCP__
  C:\Temp/ccYywWSd.s:6      *ABS*:00000000 __tmp_reg__
  C:\Temp/ccYywWSd.s:7      *ABS*:00000001 __zero_reg__
  C:\Temp/ccYywWSd.s:12     .text:00000000 SbiMmCardInit
                             .bss:00000000 mmc_dcb
  C:\Temp/ccYywWSd.s:33     .text:00000022 SbiMmCardSelect
  C:\Temp/ccYywWSd.s:42     .text:00000028 SbiMmCardIo
  C:\Temp/ccYywWSd.s:108    .text:0000005a SbiMmCardAvail
  C:\Temp/ccYywWSd.s:135    .text:00000086 SbiMmCardWrProt
  C:\Temp/ccYywWSd.s:144    .text:0000008c SbiMmcIfcInit
  C:\Temp/ccYywWSd.s:161    .data:00000000 devSbi1MmCard0
  C:\Temp/ccYywWSd.s:188    .data:00000023 mmc_ifc

UNDEFINED SYMBOLS
__do_copy_data
__do_clear_bss
MmCardDevInit
MmCardIOCtl
MmCardBlockRead
MmCardBlockWrite
MmCardBlockWrite_P
MmCardMount
MmCardUnmount
