GAS LISTING C:\Temp/ccx9F5wb.s 			page 1


   1               		.file	"spi_at45d.c"
   2               	__SREG__ = 0x3f
   3               	__SP_H__ = 0x3e
   4               	__SP_L__ = 0x3d
   5               	__CCP__  = 0x34
   6               	__tmp_reg__ = 0
   7               	__zero_reg__ = 1
   8               		.global __do_copy_data
   9               		.global __do_clear_bss
  10               		.text
  11               		.type	At45dStatus, @function
  12               	At45dStatus:
  13 0000 CF92      		push r12
  14 0002 DF92      		push r13
  15 0004 EF92      		push r14
  16 0006 FF92      		push r15
  17 0008 0F93      		push r16
  18 000a 1F93      		push r17
  19 000c DF93      		push r29
  20 000e CF93      		push r28
  21 0010 00D0      		rcall .
  22 0012 CDB7      		in r28,__SP_L__
  23 0014 DEB7      		in r29,__SP_H__
  24               	/* prologue: function */
  25               	/* frame size = 2 */
  26 0016 6C01      		movw r12,r24
  27 0018 87ED      		ldi r24,lo8(-41)
  28 001a 8983      		std Y+1,r24
  29 001c 8FEF      		ldi r24,lo8(-1)
  30 001e 8A83      		std Y+2,r24
  31 0020 D601      		movw r26,r12
  32 0022 ED90      		ld r14,X+
  33 0024 FC90      		ld r15,X
  34 0026 D701      		movw r26,r14
  35 0028 1A96      		adiw r26,10
  36 002a ED91      		ld r30,X+
  37 002c FC91      		ld r31,X
  38 002e 1B97      		sbiw r26,10+1
  39 0030 48EE      		ldi r20,lo8(1000)
  40 0032 53E0      		ldi r21,hi8(1000)
  41 0034 60E0      		ldi r22,hlo8(1000)
  42 0036 70E0      		ldi r23,hhi8(1000)
  43 0038 C601      		movw r24,r12
  44 003a 0995      		icall
  45 003c 8C01      		movw r16,r24
  46 003e 0097      		sbiw r24,0
  47 0040 01F4      		brne .L2
  48 0042 D701      		movw r26,r14
  49 0044 1E96      		adiw r26,14
  50 0046 ED91      		ld r30,X+
  51 0048 FC91      		ld r31,X
  52 004a 1F97      		sbiw r26,14+1
  53 004c 22E0      		ldi r18,lo8(2)
  54 004e 30E0      		ldi r19,hi8(2)
  55 0050 BE01      		movw r22,r28
  56 0052 6F5F      		subi r22,lo8(-(1))
  57 0054 7F4F      		sbci r23,hi8(-(1))
GAS LISTING C:\Temp/ccx9F5wb.s 			page 2


  58 0056 AB01      		movw r20,r22
  59 0058 C601      		movw r24,r12
  60 005a 0995      		icall
  61 005c 8C01      		movw r16,r24
  62 005e 0097      		sbiw r24,0
  63 0060 01F4      		brne .L3
  64 0062 D701      		movw r26,r14
  65 0064 5096      		adiw r26,16
  66 0066 ED91      		ld r30,X+
  67 0068 FC91      		ld r31,X
  68 006a 5197      		sbiw r26,16+1
  69 006c 40E0      		ldi r20,lo8(0)
  70 006e 50E0      		ldi r21,hi8(0)
  71 0070 60E0      		ldi r22,hlo8(0)
  72 0072 70E0      		ldi r23,hhi8(0)
  73 0074 C601      		movw r24,r12
  74 0076 0995      		icall
  75 0078 8A81      		ldd r24,Y+2
  76 007a 082F      		mov r16,r24
  77               	.L3:
  78 007c D701      		movw r26,r14
  79 007e 1C96      		adiw r26,12
  80 0080 ED91      		ld r30,X+
  81 0082 FC91      		ld r31,X
  82 0084 1D97      		sbiw r26,12+1
  83 0086 C601      		movw r24,r12
  84 0088 0995      		icall
  85               	.L2:
  86 008a 802F      		mov r24,r16
  87               	/* epilogue start */
  88 008c 0F90      		pop __tmp_reg__
  89 008e 0F90      		pop __tmp_reg__
  90 0090 CF91      		pop r28
  91 0092 DF91      		pop r29
  92 0094 1F91      		pop r17
  93 0096 0F91      		pop r16
  94 0098 FF90      		pop r15
  95 009a EF90      		pop r14
  96 009c DF90      		pop r13
  97 009e CF90      		pop r12
  98 00a0 0895      		ret
  99               		.size	At45dStatus, .-At45dStatus
 100               	.global	SpiAt45dStatus
 101               		.type	SpiAt45dStatus, @function
 102               	SpiAt45dStatus:
 103               	/* prologue: function */
 104               	/* frame size = 0 */
 105 00a2 FC01      		movw r30,r24
 106 00a4 8785      		ldd r24,Z+15
 107 00a6 9089      		ldd r25,Z+16
 108 00a8 0E94 0000 		call At45dStatus
 109               	/* epilogue start */
 110 00ac 0895      		ret
 111               		.size	SpiAt45dStatus, .-SpiAt45dStatus
 112               	.global	SpiAt45dChipErase
 113               		.type	SpiAt45dChipErase, @function
 114               	SpiAt45dChipErase:
GAS LISTING C:\Temp/ccx9F5wb.s 			page 3


 115               	/* prologue: function */
 116               	/* frame size = 0 */
 117 00ae 8FEF      		ldi r24,lo8(-1)
 118 00b0 9FEF      		ldi r25,hi8(-1)
 119               	/* epilogue start */
 120 00b2 0895      		ret
 121               		.size	SpiAt45dChipErase, .-SpiAt45dChipErase
 122               	.global	SpiAt45dInit
 123               		.type	SpiAt45dInit, @function
 124               	SpiAt45dInit:
 125 00b4 0F93      		push r16
 126 00b6 1F93      		push r17
 127 00b8 CF93      		push r28
 128 00ba DF93      		push r29
 129               	/* prologue: function */
 130               	/* frame size = 0 */
 131 00bc FC01      		movw r30,r24
 132 00be 1189      		ldd r17,Z+17
 133 00c0 0289      		ldd r16,Z+18
 134 00c2 8785      		ldd r24,Z+15
 135 00c4 9089      		ldd r25,Z+16
 136 00c6 0E94 0000 		call At45dStatus
 137 00ca 582F      		mov r21,r24
 138 00cc 5D73      		andi r21,lo8(61)
 139 00ce 4091 0000 		lds r20,at45d_known_types
 140 00d2 4150      		subi r20,lo8(-(-1))
 141 00d4 842F      		mov r24,r20
 142 00d6 9927      		clr r25
 143 00d8 87FD      		sbrc r24,7
 144 00da 9095      		com r25
 145 00dc 4F5F      		subi r20,lo8(-(1))
 146 00de DC01      		movw r26,r24
 147 00e0 63E0      		ldi r22,3
 148 00e2 AA0F      	1:	lsl r26
 149 00e4 BB1F      		rol r27
 150 00e6 6A95      		dec r22
 151 00e8 01F4      		brne 1b
 152 00ea A050      		subi r26,lo8(-(at45d_info+7))
 153 00ec B040      		sbci r27,hi8(-(at45d_info+7))
 154 00ee 20E0      		ldi r18,lo8(0)
 155 00f0 30E0      		ldi r19,hi8(0)
 156 00f2 BC01      		movw r22,r24
 157 00f4 00C0      		rjmp .L10
 158               	.L12:
 159 00f6 FB01      		movw r30,r22
 160 00f8 E21B      		sub r30,r18
 161 00fa F30B      		sbc r31,r19
 162 00fc 8C91      		ld r24,X
 163 00fe 2F5F      		subi r18,lo8(-(1))
 164 0100 3F4F      		sbci r19,hi8(-(1))
 165 0102 1897      		sbiw r26,8
 166 0104 5817      		cp r21,r24
 167 0106 01F4      		brne .L10
 168 0108 212F      		mov r18,r17
 169 010a 302F      		mov r19,r16
 170 010c 842F      		mov r24,r20
 171 010e 9927      		clr r25
GAS LISTING C:\Temp/ccx9F5wb.s 			page 4


 172 0110 87FD      		sbrc r24,7
 173 0112 9095      		com r25
 174 0114 43E0      		ldi r20,3
 175 0116 880F      	1:	lsl r24
 176 0118 991F      		rol r25
 177 011a 4A95      		dec r20
 178 011c 01F4      		brne 1b
 179 011e 8050      		subi r24,lo8(-(at45d_info))
 180 0120 9040      		sbci r25,hi8(-(at45d_info))
 181 0122 D901      		movw r26,r18
 182 0124 8D93      		st X+,r24
 183 0126 9C93      		st X,r25
 184 0128 83E0      		ldi r24,3
 185 012a EE0F      	1:	lsl r30
 186 012c FF1F      		rol r31
 187 012e 8A95      		dec r24
 188 0130 01F4      		brne 1b
 189 0132 E050      		subi r30,lo8(-(at45d_info))
 190 0134 F040      		sbci r31,hi8(-(at45d_info))
 191 0136 8181      		ldd r24,Z+1
 192 0138 9281      		ldd r25,Z+2
 193 013a A381      		ldd r26,Z+3
 194 013c B481      		ldd r27,Z+4
 195 013e E901      		movw r28,r18
 196 0140 8A83      		std Y+2,r24
 197 0142 9B83      		std Y+3,r25
 198 0144 AC83      		std Y+4,r26
 199 0146 BD83      		std Y+5,r27
 200 0148 8581      		ldd r24,Z+5
 201 014a 9681      		ldd r25,Z+6
 202 014c A0E0      		ldi r26,lo8(0)
 203 014e B0E0      		ldi r27,hi8(0)
 204 0150 F901      		movw r30,r18
 205 0152 8683      		std Z+6,r24
 206 0154 9783      		std Z+7,r25
 207 0156 A087      		std Z+8,r26
 208 0158 B187      		std Z+9,r27
 209 015a 20E0      		ldi r18,lo8(0)
 210 015c 30E0      		ldi r19,hi8(0)
 211 015e 00C0      		rjmp .L11
 212               	.L10:
 213 0160 4150      		subi r20,lo8(-(-1))
 214 0162 47FF      		sbrs r20,7
 215 0164 00C0      		rjmp .L12
 216 0166 2FEF      		ldi r18,lo8(-1)
 217 0168 3FEF      		ldi r19,hi8(-1)
 218               	.L11:
 219 016a C901      		movw r24,r18
 220               	/* epilogue start */
 221 016c DF91      		pop r29
 222 016e CF91      		pop r28
 223 0170 1F91      		pop r17
 224 0172 0F91      		pop r16
 225 0174 0895      		ret
 226               		.size	SpiAt45dInit, .-SpiAt45dInit
 227               	.global	SpiAt45dPageWrite_P
 228               		.type	SpiAt45dPageWrite_P, @function
GAS LISTING C:\Temp/ccx9F5wb.s 			page 5


 229               	SpiAt45dPageWrite_P:
 230               	/* prologue: function */
 231               	/* frame size = 0 */
 232 0176 8FEF      		ldi r24,lo8(-1)
 233 0178 9FEF      		ldi r25,hi8(-1)
 234               	/* epilogue start */
 235 017a 0895      		ret
 236               		.size	SpiAt45dPageWrite_P, .-SpiAt45dPageWrite_P
 237               	.global	SpiAt45dPages
 238               		.type	SpiAt45dPages, @function
 239               	SpiAt45dPages:
 240               	/* prologue: function */
 241               	/* frame size = 0 */
 242 017c DC01      		movw r26,r24
 243 017e 5196      		adiw r26,17
 244 0180 ED91      		ld r30,X+
 245 0182 FC91      		ld r31,X
 246 0184 5297      		sbiw r26,17+1
 247 0186 0190      		ld __tmp_reg__,Z+
 248 0188 F081      		ld r31,Z
 249 018a E02D      		mov r30,__tmp_reg__
 250 018c 6181      		ldd r22,Z+1
 251 018e 7281      		ldd r23,Z+2
 252 0190 8381      		ldd r24,Z+3
 253 0192 9481      		ldd r25,Z+4
 254               	/* epilogue start */
 255 0194 0895      		ret
 256               		.size	SpiAt45dPages, .-SpiAt45dPages
 257               	.global	SpiAt45dPageSize
 258               		.type	SpiAt45dPageSize, @function
 259               	SpiAt45dPageSize:
 260               	/* prologue: function */
 261               	/* frame size = 0 */
 262 0196 DC01      		movw r26,r24
 263 0198 5196      		adiw r26,17
 264 019a ED91      		ld r30,X+
 265 019c FC91      		ld r31,X
 266 019e 5297      		sbiw r26,17+1
 267 01a0 0190      		ld __tmp_reg__,Z+
 268 01a2 F081      		ld r31,Z
 269 01a4 E02D      		mov r30,__tmp_reg__
 270 01a6 8581      		ldd r24,Z+5
 271 01a8 9681      		ldd r25,Z+6
 272               	/* epilogue start */
 273 01aa 0895      		ret
 274               		.size	SpiAt45dPageSize, .-SpiAt45dPageSize
 275               	.global	SpiAt45dIOCtl
 276               		.type	SpiAt45dIOCtl, @function
 277               	SpiAt45dIOCtl:
 278               	/* prologue: function */
 279               	/* frame size = 0 */
 280 01ac FA01      		movw r30,r20
 281 01ae 82E1      		ldi r24,hi8(4608)
 282 01b0 6030      		cpi r22,lo8(4608)
 283 01b2 7807      		cpc r23,r24
 284 01b4 01F0      		breq .L23
 285 01b6 6150      		subi r22,lo8(4609)
GAS LISTING C:\Temp/ccx9F5wb.s 			page 6


 286 01b8 7241      		sbci r23,hi8(4609)
 287 01ba 01F0      		breq .L24
 288 01bc 2FEF      		ldi r18,lo8(-1)
 289 01be 3FEF      		ldi r19,hi8(-1)
 290 01c0 00C0      		rjmp .L25
 291               	.L23:
 292 01c2 81E0      		ldi r24,lo8(1)
 293 01c4 90E0      		ldi r25,hi8(1)
 294 01c6 9183      		std Z+1,r25
 295 01c8 8083      		st Z,r24
 296 01ca 00C0      		rjmp .L27
 297               	.L24:
 298 01cc 1182      		std Z+1,__zero_reg__
 299 01ce 1082      		st Z,__zero_reg__
 300               	.L27:
 301 01d0 20E0      		ldi r18,lo8(0)
 302 01d2 30E0      		ldi r19,hi8(0)
 303               	.L25:
 304 01d4 C901      		movw r24,r18
 305               	/* epilogue start */
 306 01d6 0895      		ret
 307               		.size	SpiAt45dIOCtl, .-SpiAt45dIOCtl
 308               		.type	At45dCommand, @function
 309               	At45dCommand:
 310 01d8 2F92      		push r2
 311 01da 3F92      		push r3
 312 01dc 4F92      		push r4
 313 01de 5F92      		push r5
 314 01e0 6F92      		push r6
 315 01e2 7F92      		push r7
 316 01e4 8F92      		push r8
 317 01e6 9F92      		push r9
 318 01e8 AF92      		push r10
 319 01ea BF92      		push r11
 320 01ec CF92      		push r12
 321 01ee DF92      		push r13
 322 01f0 EF92      		push r14
 323 01f2 FF92      		push r15
 324 01f4 0F93      		push r16
 325 01f6 1F93      		push r17
 326 01f8 DF93      		push r29
 327 01fa CF93      		push r28
 328 01fc CDB7      		in r28,__SP_L__
 329 01fe DEB7      		in r29,__SP_H__
 330 0200 2B97      		sbiw r28,11
 331 0202 0FB6      		in __tmp_reg__,__SREG__
 332 0204 F894      		cli
 333 0206 DEBF      		out __SP_H__,r29
 334 0208 0FBE      		out __SREG__,__tmp_reg__
 335 020a CDBF      		out __SP_L__,r28
 336               	/* prologue: function */
 337               	/* frame size = 11 */
 338 020c 1C01      		movw r2,r24
 339 020e 6987      		std Y+9,r22
 340 0210 2901      		movw r4,r18
 341 0212 3A01      		movw r6,r20
 342 0214 4801      		movw r8,r16
GAS LISTING C:\Temp/ccx9F5wb.s 			page 7


 343 0216 FB86      		std Y+11,r15
 344 0218 EA86      		std Y+10,r14
 345 021a DC01      		movw r26,r24
 346 021c ED90      		ld r14,X+
 347 021e FC90      		ld r15,X
 348 0220 A801      		movw r20,r16
 349 0222 60E0      		ldi r22,lo8(0)
 350 0224 70E0      		ldi r23,hi8(0)
 351 0226 CE01      		movw r24,r28
 352 0228 0196      		adiw r24,1
 353 022a 0E94 0000 		call memset
 354 022e B985      		ldd r27,Y+9
 355 0230 B983      		std Y+1,r27
 356 0232 4114      		cp r4,__zero_reg__
 357 0234 5104      		cpc r5,__zero_reg__
 358 0236 6104      		cpc r6,__zero_reg__
 359 0238 7104      		cpc r7,__zero_reg__
 360 023a 01F0      		breq .L29
 361 023c C301      		movw r24,r6
 362 023e AA27      		clr r26
 363 0240 BB27      		clr r27
 364 0242 8A83      		std Y+2,r24
 365 0244 BB27      		clr r27
 366 0246 A72D      		mov r26,r7
 367 0248 962D      		mov r25,r6
 368 024a 852D      		mov r24,r5
 369 024c 8B83      		std Y+3,r24
 370 024e 4C82      		std Y+4,r4
 371               	.L29:
 372 0250 D701      		movw r26,r14
 373 0252 1A96      		adiw r26,10
 374 0254 ED91      		ld r30,X+
 375 0256 FC91      		ld r31,X
 376 0258 1B97      		sbiw r26,10+1
 377 025a 48EE      		ldi r20,lo8(1000)
 378 025c 53E0      		ldi r21,hi8(1000)
 379 025e 60E0      		ldi r22,hlo8(1000)
 380 0260 70E0      		ldi r23,hhi8(1000)
 381 0262 C101      		movw r24,r2
 382 0264 0995      		icall
 383 0266 8C01      		movw r16,r24
 384 0268 0097      		sbiw r24,0
 385 026a 01F4      		brne .L30
 386 026c D701      		movw r26,r14
 387 026e 1E96      		adiw r26,14
 388 0270 ED91      		ld r30,X+
 389 0272 FC91      		ld r31,X
 390 0274 1F97      		sbiw r26,14+1
 391 0276 9401      		movw r18,r8
 392 0278 40E0      		ldi r20,lo8(0)
 393 027a 50E0      		ldi r21,hi8(0)
 394 027c BE01      		movw r22,r28
 395 027e 6F5F      		subi r22,lo8(-(1))
 396 0280 7F4F      		sbci r23,hi8(-(1))
 397 0282 C101      		movw r24,r2
 398 0284 0995      		icall
 399 0286 8C01      		movw r16,r24
GAS LISTING C:\Temp/ccx9F5wb.s 			page 8


 400 0288 0097      		sbiw r24,0
 401 028a 01F4      		brne .L31
 402 028c A114      		cp r10,__zero_reg__
 403 028e B104      		cpc r11,__zero_reg__
 404 0290 01F0      		breq .L31
 405 0292 D701      		movw r26,r14
 406 0294 1E96      		adiw r26,14
 407 0296 ED91      		ld r30,X+
 408 0298 FC91      		ld r31,X
 409 029a 1F97      		sbiw r26,14+1
 410 029c 9501      		movw r18,r10
 411 029e A601      		movw r20,r12
 412 02a0 6A85      		ldd r22,Y+10
 413 02a2 7B85      		ldd r23,Y+11
 414 02a4 C101      		movw r24,r2
 415 02a6 0995      		icall
 416 02a8 8C01      		movw r16,r24
 417               	.L31:
 418 02aa D701      		movw r26,r14
 419 02ac 1C96      		adiw r26,12
 420 02ae ED91      		ld r30,X+
 421 02b0 FC91      		ld r31,X
 422 02b2 1D97      		sbiw r26,12+1
 423 02b4 C101      		movw r24,r2
 424 02b6 0995      		icall
 425               	.L30:
 426 02b8 C801      		movw r24,r16
 427               	/* epilogue start */
 428 02ba 2B96      		adiw r28,11
 429 02bc 0FB6      		in __tmp_reg__,__SREG__
 430 02be F894      		cli
 431 02c0 DEBF      		out __SP_H__,r29
 432 02c2 0FBE      		out __SREG__,__tmp_reg__
 433 02c4 CDBF      		out __SP_L__,r28
 434 02c6 CF91      		pop r28
 435 02c8 DF91      		pop r29
 436 02ca 1F91      		pop r17
 437 02cc 0F91      		pop r16
 438 02ce FF90      		pop r15
 439 02d0 EF90      		pop r14
 440 02d2 DF90      		pop r13
 441 02d4 CF90      		pop r12
 442 02d6 BF90      		pop r11
 443 02d8 AF90      		pop r10
 444 02da 9F90      		pop r9
 445 02dc 8F90      		pop r8
 446 02de 7F90      		pop r7
 447 02e0 6F90      		pop r6
 448 02e2 5F90      		pop r5
 449 02e4 4F90      		pop r4
 450 02e6 3F90      		pop r3
 451 02e8 2F90      		pop r2
 452 02ea 0895      		ret
 453               		.size	At45dCommand, .-At45dCommand
 454               	.global	SpiAt45dPageRead
 455               		.type	SpiAt45dPageRead, @function
 456               	SpiAt45dPageRead:
GAS LISTING C:\Temp/ccx9F5wb.s 			page 9


 457 02ec 8F92      		push r8
 458 02ee 9F92      		push r9
 459 02f0 AF92      		push r10
 460 02f2 BF92      		push r11
 461 02f4 CF92      		push r12
 462 02f6 DF92      		push r13
 463 02f8 EF92      		push r14
 464 02fa FF92      		push r15
 465 02fc 0F93      		push r16
 466 02fe 1F93      		push r17
 467 0300 CF93      		push r28
 468 0302 DF93      		push r29
 469               	/* prologue: function */
 470               	/* frame size = 0 */
 471 0304 4C01      		movw r8,r24
 472 0306 6901      		movw r12,r18
 473 0308 E801      		movw r28,r16
 474 030a DC01      		movw r26,r24
 475 030c 5196      		adiw r26,17
 476 030e ED91      		ld r30,X+
 477 0310 FC91      		ld r31,X
 478 0312 5297      		sbiw r26,17+1
 479 0314 0190      		ld __tmp_reg__,Z+
 480 0316 F081      		ld r31,Z
 481 0318 E02D      		mov r30,__tmp_reg__
 482 031a 8181      		ldd r24,Z+1
 483 031c 9281      		ldd r25,Z+2
 484 031e A381      		ldd r26,Z+3
 485 0320 B481      		ldd r27,Z+4
 486 0322 4817      		cp r20,r24
 487 0324 5907      		cpc r21,r25
 488 0326 6A07      		cpc r22,r26
 489 0328 7B07      		cpc r23,r27
 490 032a 00F4      		brsh .L34
 491 032c 0080      		ld r0,Z
 492 032e 00C0      		rjmp 2f
 493 0330 440F      	1:	lsl r20
 494 0332 551F      		rol r21
 495 0334 661F      		rol r22
 496 0336 771F      		rol r23
 497 0338 0A94      	2:	dec r0
 498 033a 02F4      		brpl 1b
 499 033c 5801      		movw r10,r16
 500 033e EE24      		clr r14
 501 0340 FF24      		clr r15
 502 0342 08E0      		ldi r16,lo8(8)
 503 0344 10E0      		ldi r17,hi8(8)
 504 0346 9A01      		movw r18,r20
 505 0348 AB01      		movw r20,r22
 506 034a 68EE      		ldi r22,lo8(-24)
 507 034c F401      		movw r30,r8
 508 034e 8785      		ldd r24,Z+15
 509 0350 9089      		ldd r25,Z+16
 510 0352 0E94 0000 		call At45dCommand
 511 0356 892B      		or r24,r25
 512 0358 01F0      		breq .L35
 513               	.L34:
GAS LISTING C:\Temp/ccx9F5wb.s 			page 10


 514 035a CFEF      		ldi r28,lo8(-1)
 515 035c DFEF      		ldi r29,hi8(-1)
 516               	.L35:
 517 035e CE01      		movw r24,r28
 518               	/* epilogue start */
 519 0360 DF91      		pop r29
 520 0362 CF91      		pop r28
 521 0364 1F91      		pop r17
 522 0366 0F91      		pop r16
 523 0368 FF90      		pop r15
 524 036a EF90      		pop r14
 525 036c DF90      		pop r13
 526 036e CF90      		pop r12
 527 0370 BF90      		pop r11
 528 0372 AF90      		pop r10
 529 0374 9F90      		pop r9
 530 0376 8F90      		pop r8
 531 0378 0895      		ret
 532               		.size	SpiAt45dPageRead, .-SpiAt45dPageRead
 533               	.global	SpiAt45dPageErase
 534               		.type	SpiAt45dPageErase, @function
 535               	SpiAt45dPageErase:
 536 037a AF92      		push r10
 537 037c BF92      		push r11
 538 037e CF92      		push r12
 539 0380 DF92      		push r13
 540 0382 EF92      		push r14
 541 0384 FF92      		push r15
 542 0386 0F93      		push r16
 543 0388 1F93      		push r17
 544 038a CF93      		push r28
 545 038c DF93      		push r29
 546               	/* prologue: function */
 547               	/* frame size = 0 */
 548 038e EC01      		movw r28,r24
 549 0390 9A01      		movw r18,r20
 550 0392 AB01      		movw r20,r22
 551 0394 E989      		ldd r30,Y+17
 552 0396 FA89      		ldd r31,Y+18
 553 0398 0190      		ld __tmp_reg__,Z+
 554 039a F081      		ld r31,Z
 555 039c E02D      		mov r30,__tmp_reg__
 556 039e 8181      		ldd r24,Z+1
 557 03a0 9281      		ldd r25,Z+2
 558 03a2 A381      		ldd r26,Z+3
 559 03a4 B481      		ldd r27,Z+4
 560 03a6 2817      		cp r18,r24
 561 03a8 3907      		cpc r19,r25
 562 03aa 4A07      		cpc r20,r26
 563 03ac 5B07      		cpc r21,r27
 564 03ae 00F0      		brlo .L38
 565 03b0 2FEF      		ldi r18,lo8(-1)
 566 03b2 3FEF      		ldi r19,hi8(-1)
 567 03b4 00C0      		rjmp .L39
 568               	.L38:
 569 03b6 0080      		ld r0,Z
 570 03b8 00C0      		rjmp 2f
GAS LISTING C:\Temp/ccx9F5wb.s 			page 11


 571 03ba 220F      	1:	lsl r18
 572 03bc 331F      		rol r19
 573 03be 441F      		rol r20
 574 03c0 551F      		rol r21
 575 03c2 0A94      	2:	dec r0
 576 03c4 02F4      		brpl 1b
 577 03c6 AA24      		clr r10
 578 03c8 BB24      		clr r11
 579 03ca CC24      		clr r12
 580 03cc DD24      		clr r13
 581 03ce EE24      		clr r14
 582 03d0 FF24      		clr r15
 583 03d2 04E0      		ldi r16,lo8(4)
 584 03d4 10E0      		ldi r17,hi8(4)
 585 03d6 61E8      		ldi r22,lo8(-127)
 586 03d8 8F85      		ldd r24,Y+15
 587 03da 9889      		ldd r25,Y+16
 588 03dc 0E94 0000 		call At45dCommand
 589 03e0 9C01      		movw r18,r24
 590               	.L39:
 591 03e2 C901      		movw r24,r18
 592               	/* epilogue start */
 593 03e4 DF91      		pop r29
 594 03e6 CF91      		pop r28
 595 03e8 1F91      		pop r17
 596 03ea 0F91      		pop r16
 597 03ec FF90      		pop r15
 598 03ee EF90      		pop r14
 599 03f0 DF90      		pop r13
 600 03f2 CF90      		pop r12
 601 03f4 BF90      		pop r11
 602 03f6 AF90      		pop r10
 603 03f8 0895      		ret
 604               		.size	SpiAt45dPageErase, .-SpiAt45dPageErase
 605               	.global	SpiAt45dCommand
 606               		.type	SpiAt45dCommand, @function
 607               	SpiAt45dCommand:
 608 03fa AF92      		push r10
 609 03fc BF92      		push r11
 610 03fe CF92      		push r12
 611 0400 DF92      		push r13
 612 0402 EF92      		push r14
 613 0404 FF92      		push r15
 614 0406 0F93      		push r16
 615 0408 1F93      		push r17
 616               	/* prologue: function */
 617               	/* frame size = 0 */
 618 040a FC01      		movw r30,r24
 619 040c 8785      		ldd r24,Z+15
 620 040e 9089      		ldd r25,Z+16
 621 0410 0E94 0000 		call At45dCommand
 622               	/* epilogue start */
 623 0414 1F91      		pop r17
 624 0416 0F91      		pop r16
 625 0418 FF90      		pop r15
 626 041a EF90      		pop r14
 627 041c DF90      		pop r13
GAS LISTING C:\Temp/ccx9F5wb.s 			page 12


 628 041e CF90      		pop r12
 629 0420 BF90      		pop r11
 630 0422 AF90      		pop r10
 631 0424 0895      		ret
 632               		.size	SpiAt45dCommand, .-SpiAt45dCommand
 633               		.type	At45dWaitReady, @function
 634               	At45dWaitReady:
 635 0426 CF92      		push r12
 636 0428 DF92      		push r13
 637 042a EF92      		push r14
 638 042c FF92      		push r15
 639 042e 0F93      		push r16
 640 0430 1F93      		push r17
 641 0432 CF93      		push r28
 642 0434 DF93      		push r29
 643               	/* prologue: function */
 644               	/* frame size = 0 */
 645 0436 6C01      		movw r12,r24
 646 0438 7A01      		movw r14,r20
 647 043a 8B01      		movw r16,r22
 648 043c E901      		movw r28,r18
 649 043e 00C0      		rjmp .L44
 650               	.L48:
 651 0440 2097      		sbiw r28,0
 652 0442 01F4      		brne .L45
 653 0444 61E0      		ldi r22,lo8(1)
 654 0446 70E0      		ldi r23,hi8(1)
 655 0448 80E0      		ldi r24,hlo8(1)
 656 044a 90E0      		ldi r25,hhi8(1)
 657 044c 0E94 0000 		call NutSleep
 658               	.L45:
 659 0450 E114      		cp r14,__zero_reg__
 660 0452 F104      		cpc r15,__zero_reg__
 661 0454 0105      		cpc r16,__zero_reg__
 662 0456 1105      		cpc r17,__zero_reg__
 663 0458 01F4      		brne .L46
 664 045a 2FEF      		ldi r18,lo8(-1)
 665 045c 3FEF      		ldi r19,hi8(-1)
 666 045e 00C0      		rjmp .L47
 667               	.L46:
 668 0460 0894      		sec
 669 0462 E108      		sbc r14,__zero_reg__
 670 0464 F108      		sbc r15,__zero_reg__
 671 0466 0109      		sbc r16,__zero_reg__
 672 0468 1109      		sbc r17,__zero_reg__
 673               	.L44:
 674 046a C601      		movw r24,r12
 675 046c 0E94 0000 		call At45dStatus
 676 0470 87FF      		sbrs r24,7
 677 0472 00C0      		rjmp .L48
 678 0474 20E0      		ldi r18,lo8(0)
 679 0476 30E0      		ldi r19,hi8(0)
 680               	.L47:
 681 0478 C901      		movw r24,r18
 682               	/* epilogue start */
 683 047a DF91      		pop r29
 684 047c CF91      		pop r28
GAS LISTING C:\Temp/ccx9F5wb.s 			page 13


 685 047e 1F91      		pop r17
 686 0480 0F91      		pop r16
 687 0482 FF90      		pop r15
 688 0484 EF90      		pop r14
 689 0486 DF90      		pop r13
 690 0488 CF90      		pop r12
 691 048a 0895      		ret
 692               		.size	At45dWaitReady, .-At45dWaitReady
 693               	.global	SpiAt45dPageWrite
 694               		.type	SpiAt45dPageWrite, @function
 695               	SpiAt45dPageWrite:
 696 048c 2F92      		push r2
 697 048e 3F92      		push r3
 698 0490 4F92      		push r4
 699 0492 5F92      		push r5
 700 0494 6F92      		push r6
 701 0496 7F92      		push r7
 702 0498 8F92      		push r8
 703 049a 9F92      		push r9
 704 049c AF92      		push r10
 705 049e BF92      		push r11
 706 04a0 CF92      		push r12
 707 04a2 DF92      		push r13
 708 04a4 EF92      		push r14
 709 04a6 FF92      		push r15
 710 04a8 0F93      		push r16
 711 04aa 1F93      		push r17
 712 04ac DF93      		push r29
 713 04ae CF93      		push r28
 714 04b0 CDB7      		in r28,__SP_L__
 715 04b2 DEB7      		in r29,__SP_H__
 716 04b4 2B97      		sbiw r28,11
 717 04b6 0FB6      		in __tmp_reg__,__SREG__
 718 04b8 F894      		cli
 719 04ba DEBF      		out __SP_H__,r29
 720 04bc 0FBE      		out __SREG__,__tmp_reg__
 721 04be CDBF      		out __SP_L__,r28
 722               	/* prologue: function */
 723               	/* frame size = 11 */
 724 04c0 FC01      		movw r30,r24
 725 04c2 3A01      		movw r6,r20
 726 04c4 4B01      		movw r8,r22
 727 04c6 1801      		movw r2,r16
 728 04c8 0115      		cp r16,__zero_reg__
 729 04ca 1105      		cpc r17,__zero_reg__
 730 04cc 01F4      		brne .+2
 731 04ce 00C0      		rjmp .L51
 732 04d0 3987      		std Y+9,r19
 733 04d2 2887      		std Y+8,r18
 734 04d4 2785      		ldd r18,Z+15
 735 04d6 3089      		ldd r19,Z+16
 736 04d8 3A83      		std Y+2,r19
 737 04da 2983      		std Y+1,r18
 738 04dc 0188      		ldd __tmp_reg__,Z+17
 739 04de F289      		ldd r31,Z+18
 740 04e0 E02D      		mov r30,__tmp_reg__
 741 04e2 2081      		ld r18,Z
GAS LISTING C:\Temp/ccx9F5wb.s 			page 14


 742 04e4 3181      		ldd r19,Z+1
 743 04e6 D901      		movw r26,r18
 744 04e8 BC91      		ld r27,X
 745 04ea BF83      		std Y+7,r27
 746 04ec F901      		movw r30,r18
 747 04ee 0580      		ldd __tmp_reg__,Z+5
 748 04f0 F681      		ldd r31,Z+6
 749 04f2 E02D      		mov r30,__tmp_reg__
 750 04f4 FB87      		std Y+11,r31
 751 04f6 EA87      		std Y+10,r30
 752 04f8 D901      		movw r26,r18
 753 04fa 1196      		adiw r26,1
 754 04fc 8D91      		ld r24,X+
 755 04fe 9D91      		ld r25,X+
 756 0500 0D90      		ld __tmp_reg__,X+
 757 0502 BC91      		ld r27,X
 758 0504 A02D      		mov r26,__tmp_reg__
 759 0506 8B83      		std Y+3,r24
 760 0508 9C83      		std Y+4,r25
 761 050a AD83      		std Y+5,r26
 762 050c BE83      		std Y+6,r27
 763 050e 4424      		clr r4
 764 0510 4A94      		dec r4
 765 0512 542C      		mov r5,r4
 766               	.L55:
 767 0514 EA85      		ldd r30,Y+10
 768 0516 FB85      		ldd r31,Y+11
 769 0518 2E16      		cp r2,r30
 770 051a 3F06      		cpc r3,r31
 771 051c 04F4      		brge .L52
 772 051e 3B86      		std Y+11,r3
 773 0520 2A86      		std Y+10,r2
 774               	.L52:
 775 0522 AA84      		ldd r10,Y+10
 776 0524 BB84      		ldd r11,Y+11
 777 0526 CC24      		clr r12
 778 0528 DD24      		clr r13
 779 052a E884      		ldd r14,Y+8
 780 052c F984      		ldd r15,Y+9
 781 052e 04E0      		ldi r16,lo8(4)
 782 0530 10E0      		ldi r17,hi8(4)
 783 0532 20E0      		ldi r18,lo8(0)
 784 0534 30E0      		ldi r19,hi8(0)
 785 0536 40E0      		ldi r20,hlo8(0)
 786 0538 50E0      		ldi r21,hhi8(0)
 787 053a 64E8      		ldi r22,lo8(-124)
 788 053c 8981      		ldd r24,Y+1
 789 053e 9A81      		ldd r25,Y+2
 790 0540 0E94 0000 		call At45dCommand
 791 0544 892B      		or r24,r25
 792 0546 01F0      		breq .+2
 793 0548 00C0      		rjmp .L53
 794 054a A401      		movw r20,r8
 795 054c 9301      		movw r18,r6
 796 054e 0F80      		ldd r0,Y+7
 797 0550 00C0      		rjmp 2f
 798 0552 220F      	1:	lsl r18
GAS LISTING C:\Temp/ccx9F5wb.s 			page 15


 799 0554 331F      		rol r19
 800 0556 441F      		rol r20
 801 0558 551F      		rol r21
 802 055a 0A94      	2:	dec r0
 803 055c 02F4      		brpl 1b
 804 055e AA24      		clr r10
 805 0560 BB24      		clr r11
 806 0562 EE24      		clr r14
 807 0564 FF24      		clr r15
 808 0566 63E8      		ldi r22,lo8(-125)
 809 0568 8981      		ldd r24,Y+1
 810 056a 9A81      		ldd r25,Y+2
 811 056c 0E94 0000 		call At45dCommand
 812 0570 892B      		or r24,r25
 813 0572 01F4      		brne .L53
 814 0574 21E0      		ldi r18,lo8(1)
 815 0576 30E0      		ldi r19,hi8(1)
 816 0578 48EE      		ldi r20,lo8(1000)
 817 057a 53E0      		ldi r21,hi8(1000)
 818 057c 60E0      		ldi r22,hlo8(1000)
 819 057e 70E0      		ldi r23,hhi8(1000)
 820 0580 8981      		ldd r24,Y+1
 821 0582 9A81      		ldd r25,Y+2
 822 0584 0E94 0000 		call At45dWaitReady
 823 0588 892B      		or r24,r25
 824 058a 01F4      		brne .L53
 825 058c C201      		movw r24,r4
 826 058e 57FE      		sbrs r5,7
 827 0590 00C0      		rjmp .L54
 828 0592 80E0      		ldi r24,lo8(0)
 829 0594 90E0      		ldi r25,hi8(0)
 830               	.L54:
 831 0596 4A84      		ldd r4,Y+10
 832 0598 5B84      		ldd r5,Y+11
 833 059a 480E      		add r4,r24
 834 059c 591E      		adc r5,r25
 835 059e 0894      		sec
 836 05a0 611C      		adc r6,__zero_reg__
 837 05a2 711C      		adc r7,__zero_reg__
 838 05a4 811C      		adc r8,__zero_reg__
 839 05a6 911C      		adc r9,__zero_reg__
 840 05a8 8B81      		ldd r24,Y+3
 841 05aa 9C81      		ldd r25,Y+4
 842 05ac AD81      		ldd r26,Y+5
 843 05ae BE81      		ldd r27,Y+6
 844 05b0 6816      		cp r6,r24
 845 05b2 7906      		cpc r7,r25
 846 05b4 8A06      		cpc r8,r26
 847 05b6 9B06      		cpc r9,r27
 848 05b8 00F4      		brsh .L53
 849 05ba AA85      		ldd r26,Y+10
 850 05bc BB85      		ldd r27,Y+11
 851 05be 2A1A      		sub r2,r26
 852 05c0 3B0A      		sbc r3,r27
 853 05c2 01F0      		breq .L53
 854 05c4 E885      		ldd r30,Y+8
 855 05c6 F985      		ldd r31,Y+9
GAS LISTING C:\Temp/ccx9F5wb.s 			page 16


 856 05c8 EA0F      		add r30,r26
 857 05ca FB1F      		adc r31,r27
 858 05cc F987      		std Y+9,r31
 859 05ce E887      		std Y+8,r30
 860 05d0 00C0      		rjmp .L55
 861               	.L51:
 862 05d2 4424      		clr r4
 863 05d4 5524      		clr r5
 864               	.L53:
 865 05d6 C201      		movw r24,r4
 866               	/* epilogue start */
 867 05d8 2B96      		adiw r28,11
 868 05da 0FB6      		in __tmp_reg__,__SREG__
 869 05dc F894      		cli
 870 05de DEBF      		out __SP_H__,r29
 871 05e0 0FBE      		out __SREG__,__tmp_reg__
 872 05e2 CDBF      		out __SP_L__,r28
 873 05e4 CF91      		pop r28
 874 05e6 DF91      		pop r29
 875 05e8 1F91      		pop r17
 876 05ea 0F91      		pop r16
 877 05ec FF90      		pop r15
 878 05ee EF90      		pop r14
 879 05f0 DF90      		pop r13
 880 05f2 CF90      		pop r12
 881 05f4 BF90      		pop r11
 882 05f6 AF90      		pop r10
 883 05f8 9F90      		pop r9
 884 05fa 8F90      		pop r8
 885 05fc 7F90      		pop r7
 886 05fe 6F90      		pop r6
 887 0600 5F90      		pop r5
 888 0602 4F90      		pop r4
 889 0604 3F90      		pop r3
 890 0606 2F90      		pop r2
 891 0608 0895      		ret
 892               		.size	SpiAt45dPageWrite, .-SpiAt45dPageWrite
 893               	.global	SpiAt45dWaitReady
 894               		.type	SpiAt45dWaitReady, @function
 895               	SpiAt45dWaitReady:
 896               	/* prologue: function */
 897               	/* frame size = 0 */
 898 060a FC01      		movw r30,r24
 899 060c 8785      		ldd r24,Z+15
 900 060e 9089      		ldd r25,Z+16
 901 0610 0E94 0000 		call At45dWaitReady
 902               	/* epilogue start */
 903 0614 0895      		ret
 904               		.size	SpiAt45dWaitReady, .-SpiAt45dWaitReady
 905               	.global	at45d_info
 906               		.data
 907               		.type	at45d_info, @object
 908               		.size	at45d_info, 128
 909               	at45d_info:
 910 0000 08        		.byte	8
 911 0001 00        		.byte	0
 912 0002 02        		.byte	2
GAS LISTING C:\Temp/ccx9F5wb.s 			page 17


 913 0003 00        		.byte	0
 914 0004 00        		.byte	0
 915 0005 0001      		.word	256
 916 0007 0D        		.byte	13
 917 0008 09        		.byte	9
 918 0009 00        		.byte	0
 919 000a 02        		.byte	2
 920 000b 00        		.byte	0
 921 000c 00        		.byte	0
 922 000d 0801      		.word	264
 923 000f 0C        		.byte	12
 924 0010 08        		.byte	8
 925 0011 01        		.byte	1
 926 0012 04        		.byte	4
 927 0013 00        		.byte	0
 928 0014 00        		.byte	0
 929 0015 0001      		.word	256
 930 0017 15        		.byte	21
 931 0018 09        		.byte	9
 932 0019 01        		.byte	1
 933 001a 04        		.byte	4
 934 001b 00        		.byte	0
 935 001c 00        		.byte	0
 936 001d 0801      		.word	264
 937 001f 14        		.byte	20
 938 0020 08        		.byte	8
 939 0021 00        		.byte	0
 940 0022 08        		.byte	8
 941 0023 00        		.byte	0
 942 0024 00        		.byte	0
 943 0025 0001      		.word	256
 944 0027 1D        		.byte	29
 945 0028 09        		.byte	9
 946 0029 00        		.byte	0
 947 002a 08        		.byte	8
 948 002b 00        		.byte	0
 949 002c 00        		.byte	0
 950 002d 0801      		.word	264
 951 002f 1C        		.byte	28
 952 0030 08        		.byte	8
 953 0031 00        		.byte	0
 954 0032 10        		.byte	16
 955 0033 00        		.byte	0
 956 0034 00        		.byte	0
 957 0035 0001      		.word	256
 958 0037 25        		.byte	37
 959 0038 09        		.byte	9
 960 0039 00        		.byte	0
 961 003a 10        		.byte	16
 962 003b 00        		.byte	0
 963 003c 00        		.byte	0
 964 003d 0801      		.word	264
 965 003f 24        		.byte	36
 966 0040 09        		.byte	9
 967 0041 00        		.byte	0
 968 0042 10        		.byte	16
 969 0043 00        		.byte	0
GAS LISTING C:\Temp/ccx9F5wb.s 			page 18


 970 0044 00        		.byte	0
 971 0045 0002      		.word	512
 972 0047 2D        		.byte	45
 973 0048 0A        		.byte	10
 974 0049 00        		.byte	0
 975 004a 10        		.byte	16
 976 004b 00        		.byte	0
 977 004c 00        		.byte	0
 978 004d 1002      		.word	528
 979 004f 2C        		.byte	44
 980 0050 09        		.byte	9
 981 0051 00        		.byte	0
 982 0052 20        		.byte	32
 983 0053 00        		.byte	0
 984 0054 00        		.byte	0
 985 0055 0002      		.word	512
 986 0057 35        		.byte	53
 987 0058 0A        		.byte	10
 988 0059 00        		.byte	0
 989 005a 20        		.byte	32
 990 005b 00        		.byte	0
 991 005c 00        		.byte	0
 992 005d 1002      		.word	528
 993 005f 34        		.byte	52
 994 0060 0A        		.byte	10
 995 0061 00        		.byte	0
 996 0062 20        		.byte	32
 997 0063 00        		.byte	0
 998 0064 00        		.byte	0
 999 0065 0004      		.word	1024
 1000 0067 39        		.byte	57
 1001 0068 0B        		.byte	11
 1002 0069 00        		.byte	0
 1003 006a 20        		.byte	32
 1004 006b 00        		.byte	0
 1005 006c 00        		.byte	0
 1006 006d 2004      		.word	1056
 1007 006f 38        		.byte	56
 1008 0070 0A        		.byte	10
 1009 0071 00        		.byte	0
 1010 0072 20        		.byte	32
 1011 0073 00        		.byte	0
 1012 0074 00        		.byte	0
 1013 0075 0004      		.word	1024
 1014 0077 3D        		.byte	61
 1015 0078 0B        		.byte	11
 1016 0079 00        		.byte	0
 1017 007a 20        		.byte	32
 1018 007b 00        		.byte	0
 1019 007c 00        		.byte	0
 1020 007d 2004      		.word	1056
 1021 007f 3C        		.byte	60
 1022               	.global	at45d_known_types
 1023               		.type	at45d_known_types, @object
 1024               		.size	at45d_known_types, 1
 1025               	at45d_known_types:
 1026 0080 10        		.byte	16
GAS LISTING C:\Temp/ccx9F5wb.s 			page 19


GAS LISTING C:\Temp/ccx9F5wb.s 			page 20


DEFINED SYMBOLS
                            *ABS*:00000000 spi_at45d.c
  C:\Temp/ccx9F5wb.s:2      *ABS*:0000003f __SREG__
  C:\Temp/ccx9F5wb.s:3      *ABS*:0000003e __SP_H__
  C:\Temp/ccx9F5wb.s:4      *ABS*:0000003d __SP_L__
  C:\Temp/ccx9F5wb.s:5      *ABS*:00000034 __CCP__
  C:\Temp/ccx9F5wb.s:6      *ABS*:00000000 __tmp_reg__
  C:\Temp/ccx9F5wb.s:7      *ABS*:00000001 __zero_reg__
  C:\Temp/ccx9F5wb.s:12     .text:00000000 At45dStatus
  C:\Temp/ccx9F5wb.s:102    .text:000000a2 SpiAt45dStatus
  C:\Temp/ccx9F5wb.s:114    .text:000000ae SpiAt45dChipErase
  C:\Temp/ccx9F5wb.s:124    .text:000000b4 SpiAt45dInit
  C:\Temp/ccx9F5wb.s:1025   .data:00000080 at45d_known_types
  C:\Temp/ccx9F5wb.s:909    .data:00000000 at45d_info
  C:\Temp/ccx9F5wb.s:229    .text:00000176 SpiAt45dPageWrite_P
  C:\Temp/ccx9F5wb.s:239    .text:0000017c SpiAt45dPages
  C:\Temp/ccx9F5wb.s:259    .text:00000196 SpiAt45dPageSize
  C:\Temp/ccx9F5wb.s:277    .text:000001ac SpiAt45dIOCtl
  C:\Temp/ccx9F5wb.s:309    .text:000001d8 At45dCommand
  C:\Temp/ccx9F5wb.s:456    .text:000002ec SpiAt45dPageRead
  C:\Temp/ccx9F5wb.s:535    .text:0000037a SpiAt45dPageErase
  C:\Temp/ccx9F5wb.s:607    .text:000003fa SpiAt45dCommand
  C:\Temp/ccx9F5wb.s:634    .text:00000426 At45dWaitReady
  C:\Temp/ccx9F5wb.s:695    .text:0000048c SpiAt45dPageWrite
  C:\Temp/ccx9F5wb.s:895    .text:0000060a SpiAt45dWaitReady

UNDEFINED SYMBOLS
__do_copy_data
__do_clear_bss
memset
NutSleep
