GAS LISTING C:\Temp/ccHnlSU3.s 			page 1


   1               		.file	"twbbif.c"
   2               	__SREG__ = 0x3f
   3               	__SP_H__ = 0x3e
   4               	__SP_L__ = 0x3d
   5               	__CCP__  = 0x34
   6               	__tmp_reg__ = 0
   7               	__zero_reg__ = 1
   8               		.global __do_copy_data
   9               		.global __do_clear_bss
  10               		.text
  11               		.type	TwPut, @function
  12               	TwPut:
  13               	/* prologue: function */
  14               	/* frame size = 0 */
  15 0000 40E8      		ldi r20,lo8(128)
  16 0002 50E0      		ldi r21,hi8(128)
  17 0004 28E0      		ldi r18,lo8(8)
  18 0006 30E0      		ldi r19,hi8(8)
  19 0008 682F      		mov r22,r24
  20 000a 70E0      		ldi r23,lo8(0)
  21               	.L9:
  22 000c CA01      		movw r24,r20
  23 000e 8623      		and r24,r22
  24 0010 9723      		and r25,r23
  25 0012 892B      		or r24,r25
  26 0014 01F0      		breq .L2
  27 0016 B898      		cbi 55-32,0
  28 0018 00C0      		rjmp .L17
  29               	.L2:
  30 001a B89A      		sbi 55-32,0
  31               	.L17:
  32 001c 80E1      		ldi r24,lo8(16)
  33 001e 90E0      		ldi r25,hi8(16)
  34 0020 00C0      		rjmp .L16
  35               	.L4:
  36               	/* #APP */
  37               	 ;  428 "../../nut/dev/twbbif.c" 1
  38 0022 0000      		nop
  39               	 ;  0 "" 2
  40               	/* #NOAPP */
  41               	.L16:
  42 0024 0197      		sbiw r24,1
  43 0026 EFEF      		ldi r30,hi8(-1)
  44 0028 8F3F      		cpi r24,lo8(-1)
  45 002a 9E07      		cpc r25,r30
  46 002c 01F4      		brne .L4
  47 002e B998      		cbi 55-32,1
  48 0030 80E2      		ldi r24,lo8(32)
  49 0032 90E0      		ldi r25,hi8(32)
  50 0034 00C0      		rjmp .L5
  51               	.L6:
  52               	/* #APP */
  53               	 ;  428 "../../nut/dev/twbbif.c" 1
  54 0036 0000      		nop
  55               	 ;  0 "" 2
  56               	/* #NOAPP */
  57               	.L5:
GAS LISTING C:\Temp/ccHnlSU3.s 			page 2


  58 0038 0197      		sbiw r24,1
  59 003a EFEF      		ldi r30,hi8(-1)
  60 003c 8F3F      		cpi r24,lo8(-1)
  61 003e 9E07      		cpc r25,r30
  62 0040 01F4      		brne .L6
  63 0042 B99A      		sbi 55-32,1
  64 0044 80E1      		ldi r24,lo8(16)
  65 0046 90E0      		ldi r25,hi8(16)
  66 0048 00C0      		rjmp .L7
  67               	.L8:
  68               	/* #APP */
  69               	 ;  428 "../../nut/dev/twbbif.c" 1
  70 004a 0000      		nop
  71               	 ;  0 "" 2
  72               	/* #NOAPP */
  73               	.L7:
  74 004c 0197      		sbiw r24,1
  75 004e EFEF      		ldi r30,hi8(-1)
  76 0050 8F3F      		cpi r24,lo8(-1)
  77 0052 9E07      		cpc r25,r30
  78 0054 01F4      		brne .L8
  79 0056 5595      		asr r21
  80 0058 4795      		ror r20
  81 005a 2150      		subi r18,lo8(-(-1))
  82 005c 3040      		sbci r19,hi8(-(-1))
  83 005e 01F4      		brne .L9
  84 0060 B898      		cbi 55-32,0
  85 0062 B998      		cbi 55-32,1
  86 0064 80E2      		ldi r24,lo8(32)
  87 0066 90E0      		ldi r25,hi8(32)
  88 0068 00C0      		rjmp .L10
  89               	.L11:
  90               	/* #APP */
  91               	 ;  428 "../../nut/dev/twbbif.c" 1
  92 006a 0000      		nop
  93               	 ;  0 "" 2
  94               	/* #NOAPP */
  95               	.L10:
  96 006c 0197      		sbiw r24,1
  97 006e 2FEF      		ldi r18,hi8(-1)
  98 0070 8F3F      		cpi r24,lo8(-1)
  99 0072 9207      		cpc r25,r18
 100 0074 01F4      		brne .L11
 101 0076 B099      		sbic 54-32,0
 102 0078 00C0      		rjmp .L12
 103 007a 20E0      		ldi r18,lo8(0)
 104 007c 30E0      		ldi r19,hi8(0)
 105 007e 00C0      		rjmp .L13
 106               	.L12:
 107 0080 2FEF      		ldi r18,lo8(-1)
 108 0082 3FEF      		ldi r19,hi8(-1)
 109               	.L13:
 110 0084 B99A      		sbi 55-32,1
 111 0086 C901      		movw r24,r18
 112               	/* epilogue start */
 113 0088 0895      		ret
 114               		.size	TwPut, .-TwPut
GAS LISTING C:\Temp/ccHnlSU3.s 			page 3


 115               	.global	TwMasterTransact
 116               		.type	TwMasterTransact, @function
 117               	TwMasterTransact:
 118 008a 9F92      		push r9
 119 008c AF92      		push r10
 120 008e BF92      		push r11
 121 0090 CF92      		push r12
 122 0092 DF92      		push r13
 123 0094 EF92      		push r14
 124 0096 FF92      		push r15
 125 0098 0F93      		push r16
 126 009a 1F93      		push r17
 127 009c CF93      		push r28
 128 009e DF93      		push r29
 129               	/* prologue: function */
 130               	/* frame size = 0 */
 131 00a0 D82E      		mov r13,r24
 132 00a2 C62E      		mov r12,r22
 133 00a4 B72E      		mov r11,r23
 134 00a6 7A01      		movw r14,r20
 135 00a8 A22E      		mov r10,r18
 136 00aa 932E      		mov r9,r19
 137 00ac 8091 0000 		lds r24,twibb_initialized
 138 00b0 9091 0000 		lds r25,(twibb_initialized)+1
 139 00b4 892B      		or r24,r25
 140 00b6 01F4      		brne .L19
 141 00b8 B898      		cbi 55-32,0
 142 00ba B998      		cbi 55-32,1
 143 00bc C098      		cbi 56-32,0
 144 00be C198      		cbi 56-32,1
 145 00c0 81E0      		ldi r24,lo8(1)
 146 00c2 90E0      		ldi r25,hi8(1)
 147 00c4 9093 0000 		sts (twibb_initialized)+1,r25
 148 00c8 8093 0000 		sts twibb_initialized,r24
 149               	.L19:
 150 00cc E114      		cp r14,__zero_reg__
 151 00ce F104      		cpc r15,__zero_reg__
 152 00d0 01F4      		brne .+2
 153 00d2 00C0      		rjmp .L20
 154 00d4 B898      		cbi 55-32,0
 155 00d6 80E1      		ldi r24,lo8(16)
 156 00d8 90E0      		ldi r25,hi8(16)
 157 00da 00C0      		rjmp .L21
 158               	.L22:
 159               	/* #APP */
 160               	 ;  428 "../../nut/dev/twbbif.c" 1
 161 00dc 0000      		nop
 162               	 ;  0 "" 2
 163               	/* #NOAPP */
 164               	.L21:
 165 00de 0197      		sbiw r24,1
 166 00e0 2FEF      		ldi r18,hi8(-1)
 167 00e2 8F3F      		cpi r24,lo8(-1)
 168 00e4 9207      		cpc r25,r18
 169 00e6 01F4      		brne .L22
 170 00e8 B998      		cbi 55-32,1
 171 00ea 80E1      		ldi r24,lo8(16)
GAS LISTING C:\Temp/ccHnlSU3.s 			page 4


 172 00ec 90E0      		ldi r25,hi8(16)
 173 00ee 00C0      		rjmp .L23
 174               	.L24:
 175               	/* #APP */
 176               	 ;  428 "../../nut/dev/twbbif.c" 1
 177 00f0 0000      		nop
 178               	 ;  0 "" 2
 179               	/* #NOAPP */
 180               	.L23:
 181 00f2 0197      		sbiw r24,1
 182 00f4 7FEF      		ldi r23,hi8(-1)
 183 00f6 8F3F      		cpi r24,lo8(-1)
 184 00f8 9707      		cpc r25,r23
 185 00fa 01F4      		brne .L24
 186 00fc B89A      		sbi 55-32,0
 187 00fe 80E1      		ldi r24,lo8(16)
 188 0100 90E0      		ldi r25,hi8(16)
 189 0102 00C0      		rjmp .L25
 190               	.L26:
 191               	/* #APP */
 192               	 ;  428 "../../nut/dev/twbbif.c" 1
 193 0104 0000      		nop
 194               	 ;  0 "" 2
 195               	/* #NOAPP */
 196               	.L25:
 197 0106 0197      		sbiw r24,1
 198 0108 2FEF      		ldi r18,hi8(-1)
 199 010a 8F3F      		cpi r24,lo8(-1)
 200 010c 9207      		cpc r25,r18
 201 010e 01F4      		brne .L26
 202 0110 B99A      		sbi 55-32,1
 203 0112 80E1      		ldi r24,lo8(16)
 204 0114 90E0      		ldi r25,hi8(16)
 205 0116 00C0      		rjmp .L27
 206               	.L28:
 207               	/* #APP */
 208               	 ;  428 "../../nut/dev/twbbif.c" 1
 209 0118 0000      		nop
 210               	 ;  0 "" 2
 211               	/* #NOAPP */
 212               	.L27:
 213 011a 0197      		sbiw r24,1
 214 011c 7FEF      		ldi r23,hi8(-1)
 215 011e 8F3F      		cpi r24,lo8(-1)
 216 0120 9707      		cpc r25,r23
 217 0122 01F4      		brne .L28
 218 0124 8D2D      		mov r24,r13
 219 0126 880F      		lsl r24
 220 0128 0E94 0000 		call TwPut
 221 012c AC01      		movw r20,r24
 222 012e 0097      		sbiw r24,0
 223 0130 01F0      		breq .+2
 224 0132 00C0      		rjmp .L29
 225 0134 8C2D      		mov r24,r12
 226 0136 9B2D      		mov r25,r11
 227 0138 9C01      		movw r18,r24
 228 013a E901      		movw r28,r18
GAS LISTING C:\Temp/ccHnlSU3.s 			page 5


 229               	.L30:
 230 013c 8881      		ld r24,Y
 231 013e 0E94 0000 		call TwPut
 232 0142 AC01      		movw r20,r24
 233 0144 0894      		sec
 234 0146 E108      		sbc r14,__zero_reg__
 235 0148 F108      		sbc r15,__zero_reg__
 236 014a 0097      		sbiw r24,0
 237 014c 01F0      		breq .+2
 238 014e 00C0      		rjmp .L29
 239 0150 2196      		adiw r28,1
 240 0152 E114      		cp r14,__zero_reg__
 241 0154 F104      		cpc r15,__zero_reg__
 242 0156 01F4      		brne .L30
 243               	.L20:
 244 0158 0115      		cp r16,__zero_reg__
 245 015a 1105      		cpc r17,__zero_reg__
 246 015c 01F4      		brne .+2
 247 015e 00C0      		rjmp .L31
 248 0160 B898      		cbi 55-32,0
 249 0162 80E1      		ldi r24,lo8(16)
 250 0164 90E0      		ldi r25,hi8(16)
 251 0166 00C0      		rjmp .L32
 252               	.L33:
 253               	/* #APP */
 254               	 ;  428 "../../nut/dev/twbbif.c" 1
 255 0168 0000      		nop
 256               	 ;  0 "" 2
 257               	/* #NOAPP */
 258               	.L32:
 259 016a 0197      		sbiw r24,1
 260 016c 2FEF      		ldi r18,hi8(-1)
 261 016e 8F3F      		cpi r24,lo8(-1)
 262 0170 9207      		cpc r25,r18
 263 0172 01F4      		brne .L33
 264 0174 B998      		cbi 55-32,1
 265 0176 80E1      		ldi r24,lo8(16)
 266 0178 90E0      		ldi r25,hi8(16)
 267 017a 00C0      		rjmp .L34
 268               	.L35:
 269               	/* #APP */
 270               	 ;  428 "../../nut/dev/twbbif.c" 1
 271 017c 0000      		nop
 272               	 ;  0 "" 2
 273               	/* #NOAPP */
 274               	.L34:
 275 017e 0197      		sbiw r24,1
 276 0180 7FEF      		ldi r23,hi8(-1)
 277 0182 8F3F      		cpi r24,lo8(-1)
 278 0184 9707      		cpc r25,r23
 279 0186 01F4      		brne .L35
 280 0188 B89A      		sbi 55-32,0
 281 018a 80E1      		ldi r24,lo8(16)
 282 018c 90E0      		ldi r25,hi8(16)
 283 018e 00C0      		rjmp .L36
 284               	.L37:
 285               	/* #APP */
GAS LISTING C:\Temp/ccHnlSU3.s 			page 6


 286               	 ;  428 "../../nut/dev/twbbif.c" 1
 287 0190 0000      		nop
 288               	 ;  0 "" 2
 289               	/* #NOAPP */
 290               	.L36:
 291 0192 0197      		sbiw r24,1
 292 0194 2FEF      		ldi r18,hi8(-1)
 293 0196 8F3F      		cpi r24,lo8(-1)
 294 0198 9207      		cpc r25,r18
 295 019a 01F4      		brne .L37
 296 019c B99A      		sbi 55-32,1
 297 019e 80E1      		ldi r24,lo8(16)
 298 01a0 90E0      		ldi r25,hi8(16)
 299 01a2 00C0      		rjmp .L38
 300               	.L39:
 301               	/* #APP */
 302               	 ;  428 "../../nut/dev/twbbif.c" 1
 303 01a4 0000      		nop
 304               	 ;  0 "" 2
 305               	/* #NOAPP */
 306               	.L38:
 307 01a6 0197      		sbiw r24,1
 308 01a8 7FEF      		ldi r23,hi8(-1)
 309 01aa 8F3F      		cpi r24,lo8(-1)
 310 01ac 9707      		cpc r25,r23
 311 01ae 01F4      		brne .L39
 312 01b0 DD0C      		lsl r13
 313 01b2 8D2D      		mov r24,r13
 314 01b4 8160      		ori r24,lo8(1)
 315 01b6 0E94 0000 		call TwPut
 316 01ba AC01      		movw r20,r24
 317 01bc 0097      		sbiw r24,0
 318 01be 01F0      		breq .+2
 319 01c0 00C0      		rjmp .L29
 320 01c2 8A2D      		mov r24,r10
 321 01c4 992D      		mov r25,r9
 322 01c6 FC01      		movw r30,r24
 323 01c8 0150      		subi r16,lo8(-(-1))
 324 01ca 1040      		sbci r17,hi8(-(-1))
 325 01cc DF01      		movw r26,r30
 326 01ce A00F      		add r26,r16
 327 01d0 B11F      		adc r27,r17
 328 01d2 0F5F      		subi r16,lo8(-(1))
 329 01d4 1F4F      		sbci r17,hi8(-(1))
 330               	.L56:
 331 01d6 B898      		cbi 55-32,0
 332 01d8 80E1      		ldi r24,lo8(16)
 333 01da 90E0      		ldi r25,hi8(16)
 334 01dc 00C0      		rjmp .L40
 335               	.L41:
 336               	/* #APP */
 337               	 ;  428 "../../nut/dev/twbbif.c" 1
 338 01de 0000      		nop
 339               	 ;  0 "" 2
 340               	/* #NOAPP */
 341               	.L40:
 342 01e0 0197      		sbiw r24,1
GAS LISTING C:\Temp/ccHnlSU3.s 			page 7


 343 01e2 2FEF      		ldi r18,hi8(-1)
 344 01e4 8F3F      		cpi r24,lo8(-1)
 345 01e6 9207      		cpc r25,r18
 346 01e8 01F4      		brne .L41
 347 01ea 60E0      		ldi r22,lo8(0)
 348 01ec 40E8      		ldi r20,lo8(128)
 349 01ee 50E0      		ldi r21,hi8(128)
 350 01f0 28E0      		ldi r18,lo8(8)
 351 01f2 30E0      		ldi r19,hi8(8)
 352 01f4 00C0      		rjmp .L42
 353               	.L43:
 354               	/* #APP */
 355               	 ;  428 "../../nut/dev/twbbif.c" 1
 356 01f6 0000      		nop
 357               	 ;  0 "" 2
 358               	/* #NOAPP */
 359               	.L48:
 360 01f8 0197      		sbiw r24,1
 361 01fa 7FEF      		ldi r23,hi8(-1)
 362 01fc 8F3F      		cpi r24,lo8(-1)
 363 01fe 9707      		cpc r25,r23
 364 0200 01F4      		brne .L43
 365 0202 B998      		cbi 55-32,1
 366 0204 80E2      		ldi r24,lo8(32)
 367 0206 90E0      		ldi r25,hi8(32)
 368 0208 00C0      		rjmp .L44
 369               	.L45:
 370               	/* #APP */
 371               	 ;  428 "../../nut/dev/twbbif.c" 1
 372 020a 0000      		nop
 373               	 ;  0 "" 2
 374               	/* #NOAPP */
 375               	.L44:
 376 020c 0197      		sbiw r24,1
 377 020e 7FEF      		ldi r23,hi8(-1)
 378 0210 8F3F      		cpi r24,lo8(-1)
 379 0212 9707      		cpc r25,r23
 380 0214 01F4      		brne .L45
 381 0216 B099      		sbic 54-32,0
 382 0218 642B      		or r22,r20
 383               	.L46:
 384 021a B99A      		sbi 55-32,1
 385 021c 5595      		asr r21
 386 021e 4795      		ror r20
 387 0220 2150      		subi r18,lo8(-(-1))
 388 0222 3040      		sbci r19,hi8(-(-1))
 389 0224 01F0      		breq .L47
 390               	.L42:
 391 0226 80E1      		ldi r24,lo8(16)
 392 0228 90E0      		ldi r25,hi8(16)
 393 022a 00C0      		rjmp .L48
 394               	.L47:
 395 022c 6083      		st Z,r22
 396 022e EA17      		cp r30,r26
 397 0230 FB07      		cpc r31,r27
 398 0232 01F4      		brne .L49
 399 0234 A801      		movw r20,r16
GAS LISTING C:\Temp/ccHnlSU3.s 			page 8


 400 0236 00C0      		rjmp .L29
 401               	.L49:
 402 0238 B89A      		sbi 55-32,0
 403 023a 80E1      		ldi r24,lo8(16)
 404 023c 90E0      		ldi r25,hi8(16)
 405 023e 00C0      		rjmp .L50
 406               	.L51:
 407               	/* #APP */
 408               	 ;  428 "../../nut/dev/twbbif.c" 1
 409 0240 0000      		nop
 410               	 ;  0 "" 2
 411               	/* #NOAPP */
 412               	.L50:
 413 0242 0197      		sbiw r24,1
 414 0244 2FEF      		ldi r18,hi8(-1)
 415 0246 8F3F      		cpi r24,lo8(-1)
 416 0248 9207      		cpc r25,r18
 417 024a 01F4      		brne .L51
 418 024c B998      		cbi 55-32,1
 419 024e 80E2      		ldi r24,lo8(32)
 420 0250 90E0      		ldi r25,hi8(32)
 421 0252 00C0      		rjmp .L52
 422               	.L53:
 423               	/* #APP */
 424               	 ;  428 "../../nut/dev/twbbif.c" 1
 425 0254 0000      		nop
 426               	 ;  0 "" 2
 427               	/* #NOAPP */
 428               	.L52:
 429 0256 0197      		sbiw r24,1
 430 0258 7FEF      		ldi r23,hi8(-1)
 431 025a 8F3F      		cpi r24,lo8(-1)
 432 025c 9707      		cpc r25,r23
 433 025e 01F4      		brne .L53
 434 0260 B99A      		sbi 55-32,1
 435 0262 80E1      		ldi r24,lo8(16)
 436 0264 90E0      		ldi r25,hi8(16)
 437 0266 00C0      		rjmp .L54
 438               	.L55:
 439               	/* #APP */
 440               	 ;  428 "../../nut/dev/twbbif.c" 1
 441 0268 0000      		nop
 442               	 ;  0 "" 2
 443               	/* #NOAPP */
 444               	.L54:
 445 026a 0197      		sbiw r24,1
 446 026c 2FEF      		ldi r18,hi8(-1)
 447 026e 8F3F      		cpi r24,lo8(-1)
 448 0270 9207      		cpc r25,r18
 449 0272 01F4      		brne .L55
 450 0274 B898      		cbi 55-32,0
 451 0276 3196      		adiw r30,1
 452 0278 00C0      		rjmp .L56
 453               	.L31:
 454 027a 40E0      		ldi r20,lo8(0)
 455 027c 50E0      		ldi r21,hi8(0)
 456               	.L29:
GAS LISTING C:\Temp/ccHnlSU3.s 			page 9


 457 027e B89A      		sbi 55-32,0
 458 0280 20E1      		ldi r18,lo8(16)
 459 0282 30E0      		ldi r19,hi8(16)
 460 0284 00C0      		rjmp .L57
 461               	.L58:
 462               	/* #APP */
 463               	 ;  428 "../../nut/dev/twbbif.c" 1
 464 0286 0000      		nop
 465               	 ;  0 "" 2
 466               	/* #NOAPP */
 467               	.L57:
 468 0288 2150      		subi r18,lo8(-(-1))
 469 028a 3040      		sbci r19,hi8(-(-1))
 470 028c 7FEF      		ldi r23,hi8(-1)
 471 028e 2F3F      		cpi r18,lo8(-1)
 472 0290 3707      		cpc r19,r23
 473 0292 01F4      		brne .L58
 474 0294 B998      		cbi 55-32,1
 475 0296 20E2      		ldi r18,lo8(32)
 476 0298 30E0      		ldi r19,hi8(32)
 477 029a 00C0      		rjmp .L59
 478               	.L60:
 479               	/* #APP */
 480               	 ;  428 "../../nut/dev/twbbif.c" 1
 481 029c 0000      		nop
 482               	 ;  0 "" 2
 483               	/* #NOAPP */
 484               	.L59:
 485 029e 2150      		subi r18,lo8(-(-1))
 486 02a0 3040      		sbci r19,hi8(-(-1))
 487 02a2 8FEF      		ldi r24,hi8(-1)
 488 02a4 2F3F      		cpi r18,lo8(-1)
 489 02a6 3807      		cpc r19,r24
 490 02a8 01F4      		brne .L60
 491 02aa B898      		cbi 55-32,0
 492 02ac 20E8      		ldi r18,lo8(128)
 493 02ae 30E0      		ldi r19,hi8(128)
 494 02b0 00C0      		rjmp .L61
 495               	.L62:
 496               	/* #APP */
 497               	 ;  428 "../../nut/dev/twbbif.c" 1
 498 02b2 0000      		nop
 499               	 ;  0 "" 2
 500               	/* #NOAPP */
 501               	.L61:
 502 02b4 2150      		subi r18,lo8(-(-1))
 503 02b6 3040      		sbci r19,hi8(-(-1))
 504 02b8 7FEF      		ldi r23,hi8(-1)
 505 02ba 2F3F      		cpi r18,lo8(-1)
 506 02bc 3707      		cpc r19,r23
 507 02be 01F4      		brne .L62
 508 02c0 8FEF      		ldi r24,hi8(-1)
 509 02c2 4F3F      		cpi r20,lo8(-1)
 510 02c4 5807      		cpc r21,r24
 511 02c6 01F4      		brne .L63
 512 02c8 84E0      		ldi r24,lo8(4)
 513 02ca 8093 0000 		sts tw_mm_error,r24
GAS LISTING C:\Temp/ccHnlSU3.s 			page 10


 514               	.L63:
 515 02ce CA01      		movw r24,r20
 516               	/* epilogue start */
 517 02d0 DF91      		pop r29
 518 02d2 CF91      		pop r28
 519 02d4 1F91      		pop r17
 520 02d6 0F91      		pop r16
 521 02d8 FF90      		pop r15
 522 02da EF90      		pop r14
 523 02dc DF90      		pop r13
 524 02de CF90      		pop r12
 525 02e0 BF90      		pop r11
 526 02e2 AF90      		pop r10
 527 02e4 9F90      		pop r9
 528 02e6 0895      		ret
 529               		.size	TwMasterTransact, .-TwMasterTransact
 530               	.global	TwMasterError
 531               		.type	TwMasterError, @function
 532               	TwMasterError:
 533               	/* prologue: function */
 534               	/* frame size = 0 */
 535 02e8 8091 0000 		lds r24,tw_mm_error
 536 02ec 1092 0000 		sts tw_mm_error,__zero_reg__
 537 02f0 90E0      		ldi r25,lo8(0)
 538               	/* epilogue start */
 539 02f2 0895      		ret
 540               		.size	TwMasterError, .-TwMasterError
 541               	.global	TwSlaveListen
 542               		.type	TwSlaveListen, @function
 543               	TwSlaveListen:
 544               	/* prologue: function */
 545               	/* frame size = 0 */
 546 02f4 8FEF      		ldi r24,lo8(-1)
 547 02f6 9FEF      		ldi r25,hi8(-1)
 548               	/* epilogue start */
 549 02f8 0895      		ret
 550               		.size	TwSlaveListen, .-TwSlaveListen
 551               	.global	TwSlaveRespond
 552               		.type	TwSlaveRespond, @function
 553               	TwSlaveRespond:
 554               	/* prologue: function */
 555               	/* frame size = 0 */
 556 02fa 8FEF      		ldi r24,lo8(-1)
 557 02fc 9FEF      		ldi r25,hi8(-1)
 558               	/* epilogue start */
 559 02fe 0895      		ret
 560               		.size	TwSlaveRespond, .-TwSlaveRespond
 561               	.global	TwSlaveError
 562               		.type	TwSlaveError, @function
 563               	TwSlaveError:
 564               	/* prologue: function */
 565               	/* frame size = 0 */
 566 0300 82E0      		ldi r24,lo8(2)
 567 0302 90E0      		ldi r25,hi8(2)
 568               	/* epilogue start */
 569 0304 0895      		ret
 570               		.size	TwSlaveError, .-TwSlaveError
GAS LISTING C:\Temp/ccHnlSU3.s 			page 11


 571               	.global	TwIOCtl
 572               		.type	TwIOCtl, @function
 573               	TwIOCtl:
 574               	/* prologue: function */
 575               	/* frame size = 0 */
 576 0306 80E0      		ldi r24,lo8(0)
 577 0308 90E0      		ldi r25,hi8(0)
 578               	/* epilogue start */
 579 030a 0895      		ret
 580               		.size	TwIOCtl, .-TwIOCtl
 581               	.global	TwInit
 582               		.type	TwInit, @function
 583               	TwInit:
 584               	/* prologue: function */
 585               	/* frame size = 0 */
 586 030c B898      		cbi 55-32,0
 587 030e B998      		cbi 55-32,1
 588 0310 C098      		cbi 56-32,0
 589 0312 C198      		cbi 56-32,1
 590 0314 81E0      		ldi r24,lo8(1)
 591 0316 90E0      		ldi r25,hi8(1)
 592 0318 9093 0000 		sts (twibb_initialized)+1,r25
 593 031c 8093 0000 		sts twibb_initialized,r24
 594 0320 80E0      		ldi r24,lo8(0)
 595 0322 90E0      		ldi r25,hi8(0)
 596               	/* epilogue start */
 597 0324 0895      		ret
 598               		.size	TwInit, .-TwInit
 599               		.lcomm tw_mm_error,1
 600               		.lcomm twibb_initialized,2
GAS LISTING C:\Temp/ccHnlSU3.s 			page 12


DEFINED SYMBOLS
                            *ABS*:00000000 twbbif.c
  C:\Temp/ccHnlSU3.s:2      *ABS*:0000003f __SREG__
  C:\Temp/ccHnlSU3.s:3      *ABS*:0000003e __SP_H__
  C:\Temp/ccHnlSU3.s:4      *ABS*:0000003d __SP_L__
  C:\Temp/ccHnlSU3.s:5      *ABS*:00000034 __CCP__
  C:\Temp/ccHnlSU3.s:6      *ABS*:00000000 __tmp_reg__
  C:\Temp/ccHnlSU3.s:7      *ABS*:00000001 __zero_reg__
  C:\Temp/ccHnlSU3.s:12     .text:00000000 TwPut
  C:\Temp/ccHnlSU3.s:117    .text:0000008a TwMasterTransact
  C:\Temp/ccHnlSU3.s:599    .bss:00000001 twibb_initialized
                             .bss:00000000 tw_mm_error
  C:\Temp/ccHnlSU3.s:532    .text:000002e8 TwMasterError
  C:\Temp/ccHnlSU3.s:543    .text:000002f4 TwSlaveListen
  C:\Temp/ccHnlSU3.s:553    .text:000002fa TwSlaveRespond
  C:\Temp/ccHnlSU3.s:563    .text:00000300 TwSlaveError
  C:\Temp/ccHnlSU3.s:573    .text:00000306 TwIOCtl
  C:\Temp/ccHnlSU3.s:583    .text:0000030c TwInit

UNDEFINED SYMBOLS
__do_copy_data
__do_clear_bss
