GAS LISTING C:\DOCUME~1\ADMINI~1\LOCALS~1\Temp/ccZLgXoL.s 			page 1


   1               		.file	"lparser.c"
   2               	__SREG__ = 0x3f
   3               	__SP_H__ = 0x3e
   4               	__SP_L__ = 0x3d
   5               	__CCP__  = 0x34
   6               	__tmp_reg__ = 0
   7               	__zero_reg__ = 1
   8               		.text
   9               		.type	adjustlocalvars, @function
  10               	adjustlocalvars:
  11 0000 CF93      		push r28
  12 0002 DF93      		push r29
  13               	/* prologue: function */
  14               	/* frame size = 0 */
  15 0004 FC01      		movw r30,r24
  16 0006 C289      		ldd r28,Z+18
  17 0008 D389      		ldd r29,Z+19
  18 000a 8A8D      		ldd r24,Y+26
  19 000c 860F      		add r24,r22
  20 000e 8A8F      		std Y+26,r24
  21 0010 00C0      		rjmp .L2
  22               	.L3:
  23 0012 A881      		ld r26,Y
  24 0014 B981      		ldd r27,Y+1
  25 0016 EA8D      		ldd r30,Y+26
  26 0018 F0E0      		ldi r31,lo8(0)
  27 001a E61B      		sub r30,r22
  28 001c F70B      		sbc r31,r23
  29 001e EE0F      		lsl r30
  30 0020 FF1F      		rol r31
  31 0022 EC0F      		add r30,r28
  32 0024 FD1F      		adc r31,r29
  33 0026 ED56      		subi r30,lo8(-(147))
  34 0028 FF4F      		sbci r31,hi8(-(147))
  35 002a 2081      		ld r18,Z
  36 002c 3181      		ldd r19,Z+1
  37 002e C901      		movw r24,r18
  38 0030 880F      		lsl r24
  39 0032 991F      		rol r25
  40 0034 820F      		add r24,r18
  41 0036 931F      		adc r25,r19
  42 0038 880F      		lsl r24
  43 003a 991F      		rol r25
  44 003c 1C96      		adiw r26,12
  45 003e ED91      		ld r30,X+
  46 0040 FC91      		ld r31,X
  47 0042 1D97      		sbiw r26,12+1
  48 0044 E80F      		add r30,r24
  49 0046 F91F      		adc r31,r25
  50 0048 8C85      		ldd r24,Y+12
  51 004a 9D85      		ldd r25,Y+13
  52 004c 9383      		std Z+3,r25
  53 004e 8283      		std Z+2,r24
  54 0050 6150      		subi r22,lo8(-(-1))
  55 0052 7040      		sbci r23,hi8(-(-1))
  56               	.L2:
  57 0054 6115      		cp r22,__zero_reg__
GAS LISTING C:\DOCUME~1\ADMINI~1\LOCALS~1\Temp/ccZLgXoL.s 			page 2


  58 0056 7105      		cpc r23,__zero_reg__
  59 0058 01F4      		brne .L3
  60               	/* epilogue start */
  61 005a DF91      		pop r29
  62 005c CF91      		pop r28
  63 005e 0895      		ret
  64               		.size	adjustlocalvars, .-adjustlocalvars
  65               		.type	open_func, @function
  66               	open_func:
  67 0060 CF92      		push r12
  68 0062 DF92      		push r13
  69 0064 EF92      		push r14
  70 0066 FF92      		push r15
  71 0068 0F93      		push r16
  72 006a 1F93      		push r17
  73 006c CF93      		push r28
  74 006e DF93      		push r29
  75               	/* prologue: function */
  76               	/* frame size = 0 */
  77 0070 7C01      		movw r14,r24
  78 0072 8B01      		movw r16,r22
  79 0074 FC01      		movw r30,r24
  80 0076 C489      		ldd r28,Z+20
  81 0078 D589      		ldd r29,Z+21
  82 007a CE01      		movw r24,r28
  83 007c 0E94 0000 		call luaF_newproto
  84 0080 6C01      		movw r12,r24
  85 0082 F801      		movw r30,r16
  86 0084 9183      		std Z+1,r25
  87 0086 8083      		st Z,r24
  88 0088 F701      		movw r30,r14
  89 008a 8289      		ldd r24,Z+18
  90 008c 9389      		ldd r25,Z+19
  91 008e F801      		movw r30,r16
  92 0090 9583      		std Z+5,r25
  93 0092 8483      		std Z+4,r24
  94 0094 F782      		std Z+7,r15
  95 0096 E682      		std Z+6,r14
  96 0098 D187      		std Z+9,r29
  97 009a C087      		std Z+8,r28
  98 009c F701      		movw r30,r14
  99 009e 138B      		std Z+19,r17
 100 00a0 028B      		std Z+18,r16
 101 00a2 F801      		movw r30,r16
 102 00a4 1586      		std Z+13,__zero_reg__
 103 00a6 1486      		std Z+12,__zero_reg__
 104 00a8 8FEF      		ldi r24,lo8(-1)
 105 00aa 9FEF      		ldi r25,hi8(-1)
 106 00ac 9787      		std Z+15,r25
 107 00ae 8687      		std Z+14,r24
 108 00b0 918B      		std Z+17,r25
 109 00b2 808B      		std Z+16,r24
 110 00b4 138A      		std Z+19,__zero_reg__
 111 00b6 128A      		std Z+18,__zero_reg__
 112 00b8 158A      		std Z+21,__zero_reg__
 113 00ba 148A      		std Z+20,__zero_reg__
 114 00bc 178A      		std Z+23,__zero_reg__
GAS LISTING C:\DOCUME~1\ADMINI~1\LOCALS~1\Temp/ccZLgXoL.s 			page 3


 115 00be 168A      		std Z+22,__zero_reg__
 116 00c0 118E      		std Z+25,__zero_reg__
 117 00c2 108E      		std Z+24,__zero_reg__
 118 00c4 128E      		std Z+26,__zero_reg__
 119 00c6 1386      		std Z+11,__zero_reg__
 120 00c8 1286      		std Z+10,__zero_reg__
 121 00ca F701      		movw r30,r14
 122 00cc 828D      		ldd r24,Z+26
 123 00ce 938D      		ldd r25,Z+27
 124 00d0 F601      		movw r30,r12
 125 00d2 918B      		std Z+17,r25
 126 00d4 808B      		std Z+16,r24
 127 00d6 82E0      		ldi r24,lo8(2)
 128 00d8 87A3      		std Z+39,r24
 129 00da CE01      		movw r24,r28
 130 00dc 60E0      		ldi r22,lo8(0)
 131 00de 70E0      		ldi r23,hi8(0)
 132 00e0 40E0      		ldi r20,lo8(0)
 133 00e2 50E0      		ldi r21,hi8(0)
 134 00e4 0E94 0000 		call luaH_new
 135 00e8 F801      		movw r30,r16
 136 00ea 9383      		std Z+3,r25
 137 00ec 8283      		std Z+2,r24
 138 00ee ED81      		ldd r30,Y+5
 139 00f0 FE81      		ldd r31,Y+6
 140 00f2 9183      		std Z+1,r25
 141 00f4 8083      		st Z,r24
 142 00f6 87E0      		ldi r24,lo8(7)
 143 00f8 90E0      		ldi r25,hi8(7)
 144 00fa 9583      		std Z+5,r25
 145 00fc 8483      		std Z+4,r24
 146 00fe 8F85      		ldd r24,Y+15
 147 0100 9889      		ldd r25,Y+16
 148 0102 2D81      		ldd r18,Y+5
 149 0104 3E81      		ldd r19,Y+6
 150 0106 821B      		sub r24,r18
 151 0108 930B      		sbc r25,r19
 152 010a 0797      		sbiw r24,7
 153 010c 04F4      		brge .L6
 154 010e CE01      		movw r24,r28
 155 0110 61E0      		ldi r22,lo8(1)
 156 0112 70E0      		ldi r23,hi8(1)
 157 0114 0E94 0000 		call luaD_growstack
 158               	.L6:
 159 0118 ED81      		ldd r30,Y+5
 160 011a FE81      		ldd r31,Y+6
 161 011c DF01      		movw r26,r30
 162 011e 1696      		adiw r26,6
 163 0120 BE83      		std Y+6,r27
 164 0122 AD83      		std Y+5,r26
 165 0124 D782      		std Z+7,r13
 166 0126 C682      		std Z+6,r12
 167 0128 8BE0      		ldi r24,lo8(11)
 168 012a 90E0      		ldi r25,hi8(11)
 169 012c 1596      		adiw r26,4+1
 170 012e 9C93      		st X,r25
 171 0130 8E93      		st -X,r24
GAS LISTING C:\DOCUME~1\ADMINI~1\LOCALS~1\Temp/ccZLgXoL.s 			page 4


 172 0132 1497      		sbiw r26,4
 173 0134 8F85      		ldd r24,Y+15
 174 0136 9889      		ldd r25,Y+16
 175 0138 2D81      		ldd r18,Y+5
 176 013a 3E81      		ldd r19,Y+6
 177 013c 821B      		sub r24,r18
 178 013e 930B      		sbc r25,r19
 179 0140 0797      		sbiw r24,7
 180 0142 04F4      		brge .L7
 181 0144 CE01      		movw r24,r28
 182 0146 61E0      		ldi r22,lo8(1)
 183 0148 70E0      		ldi r23,hi8(1)
 184 014a 0E94 0000 		call luaD_growstack
 185               	.L7:
 186 014e 8D81      		ldd r24,Y+5
 187 0150 9E81      		ldd r25,Y+6
 188 0152 0696      		adiw r24,6
 189 0154 9E83      		std Y+6,r25
 190 0156 8D83      		std Y+5,r24
 191               	/* epilogue start */
 192 0158 DF91      		pop r29
 193 015a CF91      		pop r28
 194 015c 1F91      		pop r17
 195 015e 0F91      		pop r16
 196 0160 FF90      		pop r15
 197 0162 EF90      		pop r14
 198 0164 DF90      		pop r13
 199 0166 CF90      		pop r12
 200 0168 0895      		ret
 201               		.size	open_func, .-open_func
 202               		.type	leaveblock, @function
 203               	leaveblock:
 204 016a EF92      		push r14
 205 016c FF92      		push r15
 206 016e 0F93      		push r16
 207 0170 1F93      		push r17
 208 0172 CF93      		push r28
 209 0174 DF93      		push r29
 210               	/* prologue: function */
 211               	/* frame size = 0 */
 212 0176 EC01      		movw r28,r24
 213 0178 EA84      		ldd r14,Y+10
 214 017a FB84      		ldd r15,Y+11
 215 017c D701      		movw r26,r14
 216 017e 8D91      		ld r24,X+
 217 0180 9C91      		ld r25,X
 218 0182 1197      		sbiw r26,1
 219 0184 9B87      		std Y+11,r25
 220 0186 8A87      		std Y+10,r24
 221 0188 1496      		adiw r26,4
 222 018a 8C91      		ld r24,X
 223 018c 682F      		mov r22,r24
 224 018e 70E0      		ldi r23,lo8(0)
 225 0190 EE81      		ldd r30,Y+6
 226 0192 FF81      		ldd r31,Y+7
 227 0194 4289      		ldd r20,Z+18
 228 0196 5389      		ldd r21,Z+19
GAS LISTING C:\DOCUME~1\ADMINI~1\LOCALS~1\Temp/ccZLgXoL.s 			page 5


 229 0198 00C0      		rjmp .L10
 230               	.L11:
 231 019a DA01      		movw r26,r20
 232 019c ED91      		ld r30,X+
 233 019e FC91      		ld r31,X
 234 01a0 A485      		ldd r26,Z+12
 235 01a2 B585      		ldd r27,Z+13
 236 01a4 822F      		mov r24,r18
 237 01a6 8150      		subi r24,lo8(-(-1))
 238 01a8 FA01      		movw r30,r20
 239 01aa 828F      		std Z+26,r24
 240 01ac E82F      		mov r30,r24
 241 01ae F0E0      		ldi r31,lo8(0)
 242 01b0 EE0F      		lsl r30
 243 01b2 FF1F      		rol r31
 244 01b4 E40F      		add r30,r20
 245 01b6 F51F      		adc r31,r21
 246 01b8 ED56      		subi r30,lo8(-(147))
 247 01ba FF4F      		sbci r31,hi8(-(147))
 248 01bc 2081      		ld r18,Z
 249 01be 3181      		ldd r19,Z+1
 250 01c0 C901      		movw r24,r18
 251 01c2 880F      		lsl r24
 252 01c4 991F      		rol r25
 253 01c6 820F      		add r24,r18
 254 01c8 931F      		adc r25,r19
 255 01ca 880F      		lsl r24
 256 01cc 991F      		rol r25
 257 01ce A80F      		add r26,r24
 258 01d0 B91F      		adc r27,r25
 259 01d2 FA01      		movw r30,r20
 260 01d4 8485      		ldd r24,Z+12
 261 01d6 9585      		ldd r25,Z+13
 262 01d8 1596      		adiw r26,4+1
 263 01da 9C93      		st X,r25
 264 01dc 8E93      		st -X,r24
 265 01de 1497      		sbiw r26,4
 266               	.L10:
 267 01e0 DA01      		movw r26,r20
 268 01e2 5A96      		adiw r26,26
 269 01e4 2C91      		ld r18,X
 270 01e6 822F      		mov r24,r18
 271 01e8 90E0      		ldi r25,lo8(0)
 272 01ea 6817      		cp r22,r24
 273 01ec 7907      		cpc r23,r25
 274 01ee 04F0      		brlt .L11
 275 01f0 F701      		movw r30,r14
 276 01f2 8581      		ldd r24,Z+5
 277 01f4 8823      		tst r24
 278 01f6 01F0      		breq .L12
 279 01f8 4481      		ldd r20,Z+4
 280 01fa CE01      		movw r24,r28
 281 01fc 63E2      		ldi r22,lo8(35)
 282 01fe 70E0      		ldi r23,hi8(35)
 283 0200 50E0      		ldi r21,lo8(0)
 284 0202 20E0      		ldi r18,lo8(0)
 285 0204 30E0      		ldi r19,hi8(0)
GAS LISTING C:\DOCUME~1\ADMINI~1\LOCALS~1\Temp/ccZLgXoL.s 			page 6


 286 0206 00E0      		ldi r16,lo8(0)
 287 0208 10E0      		ldi r17,hi8(0)
 288 020a 0E94 0000 		call luaK_codeABC
 289               	.L12:
 290 020e 8A8D      		ldd r24,Y+26
 291 0210 8A8B      		std Y+18,r24
 292 0212 1B8A      		std Y+19,__zero_reg__
 293 0214 D701      		movw r26,r14
 294 0216 1296      		adiw r26,2
 295 0218 6D91      		ld r22,X+
 296 021a 7C91      		ld r23,X
 297 021c 1397      		sbiw r26,2+1
 298 021e CE01      		movw r24,r28
 299 0220 0E94 0000 		call luaK_patchtohere
 300               	/* epilogue start */
 301 0224 DF91      		pop r29
 302 0226 CF91      		pop r28
 303 0228 1F91      		pop r17
 304 022a 0F91      		pop r16
 305 022c FF90      		pop r15
 306 022e EF90      		pop r14
 307 0230 0895      		ret
 308               		.size	leaveblock, .-leaveblock
 309               		.data
 310               	.LC0:
 311 0000 6E6F 206C 		.string	"no loop to break"
 311      6F6F 7020 
 311      746F 2062 
 311      7265 616B 
 311      00
 312               		.text
 313               		.type	breakstat, @function
 314               	breakstat:
 315 0232 EF92      		push r14
 316 0234 FF92      		push r15
 317 0236 0F93      		push r16
 318 0238 1F93      		push r17
 319 023a CF93      		push r28
 320 023c DF93      		push r29
 321               	/* prologue: function */
 322               	/* frame size = 0 */
 323 023e FC01      		movw r30,r24
 324 0240 E288      		ldd r14,Z+18
 325 0242 F388      		ldd r15,Z+19
 326 0244 D701      		movw r26,r14
 327 0246 1A96      		adiw r26,10
 328 0248 CD91      		ld r28,X+
 329 024a DC91      		ld r29,X
 330 024c 1B97      		sbiw r26,10+1
 331 024e 00E0      		ldi r16,lo8(0)
 332 0250 10E0      		ldi r17,hi8(0)
 333 0252 00C0      		rjmp .L15
 334               	.L17:
 335 0254 8D81      		ldd r24,Y+5
 336 0256 90E0      		ldi r25,lo8(0)
 337 0258 082B      		or r16,r24
 338 025a 192B      		or r17,r25
GAS LISTING C:\DOCUME~1\ADMINI~1\LOCALS~1\Temp/ccZLgXoL.s 			page 7


 339 025c 0990      		ld __tmp_reg__,Y+
 340 025e D881      		ld r29,Y
 341 0260 C02D      		mov r28,__tmp_reg__
 342               	.L15:
 343 0262 2097      		sbiw r28,0
 344 0264 01F0      		breq .L16
 345 0266 8E81      		ldd r24,Y+6
 346 0268 8823      		tst r24
 347 026a 01F0      		breq .L17
 348 026c 00C0      		rjmp .L18
 349               	.L16:
 350 026e CF01      		movw r24,r30
 351 0270 60E0      		ldi r22,lo8(.LC0)
 352 0272 70E0      		ldi r23,hi8(.LC0)
 353 0274 0E94 0000 		call luaX_syntaxerror
 354               	.L18:
 355 0278 012B      		or r16,r17
 356 027a 01F0      		breq .L19
 357 027c 4C81      		ldd r20,Y+4
 358 027e C701      		movw r24,r14
 359 0280 63E2      		ldi r22,lo8(35)
 360 0282 70E0      		ldi r23,hi8(35)
 361 0284 50E0      		ldi r21,lo8(0)
 362 0286 20E0      		ldi r18,lo8(0)
 363 0288 30E0      		ldi r19,hi8(0)
 364 028a 00E0      		ldi r16,lo8(0)
 365 028c 10E0      		ldi r17,hi8(0)
 366 028e 0E94 0000 		call luaK_codeABC
 367               	.L19:
 368 0292 C701      		movw r24,r14
 369 0294 0E94 0000 		call luaK_jump
 370 0298 AC01      		movw r20,r24
 371 029a 2296      		adiw r28,2
 372 029c C701      		movw r24,r14
 373 029e BE01      		movw r22,r28
 374 02a0 0E94 0000 		call luaK_concat
 375               	/* epilogue start */
 376 02a4 DF91      		pop r29
 377 02a6 CF91      		pop r28
 378 02a8 1F91      		pop r17
 379 02aa 0F91      		pop r16
 380 02ac FF90      		pop r15
 381 02ae EF90      		pop r14
 382 02b0 0895      		ret
 383               		.size	breakstat, .-breakstat
 384               		.data
 385               	.LC1:
 386 0011 6D61 696E 		.string	"main function has more than %d %s"
 386      2066 756E 
 386      6374 696F 
 386      6E20 6861 
 386      7320 6D6F 
 387               	.LC2:
 388 0033 6675 6E63 		.string	"function at line %d has more than %d %s"
 388      7469 6F6E 
 388      2061 7420 
 388      6C69 6E65 
GAS LISTING C:\DOCUME~1\ADMINI~1\LOCALS~1\Temp/ccZLgXoL.s 			page 8


 388      2025 6420 
 389               		.text
 390               		.type	errorlimit, @function
 391               	errorlimit:
 392 02b2 CF93      		push r28
 393 02b4 DF93      		push r29
 394               	/* prologue: function */
 395               	/* frame size = 0 */
 396 02b6 EC01      		movw r28,r24
 397 02b8 E881      		ld r30,Y
 398 02ba F981      		ldd r31,Y+1
 399 02bc 268D      		ldd r18,Z+30
 400 02be 378D      		ldd r19,Z+31
 401 02c0 8885      		ldd r24,Y+8
 402 02c2 9985      		ldd r25,Y+9
 403 02c4 2115      		cp r18,__zero_reg__
 404 02c6 3105      		cpc r19,__zero_reg__
 405 02c8 01F4      		brne .L22
 406 02ca 2DB7      		in r18,__SP_L__
 407 02cc 3EB7      		in r19,__SP_H__
 408 02ce 2850      		subi r18,lo8(-(-8))
 409 02d0 3040      		sbci r19,hi8(-(-8))
 410 02d2 0FB6      		in __tmp_reg__,__SREG__
 411 02d4 F894      		cli
 412 02d6 3EBF      		out __SP_H__,r19
 413 02d8 0FBE      		out __SREG__,__tmp_reg__
 414 02da 2DBF      		out __SP_L__,r18
 415 02dc EDB7      		in r30,__SP_L__
 416 02de FEB7      		in r31,__SP_H__
 417 02e0 3196      		adiw r30,1
 418 02e2 ADB7      		in r26,__SP_L__
 419 02e4 BEB7      		in r27,__SP_H__
 420 02e6 1296      		adiw r26,1+1
 421 02e8 9C93      		st X,r25
 422 02ea 8E93      		st -X,r24
 423 02ec 1197      		sbiw r26,1
 424 02ee 80E0      		ldi r24,lo8(.LC1)
 425 02f0 90E0      		ldi r25,hi8(.LC1)
 426 02f2 9383      		std Z+3,r25
 427 02f4 8283      		std Z+2,r24
 428 02f6 7583      		std Z+5,r23
 429 02f8 6483      		std Z+4,r22
 430 02fa 5783      		std Z+7,r21
 431 02fc 4683      		std Z+6,r20
 432 02fe 0E94 0000 		call luaO_pushfstring
 433 0302 BC01      		movw r22,r24
 434 0304 EDB7      		in r30,__SP_L__
 435 0306 FEB7      		in r31,__SP_H__
 436 0308 3896      		adiw r30,8
 437 030a 00C0      		rjmp .L25
 438               	.L22:
 439 030c ADB7      		in r26,__SP_L__
 440 030e BEB7      		in r27,__SP_H__
 441 0310 1A97      		sbiw r26,10
 442 0312 0FB6      		in __tmp_reg__,__SREG__
 443 0314 F894      		cli
 444 0316 BEBF      		out __SP_H__,r27
GAS LISTING C:\DOCUME~1\ADMINI~1\LOCALS~1\Temp/ccZLgXoL.s 			page 9


 445 0318 0FBE      		out __SREG__,__tmp_reg__
 446 031a ADBF      		out __SP_L__,r26
 447 031c EDB7      		in r30,__SP_L__
 448 031e FEB7      		in r31,__SP_H__
 449 0320 3196      		adiw r30,1
 450 0322 1296      		adiw r26,1+1
 451 0324 9C93      		st X,r25
 452 0326 8E93      		st -X,r24
 453 0328 1197      		sbiw r26,1
 454 032a 80E0      		ldi r24,lo8(.LC2)
 455 032c 90E0      		ldi r25,hi8(.LC2)
 456 032e 9383      		std Z+3,r25
 457 0330 8283      		std Z+2,r24
 458 0332 3583      		std Z+5,r19
 459 0334 2483      		std Z+4,r18
 460 0336 7783      		std Z+7,r23
 461 0338 6683      		std Z+6,r22
 462 033a 5187      		std Z+9,r21
 463 033c 4087      		std Z+8,r20
 464 033e 0E94 0000 		call luaO_pushfstring
 465 0342 BC01      		movw r22,r24
 466 0344 EDB7      		in r30,__SP_L__
 467 0346 FEB7      		in r31,__SP_H__
 468 0348 3A96      		adiw r30,10
 469               	.L25:
 470 034a 0FB6      		in __tmp_reg__,__SREG__
 471 034c F894      		cli
 472 034e FEBF      		out __SP_H__,r31
 473 0350 0FBE      		out __SREG__,__tmp_reg__
 474 0352 EDBF      		out __SP_L__,r30
 475 0354 8E81      		ldd r24,Y+6
 476 0356 9F81      		ldd r25,Y+7
 477 0358 40E0      		ldi r20,lo8(0)
 478 035a 50E0      		ldi r21,hi8(0)
 479 035c 0E94 0000 		call luaX_lexerror
 480               	/* epilogue start */
 481 0360 DF91      		pop r29
 482 0362 CF91      		pop r28
 483 0364 0895      		ret
 484               		.size	errorlimit, .-errorlimit
 485               		.data
 486               	.LC3:
 487 005b 6C6F 6361 		.string	"local variables"
 487      6C20 7661 
 487      7269 6162 
 487      6C65 7300 
 488               	.LC4:
 489 006b 746F 6F20 		.string	"too many local variables"
 489      6D61 6E79 
 489      206C 6F63 
 489      616C 2076 
 489      6172 6961 
 490               		.text
 491               		.type	new_localvar, @function
 492               	new_localvar:
 493 0366 2F92      		push r2
 494 0368 3F92      		push r3
GAS LISTING C:\DOCUME~1\ADMINI~1\LOCALS~1\Temp/ccZLgXoL.s 			page 10


 495 036a 4F92      		push r4
 496 036c 5F92      		push r5
 497 036e 6F92      		push r6
 498 0370 7F92      		push r7
 499 0372 8F92      		push r8
 500 0374 9F92      		push r9
 501 0376 AF92      		push r10
 502 0378 BF92      		push r11
 503 037a CF92      		push r12
 504 037c DF92      		push r13
 505 037e EF92      		push r14
 506 0380 FF92      		push r15
 507 0382 0F93      		push r16
 508 0384 1F93      		push r17
 509 0386 DF93      		push r29
 510 0388 CF93      		push r28
 511 038a 00D0      		rcall .
 512 038c 0F92      		push __tmp_reg__
 513 038e CDB7      		in r28,__SP_L__
 514 0390 DEB7      		in r29,__SP_H__
 515               	/* prologue: function */
 516               	/* frame size = 3 */
 517 0392 2C01      		movw r4,r24
 518 0394 362E      		mov r3,r22
 519 0396 272E      		mov r2,r23
 520 0398 3A01      		movw r6,r20
 521 039a DC01      		movw r26,r24
 522 039c 5296      		adiw r26,18
 523 039e AD90      		ld r10,X+
 524 03a0 BC90      		ld r11,X
 525 03a2 5397      		sbiw r26,18+1
 526 03a4 F501      		movw r30,r10
 527 03a6 828D      		ldd r24,Z+26
 528 03a8 9A01      		movw r18,r20
 529 03aa 280F      		add r18,r24
 530 03ac 311D      		adc r19,__zero_reg__
 531 03ae 283C      		cpi r18,200
 532 03b0 3105      		cpc r19,__zero_reg__
 533 03b2 04F0      		brlt .L27
 534 03b4 C501      		movw r24,r10
 535 03b6 68EC      		ldi r22,lo8(200)
 536 03b8 70E0      		ldi r23,hi8(200)
 537 03ba 40E0      		ldi r20,lo8(.LC3)
 538 03bc 50E0      		ldi r21,hi8(.LC3)
 539 03be 0E94 0000 		call errorlimit
 540               	.L27:
 541 03c2 D501      		movw r26,r10
 542 03c4 5A96      		adiw r26,26
 543 03c6 BC91      		ld r27,X
 544 03c8 B983      		std Y+1,r27
 545 03ca F201      		movw r30,r4
 546 03cc 8288      		ldd r8,Z+18
 547 03ce 9388      		ldd r9,Z+19
 548 03d0 D401      		movw r26,r8
 549 03d2 0D90      		ld __tmp_reg__,X+
 550 03d4 BC91      		ld r27,X
 551 03d6 A02D      		mov r26,__tmp_reg__
GAS LISTING C:\DOCUME~1\ADMINI~1\LOCALS~1\Temp/ccZLgXoL.s 			page 11


 552 03d8 BB83      		std Y+3,r27
 553 03da AA83      		std Y+2,r26
 554 03dc 5C96      		adiw r26,28
 555 03de CD90      		ld r12,X+
 556 03e0 DC90      		ld r13,X
 557 03e2 5D97      		sbiw r26,28+1
 558 03e4 F401      		movw r30,r8
 559 03e6 808D      		ldd r24,Z+24
 560 03e8 918D      		ldd r25,Z+25
 561 03ea 8C15      		cp r24,r12
 562 03ec 9D05      		cpc r25,r13
 563 03ee 04F0      		brlt .L28
 564 03f0 1C96      		adiw r26,12
 565 03f2 6D91      		ld r22,X+
 566 03f4 7C91      		ld r23,X
 567 03f6 1D97      		sbiw r26,12+1
 568 03f8 AD01      		movw r20,r26
 569 03fa 445E      		subi r20,lo8(-(28))
 570 03fc 5F4F      		sbci r21,hi8(-(28))
 571 03fe D201      		movw r26,r4
 572 0400 5496      		adiw r26,20
 573 0402 8D91      		ld r24,X+
 574 0404 9C91      		ld r25,X
 575 0406 5597      		sbiw r26,20+1
 576 0408 26E0      		ldi r18,lo8(6)
 577 040a 30E0      		ldi r19,hi8(6)
 578 040c 0FEF      		ldi r16,lo8(32767)
 579 040e 1FE7      		ldi r17,hi8(32767)
 580 0410 E0E0      		ldi r30,lo8(.LC4)
 581 0412 EE2E      		mov r14,r30
 582 0414 E0E0      		ldi r30,hi8(.LC4)
 583 0416 FE2E      		mov r15,r30
 584 0418 0E94 0000 		call luaM_growaux_
 585 041c EA81      		ldd r30,Y+2
 586 041e FB81      		ldd r31,Y+3
 587 0420 9587      		std Z+13,r25
 588 0422 8487      		std Z+12,r24
 589               	.L28:
 590 0424 9601      		movw r18,r12
 591 0426 220F      		lsl r18
 592 0428 331F      		rol r19
 593 042a 2C0D      		add r18,r12
 594 042c 3D1D      		adc r19,r13
 595 042e 220F      		lsl r18
 596 0430 331F      		rol r19
 597 0432 00C0      		rjmp .L29
 598               	.L30:
 599 0434 A20F      		add r26,r18
 600 0436 B31F      		adc r27,r19
 601 0438 1D92      		st X+,__zero_reg__
 602 043a 1C92      		st X,__zero_reg__
 603 043c 0894      		sec
 604 043e C11C      		adc r12,__zero_reg__
 605 0440 D11C      		adc r13,__zero_reg__
 606 0442 2A5F      		subi r18,lo8(-(6))
 607 0444 3F4F      		sbci r19,hi8(-(6))
 608               	.L29:
GAS LISTING C:\DOCUME~1\ADMINI~1\LOCALS~1\Temp/ccZLgXoL.s 			page 12


 609 0446 AA81      		ldd r26,Y+2
 610 0448 BB81      		ldd r27,Y+3
 611 044a 5C96      		adiw r26,28
 612 044c 8D91      		ld r24,X+
 613 044e 9C91      		ld r25,X
 614 0450 5D97      		sbiw r26,28+1
 615 0452 1C96      		adiw r26,12
 616 0454 0D90      		ld __tmp_reg__,X+
 617 0456 BC91      		ld r27,X
 618 0458 A02D      		mov r26,__tmp_reg__
 619 045a C816      		cp r12,r24
 620 045c D906      		cpc r13,r25
 621 045e 04F0      		brlt .L30
 622 0460 F401      		movw r30,r8
 623 0462 808D      		ldd r24,Z+24
 624 0464 918D      		ldd r25,Z+25
 625 0466 FC01      		movw r30,r24
 626 0468 EE0F      		lsl r30
 627 046a FF1F      		rol r31
 628 046c E80F      		add r30,r24
 629 046e F91F      		adc r31,r25
 630 0470 EE0F      		lsl r30
 631 0472 FF1F      		rol r31
 632 0474 EA0F      		add r30,r26
 633 0476 FB1F      		adc r31,r27
 634 0478 3082      		st Z,r3
 635 047a 2182      		std Z+1,r2
 636 047c E32D      		mov r30,r3
 637 047e F22D      		mov r31,r2
 638 0480 8381      		ldd r24,Z+3
 639 0482 90E0      		ldi r25,lo8(0)
 640 0484 8370      		andi r24,lo8(3)
 641 0486 9070      		andi r25,hi8(3)
 642 0488 892B      		or r24,r25
 643 048a 01F0      		breq .L31
 644 048c AA81      		ldd r26,Y+2
 645 048e BB81      		ldd r27,Y+3
 646 0490 1396      		adiw r26,3
 647 0492 8C91      		ld r24,X
 648 0494 82FF      		sbrs r24,2
 649 0496 00C0      		rjmp .L31
 650 0498 D201      		movw r26,r4
 651 049a 5496      		adiw r26,20
 652 049c 8D91      		ld r24,X+
 653 049e 9C91      		ld r25,X
 654 04a0 5597      		sbiw r26,20+1
 655 04a2 6A81      		ldd r22,Y+2
 656 04a4 7B81      		ldd r23,Y+3
 657 04a6 AF01      		movw r20,r30
 658 04a8 0E94 0000 		call luaC_barrierf
 659               	.L31:
 660 04ac F401      		movw r30,r8
 661 04ae 808D      		ldd r24,Z+24
 662 04b0 918D      		ldd r25,Z+25
 663 04b2 0196      		adiw r24,1
 664 04b4 918F      		std Z+25,r25
 665 04b6 808F      		std Z+24,r24
GAS LISTING C:\DOCUME~1\ADMINI~1\LOCALS~1\Temp/ccZLgXoL.s 			page 13


 666 04b8 0197      		sbiw r24,1
 667 04ba F981      		ldd r31,Y+1
 668 04bc 6F0E      		add r6,r31
 669 04be 711C      		adc r7,__zero_reg__
 670 04c0 660C      		lsl r6
 671 04c2 771C      		rol r7
 672 04c4 A60C      		add r10,r6
 673 04c6 B71C      		adc r11,r7
 674 04c8 23E9      		ldi r18,lo8(147)
 675 04ca 30E0      		ldi r19,hi8(147)
 676 04cc A20E      		add r10,r18
 677 04ce B31E      		adc r11,r19
 678 04d0 D501      		movw r26,r10
 679 04d2 8D93      		st X+,r24
 680 04d4 9C93      		st X,r25
 681               	/* epilogue start */
 682 04d6 0F90      		pop __tmp_reg__
 683 04d8 0F90      		pop __tmp_reg__
 684 04da 0F90      		pop __tmp_reg__
 685 04dc CF91      		pop r28
 686 04de DF91      		pop r29
 687 04e0 1F91      		pop r17
 688 04e2 0F91      		pop r16
 689 04e4 FF90      		pop r15
 690 04e6 EF90      		pop r14
 691 04e8 DF90      		pop r13
 692 04ea CF90      		pop r12
 693 04ec BF90      		pop r11
 694 04ee AF90      		pop r10
 695 04f0 9F90      		pop r9
 696 04f2 8F90      		pop r8
 697 04f4 7F90      		pop r7
 698 04f6 6F90      		pop r6
 699 04f8 5F90      		pop r5
 700 04fa 4F90      		pop r4
 701 04fc 3F90      		pop r3
 702 04fe 2F90      		pop r2
 703 0500 0895      		ret
 704               		.size	new_localvar, .-new_localvar
 705               		.data
 706               	.LC5:
 707 0084 7570 7661 		.string	"upvalues"
 707      6C75 6573 
 707      00
 708               	.LC6:
 709 008d 00        		.string	""
 710               		.text
 711               		.type	singlevaraux, @function
 712               	singlevaraux:
 713 0502 6F92      		push r6
 714 0504 7F92      		push r7
 715 0506 8F92      		push r8
 716 0508 9F92      		push r9
 717 050a AF92      		push r10
 718 050c BF92      		push r11
 719 050e CF92      		push r12
 720 0510 DF92      		push r13
GAS LISTING C:\DOCUME~1\ADMINI~1\LOCALS~1\Temp/ccZLgXoL.s 			page 14


 721 0512 EF92      		push r14
 722 0514 FF92      		push r15
 723 0516 0F93      		push r16
 724 0518 1F93      		push r17
 725 051a CF93      		push r28
 726 051c DF93      		push r29
 727               	/* prologue: function */
 728               	/* frame size = 0 */
 729 051e 5C01      		movw r10,r24
 730 0520 3B01      		movw r6,r22
 731 0522 6A01      		movw r12,r20
 732 0524 8901      		movw r16,r18
 733 0526 0097      		sbiw r24,0
 734 0528 01F4      		brne .L34
 735 052a 8FEF      		ldi r24,lo8(-1)
 736 052c 9FEF      		ldi r25,hi8(-1)
 737 052e DA01      		movw r26,r20
 738 0530 1796      		adiw r26,6+1
 739 0532 9C93      		st X,r25
 740 0534 8E93      		st -X,r24
 741 0536 1697      		sbiw r26,6
 742 0538 1996      		adiw r26,8+1
 743 053a 9C93      		st X,r25
 744 053c 8E93      		st -X,r24
 745 053e 1897      		sbiw r26,8
 746 0540 88E0      		ldi r24,lo8(8)
 747 0542 90E0      		ldi r25,hi8(8)
 748 0544 1196      		adiw r26,1
 749 0546 9C93      		st X,r25
 750 0548 8E93      		st -X,r24
 751 054a 8FEF      		ldi r24,lo8(255)
 752 054c 90E0      		ldi r25,hi8(255)
 753 054e 1396      		adiw r26,2+1
 754 0550 9C93      		st X,r25
 755 0552 8E93      		st -X,r24
 756 0554 1297      		sbiw r26,2
 757 0556 00C0      		rjmp .L57
 758               	.L34:
 759 0558 EC01      		movw r28,r24
 760 055a 8A8D      		ldd r24,Y+26
 761 055c 90E0      		ldi r25,lo8(0)
 762 055e 0197      		sbiw r24,1
 763 0560 DC01      		movw r26,r24
 764 0562 AA0F      		lsl r26
 765 0564 BB1F      		rol r27
 766 0566 AD56      		subi r26,lo8(-(147))
 767 0568 BF4F      		sbci r27,hi8(-(147))
 768 056a AA0D      		add r26,r10
 769 056c BB1D      		adc r27,r11
 770 056e 40E0      		ldi r20,lo8(0)
 771 0570 50E0      		ldi r21,hi8(0)
 772 0572 4C01      		movw r8,r24
 773 0574 00C0      		rjmp .L36
 774               	.L38:
 775 0576 F501      		movw r30,r10
 776 0578 E080      		ld r14,Z
 777 057a F180      		ldd r15,Z+1
GAS LISTING C:\DOCUME~1\ADMINI~1\LOCALS~1\Temp/ccZLgXoL.s 			page 15


 778 057c 2D91      		ld r18,X+
 779 057e 3C91      		ld r19,X
 780 0580 1197      		sbiw r26,1
 781 0582 C901      		movw r24,r18
 782 0584 880F      		lsl r24
 783 0586 991F      		rol r25
 784 0588 820F      		add r24,r18
 785 058a 931F      		adc r25,r19
 786 058c 880F      		lsl r24
 787 058e 991F      		rol r25
 788 0590 E701      		movw r28,r14
 789 0592 EC85      		ldd r30,Y+12
 790 0594 FD85      		ldd r31,Y+13
 791 0596 E80F      		add r30,r24
 792 0598 F91F      		adc r31,r25
 793 059a 8081      		ld r24,Z
 794 059c 9181      		ldd r25,Z+1
 795 059e 4F5F      		subi r20,lo8(-(1))
 796 05a0 5F4F      		sbci r21,hi8(-(1))
 797 05a2 1297      		sbiw r26,2
 798 05a4 6816      		cp r6,r24
 799 05a6 7906      		cpc r7,r25
 800 05a8 01F0      		breq .L37
 801               	.L36:
 802 05aa B401      		movw r22,r8
 803 05ac 641B      		sub r22,r20
 804 05ae 750B      		sbc r23,r21
 805 05b0 EFEF      		ldi r30,hi8(-1)
 806 05b2 6F3F      		cpi r22,lo8(-1)
 807 05b4 7E07      		cpc r23,r30
 808 05b6 01F4      		brne .L38
 809 05b8 00C0      		rjmp .L58
 810               	.L37:
 811 05ba 8FEF      		ldi r24,lo8(-1)
 812 05bc 9FEF      		ldi r25,hi8(-1)
 813 05be D601      		movw r26,r12
 814 05c0 1796      		adiw r26,6+1
 815 05c2 9C93      		st X,r25
 816 05c4 8E93      		st -X,r24
 817 05c6 1697      		sbiw r26,6
 818 05c8 1996      		adiw r26,8+1
 819 05ca 9C93      		st X,r25
 820 05cc 8E93      		st -X,r24
 821 05ce 1897      		sbiw r26,8
 822 05d0 86E0      		ldi r24,lo8(6)
 823 05d2 90E0      		ldi r25,hi8(6)
 824 05d4 1196      		adiw r26,1
 825 05d6 9C93      		st X,r25
 826 05d8 8E93      		st -X,r24
 827 05da 1396      		adiw r26,2+1
 828 05dc 7C93      		st X,r23
 829 05de 6E93      		st -X,r22
 830 05e0 1297      		sbiw r26,2
 831 05e2 012B      		or r16,r17
 832 05e4 01F0      		breq .+2
 833 05e6 00C0      		rjmp .L40
 834 05e8 E501      		movw r28,r10
GAS LISTING C:\DOCUME~1\ADMINI~1\LOCALS~1\Temp/ccZLgXoL.s 			page 16


 835 05ea EA85      		ldd r30,Y+10
 836 05ec FB85      		ldd r31,Y+11
 837 05ee 00C0      		rjmp .L41
 838               	.L42:
 839 05f0 0190      		ld __tmp_reg__,Z+
 840 05f2 F081      		ld r31,Z
 841 05f4 E02D      		mov r30,__tmp_reg__
 842               	.L41:
 843 05f6 3097      		sbiw r30,0
 844 05f8 01F4      		brne .+2
 845 05fa 00C0      		rjmp .L40
 846 05fc 8481      		ldd r24,Z+4
 847 05fe 90E0      		ldi r25,lo8(0)
 848 0600 6817      		cp r22,r24
 849 0602 7907      		cpc r23,r25
 850 0604 04F0      		brlt .L42
 851 0606 00C0      		rjmp .L59
 852               	.L53:
 853 0608 F501      		movw r30,r10
 854 060a C081      		ld r28,Z
 855 060c D181      		ldd r29,Z+1
 856 060e 8A88      		ldd r8,Y+18
 857 0610 9B88      		ldd r9,Y+19
 858 0612 8CA1      		ldd r24,Y+36
 859 0614 682F      		mov r22,r24
 860 0616 70E0      		ldi r23,lo8(0)
 861 0618 40E0      		ldi r20,lo8(0)
 862 061a 50E0      		ldi r21,hi8(0)
 863 061c 00C0      		rjmp .L44
 864               	.L47:
 865 061e 838D      		ldd r24,Z+27
 866 0620 90E0      		ldi r25,lo8(0)
 867 0622 D601      		movw r26,r12
 868 0624 2D91      		ld r18,X+
 869 0626 3C91      		ld r19,X
 870 0628 1197      		sbiw r26,1
 871 062a 8217      		cp r24,r18
 872 062c 9307      		cpc r25,r19
 873 062e 01F4      		brne .L45
 874 0630 848D      		ldd r24,Z+28
 875 0632 90E0      		ldi r25,lo8(0)
 876 0634 1296      		adiw r26,2
 877 0636 2D91      		ld r18,X+
 878 0638 3C91      		ld r19,X
 879 063a 1397      		sbiw r26,2+1
 880 063c 8217      		cp r24,r18
 881 063e 9307      		cpc r25,r19
 882 0640 01F4      		brne .+2
 883 0642 00C0      		rjmp .L46
 884               	.L45:
 885 0644 4F5F      		subi r20,lo8(-(1))
 886 0646 5F4F      		sbci r21,hi8(-(1))
 887 0648 3296      		adiw r30,2
 888               	.L44:
 889 064a 4617      		cp r20,r22
 890 064c 5707      		cpc r21,r23
 891 064e 04F0      		brlt .L47
GAS LISTING C:\DOCUME~1\ADMINI~1\LOCALS~1\Temp/ccZLgXoL.s 			page 17


 892 0650 6C33      		cpi r22,60
 893 0652 7105      		cpc r23,__zero_reg__
 894 0654 04F0      		brlt .L48
 895 0656 C501      		movw r24,r10
 896 0658 6CE3      		ldi r22,lo8(60)
 897 065a 70E0      		ldi r23,hi8(60)
 898 065c 40E0      		ldi r20,lo8(.LC5)
 899 065e 50E0      		ldi r21,hi8(.LC5)
 900 0660 0E94 0000 		call errorlimit
 901               	.L48:
 902 0664 8CA1      		ldd r24,Y+36
 903 0666 90E0      		ldi r25,lo8(0)
 904 0668 2A89      		ldd r18,Y+18
 905 066a 3B89      		ldd r19,Y+19
 906 066c 8217      		cp r24,r18
 907 066e 9307      		cpc r25,r19
 908 0670 04F0      		brlt .L49
 909 0672 6E85      		ldd r22,Y+14
 910 0674 7F85      		ldd r23,Y+15
 911 0676 AE01      		movw r20,r28
 912 0678 4E5E      		subi r20,lo8(-(18))
 913 067a 5F4F      		sbci r21,hi8(-(18))
 914 067c F501      		movw r30,r10
 915 067e 8085      		ldd r24,Z+8
 916 0680 9185      		ldd r25,Z+9
 917 0682 22E0      		ldi r18,lo8(2)
 918 0684 30E0      		ldi r19,hi8(2)
 919 0686 0DEF      		ldi r16,lo8(32765)
 920 0688 1FE7      		ldi r17,hi8(32765)
 921 068a E0E0      		ldi r30,lo8(.LC6)
 922 068c EE2E      		mov r14,r30
 923 068e E0E0      		ldi r30,hi8(.LC6)
 924 0690 FE2E      		mov r15,r30
 925 0692 0E94 0000 		call luaM_growaux_
 926 0696 9F87      		std Y+15,r25
 927 0698 8E87      		std Y+14,r24
 928               	.L49:
 929 069a 9401      		movw r18,r8
 930 069c 220F      		lsl r18
 931 069e 331F      		rol r19
 932 06a0 00C0      		rjmp .L50
 933               	.L51:
 934 06a2 E20F      		add r30,r18
 935 06a4 F31F      		adc r31,r19
 936 06a6 1182      		std Z+1,__zero_reg__
 937 06a8 1082      		st Z,__zero_reg__
 938 06aa 0894      		sec
 939 06ac 811C      		adc r8,__zero_reg__
 940 06ae 911C      		adc r9,__zero_reg__
 941 06b0 2E5F      		subi r18,lo8(-(2))
 942 06b2 3F4F      		sbci r19,hi8(-(2))
 943               	.L50:
 944 06b4 8A89      		ldd r24,Y+18
 945 06b6 9B89      		ldd r25,Y+19
 946 06b8 EE85      		ldd r30,Y+14
 947 06ba FF85      		ldd r31,Y+15
 948 06bc 8816      		cp r8,r24
GAS LISTING C:\DOCUME~1\ADMINI~1\LOCALS~1\Temp/ccZLgXoL.s 			page 18


 949 06be 9906      		cpc r9,r25
 950 06c0 04F0      		brlt .L51
 951 06c2 8CA1      		ldd r24,Y+36
 952 06c4 90E0      		ldi r25,lo8(0)
 953 06c6 880F      		lsl r24
 954 06c8 991F      		rol r25
 955 06ca E80F      		add r30,r24
 956 06cc F91F      		adc r31,r25
 957 06ce 7182      		std Z+1,r7
 958 06d0 6082      		st Z,r6
 959 06d2 D301      		movw r26,r6
 960 06d4 1396      		adiw r26,3
 961 06d6 8C91      		ld r24,X
 962 06d8 90E0      		ldi r25,lo8(0)
 963 06da 8370      		andi r24,lo8(3)
 964 06dc 9070      		andi r25,hi8(3)
 965 06de 892B      		or r24,r25
 966 06e0 01F0      		breq .L52
 967 06e2 8B81      		ldd r24,Y+3
 968 06e4 82FF      		sbrs r24,2
 969 06e6 00C0      		rjmp .L52
 970 06e8 F501      		movw r30,r10
 971 06ea 8085      		ldd r24,Z+8
 972 06ec 9185      		ldd r25,Z+9
 973 06ee BE01      		movw r22,r28
 974 06f0 A301      		movw r20,r6
 975 06f2 0E94 0000 		call luaC_barrierf
 976               	.L52:
 977 06f6 ECA1      		ldd r30,Y+36
 978 06f8 F0E0      		ldi r31,lo8(0)
 979 06fa EE0F      		lsl r30
 980 06fc FF1F      		rol r31
 981 06fe EA0D      		add r30,r10
 982 0700 FB1D      		adc r31,r11
 983 0702 D601      		movw r26,r12
 984 0704 8C91      		ld r24,X
 985 0706 838F      		std Z+27,r24
 986 0708 ECA1      		ldd r30,Y+36
 987 070a F0E0      		ldi r31,lo8(0)
 988 070c 3E96      		adiw r30,14
 989 070e EE0F      		lsl r30
 990 0710 FF1F      		rol r31
 991 0712 EA0D      		add r30,r10
 992 0714 FB1D      		adc r31,r11
 993 0716 1296      		adiw r26,2
 994 0718 8C91      		ld r24,X
 995 071a 8083      		st Z,r24
 996 071c 8CA1      		ldd r24,Y+36
 997 071e 482F      		mov r20,r24
 998 0720 50E0      		ldi r21,lo8(0)
 999 0722 8F5F      		subi r24,lo8(-(1))
 1000 0724 8CA3      		std Y+36,r24
 1001               	.L46:
 1002 0726 E601      		movw r28,r12
 1003 0728 5B83      		std Y+3,r21
 1004 072a 4A83      		std Y+2,r20
 1005 072c 87E0      		ldi r24,lo8(7)
GAS LISTING C:\DOCUME~1\ADMINI~1\LOCALS~1\Temp/ccZLgXoL.s 			page 19


 1006 072e 90E0      		ldi r25,hi8(7)
 1007 0730 9983      		std Y+1,r25
 1008 0732 8883      		st Y,r24
 1009 0734 27E0      		ldi r18,lo8(7)
 1010 0736 30E0      		ldi r19,hi8(7)
 1011 0738 00C0      		rjmp .L35
 1012               	.L40:
 1013 073a 26E0      		ldi r18,lo8(6)
 1014 073c 30E0      		ldi r19,hi8(6)
 1015               	.L35:
 1016 073e C901      		movw r24,r18
 1017               	/* epilogue start */
 1018 0740 DF91      		pop r29
 1019 0742 CF91      		pop r28
 1020 0744 1F91      		pop r17
 1021 0746 0F91      		pop r16
 1022 0748 FF90      		pop r15
 1023 074a EF90      		pop r14
 1024 074c DF90      		pop r13
 1025 074e CF90      		pop r12
 1026 0750 BF90      		pop r11
 1027 0752 AF90      		pop r10
 1028 0754 9F90      		pop r9
 1029 0756 8F90      		pop r8
 1030 0758 7F90      		pop r7
 1031 075a 6F90      		pop r6
 1032 075c 0895      		ret
 1033               	.L58:
 1034 075e F501      		movw r30,r10
 1035 0760 8481      		ldd r24,Z+4
 1036 0762 9581      		ldd r25,Z+5
 1037 0764 B301      		movw r22,r6
 1038 0766 A601      		movw r20,r12
 1039 0768 20E0      		ldi r18,lo8(0)
 1040 076a 30E0      		ldi r19,hi8(0)
 1041 076c 0E94 0000 		call singlevaraux
 1042 0770 0897      		sbiw r24,8
 1043 0772 01F0      		breq .+2
 1044 0774 00C0      		rjmp .L53
 1045               	.L57:
 1046 0776 28E0      		ldi r18,lo8(8)
 1047 0778 30E0      		ldi r19,hi8(8)
 1048 077a 00C0      		rjmp .L35
 1049               	.L59:
 1050 077c 81E0      		ldi r24,lo8(1)
 1051 077e 8583      		std Z+5,r24
 1052 0780 00C0      		rjmp .L40
 1053               		.size	singlevaraux, .-singlevaraux
 1054               		.data
 1055               	.LC7:
 1056 008e 2725 7327 		.string	"'%s' expected"
 1056      2065 7870 
 1056      6563 7465 
 1056      6400 
 1057               		.text
 1058               		.type	error_expected, @function
 1059               	error_expected:
GAS LISTING C:\DOCUME~1\ADMINI~1\LOCALS~1\Temp/ccZLgXoL.s 			page 20


 1060 0782 EF92      		push r14
 1061 0784 FF92      		push r15
 1062 0786 0F93      		push r16
 1063 0788 1F93      		push r17
 1064               	/* prologue: function */
 1065               	/* frame size = 0 */
 1066 078a 8C01      		movw r16,r24
 1067 078c DC01      		movw r26,r24
 1068 078e 5496      		adiw r26,20
 1069 0790 ED90      		ld r14,X+
 1070 0792 FC90      		ld r15,X
 1071 0794 5597      		sbiw r26,20+1
 1072 0796 0E94 0000 		call luaX_token2str
 1073 079a 00D0      		rcall .
 1074 079c 00D0      		rcall .
 1075 079e 00D0      		rcall .
 1076 07a0 EDB7      		in r30,__SP_L__
 1077 07a2 FEB7      		in r31,__SP_H__
 1078 07a4 3196      		adiw r30,1
 1079 07a6 ADB7      		in r26,__SP_L__
 1080 07a8 BEB7      		in r27,__SP_H__
 1081 07aa 1296      		adiw r26,1+1
 1082 07ac FC92      		st X,r15
 1083 07ae EE92      		st -X,r14
 1084 07b0 1197      		sbiw r26,1
 1085 07b2 20E0      		ldi r18,lo8(.LC7)
 1086 07b4 30E0      		ldi r19,hi8(.LC7)
 1087 07b6 3383      		std Z+3,r19
 1088 07b8 2283      		std Z+2,r18
 1089 07ba 9583      		std Z+5,r25
 1090 07bc 8483      		std Z+4,r24
 1091 07be 0E94 0000 		call luaO_pushfstring
 1092 07c2 BC01      		movw r22,r24
 1093 07c4 EDB7      		in r30,__SP_L__
 1094 07c6 FEB7      		in r31,__SP_H__
 1095 07c8 3696      		adiw r30,6
 1096 07ca 0FB6      		in __tmp_reg__,__SREG__
 1097 07cc F894      		cli
 1098 07ce FEBF      		out __SP_H__,r31
 1099 07d0 0FBE      		out __SREG__,__tmp_reg__
 1100 07d2 EDBF      		out __SP_L__,r30
 1101 07d4 C801      		movw r24,r16
 1102 07d6 0E94 0000 		call luaX_syntaxerror
 1103               	/* epilogue start */
 1104 07da 1F91      		pop r17
 1105 07dc 0F91      		pop r16
 1106 07de FF90      		pop r15
 1107 07e0 EF90      		pop r14
 1108 07e2 0895      		ret
 1109               		.size	error_expected, .-error_expected
 1110               		.type	str_checkname, @function
 1111               	str_checkname:
 1112 07e4 0F93      		push r16
 1113 07e6 1F93      		push r17
 1114 07e8 CF93      		push r28
 1115 07ea DF93      		push r29
 1116               	/* prologue: function */
GAS LISTING C:\DOCUME~1\ADMINI~1\LOCALS~1\Temp/ccZLgXoL.s 			page 21


 1117               	/* frame size = 0 */
 1118 07ec EC01      		movw r28,r24
 1119 07ee 8E81      		ldd r24,Y+6
 1120 07f0 9F81      		ldd r25,Y+7
 1121 07f2 8D51      		subi r24,lo8(285)
 1122 07f4 9140      		sbci r25,hi8(285)
 1123 07f6 01F0      		breq .L63
 1124 07f8 CE01      		movw r24,r28
 1125 07fa 6DE1      		ldi r22,lo8(285)
 1126 07fc 71E0      		ldi r23,hi8(285)
 1127 07fe 0E94 0000 		call error_expected
 1128               	.L63:
 1129 0802 1885      		ldd r17,Y+8
 1130 0804 0985      		ldd r16,Y+9
 1131 0806 CE01      		movw r24,r28
 1132 0808 0E94 0000 		call luaX_next
 1133 080c 812F      		mov r24,r17
 1134 080e 902F      		mov r25,r16
 1135               	/* epilogue start */
 1136 0810 DF91      		pop r29
 1137 0812 CF91      		pop r28
 1138 0814 1F91      		pop r17
 1139 0816 0F91      		pop r16
 1140 0818 0895      		ret
 1141               		.size	str_checkname, .-str_checkname
 1142               		.type	checkname, @function
 1143               	checkname:
 1144 081a EF92      		push r14
 1145 081c FF92      		push r15
 1146 081e 0F93      		push r16
 1147 0820 1F93      		push r17
 1148               	/* prologue: function */
 1149               	/* frame size = 0 */
 1150 0822 7C01      		movw r14,r24
 1151 0824 8B01      		movw r16,r22
 1152 0826 0E94 0000 		call str_checkname
 1153 082a BC01      		movw r22,r24
 1154 082c F701      		movw r30,r14
 1155 082e 8289      		ldd r24,Z+18
 1156 0830 9389      		ldd r25,Z+19
 1157 0832 0E94 0000 		call luaK_stringK
 1158 0836 2FEF      		ldi r18,lo8(-1)
 1159 0838 3FEF      		ldi r19,hi8(-1)
 1160 083a F801      		movw r30,r16
 1161 083c 3783      		std Z+7,r19
 1162 083e 2683      		std Z+6,r18
 1163 0840 3187      		std Z+9,r19
 1164 0842 2087      		std Z+8,r18
 1165 0844 24E0      		ldi r18,lo8(4)
 1166 0846 30E0      		ldi r19,hi8(4)
 1167 0848 3183      		std Z+1,r19
 1168 084a 2083      		st Z,r18
 1169 084c 9383      		std Z+3,r25
 1170 084e 8283      		std Z+2,r24
 1171               	/* epilogue start */
 1172 0850 1F91      		pop r17
 1173 0852 0F91      		pop r16
GAS LISTING C:\DOCUME~1\ADMINI~1\LOCALS~1\Temp/ccZLgXoL.s 			page 22


 1174 0854 FF90      		pop r15
 1175 0856 EF90      		pop r14
 1176 0858 0895      		ret
 1177               		.size	checkname, .-checkname
 1178               		.type	field, @function
 1179               	field:
 1180 085a CF92      		push r12
 1181 085c DF92      		push r13
 1182 085e EF92      		push r14
 1183 0860 FF92      		push r15
 1184 0862 0F93      		push r16
 1185 0864 1F93      		push r17
 1186 0866 DF93      		push r29
 1187 0868 CF93      		push r28
 1188 086a CDB7      		in r28,__SP_L__
 1189 086c DEB7      		in r29,__SP_H__
 1190 086e 2A97      		sbiw r28,10
 1191 0870 0FB6      		in __tmp_reg__,__SREG__
 1192 0872 F894      		cli
 1193 0874 DEBF      		out __SP_H__,r29
 1194 0876 0FBE      		out __SREG__,__tmp_reg__
 1195 0878 CDBF      		out __SP_L__,r28
 1196               	/* prologue: function */
 1197               	/* frame size = 10 */
 1198 087a 8C01      		movw r16,r24
 1199 087c 6B01      		movw r12,r22
 1200 087e FC01      		movw r30,r24
 1201 0880 E288      		ldd r14,Z+18
 1202 0882 F388      		ldd r15,Z+19
 1203 0884 C701      		movw r24,r14
 1204 0886 0E94 0000 		call luaK_exp2anyreg
 1205 088a C801      		movw r24,r16
 1206 088c 0E94 0000 		call luaX_next
 1207 0890 C801      		movw r24,r16
 1208 0892 8E01      		movw r16,r28
 1209 0894 0F5F      		subi r16,lo8(-(1))
 1210 0896 1F4F      		sbci r17,hi8(-(1))
 1211 0898 B801      		movw r22,r16
 1212 089a 0E94 0000 		call checkname
 1213 089e C701      		movw r24,r14
 1214 08a0 B601      		movw r22,r12
 1215 08a2 A801      		movw r20,r16
 1216 08a4 0E94 0000 		call luaK_indexed
 1217               	/* epilogue start */
 1218 08a8 2A96      		adiw r28,10
 1219 08aa 0FB6      		in __tmp_reg__,__SREG__
 1220 08ac F894      		cli
 1221 08ae DEBF      		out __SP_H__,r29
 1222 08b0 0FBE      		out __SREG__,__tmp_reg__
 1223 08b2 CDBF      		out __SP_L__,r28
 1224 08b4 CF91      		pop r28
 1225 08b6 DF91      		pop r29
 1226 08b8 1F91      		pop r17
 1227 08ba 0F91      		pop r16
 1228 08bc FF90      		pop r15
 1229 08be EF90      		pop r14
 1230 08c0 DF90      		pop r13
GAS LISTING C:\DOCUME~1\ADMINI~1\LOCALS~1\Temp/ccZLgXoL.s 			page 23


 1231 08c2 CF90      		pop r12
 1232 08c4 0895      		ret
 1233               		.size	field, .-field
 1234               		.type	singlevar, @function
 1235               	singlevar:
 1236 08c6 CF92      		push r12
 1237 08c8 DF92      		push r13
 1238 08ca EF92      		push r14
 1239 08cc FF92      		push r15
 1240 08ce 0F93      		push r16
 1241 08d0 1F93      		push r17
 1242 08d2 CF93      		push r28
 1243 08d4 DF93      		push r29
 1244               	/* prologue: function */
 1245               	/* frame size = 0 */
 1246 08d6 8C01      		movw r16,r24
 1247 08d8 6B01      		movw r12,r22
 1248 08da 0E94 0000 		call str_checkname
 1249 08de 7C01      		movw r14,r24
 1250 08e0 F801      		movw r30,r16
 1251 08e2 C289      		ldd r28,Z+18
 1252 08e4 D389      		ldd r29,Z+19
 1253 08e6 CE01      		movw r24,r28
 1254 08e8 B701      		movw r22,r14
 1255 08ea A601      		movw r20,r12
 1256 08ec 21E0      		ldi r18,lo8(1)
 1257 08ee 30E0      		ldi r19,hi8(1)
 1258 08f0 0E94 0000 		call singlevaraux
 1259 08f4 0897      		sbiw r24,8
 1260 08f6 01F4      		brne .L71
 1261 08f8 CE01      		movw r24,r28
 1262 08fa B701      		movw r22,r14
 1263 08fc 0E94 0000 		call luaK_stringK
 1264 0900 F601      		movw r30,r12
 1265 0902 9383      		std Z+3,r25
 1266 0904 8283      		std Z+2,r24
 1267               	.L71:
 1268               	/* epilogue start */
 1269 0906 DF91      		pop r29
 1270 0908 CF91      		pop r28
 1271 090a 1F91      		pop r17
 1272 090c 0F91      		pop r16
 1273 090e FF90      		pop r15
 1274 0910 EF90      		pop r14
 1275 0912 DF90      		pop r13
 1276 0914 CF90      		pop r12
 1277 0916 0895      		ret
 1278               		.size	singlevar, .-singlevar
 1279               		.type	checknext, @function
 1280               	checknext:
 1281 0918 CF93      		push r28
 1282 091a DF93      		push r29
 1283               	/* prologue: function */
 1284               	/* frame size = 0 */
 1285 091c EC01      		movw r28,r24
 1286 091e 8E81      		ldd r24,Y+6
 1287 0920 9F81      		ldd r25,Y+7
GAS LISTING C:\DOCUME~1\ADMINI~1\LOCALS~1\Temp/ccZLgXoL.s 			page 24


 1288 0922 8617      		cp r24,r22
 1289 0924 9707      		cpc r25,r23
 1290 0926 01F0      		breq .L73
 1291 0928 CE01      		movw r24,r28
 1292 092a 0E94 0000 		call error_expected
 1293               	.L73:
 1294 092e CE01      		movw r24,r28
 1295 0930 0E94 0000 		call luaX_next
 1296               	/* epilogue start */
 1297 0934 DF91      		pop r29
 1298 0936 CF91      		pop r28
 1299 0938 0895      		ret
 1300               		.size	checknext, .-checknext
 1301               		.data
 1302               	.LC8:
 1303 009c 2725 7327 		.string	"'%s' expected (to close '%s' at line %d)"
 1303      2065 7870 
 1303      6563 7465 
 1303      6420 2874 
 1303      6F20 636C 
 1304               		.text
 1305               		.type	check_match, @function
 1306               	check_match:
 1307 093a AF92      		push r10
 1308 093c BF92      		push r11
 1309 093e CF92      		push r12
 1310 0940 DF92      		push r13
 1311 0942 EF92      		push r14
 1312 0944 FF92      		push r15
 1313 0946 0F93      		push r16
 1314 0948 1F93      		push r17
 1315 094a CF93      		push r28
 1316 094c DF93      		push r29
 1317               	/* prologue: function */
 1318               	/* frame size = 0 */
 1319 094e EC01      		movw r28,r24
 1320 0950 6A01      		movw r12,r20
 1321 0952 5901      		movw r10,r18
 1322 0954 8E81      		ldd r24,Y+6
 1323 0956 9F81      		ldd r25,Y+7
 1324 0958 8617      		cp r24,r22
 1325 095a 9707      		cpc r25,r23
 1326 095c 01F4      		brne .L76
 1327 095e CE01      		movw r24,r28
 1328 0960 0E94 0000 		call luaX_next
 1329 0964 00C0      		rjmp .L79
 1330               	.L76:
 1331 0966 8A81      		ldd r24,Y+2
 1332 0968 9B81      		ldd r25,Y+3
 1333 096a 2817      		cp r18,r24
 1334 096c 3907      		cpc r19,r25
 1335 096e 01F4      		brne .L78
 1336 0970 CE01      		movw r24,r28
 1337 0972 0E94 0000 		call error_expected
 1338 0976 00C0      		rjmp .L79
 1339               	.L78:
 1340 0978 EC88      		ldd r14,Y+20
GAS LISTING C:\DOCUME~1\ADMINI~1\LOCALS~1\Temp/ccZLgXoL.s 			page 25


 1341 097a FD88      		ldd r15,Y+21
 1342 097c CE01      		movw r24,r28
 1343 097e 0E94 0000 		call luaX_token2str
 1344 0982 8C01      		movw r16,r24
 1345 0984 CE01      		movw r24,r28
 1346 0986 B601      		movw r22,r12
 1347 0988 0E94 0000 		call luaX_token2str
 1348 098c 2DB7      		in r18,__SP_L__
 1349 098e 3EB7      		in r19,__SP_H__
 1350 0990 2A50      		subi r18,lo8(-(-10))
 1351 0992 3040      		sbci r19,hi8(-(-10))
 1352 0994 0FB6      		in __tmp_reg__,__SREG__
 1353 0996 F894      		cli
 1354 0998 3EBF      		out __SP_H__,r19
 1355 099a 0FBE      		out __SREG__,__tmp_reg__
 1356 099c 2DBF      		out __SP_L__,r18
 1357 099e EDB7      		in r30,__SP_L__
 1358 09a0 FEB7      		in r31,__SP_H__
 1359 09a2 3196      		adiw r30,1
 1360 09a4 ADB7      		in r26,__SP_L__
 1361 09a6 BEB7      		in r27,__SP_H__
 1362 09a8 1296      		adiw r26,1+1
 1363 09aa FC92      		st X,r15
 1364 09ac EE92      		st -X,r14
 1365 09ae 1197      		sbiw r26,1
 1366 09b0 20E0      		ldi r18,lo8(.LC8)
 1367 09b2 30E0      		ldi r19,hi8(.LC8)
 1368 09b4 3383      		std Z+3,r19
 1369 09b6 2283      		std Z+2,r18
 1370 09b8 1583      		std Z+5,r17
 1371 09ba 0483      		std Z+4,r16
 1372 09bc 9783      		std Z+7,r25
 1373 09be 8683      		std Z+6,r24
 1374 09c0 B186      		std Z+9,r11
 1375 09c2 A086      		std Z+8,r10
 1376 09c4 0E94 0000 		call luaO_pushfstring
 1377 09c8 BC01      		movw r22,r24
 1378 09ca 2DB7      		in r18,__SP_L__
 1379 09cc 3EB7      		in r19,__SP_H__
 1380 09ce 265F      		subi r18,lo8(-(10))
 1381 09d0 3F4F      		sbci r19,hi8(-(10))
 1382 09d2 0FB6      		in __tmp_reg__,__SREG__
 1383 09d4 F894      		cli
 1384 09d6 3EBF      		out __SP_H__,r19
 1385 09d8 0FBE      		out __SREG__,__tmp_reg__
 1386 09da 2DBF      		out __SP_L__,r18
 1387 09dc CE01      		movw r24,r28
 1388 09de 0E94 0000 		call luaX_syntaxerror
 1389               	.L79:
 1390               	/* epilogue start */
 1391 09e2 DF91      		pop r29
 1392 09e4 CF91      		pop r28
 1393 09e6 1F91      		pop r17
 1394 09e8 0F91      		pop r16
 1395 09ea FF90      		pop r15
 1396 09ec EF90      		pop r14
 1397 09ee DF90      		pop r13
GAS LISTING C:\DOCUME~1\ADMINI~1\LOCALS~1\Temp/ccZLgXoL.s 			page 26


 1398 09f0 CF90      		pop r12
 1399 09f2 BF90      		pop r11
 1400 09f4 AF90      		pop r10
 1401 09f6 0895      		ret
 1402               		.size	check_match, .-check_match
 1403               		.type	adjust_assign, @function
 1404               	adjust_assign:
 1405 09f8 EF92      		push r14
 1406 09fa FF92      		push r15
 1407 09fc 0F93      		push r16
 1408 09fe 1F93      		push r17
 1409 0a00 CF93      		push r28
 1410 0a02 DF93      		push r29
 1411               	/* prologue: function */
 1412               	/* frame size = 0 */
 1413 0a04 EB01      		movw r28,r22
 1414 0a06 F901      		movw r30,r18
 1415 0a08 DC01      		movw r26,r24
 1416 0a0a 5296      		adiw r26,18
 1417 0a0c ED90      		ld r14,X+
 1418 0a0e FC90      		ld r15,X
 1419 0a10 5397      		sbiw r26,18+1
 1420 0a12 C41B      		sub r28,r20
 1421 0a14 D50B      		sbc r29,r21
 1422 0a16 2081      		ld r18,Z
 1423 0a18 3181      		ldd r19,Z+1
 1424 0a1a C901      		movw r24,r18
 1425 0a1c 0D97      		sbiw r24,13
 1426 0a1e 0297      		sbiw r24,2
 1427 0a20 00F4      		brsh .L81
 1428 0a22 2196      		adiw r28,1
 1429 0a24 D7FF      		sbrs r29,7
 1430 0a26 00C0      		rjmp .L82
 1431 0a28 C0E0      		ldi r28,lo8(0)
 1432 0a2a D0E0      		ldi r29,hi8(0)
 1433               	.L82:
 1434 0a2c C701      		movw r24,r14
 1435 0a2e BF01      		movw r22,r30
 1436 0a30 AE01      		movw r20,r28
 1437 0a32 0E94 0000 		call luaK_setreturns
 1438 0a36 C230      		cpi r28,2
 1439 0a38 D105      		cpc r29,__zero_reg__
 1440 0a3a 04F0      		brlt .L85
 1441 0a3c 2197      		sbiw r28,1
 1442 0a3e C701      		movw r24,r14
 1443 0a40 BE01      		movw r22,r28
 1444 0a42 0E94 0000 		call luaK_reserveregs
 1445 0a46 00C0      		rjmp .L85
 1446               	.L81:
 1447 0a48 232B      		or r18,r19
 1448 0a4a 01F0      		breq .L84
 1449 0a4c C701      		movw r24,r14
 1450 0a4e BF01      		movw r22,r30
 1451 0a50 0E94 0000 		call luaK_exp2nextreg
 1452               	.L84:
 1453 0a54 1C16      		cp __zero_reg__,r28
 1454 0a56 1D06      		cpc __zero_reg__,r29
GAS LISTING C:\DOCUME~1\ADMINI~1\LOCALS~1\Temp/ccZLgXoL.s 			page 27


 1455 0a58 04F4      		brge .L85
 1456 0a5a F701      		movw r30,r14
 1457 0a5c 0289      		ldd r16,Z+18
 1458 0a5e 1389      		ldd r17,Z+19
 1459 0a60 C701      		movw r24,r14
 1460 0a62 BE01      		movw r22,r28
 1461 0a64 0E94 0000 		call luaK_reserveregs
 1462 0a68 C701      		movw r24,r14
 1463 0a6a B801      		movw r22,r16
 1464 0a6c AE01      		movw r20,r28
 1465 0a6e 0E94 0000 		call luaK_nil
 1466               	.L85:
 1467               	/* epilogue start */
 1468 0a72 DF91      		pop r29
 1469 0a74 CF91      		pop r28
 1470 0a76 1F91      		pop r17
 1471 0a78 0F91      		pop r16
 1472 0a7a FF90      		pop r15
 1473 0a7c EF90      		pop r14
 1474 0a7e 0895      		ret
 1475               		.size	adjust_assign, .-adjust_assign
 1476               		.type	close_func, @function
 1477               	close_func:
 1478 0a80 CF92      		push r12
 1479 0a82 DF92      		push r13
 1480 0a84 EF92      		push r14
 1481 0a86 FF92      		push r15
 1482 0a88 0F93      		push r16
 1483 0a8a 1F93      		push r17
 1484 0a8c CF93      		push r28
 1485 0a8e DF93      		push r29
 1486               	/* prologue: function */
 1487               	/* frame size = 0 */
 1488 0a90 6C01      		movw r12,r24
 1489 0a92 DC01      		movw r26,r24
 1490 0a94 5496      		adiw r26,20
 1491 0a96 ED90      		ld r14,X+
 1492 0a98 FC90      		ld r15,X
 1493 0a9a 5597      		sbiw r26,20+1
 1494 0a9c 5296      		adiw r26,18
 1495 0a9e 0D91      		ld r16,X+
 1496 0aa0 1C91      		ld r17,X
 1497 0aa2 5397      		sbiw r26,18+1
 1498 0aa4 F801      		movw r30,r16
 1499 0aa6 C081      		ld r28,Z
 1500 0aa8 D181      		ldd r29,Z+1
 1501 0aaa 00C0      		rjmp .L87
 1502               	.L88:
 1503 0aac D801      		movw r26,r16
 1504 0aae ED91      		ld r30,X+
 1505 0ab0 FC91      		ld r31,X
 1506 0ab2 A485      		ldd r26,Z+12
 1507 0ab4 B585      		ldd r27,Z+13
 1508 0ab6 8150      		subi r24,lo8(-(-1))
 1509 0ab8 F801      		movw r30,r16
 1510 0aba 828F      		std Z+26,r24
 1511 0abc E82F      		mov r30,r24
GAS LISTING C:\DOCUME~1\ADMINI~1\LOCALS~1\Temp/ccZLgXoL.s 			page 28


 1512 0abe F0E0      		ldi r31,lo8(0)
 1513 0ac0 EE0F      		lsl r30
 1514 0ac2 FF1F      		rol r31
 1515 0ac4 E00F      		add r30,r16
 1516 0ac6 F11F      		adc r31,r17
 1517 0ac8 ED56      		subi r30,lo8(-(147))
 1518 0aca FF4F      		sbci r31,hi8(-(147))
 1519 0acc 2081      		ld r18,Z
 1520 0ace 3181      		ldd r19,Z+1
 1521 0ad0 C901      		movw r24,r18
 1522 0ad2 880F      		lsl r24
 1523 0ad4 991F      		rol r25
 1524 0ad6 820F      		add r24,r18
 1525 0ad8 931F      		adc r25,r19
 1526 0ada 880F      		lsl r24
 1527 0adc 991F      		rol r25
 1528 0ade A80F      		add r26,r24
 1529 0ae0 B91F      		adc r27,r25
 1530 0ae2 F801      		movw r30,r16
 1531 0ae4 8485      		ldd r24,Z+12
 1532 0ae6 9585      		ldd r25,Z+13
 1533 0ae8 1596      		adiw r26,4+1
 1534 0aea 9C93      		st X,r25
 1535 0aec 8E93      		st -X,r24
 1536 0aee 1497      		sbiw r26,4
 1537               	.L87:
 1538 0af0 D801      		movw r26,r16
 1539 0af2 5A96      		adiw r26,26
 1540 0af4 8C91      		ld r24,X
 1541 0af6 8823      		tst r24
 1542 0af8 01F4      		brne .L88
 1543 0afa C801      		movw r24,r16
 1544 0afc 60E0      		ldi r22,lo8(0)
 1545 0afe 70E0      		ldi r23,hi8(0)
 1546 0b00 40E0      		ldi r20,lo8(0)
 1547 0b02 50E0      		ldi r21,hi8(0)
 1548 0b04 0E94 0000 		call luaK_ret
 1549 0b08 F801      		movw r30,r16
 1550 0b0a 2485      		ldd r18,Z+12
 1551 0b0c 3585      		ldd r19,Z+13
 1552 0b0e C901      		movw r24,r18
 1553 0b10 0196      		adiw r24,1
 1554 0b12 8050      		subi r24,lo8(16384)
 1555 0b14 9044      		sbci r25,hi8(16384)
 1556 0b16 00F4      		brsh .L89
 1557 0b18 6E81      		ldd r22,Y+6
 1558 0b1a 7F81      		ldd r23,Y+7
 1559 0b1c 4E89      		ldd r20,Y+22
 1560 0b1e 5F89      		ldd r21,Y+23
 1561 0b20 440F      		lsl r20
 1562 0b22 551F      		rol r21
 1563 0b24 440F      		lsl r20
 1564 0b26 551F      		rol r21
 1565 0b28 220F      		lsl r18
 1566 0b2a 331F      		rol r19
 1567 0b2c 220F      		lsl r18
 1568 0b2e 331F      		rol r19
GAS LISTING C:\DOCUME~1\ADMINI~1\LOCALS~1\Temp/ccZLgXoL.s 			page 29


 1569 0b30 C701      		movw r24,r14
 1570 0b32 0E94 0000 		call luaM_realloc_
 1571 0b36 00C0      		rjmp .L90
 1572               	.L89:
 1573 0b38 C701      		movw r24,r14
 1574 0b3a 0E94 0000 		call luaM_toobig
 1575               	.L90:
 1576 0b3e 9F83      		std Y+7,r25
 1577 0b40 8E83      		std Y+6,r24
 1578 0b42 D801      		movw r26,r16
 1579 0b44 1C96      		adiw r26,12
 1580 0b46 8D91      		ld r24,X+
 1581 0b48 9C91      		ld r25,X
 1582 0b4a 1D97      		sbiw r26,12+1
 1583 0b4c 9F8B      		std Y+23,r25
 1584 0b4e 8E8B      		std Y+22,r24
 1585 0b50 1C96      		adiw r26,12
 1586 0b52 2D91      		ld r18,X+
 1587 0b54 3C91      		ld r19,X
 1588 0b56 1D97      		sbiw r26,12+1
 1589 0b58 C901      		movw r24,r18
 1590 0b5a 0196      		adiw r24,1
 1591 0b5c 8F5F      		subi r24,lo8(32767)
 1592 0b5e 9F47      		sbci r25,hi8(32767)
 1593 0b60 00F4      		brsh .L91
 1594 0b62 6A85      		ldd r22,Y+10
 1595 0b64 7B85      		ldd r23,Y+11
 1596 0b66 488D      		ldd r20,Y+24
 1597 0b68 598D      		ldd r21,Y+25
 1598 0b6a 440F      		lsl r20
 1599 0b6c 551F      		rol r21
 1600 0b6e 220F      		lsl r18
 1601 0b70 331F      		rol r19
 1602 0b72 C701      		movw r24,r14
 1603 0b74 0E94 0000 		call luaM_realloc_
 1604 0b78 00C0      		rjmp .L92
 1605               	.L91:
 1606 0b7a C701      		movw r24,r14
 1607 0b7c 0E94 0000 		call luaM_toobig
 1608               	.L92:
 1609 0b80 9B87      		std Y+11,r25
 1610 0b82 8A87      		std Y+10,r24
 1611 0b84 F801      		movw r30,r16
 1612 0b86 8485      		ldd r24,Z+12
 1613 0b88 9585      		ldd r25,Z+13
 1614 0b8a 998F      		std Y+25,r25
 1615 0b8c 888F      		std Y+24,r24
 1616 0b8e 0488      		ldd __tmp_reg__,Z+20
 1617 0b90 F589      		ldd r31,Z+21
 1618 0b92 E02D      		mov r30,__tmp_reg__
 1619 0b94 CF01      		movw r24,r30
 1620 0b96 0196      		adiw r24,1
 1621 0b98 8B5A      		subi r24,lo8(10923)
 1622 0b9a 9A42      		sbci r25,hi8(10923)
 1623 0b9c 00F4      		brsh .L93
 1624 0b9e 6C81      		ldd r22,Y+4
 1625 0ba0 7D81      		ldd r23,Y+5
GAS LISTING C:\DOCUME~1\ADMINI~1\LOCALS~1\Temp/ccZLgXoL.s 			page 30


 1626 0ba2 8C89      		ldd r24,Y+20
 1627 0ba4 9D89      		ldd r25,Y+21
 1628 0ba6 AC01      		movw r20,r24
 1629 0ba8 440F      		lsl r20
 1630 0baa 551F      		rol r21
 1631 0bac 480F      		add r20,r24
 1632 0bae 591F      		adc r21,r25
 1633 0bb0 440F      		lsl r20
 1634 0bb2 551F      		rol r21
 1635 0bb4 9F01      		movw r18,r30
 1636 0bb6 220F      		lsl r18
 1637 0bb8 331F      		rol r19
 1638 0bba 2E0F      		add r18,r30
 1639 0bbc 3F1F      		adc r19,r31
 1640 0bbe 220F      		lsl r18
 1641 0bc0 331F      		rol r19
 1642 0bc2 C701      		movw r24,r14
 1643 0bc4 0E94 0000 		call luaM_realloc_
 1644 0bc8 00C0      		rjmp .L94
 1645               	.L93:
 1646 0bca C701      		movw r24,r14
 1647 0bcc 0E94 0000 		call luaM_toobig
 1648               	.L94:
 1649 0bd0 9D83      		std Y+5,r25
 1650 0bd2 8C83      		std Y+4,r24
 1651 0bd4 D801      		movw r26,r16
 1652 0bd6 5496      		adiw r26,20
 1653 0bd8 8D91      		ld r24,X+
 1654 0bda 9C91      		ld r25,X
 1655 0bdc 5597      		sbiw r26,20+1
 1656 0bde 9D8B      		std Y+21,r25
 1657 0be0 8C8B      		std Y+20,r24
 1658 0be2 5696      		adiw r26,22
 1659 0be4 2D91      		ld r18,X+
 1660 0be6 3C91      		ld r19,X
 1661 0be8 5797      		sbiw r26,22+1
 1662 0bea C901      		movw r24,r18
 1663 0bec 0196      		adiw r24,1
 1664 0bee 8F5F      		subi r24,lo8(32767)
 1665 0bf0 9F47      		sbci r25,hi8(32767)
 1666 0bf2 00F4      		brsh .L95
 1667 0bf4 6885      		ldd r22,Y+8
 1668 0bf6 7985      		ldd r23,Y+9
 1669 0bf8 4A8D      		ldd r20,Y+26
 1670 0bfa 5B8D      		ldd r21,Y+27
 1671 0bfc 440F      		lsl r20
 1672 0bfe 551F      		rol r21
 1673 0c00 220F      		lsl r18
 1674 0c02 331F      		rol r19
 1675 0c04 C701      		movw r24,r14
 1676 0c06 0E94 0000 		call luaM_realloc_
 1677 0c0a 00C0      		rjmp .L96
 1678               	.L95:
 1679 0c0c C701      		movw r24,r14
 1680 0c0e 0E94 0000 		call luaM_toobig
 1681               	.L96:
 1682 0c12 9987      		std Y+9,r25
GAS LISTING C:\DOCUME~1\ADMINI~1\LOCALS~1\Temp/ccZLgXoL.s 			page 31


 1683 0c14 8887      		std Y+8,r24
 1684 0c16 F801      		movw r30,r16
 1685 0c18 8689      		ldd r24,Z+22
 1686 0c1a 9789      		ldd r25,Z+23
 1687 0c1c 9B8F      		std Y+27,r25
 1688 0c1e 8A8F      		std Y+26,r24
 1689 0c20 008C      		ldd __tmp_reg__,Z+24
 1690 0c22 F18D      		ldd r31,Z+25
 1691 0c24 E02D      		mov r30,__tmp_reg__
 1692 0c26 CF01      		movw r24,r30
 1693 0c28 0196      		adiw r24,1
 1694 0c2a 8B5A      		subi r24,lo8(10923)
 1695 0c2c 9A42      		sbci r25,hi8(10923)
 1696 0c2e 00F4      		brsh .L97
 1697 0c30 6C85      		ldd r22,Y+12
 1698 0c32 7D85      		ldd r23,Y+13
 1699 0c34 8C8D      		ldd r24,Y+28
 1700 0c36 9D8D      		ldd r25,Y+29
 1701 0c38 AC01      		movw r20,r24
 1702 0c3a 440F      		lsl r20
 1703 0c3c 551F      		rol r21
 1704 0c3e 480F      		add r20,r24
 1705 0c40 591F      		adc r21,r25
 1706 0c42 440F      		lsl r20
 1707 0c44 551F      		rol r21
 1708 0c46 9F01      		movw r18,r30
 1709 0c48 220F      		lsl r18
 1710 0c4a 331F      		rol r19
 1711 0c4c 2E0F      		add r18,r30
 1712 0c4e 3F1F      		adc r19,r31
 1713 0c50 220F      		lsl r18
 1714 0c52 331F      		rol r19
 1715 0c54 C701      		movw r24,r14
 1716 0c56 0E94 0000 		call luaM_realloc_
 1717 0c5a 00C0      		rjmp .L98
 1718               	.L97:
 1719 0c5c C701      		movw r24,r14
 1720 0c5e 0E94 0000 		call luaM_toobig
 1721               	.L98:
 1722 0c62 9D87      		std Y+13,r25
 1723 0c64 8C87      		std Y+12,r24
 1724 0c66 D801      		movw r26,r16
 1725 0c68 5896      		adiw r26,24
 1726 0c6a 8D91      		ld r24,X+
 1727 0c6c 9C91      		ld r25,X
 1728 0c6e 5997      		sbiw r26,24+1
 1729 0c70 9D8F      		std Y+29,r25
 1730 0c72 8C8F      		std Y+28,r24
 1731 0c74 6E85      		ldd r22,Y+14
 1732 0c76 7F85      		ldd r23,Y+15
 1733 0c78 4A89      		ldd r20,Y+18
 1734 0c7a 5B89      		ldd r21,Y+19
 1735 0c7c 440F      		lsl r20
 1736 0c7e 551F      		rol r21
 1737 0c80 2CA1      		ldd r18,Y+36
 1738 0c82 30E0      		ldi r19,lo8(0)
 1739 0c84 220F      		lsl r18
GAS LISTING C:\DOCUME~1\ADMINI~1\LOCALS~1\Temp/ccZLgXoL.s 			page 32


 1740 0c86 331F      		rol r19
 1741 0c88 C701      		movw r24,r14
 1742 0c8a 0E94 0000 		call luaM_realloc_
 1743 0c8e 9F87      		std Y+15,r25
 1744 0c90 8E87      		std Y+14,r24
 1745 0c92 8CA1      		ldd r24,Y+36
 1746 0c94 8A8B      		std Y+18,r24
 1747 0c96 1B8A      		std Y+19,__zero_reg__
 1748 0c98 F801      		movw r30,r16
 1749 0c9a 8481      		ldd r24,Z+4
 1750 0c9c 9581      		ldd r25,Z+5
 1751 0c9e D601      		movw r26,r12
 1752 0ca0 5396      		adiw r26,18+1
 1753 0ca2 9C93      		st X,r25
 1754 0ca4 8E93      		st -X,r24
 1755 0ca6 5297      		sbiw r26,18
 1756 0ca8 F701      		movw r30,r14
 1757 0caa 8581      		ldd r24,Z+5
 1758 0cac 9681      		ldd r25,Z+6
 1759 0cae 0C97      		sbiw r24,12
 1760 0cb0 9683      		std Z+6,r25
 1761 0cb2 8583      		std Z+5,r24
 1762 0cb4 012B      		or r16,r17
 1763 0cb6 01F0      		breq .L100
 1764 0cb8 1696      		adiw r26,6
 1765 0cba 8D91      		ld r24,X+
 1766 0cbc 9C91      		ld r25,X
 1767 0cbe 1797      		sbiw r26,6+1
 1768 0cc0 8D51      		subi r24,lo8(-(-285))
 1769 0cc2 9140      		sbci r25,hi8(-(-285))
 1770 0cc4 0297      		sbiw r24,2
 1771 0cc6 00F4      		brsh .L100
 1772 0cc8 1896      		adiw r26,8
 1773 0cca ED91      		ld r30,X+
 1774 0ccc FC91      		ld r31,X
 1775 0cce 1997      		sbiw r26,8+1
 1776 0cd0 4781      		ldd r20,Z+7
 1777 0cd2 5085      		ldd r21,Z+8
 1778 0cd4 C601      		movw r24,r12
 1779 0cd6 3996      		adiw r30,9
 1780 0cd8 BF01      		movw r22,r30
 1781 0cda 0E94 0000 		call luaX_newstring
 1782               	.L100:
 1783               	/* epilogue start */
 1784 0cde DF91      		pop r29
 1785 0ce0 CF91      		pop r28
 1786 0ce2 1F91      		pop r17
 1787 0ce4 0F91      		pop r16
 1788 0ce6 FF90      		pop r15
 1789 0ce8 EF90      		pop r14
 1790 0cea DF90      		pop r13
 1791 0cec CF90      		pop r12
 1792 0cee 0895      		ret
 1793               		.size	close_func, .-close_func
 1794               		.data
 1795               	.LC9:
 1796 00c5 7365 6C66 		.string	"self"
GAS LISTING C:\DOCUME~1\ADMINI~1\LOCALS~1\Temp/ccZLgXoL.s 			page 33


 1796      00
 1797               	.LC10:
 1798 00ca 6172 6700 		.string	"arg"
 1799               	.LC11:
 1800 00ce 3C6E 616D 		.string	"<name> or '...' expected"
 1800      653E 206F 
 1800      7220 272E 
 1800      2E2E 2720 
 1800      6578 7065 
 1801               	.LC12:
 1802 00e7 636F 6E73 		.string	"constant table overflow"
 1802      7461 6E74 
 1802      2074 6162 
 1802      6C65 206F 
 1802      7665 7266 
 1803               		.text
 1804               		.type	body, @function
 1805               	body:
 1806 0cf0 3F92      		push r3
 1807 0cf2 4F92      		push r4
 1808 0cf4 5F92      		push r5
 1809 0cf6 6F92      		push r6
 1810 0cf8 7F92      		push r7
 1811 0cfa 8F92      		push r8
 1812 0cfc 9F92      		push r9
 1813 0cfe AF92      		push r10
 1814 0d00 BF92      		push r11
 1815 0d02 CF92      		push r12
 1816 0d04 DF92      		push r13
 1817 0d06 EF92      		push r14
 1818 0d08 FF92      		push r15
 1819 0d0a 0F93      		push r16
 1820 0d0c 1F93      		push r17
 1821 0d0e DF93      		push r29
 1822 0d10 CF93      		push r28
 1823 0d12 CDB7      		in r28,__SP_L__
 1824 0d14 DEB7      		in r29,__SP_H__
 1825 0d16 C352      		subi r28,lo8(-(-547))
 1826 0d18 D240      		sbci r29,hi8(-(-547))
 1827 0d1a 0FB6      		in __tmp_reg__,__SREG__
 1828 0d1c F894      		cli
 1829 0d1e DEBF      		out __SP_H__,r29
 1830 0d20 0FBE      		out __SREG__,__tmp_reg__
 1831 0d22 CDBF      		out __SP_L__,r28
 1832               	/* prologue: function */
 1833               	/* frame size = 547 */
 1834 0d24 6C01      		movw r12,r24
 1835 0d26 2B01      		movw r4,r22
 1836 0d28 8A01      		movw r16,r20
 1837 0d2a 3901      		movw r6,r18
 1838 0d2c BE01      		movw r22,r28
 1839 0d2e 6F5F      		subi r22,lo8(-(1))
 1840 0d30 7F4F      		sbci r23,hi8(-(1))
 1841 0d32 0E94 0000 		call open_func
 1842 0d36 E981      		ldd r30,Y+1
 1843 0d38 FA81      		ldd r31,Y+2
 1844 0d3a 778E      		std Z+31,r7
GAS LISTING C:\DOCUME~1\ADMINI~1\LOCALS~1\Temp/ccZLgXoL.s 			page 34


 1845 0d3c 668E      		std Z+30,r6
 1846 0d3e C601      		movw r24,r12
 1847 0d40 68E2      		ldi r22,lo8(40)
 1848 0d42 70E0      		ldi r23,hi8(40)
 1849 0d44 0E94 0000 		call checknext
 1850 0d48 012B      		or r16,r17
 1851 0d4a 01F0      		breq .L102
 1852 0d4c C601      		movw r24,r12
 1853 0d4e 60E0      		ldi r22,lo8(.LC9)
 1854 0d50 70E0      		ldi r23,hi8(.LC9)
 1855 0d52 44E0      		ldi r20,lo8(4)
 1856 0d54 50E0      		ldi r21,hi8(4)
 1857 0d56 0E94 0000 		call luaX_newstring
 1858 0d5a BC01      		movw r22,r24
 1859 0d5c C601      		movw r24,r12
 1860 0d5e 40E0      		ldi r20,lo8(0)
 1861 0d60 50E0      		ldi r21,hi8(0)
 1862 0d62 0E94 0000 		call new_localvar
 1863 0d66 C601      		movw r24,r12
 1864 0d68 61E0      		ldi r22,lo8(1)
 1865 0d6a 70E0      		ldi r23,hi8(1)
 1866 0d6c 0E94 0000 		call adjustlocalvars
 1867               	.L102:
 1868 0d70 D601      		movw r26,r12
 1869 0d72 5296      		adiw r26,18
 1870 0d74 8D90      		ld r8,X+
 1871 0d76 9C90      		ld r9,X
 1872 0d78 5397      		sbiw r26,18+1
 1873 0d7a F401      		movw r30,r8
 1874 0d7c A080      		ld r10,Z
 1875 0d7e B180      		ldd r11,Z+1
 1876 0d80 D501      		movw r26,r10
 1877 0d82 9696      		adiw r26,38
 1878 0d84 1C92      		st X,__zero_reg__
 1879 0d86 F601      		movw r30,r12
 1880 0d88 8681      		ldd r24,Z+6
 1881 0d8a 9781      		ldd r25,Z+7
 1882 0d8c 8997      		sbiw r24,41
 1883 0d8e 01F4      		brne .+2
 1884 0d90 00C0      		rjmp .L103
 1885 0d92 EE24      		clr r14
 1886 0d94 FF24      		clr r15
 1887 0d96 A7E0      		ldi r26,lo8(7)
 1888 0d98 3A2E      		mov r3,r26
 1889               	.L109:
 1890 0d9a D601      		movw r26,r12
 1891 0d9c 1696      		adiw r26,6
 1892 0d9e 8D91      		ld r24,X+
 1893 0da0 9C91      		ld r25,X
 1894 0da2 1797      		sbiw r26,6+1
 1895 0da4 B1E0      		ldi r27,hi8(279)
 1896 0da6 8731      		cpi r24,lo8(279)
 1897 0da8 9B07      		cpc r25,r27
 1898 0daa 01F0      		breq .L105
 1899 0dac 8D51      		subi r24,lo8(285)
 1900 0dae 9140      		sbci r25,hi8(285)
 1901 0db0 01F4      		brne .L119
GAS LISTING C:\DOCUME~1\ADMINI~1\LOCALS~1\Temp/ccZLgXoL.s 			page 35


 1902 0db2 C601      		movw r24,r12
 1903 0db4 0E94 0000 		call str_checkname
 1904 0db8 BC01      		movw r22,r24
 1905 0dba 8701      		movw r16,r14
 1906 0dbc 0F5F      		subi r16,lo8(-(1))
 1907 0dbe 1F4F      		sbci r17,hi8(-(1))
 1908 0dc0 C601      		movw r24,r12
 1909 0dc2 A701      		movw r20,r14
 1910 0dc4 0E94 0000 		call new_localvar
 1911 0dc8 00C0      		rjmp .L120
 1912               	.L105:
 1913 0dca C601      		movw r24,r12
 1914 0dcc 0E94 0000 		call luaX_next
 1915 0dd0 C601      		movw r24,r12
 1916 0dd2 60E0      		ldi r22,lo8(.LC10)
 1917 0dd4 70E0      		ldi r23,hi8(.LC10)
 1918 0dd6 43E0      		ldi r20,lo8(3)
 1919 0dd8 50E0      		ldi r21,hi8(3)
 1920 0dda 0E94 0000 		call luaX_newstring
 1921 0dde BC01      		movw r22,r24
 1922 0de0 8701      		movw r16,r14
 1923 0de2 0F5F      		subi r16,lo8(-(1))
 1924 0de4 1F4F      		sbci r17,hi8(-(1))
 1925 0de6 C601      		movw r24,r12
 1926 0de8 A701      		movw r20,r14
 1927 0dea 0E94 0000 		call new_localvar
 1928 0dee D501      		movw r26,r10
 1929 0df0 9696      		adiw r26,38
 1930 0df2 3C92      		st X,r3
 1931               	.L120:
 1932 0df4 7801      		movw r14,r16
 1933 0df6 00C0      		rjmp .L107
 1934               	.L119:
 1935 0df8 C601      		movw r24,r12
 1936 0dfa 60E0      		ldi r22,lo8(.LC11)
 1937 0dfc 70E0      		ldi r23,hi8(.LC11)
 1938 0dfe 0E94 0000 		call luaX_syntaxerror
 1939               	.L107:
 1940 0e02 F501      		movw r30,r10
 1941 0e04 86A1      		ldd r24,Z+38
 1942 0e06 8823      		tst r24
 1943 0e08 01F4      		brne .L108
 1944 0e0a D601      		movw r26,r12
 1945 0e0c 1696      		adiw r26,6
 1946 0e0e 8D91      		ld r24,X+
 1947 0e10 9C91      		ld r25,X
 1948 0e12 1797      		sbiw r26,6+1
 1949 0e14 8C97      		sbiw r24,44
 1950 0e16 01F4      		brne .L108
 1951 0e18 C601      		movw r24,r12
 1952 0e1a 0E94 0000 		call luaX_next
 1953 0e1e 00C0      		rjmp .L109
 1954               	.L103:
 1955 0e20 EE24      		clr r14
 1956 0e22 FF24      		clr r15
 1957               	.L108:
 1958 0e24 C601      		movw r24,r12
GAS LISTING C:\DOCUME~1\ADMINI~1\LOCALS~1\Temp/ccZLgXoL.s 			page 36


 1959 0e26 B701      		movw r22,r14
 1960 0e28 0E94 0000 		call adjustlocalvars
 1961 0e2c F501      		movw r30,r10
 1962 0e2e 96A1      		ldd r25,Z+38
 1963 0e30 9170      		andi r25,lo8(1)
 1964 0e32 D401      		movw r26,r8
 1965 0e34 5A96      		adiw r26,26
 1966 0e36 8C91      		ld r24,X
 1967 0e38 5A97      		sbiw r26,26
 1968 0e3a 891B      		sub r24,r25
 1969 0e3c 85A3      		std Z+37,r24
 1970 0e3e 5A96      		adiw r26,26
 1971 0e40 6C91      		ld r22,X
 1972 0e42 C401      		movw r24,r8
 1973 0e44 70E0      		ldi r23,lo8(0)
 1974 0e46 0E94 0000 		call luaK_reserveregs
 1975 0e4a C601      		movw r24,r12
 1976 0e4c 69E2      		ldi r22,lo8(41)
 1977 0e4e 70E0      		ldi r23,hi8(41)
 1978 0e50 0E94 0000 		call checknext
 1979 0e54 C601      		movw r24,r12
 1980 0e56 0E94 0000 		call chunk
 1981 0e5a E981      		ldd r30,Y+1
 1982 0e5c FA81      		ldd r31,Y+2
 1983 0e5e D601      		movw r26,r12
 1984 0e60 1296      		adiw r26,2
 1985 0e62 8D91      		ld r24,X+
 1986 0e64 9C91      		ld r25,X
 1987 0e66 1397      		sbiw r26,2+1
 1988 0e68 91A3      		std Z+33,r25
 1989 0e6a 80A3      		std Z+32,r24
 1990 0e6c C601      		movw r24,r12
 1991 0e6e 66E0      		ldi r22,lo8(262)
 1992 0e70 71E0      		ldi r23,hi8(262)
 1993 0e72 49E0      		ldi r20,lo8(265)
 1994 0e74 51E0      		ldi r21,hi8(265)
 1995 0e76 9301      		movw r18,r6
 1996 0e78 0E94 0000 		call check_match
 1997 0e7c C601      		movw r24,r12
 1998 0e7e 0E94 0000 		call close_func
 1999 0e82 F601      		movw r30,r12
 2000 0e84 6288      		ldd r6,Z+18
 2001 0e86 7388      		ldd r7,Z+19
 2002 0e88 D301      		movw r26,r6
 2003 0e8a AD90      		ld r10,X+
 2004 0e8c BC90      		ld r11,X
 2005 0e8e 1197      		sbiw r26,1
 2006 0e90 F501      		movw r30,r10
 2007 0e92 828C      		ldd r8,Z+26
 2008 0e94 938C      		ldd r9,Z+27
 2009 0e96 5696      		adiw r26,22
 2010 0e98 8D91      		ld r24,X+
 2011 0e9a 9C91      		ld r25,X
 2012 0e9c 5797      		sbiw r26,22+1
 2013 0e9e 8815      		cp r24,r8
 2014 0ea0 9905      		cpc r25,r9
 2015 0ea2 04F0      		brlt .L110
GAS LISTING C:\DOCUME~1\ADMINI~1\LOCALS~1\Temp/ccZLgXoL.s 			page 37


 2016 0ea4 6085      		ldd r22,Z+8
 2017 0ea6 7185      		ldd r23,Z+9
 2018 0ea8 A501      		movw r20,r10
 2019 0eaa 465E      		subi r20,lo8(-(26))
 2020 0eac 5F4F      		sbci r21,hi8(-(26))
 2021 0eae D601      		movw r26,r12
 2022 0eb0 5496      		adiw r26,20
 2023 0eb2 8D91      		ld r24,X+
 2024 0eb4 9C91      		ld r25,X
 2025 0eb6 5597      		sbiw r26,20+1
 2026 0eb8 22E0      		ldi r18,lo8(2)
 2027 0eba 30E0      		ldi r19,hi8(2)
 2028 0ebc 0DEF      		ldi r16,lo8(32765)
 2029 0ebe 1FE7      		ldi r17,hi8(32765)
 2030 0ec0 F0E0      		ldi r31,lo8(.LC12)
 2031 0ec2 EF2E      		mov r14,r31
 2032 0ec4 F0E0      		ldi r31,hi8(.LC12)
 2033 0ec6 FF2E      		mov r15,r31
 2034 0ec8 0E94 0000 		call luaM_growaux_
 2035 0ecc F501      		movw r30,r10
 2036 0ece 9187      		std Z+9,r25
 2037 0ed0 8087      		std Z+8,r24
 2038               	.L110:
 2039 0ed2 9401      		movw r18,r8
 2040 0ed4 220F      		lsl r18
 2041 0ed6 331F      		rol r19
 2042 0ed8 00C0      		rjmp .L111
 2043               	.L112:
 2044 0eda E20F      		add r30,r18
 2045 0edc F31F      		adc r31,r19
 2046 0ede 1182      		std Z+1,__zero_reg__
 2047 0ee0 1082      		st Z,__zero_reg__
 2048 0ee2 0894      		sec
 2049 0ee4 811C      		adc r8,__zero_reg__
 2050 0ee6 911C      		adc r9,__zero_reg__
 2051 0ee8 2E5F      		subi r18,lo8(-(2))
 2052 0eea 3F4F      		sbci r19,hi8(-(2))
 2053               	.L111:
 2054 0eec D501      		movw r26,r10
 2055 0eee 5A96      		adiw r26,26
 2056 0ef0 8D91      		ld r24,X+
 2057 0ef2 9C91      		ld r25,X
 2058 0ef4 5B97      		sbiw r26,26+1
 2059 0ef6 1896      		adiw r26,8
 2060 0ef8 ED91      		ld r30,X+
 2061 0efa FC91      		ld r31,X
 2062 0efc 1997      		sbiw r26,8+1
 2063 0efe 8816      		cp r8,r24
 2064 0f00 9906      		cpc r9,r25
 2065 0f02 04F0      		brlt .L112
 2066 0f04 D301      		movw r26,r6
 2067 0f06 5696      		adiw r26,22
 2068 0f08 2D91      		ld r18,X+
 2069 0f0a 3C91      		ld r19,X
 2070 0f0c 5797      		sbiw r26,22+1
 2071 0f0e C901      		movw r24,r18
 2072 0f10 880F      		lsl r24
GAS LISTING C:\DOCUME~1\ADMINI~1\LOCALS~1\Temp/ccZLgXoL.s 			page 38


 2073 0f12 991F      		rol r25
 2074 0f14 E80F      		add r30,r24
 2075 0f16 F91F      		adc r31,r25
 2076 0f18 8981      		ldd r24,Y+1
 2077 0f1a 9A81      		ldd r25,Y+2
 2078 0f1c 9183      		std Z+1,r25
 2079 0f1e 8083      		st Z,r24
 2080 0f20 2F5F      		subi r18,lo8(-(1))
 2081 0f22 3F4F      		sbci r19,hi8(-(1))
 2082 0f24 5796      		adiw r26,22+1
 2083 0f26 3C93      		st X,r19
 2084 0f28 2E93      		st -X,r18
 2085 0f2a 5697      		sbiw r26,22
 2086 0f2c E981      		ldd r30,Y+1
 2087 0f2e FA81      		ldd r31,Y+2
 2088 0f30 8381      		ldd r24,Z+3
 2089 0f32 90E0      		ldi r25,lo8(0)
 2090 0f34 8370      		andi r24,lo8(3)
 2091 0f36 9070      		andi r25,hi8(3)
 2092 0f38 892B      		or r24,r25
 2093 0f3a 01F0      		breq .L113
 2094 0f3c D501      		movw r26,r10
 2095 0f3e 1396      		adiw r26,3
 2096 0f40 8C91      		ld r24,X
 2097 0f42 82FF      		sbrs r24,2
 2098 0f44 00C0      		rjmp .L113
 2099 0f46 D601      		movw r26,r12
 2100 0f48 5496      		adiw r26,20
 2101 0f4a 8D91      		ld r24,X+
 2102 0f4c 9C91      		ld r25,X
 2103 0f4e 5597      		sbiw r26,20+1
 2104 0f50 B501      		movw r22,r10
 2105 0f52 AF01      		movw r20,r30
 2106 0f54 0E94 0000 		call luaC_barrierf
 2107               	.L113:
 2108 0f58 F301      		movw r30,r6
 2109 0f5a 2689      		ldd r18,Z+22
 2110 0f5c 3789      		ldd r19,Z+23
 2111 0f5e 2150      		subi r18,lo8(-(-1))
 2112 0f60 3040      		sbci r19,hi8(-(-1))
 2113 0f62 C301      		movw r24,r6
 2114 0f64 64E2      		ldi r22,lo8(36)
 2115 0f66 70E0      		ldi r23,hi8(36)
 2116 0f68 40E0      		ldi r20,lo8(0)
 2117 0f6a 50E0      		ldi r21,hi8(0)
 2118 0f6c 0E94 0000 		call luaK_codeABx
 2119 0f70 2FEF      		ldi r18,lo8(-1)
 2120 0f72 3FEF      		ldi r19,hi8(-1)
 2121 0f74 D201      		movw r26,r4
 2122 0f76 1796      		adiw r26,6+1
 2123 0f78 3C93      		st X,r19
 2124 0f7a 2E93      		st -X,r18
 2125 0f7c 1697      		sbiw r26,6
 2126 0f7e 1996      		adiw r26,8+1
 2127 0f80 3C93      		st X,r19
 2128 0f82 2E93      		st -X,r18
 2129 0f84 1897      		sbiw r26,8
GAS LISTING C:\DOCUME~1\ADMINI~1\LOCALS~1\Temp/ccZLgXoL.s 			page 39


 2130 0f86 2BE0      		ldi r18,lo8(11)
 2131 0f88 30E0      		ldi r19,hi8(11)
 2132 0f8a 1196      		adiw r26,1
 2133 0f8c 3C93      		st X,r19
 2134 0f8e 2E93      		st -X,r18
 2135 0f90 1396      		adiw r26,2+1
 2136 0f92 9C93      		st X,r25
 2137 0f94 8E93      		st -X,r24
 2138 0f96 1297      		sbiw r26,2
 2139 0f98 6CE1      		ldi r22,lo8(28)
 2140 0f9a E62E      		mov r14,r22
 2141 0f9c F12C      		mov r15,__zero_reg__
 2142 0f9e EC0E      		add r14,r28
 2143 0fa0 FD1E      		adc r15,r29
 2144 0fa2 CC24      		clr r12
 2145 0fa4 DD24      		clr r13
 2146 0fa6 00C0      		rjmp .L114
 2147               	.L117:
 2148 0fa8 F701      		movw r30,r14
 2149 0faa 8081      		ld r24,Z
 2150 0fac 8630      		cpi r24,lo8(6)
 2151 0fae 01F0      		breq .L115
 2152 0fb0 64E0      		ldi r22,lo8(4)
 2153 0fb2 70E0      		ldi r23,hi8(4)
 2154 0fb4 00C0      		rjmp .L116
 2155               	.L115:
 2156 0fb6 60E0      		ldi r22,lo8(0)
 2157 0fb8 70E0      		ldi r23,hi8(0)
 2158               	.L116:
 2159 0fba D701      		movw r26,r14
 2160 0fbc 1196      		adiw r26,1
 2161 0fbe 2C91      		ld r18,X
 2162 0fc0 C301      		movw r24,r6
 2163 0fc2 40E0      		ldi r20,lo8(0)
 2164 0fc4 50E0      		ldi r21,hi8(0)
 2165 0fc6 30E0      		ldi r19,lo8(0)
 2166 0fc8 00E0      		ldi r16,lo8(0)
 2167 0fca 10E0      		ldi r17,hi8(0)
 2168 0fcc 0E94 0000 		call luaK_codeABC
 2169 0fd0 0894      		sec
 2170 0fd2 C11C      		adc r12,__zero_reg__
 2171 0fd4 D11C      		adc r13,__zero_reg__
 2172 0fd6 E2E0      		ldi r30,lo8(2)
 2173 0fd8 F0E0      		ldi r31,hi8(2)
 2174 0fda EE0E      		add r14,r30
 2175 0fdc FF1E      		adc r15,r31
 2176               	.L114:
 2177 0fde E981      		ldd r30,Y+1
 2178 0fe0 FA81      		ldd r31,Y+2
 2179 0fe2 84A1      		ldd r24,Z+36
 2180 0fe4 90E0      		ldi r25,lo8(0)
 2181 0fe6 C816      		cp r12,r24
 2182 0fe8 D906      		cpc r13,r25
 2183 0fea 04F0      		brlt .L117
 2184               	/* epilogue start */
 2185 0fec CD5D      		subi r28,lo8(-(547))
 2186 0fee DD4F      		sbci r29,hi8(-(547))
GAS LISTING C:\DOCUME~1\ADMINI~1\LOCALS~1\Temp/ccZLgXoL.s 			page 40


 2187 0ff0 0FB6      		in __tmp_reg__,__SREG__
 2188 0ff2 F894      		cli
 2189 0ff4 DEBF      		out __SP_H__,r29
 2190 0ff6 0FBE      		out __SREG__,__tmp_reg__
 2191 0ff8 CDBF      		out __SP_L__,r28
 2192 0ffa CF91      		pop r28
 2193 0ffc DF91      		pop r29
 2194 0ffe 1F91      		pop r17
 2195 1000 0F91      		pop r16
 2196 1002 FF90      		pop r15
 2197 1004 EF90      		pop r14
 2198 1006 DF90      		pop r13
 2199 1008 CF90      		pop r12
 2200 100a BF90      		pop r11
 2201 100c AF90      		pop r10
 2202 100e 9F90      		pop r9
 2203 1010 8F90      		pop r8
 2204 1012 7F90      		pop r7
 2205 1014 6F90      		pop r6
 2206 1016 5F90      		pop r5
 2207 1018 4F90      		pop r4
 2208 101a 3F90      		pop r3
 2209 101c 0895      		ret
 2210               		.size	body, .-body
 2211               		.data
 2212               	.LC13:
 2213 00ff 6368 756E 		.string	"chunk has too many syntax levels"
 2213      6B20 6861 
 2213      7320 746F 
 2213      6F20 6D61 
 2213      6E79 2073 
 2214               	.LC14:
 2215 0120 6361 6E6E 		.string	"cannot use '...' outside a vararg function"
 2215      6F74 2075 
 2215      7365 2027 
 2215      2E2E 2E27 
 2215      206F 7574 
 2216               		.text
 2217               		.type	subexpr, @function
 2218               	subexpr:
 2219 101e 6F92      		push r6
 2220 1020 7F92      		push r7
 2221 1022 8F92      		push r8
 2222 1024 9F92      		push r9
 2223 1026 AF92      		push r10
 2224 1028 BF92      		push r11
 2225 102a CF92      		push r12
 2226 102c DF92      		push r13
 2227 102e EF92      		push r14
 2228 1030 FF92      		push r15
 2229 1032 0F93      		push r16
 2230 1034 1F93      		push r17
 2231 1036 DF93      		push r29
 2232 1038 CF93      		push r28
 2233 103a CDB7      		in r28,__SP_L__
 2234 103c DEB7      		in r29,__SP_H__
 2235 103e 2A97      		sbiw r28,10
GAS LISTING C:\DOCUME~1\ADMINI~1\LOCALS~1\Temp/ccZLgXoL.s 			page 41


 2236 1040 0FB6      		in __tmp_reg__,__SREG__
 2237 1042 F894      		cli
 2238 1044 DEBF      		out __SP_H__,r29
 2239 1046 0FBE      		out __SREG__,__tmp_reg__
 2240 1048 CDBF      		out __SP_L__,r28
 2241               	/* prologue: function */
 2242               	/* frame size = 10 */
 2243 104a 5C01      		movw r10,r24
 2244 104c 6B01      		movw r12,r22
 2245 104e 3A01      		movw r6,r20
 2246 1050 DC01      		movw r26,r24
 2247 1052 5496      		adiw r26,20
 2248 1054 ED91      		ld r30,X+
 2249 1056 FC91      		ld r31,X
 2250 1058 5597      		sbiw r26,20+1
 2251 105a 838D      		ldd r24,Z+27
 2252 105c 948D      		ldd r25,Z+28
 2253 105e 0196      		adiw r24,1
 2254 1060 948F      		std Z+28,r25
 2255 1062 838F      		std Z+27,r24
 2256 1064 893C      		cpi r24,201
 2257 1066 9105      		cpc r25,__zero_reg__
 2258 1068 00F0      		brlo .L122
 2259 106a C501      		movw r24,r10
 2260 106c 60E0      		ldi r22,lo8(.LC13)
 2261 106e 70E0      		ldi r23,hi8(.LC13)
 2262 1070 40E0      		ldi r20,lo8(0)
 2263 1072 50E0      		ldi r21,hi8(0)
 2264 1074 0E94 0000 		call luaX_lexerror
 2265               	.L122:
 2266 1078 F501      		movw r30,r10
 2267 107a 8681      		ldd r24,Z+6
 2268 107c 9781      		ldd r25,Z+7
 2269 107e 8D32      		cpi r24,45
 2270 1080 9105      		cpc r25,__zero_reg__
 2271 1082 01F0      		breq .L125
 2272 1084 F1E0      		ldi r31,hi8(270)
 2273 1086 8E30      		cpi r24,lo8(270)
 2274 1088 9F07      		cpc r25,r31
 2275 108a 01F0      		breq .L126
 2276 108c 8332      		cpi r24,35
 2277 108e 9105      		cpc r25,__zero_reg__
 2278 1090 01F0      		breq .+2
 2279 1092 00C0      		rjmp .L165
 2280 1094 00C0      		rjmp .L169
 2281               	.L126:
 2282 1096 01E0      		ldi r16,lo8(1)
 2283 1098 10E0      		ldi r17,hi8(1)
 2284 109a 00C0      		rjmp .L127
 2285               	.L125:
 2286 109c 00E0      		ldi r16,lo8(0)
 2287 109e 10E0      		ldi r17,hi8(0)
 2288 10a0 00C0      		rjmp .L127
 2289               	.L169:
 2290 10a2 02E0      		ldi r16,lo8(2)
 2291 10a4 10E0      		ldi r17,hi8(2)
 2292               	.L127:
GAS LISTING C:\DOCUME~1\ADMINI~1\LOCALS~1\Temp/ccZLgXoL.s 			page 42


 2293 10a6 C501      		movw r24,r10
 2294 10a8 0E94 0000 		call luaX_next
 2295 10ac C501      		movw r24,r10
 2296 10ae B601      		movw r22,r12
 2297 10b0 48E0      		ldi r20,lo8(8)
 2298 10b2 50E0      		ldi r21,hi8(8)
 2299 10b4 0E94 0000 		call subexpr
 2300 10b8 D501      		movw r26,r10
 2301 10ba 5296      		adiw r26,18
 2302 10bc 8D91      		ld r24,X+
 2303 10be 9C91      		ld r25,X
 2304 10c0 5397      		sbiw r26,18+1
 2305 10c2 B801      		movw r22,r16
 2306 10c4 A601      		movw r20,r12
 2307 10c6 0E94 0000 		call luaK_prefix
 2308 10ca 00C0      		rjmp .L128
 2309               	.L129:
 2310 10cc 8FEF      		ldi r24,lo8(-1)
 2311 10ce 9FEF      		ldi r25,hi8(-1)
 2312 10d0 F601      		movw r30,r12
 2313 10d2 9783      		std Z+7,r25
 2314 10d4 8683      		std Z+6,r24
 2315 10d6 9187      		std Z+9,r25
 2316 10d8 8087      		std Z+8,r24
 2317 10da 85E0      		ldi r24,lo8(5)
 2318 10dc 90E0      		ldi r25,hi8(5)
 2319 10de 9183      		std Z+1,r25
 2320 10e0 8083      		st Z,r24
 2321 10e2 F501      		movw r30,r10
 2322 10e4 8085      		ldd r24,Z+8
 2323 10e6 9185      		ldd r25,Z+9
 2324 10e8 A285      		ldd r26,Z+10
 2325 10ea B385      		ldd r27,Z+11
 2326 10ec F601      		movw r30,r12
 2327 10ee 8283      		std Z+2,r24
 2328 10f0 9383      		std Z+3,r25
 2329 10f2 A483      		std Z+4,r26
 2330 10f4 B583      		std Z+5,r27
 2331 10f6 00C0      		rjmp .L130
 2332               	.L176:
 2333 10f8 D501      		movw r26,r10
 2334 10fa 1896      		adiw r26,8
 2335 10fc 6D91      		ld r22,X+
 2336 10fe 7C91      		ld r23,X
 2337 1100 1997      		sbiw r26,8+1
 2338 1102 5296      		adiw r26,18
 2339 1104 8D91      		ld r24,X+
 2340 1106 9C91      		ld r25,X
 2341 1108 5397      		sbiw r26,18+1
 2342 110a 0E94 0000 		call luaK_stringK
 2343 110e 2FEF      		ldi r18,lo8(-1)
 2344 1110 3FEF      		ldi r19,hi8(-1)
 2345 1112 F601      		movw r30,r12
 2346 1114 3783      		std Z+7,r19
 2347 1116 2683      		std Z+6,r18
 2348 1118 3187      		std Z+9,r19
 2349 111a 2087      		std Z+8,r18
GAS LISTING C:\DOCUME~1\ADMINI~1\LOCALS~1\Temp/ccZLgXoL.s 			page 43


 2350 111c 24E0      		ldi r18,lo8(4)
 2351 111e 30E0      		ldi r19,hi8(4)
 2352 1120 00C0      		rjmp .L167
 2353               	.L132:
 2354 1122 8FEF      		ldi r24,lo8(-1)
 2355 1124 9FEF      		ldi r25,hi8(-1)
 2356 1126 D601      		movw r26,r12
 2357 1128 1796      		adiw r26,6+1
 2358 112a 9C93      		st X,r25
 2359 112c 8E93      		st -X,r24
 2360 112e 1697      		sbiw r26,6
 2361 1130 1996      		adiw r26,8+1
 2362 1132 9C93      		st X,r25
 2363 1134 8E93      		st -X,r24
 2364 1136 1897      		sbiw r26,8
 2365 1138 81E0      		ldi r24,lo8(1)
 2366 113a 90E0      		ldi r25,hi8(1)
 2367 113c 00C0      		rjmp .L168
 2368               	.L175:
 2369 113e 8FEF      		ldi r24,lo8(-1)
 2370 1140 9FEF      		ldi r25,hi8(-1)
 2371 1142 F601      		movw r30,r12
 2372 1144 9783      		std Z+7,r25
 2373 1146 8683      		std Z+6,r24
 2374 1148 9187      		std Z+9,r25
 2375 114a 8087      		std Z+8,r24
 2376 114c 82E0      		ldi r24,lo8(2)
 2377 114e 90E0      		ldi r25,hi8(2)
 2378 1150 9183      		std Z+1,r25
 2379 1152 8083      		st Z,r24
 2380 1154 1382      		std Z+3,__zero_reg__
 2381 1156 1282      		std Z+2,__zero_reg__
 2382 1158 00C0      		rjmp .L130
 2383               	.L134:
 2384 115a 8FEF      		ldi r24,lo8(-1)
 2385 115c 9FEF      		ldi r25,hi8(-1)
 2386 115e D601      		movw r26,r12
 2387 1160 1796      		adiw r26,6+1
 2388 1162 9C93      		st X,r25
 2389 1164 8E93      		st -X,r24
 2390 1166 1697      		sbiw r26,6
 2391 1168 1996      		adiw r26,8+1
 2392 116a 9C93      		st X,r25
 2393 116c 8E93      		st -X,r24
 2394 116e 1897      		sbiw r26,8
 2395 1170 83E0      		ldi r24,lo8(3)
 2396 1172 90E0      		ldi r25,hi8(3)
 2397               	.L168:
 2398 1174 1196      		adiw r26,1
 2399 1176 9C93      		st X,r25
 2400 1178 8E93      		st -X,r24
 2401 117a 1396      		adiw r26,2+1
 2402 117c 1C92      		st X,__zero_reg__
 2403 117e 1E92      		st -X,__zero_reg__
 2404 1180 1297      		sbiw r26,2
 2405 1182 00C0      		rjmp .L130
 2406               	.L135:
GAS LISTING C:\DOCUME~1\ADMINI~1\LOCALS~1\Temp/ccZLgXoL.s 			page 44


 2407 1184 F501      		movw r30,r10
 2408 1186 0289      		ldd r16,Z+18
 2409 1188 1389      		ldd r17,Z+19
 2410 118a D801      		movw r26,r16
 2411 118c ED91      		ld r30,X+
 2412 118e FC91      		ld r31,X
 2413 1190 86A1      		ldd r24,Z+38
 2414 1192 8823      		tst r24
 2415 1194 01F4      		brne .L136
 2416 1196 C501      		movw r24,r10
 2417 1198 60E0      		ldi r22,lo8(.LC14)
 2418 119a 70E0      		ldi r23,hi8(.LC14)
 2419 119c 0E94 0000 		call luaX_syntaxerror
 2420               	.L136:
 2421 11a0 D801      		movw r26,r16
 2422 11a2 ED91      		ld r30,X+
 2423 11a4 FC91      		ld r31,X
 2424 11a6 86A1      		ldd r24,Z+38
 2425 11a8 8B7F      		andi r24,lo8(-5)
 2426 11aa 86A3      		std Z+38,r24
 2427 11ac C801      		movw r24,r16
 2428 11ae 65E2      		ldi r22,lo8(37)
 2429 11b0 70E0      		ldi r23,hi8(37)
 2430 11b2 40E0      		ldi r20,lo8(0)
 2431 11b4 50E0      		ldi r21,hi8(0)
 2432 11b6 21E0      		ldi r18,lo8(1)
 2433 11b8 30E0      		ldi r19,hi8(1)
 2434 11ba 00E0      		ldi r16,lo8(0)
 2435 11bc 10E0      		ldi r17,hi8(0)
 2436 11be 0E94 0000 		call luaK_codeABC
 2437 11c2 2FEF      		ldi r18,lo8(-1)
 2438 11c4 3FEF      		ldi r19,hi8(-1)
 2439 11c6 F601      		movw r30,r12
 2440 11c8 3783      		std Z+7,r19
 2441 11ca 2683      		std Z+6,r18
 2442 11cc 3187      		std Z+9,r19
 2443 11ce 2087      		std Z+8,r18
 2444 11d0 2EE0      		ldi r18,lo8(14)
 2445 11d2 30E0      		ldi r19,hi8(14)
 2446               	.L167:
 2447 11d4 3183      		std Z+1,r19
 2448 11d6 2083      		st Z,r18
 2449 11d8 9383      		std Z+3,r25
 2450 11da 8283      		std Z+2,r24
 2451 11dc 00C0      		rjmp .L130
 2452               	.L174:
 2453 11de C501      		movw r24,r10
 2454 11e0 B601      		movw r22,r12
 2455 11e2 0E94 0000 		call constructor
 2456 11e6 00C0      		rjmp .L128
 2457               	.L138:
 2458 11e8 C501      		movw r24,r10
 2459 11ea 0E94 0000 		call luaX_next
 2460 11ee D501      		movw r26,r10
 2461 11f0 1296      		adiw r26,2
 2462 11f2 2D91      		ld r18,X+
 2463 11f4 3C91      		ld r19,X
GAS LISTING C:\DOCUME~1\ADMINI~1\LOCALS~1\Temp/ccZLgXoL.s 			page 45


 2464 11f6 1397      		sbiw r26,2+1
 2465 11f8 C501      		movw r24,r10
 2466 11fa B601      		movw r22,r12
 2467 11fc 40E0      		ldi r20,lo8(0)
 2468 11fe 50E0      		ldi r21,hi8(0)
 2469 1200 0E94 0000 		call body
 2470 1204 00C0      		rjmp .L128
 2471               	.L139:
 2472 1206 C501      		movw r24,r10
 2473 1208 B601      		movw r22,r12
 2474 120a 0E94 0000 		call primaryexp
 2475 120e 00C0      		rjmp .L128
 2476               	.L130:
 2477 1210 C501      		movw r24,r10
 2478 1212 0E94 0000 		call luaX_next
 2479               	.L128:
 2480 1216 F501      		movw r30,r10
 2481 1218 8681      		ldd r24,Z+6
 2482 121a 9781      		ldd r25,Z+7
 2483 121c 8E35      		cpi r24,94
 2484 121e 9105      		cpc r25,__zero_reg__
 2485 1220 01F4      		brne .+2
 2486 1222 00C0      		rjmp .L148
 2487 1224 8F35      		cpi r24,95
 2488 1226 9105      		cpc r25,__zero_reg__
 2489 1228 04F4      		brge .L156
 2490 122a 8D32      		cpi r24,45
 2491 122c 9105      		cpc r25,__zero_reg__
 2492 122e 01F4      		brne .+2
 2493 1230 00C0      		rjmp .L144
 2494 1232 8E32      		cpi r24,46
 2495 1234 9105      		cpc r25,__zero_reg__
 2496 1236 04F4      		brge .L157
 2497 1238 8A32      		cpi r24,42
 2498 123a 9105      		cpc r25,__zero_reg__
 2499 123c 01F4      		brne .+2
 2500 123e 00C0      		rjmp .L142
 2501 1240 8B32      		cpi r24,43
 2502 1242 9105      		cpc r25,__zero_reg__
 2503 1244 01F0      		breq .L143
 2504 1246 8597      		sbiw r24,37
 2505 1248 01F0      		breq .+2
 2506 124a 00C0      		rjmp .L140
 2507 124c 00C0      		rjmp .L170
 2508               	.L157:
 2509 124e 8C33      		cpi r24,60
 2510 1250 9105      		cpc r25,__zero_reg__
 2511 1252 01F4      		brne .+2
 2512 1254 00C0      		rjmp .L146
 2513 1256 8E33      		cpi r24,62
 2514 1258 9105      		cpc r25,__zero_reg__
 2515 125a 01F4      		brne .+2
 2516 125c 00C0      		rjmp .L147
 2517 125e 8F97      		sbiw r24,47
 2518 1260 01F0      		breq .+2
 2519 1262 00C0      		rjmp .L140
 2520 1264 00C0      		rjmp .L171
GAS LISTING C:\DOCUME~1\ADMINI~1\LOCALS~1\Temp/ccZLgXoL.s 			page 46


 2521               	.L156:
 2522 1266 F1E0      		ldi r31,hi8(280)
 2523 1268 8831      		cpi r24,lo8(280)
 2524 126a 9F07      		cpc r25,r31
 2525 126c 01F4      		brne .+2
 2526 126e 00C0      		rjmp .L152
 2527 1270 21E0      		ldi r18,hi8(281)
 2528 1272 8931      		cpi r24,lo8(281)
 2529 1274 9207      		cpc r25,r18
 2530 1276 04F4      		brge .L158
 2531 1278 A1E0      		ldi r26,hi8(271)
 2532 127a 8F30      		cpi r24,lo8(271)
 2533 127c 9A07      		cpc r25,r26
 2534 127e 01F4      		brne .+2
 2535 1280 00C0      		rjmp .L150
 2536 1282 B1E0      		ldi r27,hi8(278)
 2537 1284 8631      		cpi r24,lo8(278)
 2538 1286 9B07      		cpc r25,r27
 2539 1288 01F0      		breq .L151
 2540 128a 8150      		subi r24,lo8(257)
 2541 128c 9140      		sbci r25,hi8(257)
 2542 128e 01F0      		breq .+2
 2543 1290 00C0      		rjmp .L140
 2544 1292 00C0      		rjmp .L172
 2545               	.L158:
 2546 1294 F1E0      		ldi r31,hi8(282)
 2547 1296 8A31      		cpi r24,lo8(282)
 2548 1298 9F07      		cpc r25,r31
 2549 129a 01F0      		breq .L154
 2550 129c 21E0      		ldi r18,hi8(282)
 2551 129e 8A31      		cpi r24,lo8(282)
 2552 12a0 9207      		cpc r25,r18
 2553 12a2 04F0      		brlt .L153
 2554 12a4 8B51      		subi r24,lo8(283)
 2555 12a6 9140      		sbci r25,hi8(283)
 2556 12a8 01F4      		brne .L140
 2557 12aa 00C0      		rjmp .L173
 2558               	.L144:
 2559 12ac 11E0      		ldi r17,lo8(1)
 2560 12ae E12E      		mov r14,r17
 2561 12b0 F12C      		mov r15,__zero_reg__
 2562 12b2 00C0      		rjmp .L159
 2563               	.L143:
 2564 12b4 EE24      		clr r14
 2565 12b6 FF24      		clr r15
 2566 12b8 00C0      		rjmp .L159
 2567               	.L142:
 2568 12ba B2E0      		ldi r27,lo8(2)
 2569 12bc EB2E      		mov r14,r27
 2570 12be F12C      		mov r15,__zero_reg__
 2571 12c0 00C0      		rjmp .L159
 2572               	.L171:
 2573 12c2 A3E0      		ldi r26,lo8(3)
 2574 12c4 EA2E      		mov r14,r26
 2575 12c6 F12C      		mov r15,__zero_reg__
 2576 12c8 00C0      		rjmp .L159
 2577               	.L170:
GAS LISTING C:\DOCUME~1\ADMINI~1\LOCALS~1\Temp/ccZLgXoL.s 			page 47


 2578 12ca F4E0      		ldi r31,lo8(4)
 2579 12cc EF2E      		mov r14,r31
 2580 12ce F12C      		mov r15,__zero_reg__
 2581 12d0 00C0      		rjmp .L159
 2582               	.L148:
 2583 12d2 E5E0      		ldi r30,lo8(5)
 2584 12d4 EE2E      		mov r14,r30
 2585 12d6 F12C      		mov r15,__zero_reg__
 2586 12d8 00C0      		rjmp .L159
 2587               	.L151:
 2588 12da 76E0      		ldi r23,lo8(6)
 2589 12dc E72E      		mov r14,r23
 2590 12de F12C      		mov r15,__zero_reg__
 2591 12e0 00C0      		rjmp .L159
 2592               	.L173:
 2593 12e2 67E0      		ldi r22,lo8(7)
 2594 12e4 E62E      		mov r14,r22
 2595 12e6 F12C      		mov r15,__zero_reg__
 2596 12e8 00C0      		rjmp .L159
 2597               	.L152:
 2598 12ea 58E0      		ldi r21,lo8(8)
 2599 12ec E52E      		mov r14,r21
 2600 12ee F12C      		mov r15,__zero_reg__
 2601 12f0 00C0      		rjmp .L159
 2602               	.L146:
 2603 12f2 49E0      		ldi r20,lo8(9)
 2604 12f4 E42E      		mov r14,r20
 2605 12f6 F12C      		mov r15,__zero_reg__
 2606 12f8 00C0      		rjmp .L159
 2607               	.L154:
 2608 12fa 3AE0      		ldi r19,lo8(10)
 2609 12fc E32E      		mov r14,r19
 2610 12fe F12C      		mov r15,__zero_reg__
 2611 1300 00C0      		rjmp .L159
 2612               	.L147:
 2613 1302 2BE0      		ldi r18,lo8(11)
 2614 1304 E22E      		mov r14,r18
 2615 1306 F12C      		mov r15,__zero_reg__
 2616 1308 00C0      		rjmp .L159
 2617               	.L153:
 2618 130a 9CE0      		ldi r25,lo8(12)
 2619 130c E92E      		mov r14,r25
 2620 130e F12C      		mov r15,__zero_reg__
 2621 1310 00C0      		rjmp .L159
 2622               	.L172:
 2623 1312 8DE0      		ldi r24,lo8(13)
 2624 1314 E82E      		mov r14,r24
 2625 1316 F12C      		mov r15,__zero_reg__
 2626 1318 00C0      		rjmp .L159
 2627               	.L150:
 2628 131a 0EE0      		ldi r16,lo8(14)
 2629 131c E02E      		mov r14,r16
 2630 131e F12C      		mov r15,__zero_reg__
 2631 1320 00C0      		rjmp .L159
 2632               	.L140:
 2633 1322 1FE0      		ldi r17,lo8(15)
 2634 1324 E12E      		mov r14,r17
GAS LISTING C:\DOCUME~1\ADMINI~1\LOCALS~1\Temp/ccZLgXoL.s 			page 48


 2635 1326 F12C      		mov r15,__zero_reg__
 2636 1328 00C0      		rjmp .L159
 2637               	.L161:
 2638 132a C501      		movw r24,r10
 2639 132c 0E94 0000 		call luaX_next
 2640 1330 F501      		movw r30,r10
 2641 1332 8289      		ldd r24,Z+18
 2642 1334 9389      		ldd r25,Z+19
 2643 1336 B701      		movw r22,r14
 2644 1338 A601      		movw r20,r12
 2645 133a 0E94 0000 		call luaK_infix
 2646 133e D801      		movw r26,r16
 2647 1340 1196      		adiw r26,1
 2648 1342 4C91      		ld r20,X
 2649 1344 C501      		movw r24,r10
 2650 1346 B401      		movw r22,r8
 2651 1348 50E0      		ldi r21,lo8(0)
 2652 134a 0E94 0000 		call subexpr
 2653 134e 182F      		mov r17,r24
 2654 1350 092F      		mov r16,r25
 2655 1352 F501      		movw r30,r10
 2656 1354 8289      		ldd r24,Z+18
 2657 1356 9389      		ldd r25,Z+19
 2658 1358 B701      		movw r22,r14
 2659 135a A601      		movw r20,r12
 2660 135c 9401      		movw r18,r8
 2661 135e 0E94 0000 		call luaK_posfix
 2662 1362 212F      		mov r18,r17
 2663 1364 302F      		mov r19,r16
 2664 1366 C901      		movw r24,r18
 2665 1368 7C01      		movw r14,r24
 2666 136a 00C0      		rjmp .L166
 2667               	.L159:
 2668 136c 4E01      		movw r8,r28
 2669 136e 0894      		sec
 2670 1370 811C      		adc r8,__zero_reg__
 2671 1372 911C      		adc r9,__zero_reg__
 2672               	.L166:
 2673 1374 FFE0      		ldi r31,lo8(15)
 2674 1376 EF16      		cp r14,r31
 2675 1378 F104      		cpc r15,__zero_reg__
 2676 137a 01F0      		breq .L160
 2677 137c 8701      		movw r16,r14
 2678 137e 000F      		lsl r16
 2679 1380 111F      		rol r17
 2680 1382 0050      		subi r16,lo8(-(priority))
 2681 1384 1040      		sbci r17,hi8(-(priority))
 2682 1386 D801      		movw r26,r16
 2683 1388 8C91      		ld r24,X
 2684 138a 90E0      		ldi r25,lo8(0)
 2685 138c 6816      		cp r6,r24
 2686 138e 7906      		cpc r7,r25
 2687 1390 00F0      		brlo .L161
 2688               	.L160:
 2689 1392 D501      		movw r26,r10
 2690 1394 5496      		adiw r26,20
 2691 1396 ED91      		ld r30,X+
GAS LISTING C:\DOCUME~1\ADMINI~1\LOCALS~1\Temp/ccZLgXoL.s 			page 49


 2692 1398 FC91      		ld r31,X
 2693 139a 5597      		sbiw r26,20+1
 2694 139c 838D      		ldd r24,Z+27
 2695 139e 948D      		ldd r25,Z+28
 2696 13a0 0197      		sbiw r24,1
 2697 13a2 948F      		std Z+28,r25
 2698 13a4 838F      		std Z+27,r24
 2699 13a6 C701      		movw r24,r14
 2700               	/* epilogue start */
 2701 13a8 2A96      		adiw r28,10
 2702 13aa 0FB6      		in __tmp_reg__,__SREG__
 2703 13ac F894      		cli
 2704 13ae DEBF      		out __SP_H__,r29
 2705 13b0 0FBE      		out __SREG__,__tmp_reg__
 2706 13b2 CDBF      		out __SP_L__,r28
 2707 13b4 CF91      		pop r28
 2708 13b6 DF91      		pop r29
 2709 13b8 1F91      		pop r17
 2710 13ba 0F91      		pop r16
 2711 13bc FF90      		pop r15
 2712 13be EF90      		pop r14
 2713 13c0 DF90      		pop r13
 2714 13c2 CF90      		pop r12
 2715 13c4 BF90      		pop r11
 2716 13c6 AF90      		pop r10
 2717 13c8 9F90      		pop r9
 2718 13ca 8F90      		pop r8
 2719 13cc 7F90      		pop r7
 2720 13ce 6F90      		pop r6
 2721 13d0 0895      		ret
 2722               	.L165:
 2723 13d2 B1E0      		ldi r27,hi8(269)
 2724 13d4 8D30      		cpi r24,lo8(269)
 2725 13d6 9B07      		cpc r25,r27
 2726 13d8 01F4      		brne .+2
 2727 13da 00C0      		rjmp .L132
 2728 13dc E1E0      		ldi r30,hi8(270)
 2729 13de 8E30      		cpi r24,lo8(270)
 2730 13e0 9E07      		cpc r25,r30
 2731 13e2 04F4      		brge .L162
 2732 13e4 F1E0      		ldi r31,hi8(263)
 2733 13e6 8730      		cpi r24,lo8(263)
 2734 13e8 9F07      		cpc r25,r31
 2735 13ea 01F4      		brne .+2
 2736 13ec 00C0      		rjmp .L134
 2737 13ee 21E0      		ldi r18,hi8(265)
 2738 13f0 8930      		cpi r24,lo8(265)
 2739 13f2 9207      		cpc r25,r18
 2740 13f4 01F4      		brne .+2
 2741 13f6 00C0      		rjmp .L138
 2742 13f8 8B37      		cpi r24,123
 2743 13fa 9105      		cpc r25,__zero_reg__
 2744 13fc 01F0      		breq .+2
 2745 13fe 00C0      		rjmp .L139
 2746 1400 00C0      		rjmp .L174
 2747               	.L162:
 2748 1402 A1E0      		ldi r26,hi8(279)
GAS LISTING C:\DOCUME~1\ADMINI~1\LOCALS~1\Temp/ccZLgXoL.s 			page 50


 2749 1404 8731      		cpi r24,lo8(279)
 2750 1406 9A07      		cpc r25,r26
 2751 1408 01F4      		brne .+2
 2752 140a 00C0      		rjmp .L135
 2753 140c B1E0      		ldi r27,hi8(280)
 2754 140e 8831      		cpi r24,lo8(280)
 2755 1410 9B07      		cpc r25,r27
 2756 1412 04F4      		brge .L163
 2757 1414 8351      		subi r24,lo8(275)
 2758 1416 9140      		sbci r25,hi8(275)
 2759 1418 01F0      		breq .+2
 2760 141a 00C0      		rjmp .L139
 2761 141c 00C0      		rjmp .L175
 2762               	.L163:
 2763 141e F1E0      		ldi r31,hi8(284)
 2764 1420 8C31      		cpi r24,lo8(284)
 2765 1422 9F07      		cpc r25,r31
 2766 1424 01F4      		brne .+2
 2767 1426 00C0      		rjmp .L129
 2768 1428 8E51      		subi r24,lo8(286)
 2769 142a 9140      		sbci r25,hi8(286)
 2770 142c 01F0      		breq .+2
 2771 142e 00C0      		rjmp .L139
 2772 1430 00C0      		rjmp .L176
 2773               		.size	subexpr, .-subexpr
 2774               		.type	cond, @function
 2775               	cond:
 2776 1432 0F93      		push r16
 2777 1434 1F93      		push r17
 2778 1436 DF93      		push r29
 2779 1438 CF93      		push r28
 2780 143a CDB7      		in r28,__SP_L__
 2781 143c DEB7      		in r29,__SP_H__
 2782 143e 2A97      		sbiw r28,10
 2783 1440 0FB6      		in __tmp_reg__,__SREG__
 2784 1442 F894      		cli
 2785 1444 DEBF      		out __SP_H__,r29
 2786 1446 0FBE      		out __SREG__,__tmp_reg__
 2787 1448 CDBF      		out __SP_L__,r28
 2788               	/* prologue: function */
 2789               	/* frame size = 10 */
 2790 144a 8C01      		movw r16,r24
 2791 144c BE01      		movw r22,r28
 2792 144e 6F5F      		subi r22,lo8(-(1))
 2793 1450 7F4F      		sbci r23,hi8(-(1))
 2794 1452 40E0      		ldi r20,lo8(0)
 2795 1454 50E0      		ldi r21,hi8(0)
 2796 1456 0E94 0000 		call subexpr
 2797 145a 8981      		ldd r24,Y+1
 2798 145c 9A81      		ldd r25,Y+2
 2799 145e 0197      		sbiw r24,1
 2800 1460 01F4      		brne .L178
 2801 1462 83E0      		ldi r24,lo8(3)
 2802 1464 90E0      		ldi r25,hi8(3)
 2803 1466 9A83      		std Y+2,r25
 2804 1468 8983      		std Y+1,r24
 2805               	.L178:
GAS LISTING C:\DOCUME~1\ADMINI~1\LOCALS~1\Temp/ccZLgXoL.s 			page 51


 2806 146a F801      		movw r30,r16
 2807 146c 8289      		ldd r24,Z+18
 2808 146e 9389      		ldd r25,Z+19
 2809 1470 BE01      		movw r22,r28
 2810 1472 6F5F      		subi r22,lo8(-(1))
 2811 1474 7F4F      		sbci r23,hi8(-(1))
 2812 1476 0E94 0000 		call luaK_goiftrue
 2813 147a 8985      		ldd r24,Y+9
 2814 147c 9A85      		ldd r25,Y+10
 2815               	/* epilogue start */
 2816 147e 2A96      		adiw r28,10
 2817 1480 0FB6      		in __tmp_reg__,__SREG__
 2818 1482 F894      		cli
 2819 1484 DEBF      		out __SP_H__,r29
 2820 1486 0FBE      		out __SREG__,__tmp_reg__
 2821 1488 CDBF      		out __SP_L__,r28
 2822 148a CF91      		pop r28
 2823 148c DF91      		pop r29
 2824 148e 1F91      		pop r17
 2825 1490 0F91      		pop r16
 2826 1492 0895      		ret
 2827               		.size	cond, .-cond
 2828               		.type	yindex, @function
 2829               	yindex:
 2830 1494 EF92      		push r14
 2831 1496 FF92      		push r15
 2832 1498 0F93      		push r16
 2833 149a 1F93      		push r17
 2834               	/* prologue: function */
 2835               	/* frame size = 0 */
 2836 149c 8C01      		movw r16,r24
 2837 149e 7B01      		movw r14,r22
 2838 14a0 0E94 0000 		call luaX_next
 2839 14a4 C801      		movw r24,r16
 2840 14a6 B701      		movw r22,r14
 2841 14a8 40E0      		ldi r20,lo8(0)
 2842 14aa 50E0      		ldi r21,hi8(0)
 2843 14ac 0E94 0000 		call subexpr
 2844 14b0 F801      		movw r30,r16
 2845 14b2 8289      		ldd r24,Z+18
 2846 14b4 9389      		ldd r25,Z+19
 2847 14b6 B701      		movw r22,r14
 2848 14b8 0E94 0000 		call luaK_exp2val
 2849 14bc C801      		movw r24,r16
 2850 14be 6DE5      		ldi r22,lo8(93)
 2851 14c0 70E0      		ldi r23,hi8(93)
 2852 14c2 0E94 0000 		call checknext
 2853               	/* epilogue start */
 2854 14c6 1F91      		pop r17
 2855 14c8 0F91      		pop r16
 2856 14ca FF90      		pop r15
 2857 14cc EF90      		pop r14
 2858 14ce 0895      		ret
 2859               		.size	yindex, .-yindex
 2860               		.data
 2861               	.LC15:
 2862 014b 6974 656D 		.string	"items in a constructor"
GAS LISTING C:\DOCUME~1\ADMINI~1\LOCALS~1\Temp/ccZLgXoL.s 			page 52


 2862      7320 696E 
 2862      2061 2063 
 2862      6F6E 7374 
 2862      7275 6374 
 2863               		.text
 2864               		.type	recfield, @function
 2865               	recfield:
 2866 14d0 6F92      		push r6
 2867 14d2 7F92      		push r7
 2868 14d4 8F92      		push r8
 2869 14d6 9F92      		push r9
 2870 14d8 AF92      		push r10
 2871 14da BF92      		push r11
 2872 14dc CF92      		push r12
 2873 14de DF92      		push r13
 2874 14e0 EF92      		push r14
 2875 14e2 FF92      		push r15
 2876 14e4 0F93      		push r16
 2877 14e6 1F93      		push r17
 2878 14e8 DF93      		push r29
 2879 14ea CF93      		push r28
 2880 14ec CDB7      		in r28,__SP_L__
 2881 14ee DEB7      		in r29,__SP_H__
 2882 14f0 6497      		sbiw r28,20
 2883 14f2 0FB6      		in __tmp_reg__,__SREG__
 2884 14f4 F894      		cli
 2885 14f6 DEBF      		out __SP_H__,r29
 2886 14f8 0FBE      		out __SREG__,__tmp_reg__
 2887 14fa CDBF      		out __SP_L__,r28
 2888               	/* prologue: function */
 2889               	/* frame size = 20 */
 2890 14fc 7C01      		movw r14,r24
 2891 14fe 4B01      		movw r8,r22
 2892 1500 DC01      		movw r26,r24
 2893 1502 5296      		adiw r26,18
 2894 1504 AD90      		ld r10,X+
 2895 1506 BC90      		ld r11,X
 2896 1508 5397      		sbiw r26,18+1
 2897 150a F501      		movw r30,r10
 2898 150c 6288      		ldd r6,Z+18
 2899 150e 7388      		ldd r7,Z+19
 2900 1510 1696      		adiw r26,6
 2901 1512 8D91      		ld r24,X+
 2902 1514 9C91      		ld r25,X
 2903 1516 1797      		sbiw r26,6+1
 2904 1518 8D51      		subi r24,lo8(285)
 2905 151a 9140      		sbci r25,hi8(285)
 2906 151c 01F4      		brne .L183
 2907 151e DB01      		movw r26,r22
 2908 1520 1C96      		adiw r26,12
 2909 1522 8D91      		ld r24,X+
 2910 1524 9C91      		ld r25,X
 2911 1526 1D97      		sbiw r26,12+1
 2912 1528 8E5F      		subi r24,lo8(32766)
 2913 152a 9F47      		sbci r25,hi8(32766)
 2914 152c 04F0      		brlt .L184
 2915 152e C501      		movw r24,r10
GAS LISTING C:\DOCUME~1\ADMINI~1\LOCALS~1\Temp/ccZLgXoL.s 			page 53


 2916 1530 6DEF      		ldi r22,lo8(32765)
 2917 1532 7FE7      		ldi r23,hi8(32765)
 2918 1534 40E0      		ldi r20,lo8(.LC15)
 2919 1536 50E0      		ldi r21,hi8(.LC15)
 2920 1538 0E94 0000 		call errorlimit
 2921               	.L184:
 2922 153c C701      		movw r24,r14
 2923 153e BE01      		movw r22,r28
 2924 1540 6F5F      		subi r22,lo8(-(1))
 2925 1542 7F4F      		sbci r23,hi8(-(1))
 2926 1544 0E94 0000 		call checkname
 2927 1548 00C0      		rjmp .L185
 2928               	.L183:
 2929 154a C701      		movw r24,r14
 2930 154c BE01      		movw r22,r28
 2931 154e 6F5F      		subi r22,lo8(-(1))
 2932 1550 7F4F      		sbci r23,hi8(-(1))
 2933 1552 0E94 0000 		call yindex
 2934               	.L185:
 2935 1556 F401      		movw r30,r8
 2936 1558 8485      		ldd r24,Z+12
 2937 155a 9585      		ldd r25,Z+13
 2938 155c 0196      		adiw r24,1
 2939 155e 9587      		std Z+13,r25
 2940 1560 8487      		std Z+12,r24
 2941 1562 C701      		movw r24,r14
 2942 1564 6DE3      		ldi r22,lo8(61)
 2943 1566 70E0      		ldi r23,hi8(61)
 2944 1568 0E94 0000 		call checknext
 2945 156c C501      		movw r24,r10
 2946 156e BE01      		movw r22,r28
 2947 1570 6F5F      		subi r22,lo8(-(1))
 2948 1572 7F4F      		sbci r23,hi8(-(1))
 2949 1574 0E94 0000 		call luaK_exp2RK
 2950 1578 6C01      		movw r12,r24
 2951 157a 8E01      		movw r16,r28
 2952 157c 055F      		subi r16,lo8(-(11))
 2953 157e 1F4F      		sbci r17,hi8(-(11))
 2954 1580 C701      		movw r24,r14
 2955 1582 B801      		movw r22,r16
 2956 1584 40E0      		ldi r20,lo8(0)
 2957 1586 50E0      		ldi r21,hi8(0)
 2958 1588 0E94 0000 		call subexpr
 2959 158c D401      		movw r26,r8
 2960 158e 1A96      		adiw r26,10
 2961 1590 ED91      		ld r30,X+
 2962 1592 FC91      		ld r31,X
 2963 1594 1B97      		sbiw r26,10+1
 2964 1596 E280      		ldd r14,Z+2
 2965 1598 F380      		ldd r15,Z+3
 2966 159a C501      		movw r24,r10
 2967 159c B801      		movw r22,r16
 2968 159e 0E94 0000 		call luaK_exp2RK
 2969 15a2 8C01      		movw r16,r24
 2970 15a4 C501      		movw r24,r10
 2971 15a6 69E0      		ldi r22,lo8(9)
 2972 15a8 70E0      		ldi r23,hi8(9)
GAS LISTING C:\DOCUME~1\ADMINI~1\LOCALS~1\Temp/ccZLgXoL.s 			page 54


 2973 15aa A701      		movw r20,r14
 2974 15ac 9601      		movw r18,r12
 2975 15ae 0E94 0000 		call luaK_codeABC
 2976 15b2 F501      		movw r30,r10
 2977 15b4 738A      		std Z+19,r7
 2978 15b6 628A      		std Z+18,r6
 2979               	/* epilogue start */
 2980 15b8 6496      		adiw r28,20
 2981 15ba 0FB6      		in __tmp_reg__,__SREG__
 2982 15bc F894      		cli
 2983 15be DEBF      		out __SP_H__,r29
 2984 15c0 0FBE      		out __SREG__,__tmp_reg__
 2985 15c2 CDBF      		out __SP_L__,r28
 2986 15c4 CF91      		pop r28
 2987 15c6 DF91      		pop r29
 2988 15c8 1F91      		pop r17
 2989 15ca 0F91      		pop r16
 2990 15cc FF90      		pop r15
 2991 15ce EF90      		pop r14
 2992 15d0 DF90      		pop r13
 2993 15d2 CF90      		pop r12
 2994 15d4 BF90      		pop r11
 2995 15d6 AF90      		pop r10
 2996 15d8 9F90      		pop r9
 2997 15da 8F90      		pop r8
 2998 15dc 7F90      		pop r7
 2999 15de 6F90      		pop r6
 3000 15e0 0895      		ret
 3001               		.size	recfield, .-recfield
 3002               		.type	listfield, @function
 3003               	listfield:
 3004 15e2 0F93      		push r16
 3005 15e4 1F93      		push r17
 3006 15e6 CF93      		push r28
 3007 15e8 DF93      		push r29
 3008               	/* prologue: function */
 3009               	/* frame size = 0 */
 3010 15ea 8C01      		movw r16,r24
 3011 15ec EB01      		movw r28,r22
 3012 15ee 40E0      		ldi r20,lo8(0)
 3013 15f0 50E0      		ldi r21,hi8(0)
 3014 15f2 0E94 0000 		call subexpr
 3015 15f6 8E85      		ldd r24,Y+14
 3016 15f8 9F85      		ldd r25,Y+15
 3017 15fa 8E5F      		subi r24,lo8(32766)
 3018 15fc 9F47      		sbci r25,hi8(32766)
 3019 15fe 04F0      		brlt .L188
 3020 1600 F801      		movw r30,r16
 3021 1602 8289      		ldd r24,Z+18
 3022 1604 9389      		ldd r25,Z+19
 3023 1606 6DEF      		ldi r22,lo8(32765)
 3024 1608 7FE7      		ldi r23,hi8(32765)
 3025 160a 40E0      		ldi r20,lo8(.LC15)
 3026 160c 50E0      		ldi r21,hi8(.LC15)
 3027 160e 0E94 0000 		call errorlimit
 3028               	.L188:
 3029 1612 8E85      		ldd r24,Y+14
GAS LISTING C:\DOCUME~1\ADMINI~1\LOCALS~1\Temp/ccZLgXoL.s 			page 55


 3030 1614 9F85      		ldd r25,Y+15
 3031 1616 0196      		adiw r24,1
 3032 1618 9F87      		std Y+15,r25
 3033 161a 8E87      		std Y+14,r24
 3034 161c 8889      		ldd r24,Y+16
 3035 161e 9989      		ldd r25,Y+17
 3036 1620 0196      		adiw r24,1
 3037 1622 998B      		std Y+17,r25
 3038 1624 888B      		std Y+16,r24
 3039               	/* epilogue start */
 3040 1626 DF91      		pop r29
 3041 1628 CF91      		pop r28
 3042 162a 1F91      		pop r17
 3043 162c 0F91      		pop r16
 3044 162e 0895      		ret
 3045               		.size	listfield, .-listfield
 3046               		.type	constructor, @function
 3047               	constructor:
 3048 1630 6F92      		push r6
 3049 1632 7F92      		push r7
 3050 1634 8F92      		push r8
 3051 1636 9F92      		push r9
 3052 1638 AF92      		push r10
 3053 163a BF92      		push r11
 3054 163c CF92      		push r12
 3055 163e DF92      		push r13
 3056 1640 EF92      		push r14
 3057 1642 FF92      		push r15
 3058 1644 0F93      		push r16
 3059 1646 1F93      		push r17
 3060 1648 DF93      		push r29
 3061 164a CF93      		push r28
 3062 164c CDB7      		in r28,__SP_L__
 3063 164e DEB7      		in r29,__SP_H__
 3064 1650 6297      		sbiw r28,18
 3065 1652 0FB6      		in __tmp_reg__,__SREG__
 3066 1654 F894      		cli
 3067 1656 DEBF      		out __SP_H__,r29
 3068 1658 0FBE      		out __SREG__,__tmp_reg__
 3069 165a CDBF      		out __SP_L__,r28
 3070               	/* prologue: function */
 3071               	/* frame size = 18 */
 3072 165c 6C01      		movw r12,r24
 3073 165e 7B01      		movw r14,r22
 3074 1660 DC01      		movw r26,r24
 3075 1662 5296      		adiw r26,18
 3076 1664 8D90      		ld r8,X+
 3077 1666 9C90      		ld r9,X
 3078 1668 5397      		sbiw r26,18+1
 3079 166a 1296      		adiw r26,2
 3080 166c 6D90      		ld r6,X+
 3081 166e 7C90      		ld r7,X
 3082 1670 1397      		sbiw r26,2+1
 3083 1672 C401      		movw r24,r8
 3084 1674 6AE0      		ldi r22,lo8(10)
 3085 1676 70E0      		ldi r23,hi8(10)
 3086 1678 40E0      		ldi r20,lo8(0)
GAS LISTING C:\DOCUME~1\ADMINI~1\LOCALS~1\Temp/ccZLgXoL.s 			page 56


 3087 167a 50E0      		ldi r21,hi8(0)
 3088 167c 20E0      		ldi r18,lo8(0)
 3089 167e 30E0      		ldi r19,hi8(0)
 3090 1680 00E0      		ldi r16,lo8(0)
 3091 1682 10E0      		ldi r17,hi8(0)
 3092 1684 0E94 0000 		call luaK_codeABC
 3093 1688 5C01      		movw r10,r24
 3094 168a 1A8A      		std Y+18,__zero_reg__
 3095 168c 198A      		std Y+17,__zero_reg__
 3096 168e 1E86      		std Y+14,__zero_reg__
 3097 1690 1D86      		std Y+13,__zero_reg__
 3098 1692 188A      		std Y+16,__zero_reg__
 3099 1694 1F86      		std Y+15,__zero_reg__
 3100 1696 FC86      		std Y+12,r15
 3101 1698 EB86      		std Y+11,r14
 3102 169a 2FEF      		ldi r18,lo8(-1)
 3103 169c 3FEF      		ldi r19,hi8(-1)
 3104 169e F701      		movw r30,r14
 3105 16a0 3783      		std Z+7,r19
 3106 16a2 2683      		std Z+6,r18
 3107 16a4 3187      		std Z+9,r19
 3108 16a6 2087      		std Z+8,r18
 3109 16a8 8BE0      		ldi r24,lo8(11)
 3110 16aa 90E0      		ldi r25,hi8(11)
 3111 16ac 9183      		std Z+1,r25
 3112 16ae 8083      		st Z,r24
 3113 16b0 B382      		std Z+3,r11
 3114 16b2 A282      		std Z+2,r10
 3115 16b4 3887      		std Y+8,r19
 3116 16b6 2F83      		std Y+7,r18
 3117 16b8 3A87      		std Y+10,r19
 3118 16ba 2987      		std Y+9,r18
 3119 16bc 1A82      		std Y+2,__zero_reg__
 3120 16be 1982      		std Y+1,__zero_reg__
 3121 16c0 1C82      		std Y+4,__zero_reg__
 3122 16c2 1B82      		std Y+3,__zero_reg__
 3123 16c4 D601      		movw r26,r12
 3124 16c6 5296      		adiw r26,18
 3125 16c8 8D91      		ld r24,X+
 3126 16ca 9C91      		ld r25,X
 3127 16cc 5397      		sbiw r26,18+1
 3128 16ce B701      		movw r22,r14
 3129 16d0 0E94 0000 		call luaK_exp2nextreg
 3130 16d4 C601      		movw r24,r12
 3131 16d6 6BE7      		ldi r22,lo8(123)
 3132 16d8 70E0      		ldi r23,hi8(123)
 3133 16da 0E94 0000 		call checknext
 3134 16de 8E01      		movw r16,r28
 3135 16e0 0F5F      		subi r16,lo8(-(1))
 3136 16e2 1F4F      		sbci r17,hi8(-(1))
 3137               	.L205:
 3138 16e4 F601      		movw r30,r12
 3139 16e6 8681      		ldd r24,Z+6
 3140 16e8 9781      		ldd r25,Z+7
 3141 16ea 8D37      		cpi r24,125
 3142 16ec 9105      		cpc r25,__zero_reg__
 3143 16ee 01F4      		brne .+2
GAS LISTING C:\DOCUME~1\ADMINI~1\LOCALS~1\Temp/ccZLgXoL.s 			page 57


 3144 16f0 00C0      		rjmp .L191
 3145 16f2 8981      		ldd r24,Y+1
 3146 16f4 9A81      		ldd r25,Y+2
 3147 16f6 892B      		or r24,r25
 3148 16f8 01F0      		breq .L192
 3149 16fa C401      		movw r24,r8
 3150 16fc B801      		movw r22,r16
 3151 16fe 0E94 0000 		call luaK_exp2nextreg
 3152 1702 1A82      		std Y+2,__zero_reg__
 3153 1704 1982      		std Y+1,__zero_reg__
 3154 1706 8989      		ldd r24,Y+17
 3155 1708 9A89      		ldd r25,Y+18
 3156 170a C297      		sbiw r24,50
 3157 170c 01F4      		brne .L192
 3158 170e EB85      		ldd r30,Y+11
 3159 1710 FC85      		ldd r31,Y+12
 3160 1712 6281      		ldd r22,Z+2
 3161 1714 7381      		ldd r23,Z+3
 3162 1716 4F85      		ldd r20,Y+15
 3163 1718 5889      		ldd r21,Y+16
 3164 171a C401      		movw r24,r8
 3165 171c 22E3      		ldi r18,lo8(50)
 3166 171e 30E0      		ldi r19,hi8(50)
 3167 1720 0E94 0000 		call luaK_setlist
 3168 1724 1A8A      		std Y+18,__zero_reg__
 3169 1726 198A      		std Y+17,__zero_reg__
 3170               	.L192:
 3171 1728 D601      		movw r26,r12
 3172 172a 1696      		adiw r26,6
 3173 172c 8D91      		ld r24,X+
 3174 172e 9C91      		ld r25,X
 3175 1730 1797      		sbiw r26,6+1
 3176 1732 8B35      		cpi r24,91
 3177 1734 9105      		cpc r25,__zero_reg__
 3178 1736 01F0      		breq .L194
 3179 1738 8D51      		subi r24,lo8(285)
 3180 173a 9140      		sbci r25,hi8(285)
 3181 173c 01F4      		brne .L204
 3182 173e C601      		movw r24,r12
 3183 1740 0E94 0000 		call luaX_lookahead
 3184 1744 F601      		movw r30,r12
 3185 1746 8485      		ldd r24,Z+12
 3186 1748 9585      		ldd r25,Z+13
 3187 174a CD97      		sbiw r24,61
 3188 174c 01F4      		brne .L204
 3189               	.L194:
 3190 174e C601      		movw r24,r12
 3191 1750 B801      		movw r22,r16
 3192 1752 0E94 0000 		call recfield
 3193 1756 00C0      		rjmp .L197
 3194               	.L204:
 3195 1758 C601      		movw r24,r12
 3196 175a B801      		movw r22,r16
 3197 175c 0E94 0000 		call listfield
 3198               	.L197:
 3199 1760 D601      		movw r26,r12
 3200 1762 1696      		adiw r26,6
GAS LISTING C:\DOCUME~1\ADMINI~1\LOCALS~1\Temp/ccZLgXoL.s 			page 58


 3201 1764 8D91      		ld r24,X+
 3202 1766 9C91      		ld r25,X
 3203 1768 1797      		sbiw r26,6+1
 3204 176a 8C32      		cpi r24,44
 3205 176c 9105      		cpc r25,__zero_reg__
 3206 176e 01F0      		breq .L206
 3207               	.L198:
 3208 1770 CB97      		sbiw r24,59
 3209 1772 01F4      		brne .L191
 3210               	.L206:
 3211 1774 C601      		movw r24,r12
 3212 1776 0E94 0000 		call luaX_next
 3213 177a 00C0      		rjmp .L205
 3214               	.L191:
 3215 177c C601      		movw r24,r12
 3216 177e 6DE7      		ldi r22,lo8(125)
 3217 1780 70E0      		ldi r23,hi8(125)
 3218 1782 4BE7      		ldi r20,lo8(123)
 3219 1784 50E0      		ldi r21,hi8(123)
 3220 1786 9301      		movw r18,r6
 3221 1788 0E94 0000 		call check_match
 3222 178c 8989      		ldd r24,Y+17
 3223 178e 9A89      		ldd r25,Y+18
 3224 1790 892B      		or r24,r25
 3225 1792 01F0      		breq .L200
 3226 1794 2981      		ldd r18,Y+1
 3227 1796 3A81      		ldd r19,Y+2
 3228 1798 C901      		movw r24,r18
 3229 179a 0D97      		sbiw r24,13
 3230 179c 0297      		sbiw r24,2
 3231 179e 00F4      		brsh .L201
 3232 17a0 C401      		movw r24,r8
 3233 17a2 BE01      		movw r22,r28
 3234 17a4 6F5F      		subi r22,lo8(-(1))
 3235 17a6 7F4F      		sbci r23,hi8(-(1))
 3236 17a8 4FEF      		ldi r20,lo8(-1)
 3237 17aa 5FEF      		ldi r21,hi8(-1)
 3238 17ac 0E94 0000 		call luaK_setreturns
 3239 17b0 EB85      		ldd r30,Y+11
 3240 17b2 FC85      		ldd r31,Y+12
 3241 17b4 6281      		ldd r22,Z+2
 3242 17b6 7381      		ldd r23,Z+3
 3243 17b8 4F85      		ldd r20,Y+15
 3244 17ba 5889      		ldd r21,Y+16
 3245 17bc C401      		movw r24,r8
 3246 17be 2FEF      		ldi r18,lo8(-1)
 3247 17c0 3FEF      		ldi r19,hi8(-1)
 3248 17c2 0E94 0000 		call luaK_setlist
 3249 17c6 8F85      		ldd r24,Y+15
 3250 17c8 9889      		ldd r25,Y+16
 3251 17ca 0197      		sbiw r24,1
 3252 17cc 988B      		std Y+16,r25
 3253 17ce 8F87      		std Y+15,r24
 3254 17d0 00C0      		rjmp .L200
 3255               	.L201:
 3256 17d2 232B      		or r18,r19
 3257 17d4 01F0      		breq .L202
GAS LISTING C:\DOCUME~1\ADMINI~1\LOCALS~1\Temp/ccZLgXoL.s 			page 59


 3258 17d6 C401      		movw r24,r8
 3259 17d8 BE01      		movw r22,r28
 3260 17da 6F5F      		subi r22,lo8(-(1))
 3261 17dc 7F4F      		sbci r23,hi8(-(1))
 3262 17de 0E94 0000 		call luaK_exp2nextreg
 3263               	.L202:
 3264 17e2 EB85      		ldd r30,Y+11
 3265 17e4 FC85      		ldd r31,Y+12
 3266 17e6 6281      		ldd r22,Z+2
 3267 17e8 7381      		ldd r23,Z+3
 3268 17ea 4F85      		ldd r20,Y+15
 3269 17ec 5889      		ldd r21,Y+16
 3270 17ee 2989      		ldd r18,Y+17
 3271 17f0 3A89      		ldd r19,Y+18
 3272 17f2 C401      		movw r24,r8
 3273 17f4 0E94 0000 		call luaK_setlist
 3274               	.L200:
 3275 17f8 AA0C      		lsl r10
 3276 17fa BB1C      		rol r11
 3277 17fc AA0C      		lsl r10
 3278 17fe BB1C      		rol r11
 3279 1800 D401      		movw r26,r8
 3280 1802 ED91      		ld r30,X+
 3281 1804 FC91      		ld r31,X
 3282 1806 C680      		ldd r12,Z+6
 3283 1808 D780      		ldd r13,Z+7
 3284 180a CA0C      		add r12,r10
 3285 180c DB1C      		adc r13,r11
 3286 180e F601      		movw r30,r12
 3287 1810 E080      		ld r14,Z
 3288 1812 F180      		ldd r15,Z+1
 3289 1814 0281      		ldd r16,Z+2
 3290 1816 1381      		ldd r17,Z+3
 3291 1818 8FEF      		ldi r24,lo8(8388607)
 3292 181a 9FEF      		ldi r25,hi8(8388607)
 3293 181c AFE7      		ldi r26,hlo8(8388607)
 3294 181e B0E0      		ldi r27,hhi8(8388607)
 3295 1820 E822      		and r14,r24
 3296 1822 F922      		and r15,r25
 3297 1824 0A23      		and r16,r26
 3298 1826 1B23      		and r17,r27
 3299 1828 8F85      		ldd r24,Y+15
 3300 182a 9889      		ldd r25,Y+16
 3301 182c 0E94 0000 		call luaO_int2fb
 3302 1830 AA27      		clr r26
 3303 1832 97FD      		sbrc r25,7
 3304 1834 A095      		com r26
 3305 1836 BA2F      		mov r27,r26
 3306 1838 37E1      		ldi r19,23
 3307 183a 880F      	1:	lsl r24
 3308 183c 991F      		rol r25
 3309 183e AA1F      		rol r26
 3310 1840 BB1F      		rol r27
 3311 1842 3A95      		dec r19
 3312 1844 01F4      		brne 1b
 3313 1846 8E29      		or r24,r14
 3314 1848 9F29      		or r25,r15
GAS LISTING C:\DOCUME~1\ADMINI~1\LOCALS~1\Temp/ccZLgXoL.s 			page 60


 3315 184a A02B      		or r26,r16
 3316 184c B12B      		or r27,r17
 3317 184e F601      		movw r30,r12
 3318 1850 8083      		st Z,r24
 3319 1852 9183      		std Z+1,r25
 3320 1854 A283      		std Z+2,r26
 3321 1856 B383      		std Z+3,r27
 3322 1858 D401      		movw r26,r8
 3323 185a ED91      		ld r30,X+
 3324 185c FC91      		ld r31,X
 3325 185e C680      		ldd r12,Z+6
 3326 1860 D780      		ldd r13,Z+7
 3327 1862 CA0C      		add r12,r10
 3328 1864 DB1C      		adc r13,r11
 3329 1866 F601      		movw r30,r12
 3330 1868 E080      		ld r14,Z
 3331 186a F180      		ldd r15,Z+1
 3332 186c 0281      		ldd r16,Z+2
 3333 186e 1381      		ldd r17,Z+3
 3334 1870 8FEF      		ldi r24,lo8(-8372225)
 3335 1872 9FE3      		ldi r25,hi8(-8372225)
 3336 1874 A0E8      		ldi r26,hlo8(-8372225)
 3337 1876 BFEF      		ldi r27,hhi8(-8372225)
 3338 1878 E822      		and r14,r24
 3339 187a F922      		and r15,r25
 3340 187c 0A23      		and r16,r26
 3341 187e 1B23      		and r17,r27
 3342 1880 8D85      		ldd r24,Y+13
 3343 1882 9E85      		ldd r25,Y+14
 3344 1884 0E94 0000 		call luaO_int2fb
 3345 1888 AA27      		clr r26
 3346 188a 97FD      		sbrc r25,7
 3347 188c A095      		com r26
 3348 188e BA2F      		mov r27,r26
 3349 1890 2EE0      		ldi r18,14
 3350 1892 880F      	1:	lsl r24
 3351 1894 991F      		rol r25
 3352 1896 AA1F      		rol r26
 3353 1898 BB1F      		rol r27
 3354 189a 2A95      		dec r18
 3355 189c 01F4      		brne 1b
 3356 189e 8070      		andi r24,lo8(8372224)
 3357 18a0 907C      		andi r25,hi8(8372224)
 3358 18a2 AF77      		andi r26,hlo8(8372224)
 3359 18a4 B070      		andi r27,hhi8(8372224)
 3360 18a6 8E29      		or r24,r14
 3361 18a8 9F29      		or r25,r15
 3362 18aa A02B      		or r26,r16
 3363 18ac B12B      		or r27,r17
 3364 18ae F601      		movw r30,r12
 3365 18b0 8083      		st Z,r24
 3366 18b2 9183      		std Z+1,r25
 3367 18b4 A283      		std Z+2,r26
 3368 18b6 B383      		std Z+3,r27
 3369               	/* epilogue start */
 3370 18b8 6296      		adiw r28,18
 3371 18ba 0FB6      		in __tmp_reg__,__SREG__
GAS LISTING C:\DOCUME~1\ADMINI~1\LOCALS~1\Temp/ccZLgXoL.s 			page 61


 3372 18bc F894      		cli
 3373 18be DEBF      		out __SP_H__,r29
 3374 18c0 0FBE      		out __SREG__,__tmp_reg__
 3375 18c2 CDBF      		out __SP_L__,r28
 3376 18c4 CF91      		pop r28
 3377 18c6 DF91      		pop r29
 3378 18c8 1F91      		pop r17
 3379 18ca 0F91      		pop r16
 3380 18cc FF90      		pop r15
 3381 18ce EF90      		pop r14
 3382 18d0 DF90      		pop r13
 3383 18d2 CF90      		pop r12
 3384 18d4 BF90      		pop r11
 3385 18d6 AF90      		pop r10
 3386 18d8 9F90      		pop r9
 3387 18da 8F90      		pop r8
 3388 18dc 7F90      		pop r7
 3389 18de 6F90      		pop r6
 3390 18e0 0895      		ret
 3391               		.size	constructor, .-constructor
 3392               		.type	explist1, @function
 3393               	explist1:
 3394 18e2 EF92      		push r14
 3395 18e4 FF92      		push r15
 3396 18e6 0F93      		push r16
 3397 18e8 1F93      		push r17
 3398 18ea CF93      		push r28
 3399 18ec DF93      		push r29
 3400               	/* prologue: function */
 3401               	/* frame size = 0 */
 3402 18ee EC01      		movw r28,r24
 3403 18f0 7B01      		movw r14,r22
 3404 18f2 40E0      		ldi r20,lo8(0)
 3405 18f4 50E0      		ldi r21,hi8(0)
 3406 18f6 0E94 0000 		call subexpr
 3407 18fa 01E0      		ldi r16,lo8(1)
 3408 18fc 10E0      		ldi r17,hi8(1)
 3409               	.L209:
 3410 18fe 8E81      		ldd r24,Y+6
 3411 1900 9F81      		ldd r25,Y+7
 3412 1902 8C97      		sbiw r24,44
 3413 1904 01F4      		brne .L208
 3414 1906 CE01      		movw r24,r28
 3415 1908 0E94 0000 		call luaX_next
 3416 190c 8A89      		ldd r24,Y+18
 3417 190e 9B89      		ldd r25,Y+19
 3418 1910 B701      		movw r22,r14
 3419 1912 0E94 0000 		call luaK_exp2nextreg
 3420 1916 CE01      		movw r24,r28
 3421 1918 B701      		movw r22,r14
 3422 191a 40E0      		ldi r20,lo8(0)
 3423 191c 50E0      		ldi r21,hi8(0)
 3424 191e 0E94 0000 		call subexpr
 3425 1922 0F5F      		subi r16,lo8(-(1))
 3426 1924 1F4F      		sbci r17,hi8(-(1))
 3427 1926 00C0      		rjmp .L209
 3428               	.L208:
GAS LISTING C:\DOCUME~1\ADMINI~1\LOCALS~1\Temp/ccZLgXoL.s 			page 62


 3429 1928 C801      		movw r24,r16
 3430               	/* epilogue start */
 3431 192a DF91      		pop r29
 3432 192c CF91      		pop r28
 3433 192e 1F91      		pop r17
 3434 1930 0F91      		pop r16
 3435 1932 FF90      		pop r15
 3436 1934 EF90      		pop r14
 3437 1936 0895      		ret
 3438               		.size	explist1, .-explist1
 3439               		.data
 3440               	.LC16:
 3441 0162 616D 6269 		.string	"ambiguous syntax (function call x new statement)"
 3441      6775 6F75 
 3441      7320 7379 
 3441      6E74 6178 
 3441      2028 6675 
 3442               	.LC17:
 3443 0193 6675 6E63 		.string	"function arguments expected"
 3443      7469 6F6E 
 3443      2061 7267 
 3443      756D 656E 
 3443      7473 2065 
 3444               		.text
 3445               		.type	funcargs, @function
 3446               	funcargs:
 3447 1938 8F92      		push r8
 3448 193a 9F92      		push r9
 3449 193c AF92      		push r10
 3450 193e BF92      		push r11
 3451 1940 CF92      		push r12
 3452 1942 DF92      		push r13
 3453 1944 EF92      		push r14
 3454 1946 FF92      		push r15
 3455 1948 0F93      		push r16
 3456 194a 1F93      		push r17
 3457 194c DF93      		push r29
 3458 194e CF93      		push r28
 3459 1950 CDB7      		in r28,__SP_L__
 3460 1952 DEB7      		in r29,__SP_H__
 3461 1954 2A97      		sbiw r28,10
 3462 1956 0FB6      		in __tmp_reg__,__SREG__
 3463 1958 F894      		cli
 3464 195a DEBF      		out __SP_H__,r29
 3465 195c 0FBE      		out __SREG__,__tmp_reg__
 3466 195e CDBF      		out __SP_L__,r28
 3467               	/* prologue: function */
 3468               	/* frame size = 10 */
 3469 1960 7C01      		movw r14,r24
 3470 1962 5B01      		movw r10,r22
 3471 1964 FC01      		movw r30,r24
 3472 1966 C288      		ldd r12,Z+18
 3473 1968 D388      		ldd r13,Z+19
 3474 196a 8280      		ldd r8,Z+2
 3475 196c 9380      		ldd r9,Z+3
 3476 196e 8681      		ldd r24,Z+6
 3477 1970 9781      		ldd r25,Z+7
GAS LISTING C:\DOCUME~1\ADMINI~1\LOCALS~1\Temp/ccZLgXoL.s 			page 63


 3478 1972 8B37      		cpi r24,123
 3479 1974 9105      		cpc r25,__zero_reg__
 3480 1976 01F0      		breq .L214
 3481 1978 F1E0      		ldi r31,hi8(286)
 3482 197a 8E31      		cpi r24,lo8(286)
 3483 197c 9F07      		cpc r25,r31
 3484 197e 01F0      		breq .L215
 3485 1980 8897      		sbiw r24,40
 3486 1982 01F0      		breq .+2
 3487 1984 00C0      		rjmp .L225
 3488 1986 F701      		movw r30,r14
 3489 1988 8481      		ldd r24,Z+4
 3490 198a 9581      		ldd r25,Z+5
 3491 198c 8816      		cp r8,r24
 3492 198e 9906      		cpc r9,r25
 3493 1990 01F0      		breq .L216
 3494 1992 C701      		movw r24,r14
 3495 1994 60E0      		ldi r22,lo8(.LC16)
 3496 1996 70E0      		ldi r23,hi8(.LC16)
 3497 1998 0E94 0000 		call luaX_syntaxerror
 3498               	.L216:
 3499 199c C701      		movw r24,r14
 3500 199e 0E94 0000 		call luaX_next
 3501 19a2 F701      		movw r30,r14
 3502 19a4 8681      		ldd r24,Z+6
 3503 19a6 9781      		ldd r25,Z+7
 3504 19a8 8997      		sbiw r24,41
 3505 19aa 01F4      		brne .L217
 3506 19ac 1A82      		std Y+2,__zero_reg__
 3507 19ae 1982      		std Y+1,__zero_reg__
 3508 19b0 00C0      		rjmp .L218
 3509               	.L217:
 3510 19b2 C701      		movw r24,r14
 3511 19b4 8E01      		movw r16,r28
 3512 19b6 0F5F      		subi r16,lo8(-(1))
 3513 19b8 1F4F      		sbci r17,hi8(-(1))
 3514 19ba B801      		movw r22,r16
 3515 19bc 0E94 0000 		call explist1
 3516 19c0 C601      		movw r24,r12
 3517 19c2 B801      		movw r22,r16
 3518 19c4 4FEF      		ldi r20,lo8(-1)
 3519 19c6 5FEF      		ldi r21,hi8(-1)
 3520 19c8 0E94 0000 		call luaK_setreturns
 3521               	.L218:
 3522 19cc C701      		movw r24,r14
 3523 19ce 69E2      		ldi r22,lo8(41)
 3524 19d0 70E0      		ldi r23,hi8(41)
 3525 19d2 48E2      		ldi r20,lo8(40)
 3526 19d4 50E0      		ldi r21,hi8(40)
 3527 19d6 9401      		movw r18,r8
 3528 19d8 0E94 0000 		call check_match
 3529 19dc 00C0      		rjmp .L219
 3530               	.L214:
 3531 19de C701      		movw r24,r14
 3532 19e0 BE01      		movw r22,r28
 3533 19e2 6F5F      		subi r22,lo8(-(1))
 3534 19e4 7F4F      		sbci r23,hi8(-(1))
GAS LISTING C:\DOCUME~1\ADMINI~1\LOCALS~1\Temp/ccZLgXoL.s 			page 64


 3535 19e6 0E94 0000 		call constructor
 3536 19ea 00C0      		rjmp .L219
 3537               	.L215:
 3538 19ec F701      		movw r30,r14
 3539 19ee 6085      		ldd r22,Z+8
 3540 19f0 7185      		ldd r23,Z+9
 3541 19f2 C601      		movw r24,r12
 3542 19f4 0E94 0000 		call luaK_stringK
 3543 19f8 2FEF      		ldi r18,lo8(-1)
 3544 19fa 3FEF      		ldi r19,hi8(-1)
 3545 19fc 3887      		std Y+8,r19
 3546 19fe 2F83      		std Y+7,r18
 3547 1a00 3A87      		std Y+10,r19
 3548 1a02 2987      		std Y+9,r18
 3549 1a04 24E0      		ldi r18,lo8(4)
 3550 1a06 30E0      		ldi r19,hi8(4)
 3551 1a08 3A83      		std Y+2,r19
 3552 1a0a 2983      		std Y+1,r18
 3553 1a0c 9C83      		std Y+4,r25
 3554 1a0e 8B83      		std Y+3,r24
 3555 1a10 C701      		movw r24,r14
 3556 1a12 0E94 0000 		call luaX_next
 3557 1a16 00C0      		rjmp .L219
 3558               	.L225:
 3559 1a18 C701      		movw r24,r14
 3560 1a1a 60E0      		ldi r22,lo8(.LC17)
 3561 1a1c 70E0      		ldi r23,hi8(.LC17)
 3562 1a1e 0E94 0000 		call luaX_syntaxerror
 3563 1a22 00C0      		rjmp .L224
 3564               	.L219:
 3565 1a24 F501      		movw r30,r10
 3566 1a26 E280      		ldd r14,Z+2
 3567 1a28 F380      		ldd r15,Z+3
 3568 1a2a 2981      		ldd r18,Y+1
 3569 1a2c 3A81      		ldd r19,Y+2
 3570 1a2e C901      		movw r24,r18
 3571 1a30 0D97      		sbiw r24,13
 3572 1a32 0297      		sbiw r24,2
 3573 1a34 00F4      		brsh .L221
 3574 1a36 2FEF      		ldi r18,lo8(-1)
 3575 1a38 3FEF      		ldi r19,hi8(-1)
 3576 1a3a 00C0      		rjmp .L222
 3577               	.L221:
 3578 1a3c 232B      		or r18,r19
 3579 1a3e 01F0      		breq .L223
 3580 1a40 C601      		movw r24,r12
 3581 1a42 BE01      		movw r22,r28
 3582 1a44 6F5F      		subi r22,lo8(-(1))
 3583 1a46 7F4F      		sbci r23,hi8(-(1))
 3584 1a48 0E94 0000 		call luaK_exp2nextreg
 3585               	.L223:
 3586 1a4c 9701      		movw r18,r14
 3587 1a4e 2095      		com r18
 3588 1a50 3095      		com r19
 3589 1a52 F601      		movw r30,r12
 3590 1a54 8289      		ldd r24,Z+18
 3591 1a56 9389      		ldd r25,Z+19
GAS LISTING C:\DOCUME~1\ADMINI~1\LOCALS~1\Temp/ccZLgXoL.s 			page 65


 3592 1a58 280F      		add r18,r24
 3593 1a5a 391F      		adc r19,r25
 3594               	.L222:
 3595 1a5c 2F5F      		subi r18,lo8(-(1))
 3596 1a5e 3F4F      		sbci r19,hi8(-(1))
 3597 1a60 C601      		movw r24,r12
 3598 1a62 6CE1      		ldi r22,lo8(28)
 3599 1a64 70E0      		ldi r23,hi8(28)
 3600 1a66 A701      		movw r20,r14
 3601 1a68 02E0      		ldi r16,lo8(2)
 3602 1a6a 10E0      		ldi r17,hi8(2)
 3603 1a6c 0E94 0000 		call luaK_codeABC
 3604 1a70 2FEF      		ldi r18,lo8(-1)
 3605 1a72 3FEF      		ldi r19,hi8(-1)
 3606 1a74 F501      		movw r30,r10
 3607 1a76 3783      		std Z+7,r19
 3608 1a78 2683      		std Z+6,r18
 3609 1a7a 3187      		std Z+9,r19
 3610 1a7c 2087      		std Z+8,r18
 3611 1a7e 2DE0      		ldi r18,lo8(13)
 3612 1a80 30E0      		ldi r19,hi8(13)
 3613 1a82 3183      		std Z+1,r19
 3614 1a84 2083      		st Z,r18
 3615 1a86 9383      		std Z+3,r25
 3616 1a88 8283      		std Z+2,r24
 3617 1a8a C601      		movw r24,r12
 3618 1a8c B401      		movw r22,r8
 3619 1a8e 0E94 0000 		call luaK_fixline
 3620 1a92 0894      		sec
 3621 1a94 E11C      		adc r14,__zero_reg__
 3622 1a96 F11C      		adc r15,__zero_reg__
 3623 1a98 F601      		movw r30,r12
 3624 1a9a F38A      		std Z+19,r15
 3625 1a9c E28A      		std Z+18,r14
 3626               	.L224:
 3627               	/* epilogue start */
 3628 1a9e 2A96      		adiw r28,10
 3629 1aa0 0FB6      		in __tmp_reg__,__SREG__
 3630 1aa2 F894      		cli
 3631 1aa4 DEBF      		out __SP_H__,r29
 3632 1aa6 0FBE      		out __SREG__,__tmp_reg__
 3633 1aa8 CDBF      		out __SP_L__,r28
 3634 1aaa CF91      		pop r28
 3635 1aac DF91      		pop r29
 3636 1aae 1F91      		pop r17
 3637 1ab0 0F91      		pop r16
 3638 1ab2 FF90      		pop r15
 3639 1ab4 EF90      		pop r14
 3640 1ab6 DF90      		pop r13
 3641 1ab8 CF90      		pop r12
 3642 1aba BF90      		pop r11
 3643 1abc AF90      		pop r10
 3644 1abe 9F90      		pop r9
 3645 1ac0 8F90      		pop r8
 3646 1ac2 0895      		ret
 3647               		.size	funcargs, .-funcargs
 3648               		.data
GAS LISTING C:\DOCUME~1\ADMINI~1\LOCALS~1\Temp/ccZLgXoL.s 			page 66


 3649               	.LC18:
 3650 01af 756E 6578 		.string	"unexpected symbol"
 3650      7065 6374 
 3650      6564 2073 
 3650      796D 626F 
 3650      6C00 
 3651               		.text
 3652               		.type	primaryexp, @function
 3653               	primaryexp:
 3654 1ac4 8F92      		push r8
 3655 1ac6 9F92      		push r9
 3656 1ac8 AF92      		push r10
 3657 1aca BF92      		push r11
 3658 1acc CF92      		push r12
 3659 1ace DF92      		push r13
 3660 1ad0 EF92      		push r14
 3661 1ad2 FF92      		push r15
 3662 1ad4 0F93      		push r16
 3663 1ad6 1F93      		push r17
 3664 1ad8 DF93      		push r29
 3665 1ada CF93      		push r28
 3666 1adc CDB7      		in r28,__SP_L__
 3667 1ade DEB7      		in r29,__SP_H__
 3668 1ae0 6497      		sbiw r28,20
 3669 1ae2 0FB6      		in __tmp_reg__,__SREG__
 3670 1ae4 F894      		cli
 3671 1ae6 DEBF      		out __SP_H__,r29
 3672 1ae8 0FBE      		out __SREG__,__tmp_reg__
 3673 1aea CDBF      		out __SP_L__,r28
 3674               	/* prologue: function */
 3675               	/* frame size = 20 */
 3676 1aec 7C01      		movw r14,r24
 3677 1aee 6B01      		movw r12,r22
 3678 1af0 FC01      		movw r30,r24
 3679 1af2 A288      		ldd r10,Z+18
 3680 1af4 B388      		ldd r11,Z+19
 3681 1af6 8681      		ldd r24,Z+6
 3682 1af8 9781      		ldd r25,Z+7
 3683 1afa 8832      		cpi r24,40
 3684 1afc 9105      		cpc r25,__zero_reg__
 3685 1afe 01F0      		breq .L228
 3686 1b00 8D51      		subi r24,lo8(285)
 3687 1b02 9140      		sbci r25,hi8(285)
 3688 1b04 01F4      		brne .L238
 3689 1b06 00C0      		rjmp .L242
 3690               	.L228:
 3691 1b08 F701      		movw r30,r14
 3692 1b0a 0281      		ldd r16,Z+2
 3693 1b0c 1381      		ldd r17,Z+3
 3694 1b0e C701      		movw r24,r14
 3695 1b10 0E94 0000 		call luaX_next
 3696 1b14 C701      		movw r24,r14
 3697 1b16 B601      		movw r22,r12
 3698 1b18 40E0      		ldi r20,lo8(0)
 3699 1b1a 50E0      		ldi r21,hi8(0)
 3700 1b1c 0E94 0000 		call subexpr
 3701 1b20 C701      		movw r24,r14
GAS LISTING C:\DOCUME~1\ADMINI~1\LOCALS~1\Temp/ccZLgXoL.s 			page 67


 3702 1b22 69E2      		ldi r22,lo8(41)
 3703 1b24 70E0      		ldi r23,hi8(41)
 3704 1b26 48E2      		ldi r20,lo8(40)
 3705 1b28 50E0      		ldi r21,hi8(40)
 3706 1b2a 9801      		movw r18,r16
 3707 1b2c 0E94 0000 		call check_match
 3708 1b30 F701      		movw r30,r14
 3709 1b32 8289      		ldd r24,Z+18
 3710 1b34 9389      		ldd r25,Z+19
 3711 1b36 B601      		movw r22,r12
 3712 1b38 0E94 0000 		call luaK_dischargevars
 3713 1b3c 00C0      		rjmp .L239
 3714               	.L242:
 3715 1b3e C701      		movw r24,r14
 3716 1b40 0E94 0000 		call singlevar
 3717 1b44 00C0      		rjmp .L239
 3718               	.L238:
 3719 1b46 C701      		movw r24,r14
 3720 1b48 60E0      		ldi r22,lo8(.LC18)
 3721 1b4a 70E0      		ldi r23,hi8(.LC18)
 3722 1b4c 0E94 0000 		call luaX_syntaxerror
 3723               	.L239:
 3724 1b50 5BE0      		ldi r21,lo8(11)
 3725 1b52 852E      		mov r8,r21
 3726 1b54 912C      		mov r9,__zero_reg__
 3727 1b56 8C0E      		add r8,r28
 3728 1b58 9D1E      		adc r9,r29
 3729 1b5a 8E01      		movw r16,r28
 3730 1b5c 0F5F      		subi r16,lo8(-(1))
 3731 1b5e 1F4F      		sbci r17,hi8(-(1))
 3732               	.L240:
 3733 1b60 F701      		movw r30,r14
 3734 1b62 8681      		ldd r24,Z+6
 3735 1b64 9781      		ldd r25,Z+7
 3736 1b66 8A33      		cpi r24,58
 3737 1b68 9105      		cpc r25,__zero_reg__
 3738 1b6a 01F0      		breq .L234
 3739 1b6c 8B33      		cpi r24,59
 3740 1b6e 9105      		cpc r25,__zero_reg__
 3741 1b70 04F4      		brge .L236
 3742 1b72 8832      		cpi r24,40
 3743 1b74 9105      		cpc r25,__zero_reg__
 3744 1b76 01F0      		breq .L232
 3745 1b78 8E97      		sbiw r24,46
 3746 1b7a 01F4      		brne .L237
 3747 1b7c 00C0      		rjmp .L243
 3748               	.L236:
 3749 1b7e 8B37      		cpi r24,123
 3750 1b80 9105      		cpc r25,__zero_reg__
 3751 1b82 01F0      		breq .L232
 3752 1b84 F1E0      		ldi r31,hi8(286)
 3753 1b86 8E31      		cpi r24,lo8(286)
 3754 1b88 9F07      		cpc r25,r31
 3755 1b8a 01F0      		breq .L232
 3756 1b8c 8B35      		cpi r24,91
 3757 1b8e 9105      		cpc r25,__zero_reg__
 3758 1b90 01F4      		brne .L237
GAS LISTING C:\DOCUME~1\ADMINI~1\LOCALS~1\Temp/ccZLgXoL.s 			page 68


 3759 1b92 00C0      		rjmp .L244
 3760               	.L243:
 3761 1b94 C701      		movw r24,r14
 3762 1b96 B601      		movw r22,r12
 3763 1b98 0E94 0000 		call field
 3764 1b9c 00C0      		rjmp .L240
 3765               	.L244:
 3766 1b9e C501      		movw r24,r10
 3767 1ba0 B601      		movw r22,r12
 3768 1ba2 0E94 0000 		call luaK_exp2anyreg
 3769 1ba6 C701      		movw r24,r14
 3770 1ba8 B801      		movw r22,r16
 3771 1baa 0E94 0000 		call yindex
 3772 1bae C501      		movw r24,r10
 3773 1bb0 B601      		movw r22,r12
 3774 1bb2 A801      		movw r20,r16
 3775 1bb4 0E94 0000 		call luaK_indexed
 3776 1bb8 00C0      		rjmp .L240
 3777               	.L234:
 3778 1bba C701      		movw r24,r14
 3779 1bbc 0E94 0000 		call luaX_next
 3780 1bc0 C701      		movw r24,r14
 3781 1bc2 B401      		movw r22,r8
 3782 1bc4 0E94 0000 		call checkname
 3783 1bc8 C501      		movw r24,r10
 3784 1bca B601      		movw r22,r12
 3785 1bcc A401      		movw r20,r8
 3786 1bce 0E94 0000 		call luaK_self
 3787 1bd2 00C0      		rjmp .L241
 3788               	.L232:
 3789 1bd4 C501      		movw r24,r10
 3790 1bd6 B601      		movw r22,r12
 3791 1bd8 0E94 0000 		call luaK_exp2nextreg
 3792               	.L241:
 3793 1bdc C701      		movw r24,r14
 3794 1bde B601      		movw r22,r12
 3795 1be0 0E94 0000 		call funcargs
 3796 1be4 00C0      		rjmp .L240
 3797               	.L237:
 3798               	/* epilogue start */
 3799 1be6 6496      		adiw r28,20
 3800 1be8 0FB6      		in __tmp_reg__,__SREG__
 3801 1bea F894      		cli
 3802 1bec DEBF      		out __SP_H__,r29
 3803 1bee 0FBE      		out __SREG__,__tmp_reg__
 3804 1bf0 CDBF      		out __SP_L__,r28
 3805 1bf2 CF91      		pop r28
 3806 1bf4 DF91      		pop r29
 3807 1bf6 1F91      		pop r17
 3808 1bf8 0F91      		pop r16
 3809 1bfa FF90      		pop r15
 3810 1bfc EF90      		pop r14
 3811 1bfe DF90      		pop r13
 3812 1c00 CF90      		pop r12
 3813 1c02 BF90      		pop r11
 3814 1c04 AF90      		pop r10
 3815 1c06 9F90      		pop r9
GAS LISTING C:\DOCUME~1\ADMINI~1\LOCALS~1\Temp/ccZLgXoL.s 			page 69


 3816 1c08 8F90      		pop r8
 3817 1c0a 0895      		ret
 3818               		.size	primaryexp, .-primaryexp
 3819               		.data
 3820               	.LC19:
 3821 01c1 7379 6E74 		.string	"syntax error"
 3821      6178 2065 
 3821      7272 6F72 
 3821      00
 3822               	.LC20:
 3823 01ce 7661 7269 		.string	"variables in assignment"
 3823      6162 6C65 
 3823      7320 696E 
 3823      2061 7373 
 3823      6967 6E6D 
 3824               		.text
 3825               		.type	assignment, @function
 3826               	assignment:
 3827 1c0c 8F92      		push r8
 3828 1c0e 9F92      		push r9
 3829 1c10 AF92      		push r10
 3830 1c12 BF92      		push r11
 3831 1c14 CF92      		push r12
 3832 1c16 DF92      		push r13
 3833 1c18 EF92      		push r14
 3834 1c1a FF92      		push r15
 3835 1c1c 0F93      		push r16
 3836 1c1e 1F93      		push r17
 3837 1c20 DF93      		push r29
 3838 1c22 CF93      		push r28
 3839 1c24 CDB7      		in r28,__SP_L__
 3840 1c26 DEB7      		in r29,__SP_H__
 3841 1c28 6697      		sbiw r28,22
 3842 1c2a 0FB6      		in __tmp_reg__,__SREG__
 3843 1c2c F894      		cli
 3844 1c2e DEBF      		out __SP_H__,r29
 3845 1c30 0FBE      		out __SREG__,__tmp_reg__
 3846 1c32 CDBF      		out __SP_L__,r28
 3847               	/* prologue: function */
 3848               	/* frame size = 22 */
 3849 1c34 7C01      		movw r14,r24
 3850 1c36 4B01      		movw r8,r22
 3851 1c38 6A01      		movw r12,r20
 3852 1c3a DB01      		movw r26,r22
 3853 1c3c 1296      		adiw r26,2
 3854 1c3e 8D91      		ld r24,X+
 3855 1c40 9C91      		ld r25,X
 3856 1c42 1397      		sbiw r26,2+1
 3857 1c44 0697      		sbiw r24,6
 3858 1c46 0497      		sbiw r24,4
 3859 1c48 00F0      		brlo .L246
 3860 1c4a C701      		movw r24,r14
 3861 1c4c 60E0      		ldi r22,lo8(.LC19)
 3862 1c4e 70E0      		ldi r23,hi8(.LC19)
 3863 1c50 0E94 0000 		call luaX_syntaxerror
 3864               	.L246:
 3865 1c54 F701      		movw r30,r14
GAS LISTING C:\DOCUME~1\ADMINI~1\LOCALS~1\Temp/ccZLgXoL.s 			page 70


 3866 1c56 8681      		ldd r24,Z+6
 3867 1c58 9781      		ldd r25,Z+7
 3868 1c5a 8C97      		sbiw r24,44
 3869 1c5c 01F4      		brne .L247
 3870 1c5e C701      		movw r24,r14
 3871 1c60 0E94 0000 		call luaX_next
 3872 1c64 9C86      		std Y+12,r9
 3873 1c66 8B86      		std Y+11,r8
 3874 1c68 C701      		movw r24,r14
 3875 1c6a BE01      		movw r22,r28
 3876 1c6c 635F      		subi r22,lo8(-(13))
 3877 1c6e 7F4F      		sbci r23,hi8(-(13))
 3878 1c70 0E94 0000 		call primaryexp
 3879 1c74 8D85      		ldd r24,Y+13
 3880 1c76 9E85      		ldd r25,Y+14
 3881 1c78 0697      		sbiw r24,6
 3882 1c7a 01F0      		breq .+2
 3883 1c7c 00C0      		rjmp .L249
 3884 1c7e 00C0      		rjmp .L262
 3885               	.L247:
 3886 1c80 C701      		movw r24,r14
 3887 1c82 6DE3      		ldi r22,lo8(61)
 3888 1c84 70E0      		ldi r23,hi8(61)
 3889 1c86 0E94 0000 		call checknext
 3890 1c8a C701      		movw r24,r14
 3891 1c8c 5E01      		movw r10,r28
 3892 1c8e 0894      		sec
 3893 1c90 A11C      		adc r10,__zero_reg__
 3894 1c92 B11C      		adc r11,__zero_reg__
 3895 1c94 B501      		movw r22,r10
 3896 1c96 0E94 0000 		call explist1
 3897 1c9a 8C01      		movw r16,r24
 3898 1c9c 8C15      		cp r24,r12
 3899 1c9e 9D05      		cpc r25,r13
 3900 1ca0 01F0      		breq .+2
 3901 1ca2 00C0      		rjmp .L250
 3902 1ca4 00C0      		rjmp .L263
 3903               	.L262:
 3904 1ca6 D701      		movw r26,r14
 3905 1ca8 5296      		adiw r26,18
 3906 1caa AD90      		ld r10,X+
 3907 1cac BC90      		ld r11,X
 3908 1cae 5397      		sbiw r26,18+1
 3909 1cb0 F501      		movw r30,r10
 3910 1cb2 4289      		ldd r20,Z+18
 3911 1cb4 5389      		ldd r21,Z+19
 3912 1cb6 F401      		movw r30,r8
 3913 1cb8 60E0      		ldi r22,lo8(0)
 3914 1cba 70E0      		ldi r23,hi8(0)
 3915 1cbc 00C0      		rjmp .L252
 3916               	.L255:
 3917 1cbe 8281      		ldd r24,Z+2
 3918 1cc0 9381      		ldd r25,Z+3
 3919 1cc2 0997      		sbiw r24,9
 3920 1cc4 01F4      		brne .L253
 3921 1cc6 2481      		ldd r18,Z+4
 3922 1cc8 3581      		ldd r19,Z+5
GAS LISTING C:\DOCUME~1\ADMINI~1\LOCALS~1\Temp/ccZLgXoL.s 			page 71


 3923 1cca 8F85      		ldd r24,Y+15
 3924 1ccc 9889      		ldd r25,Y+16
 3925 1cce 2817      		cp r18,r24
 3926 1cd0 3907      		cpc r19,r25
 3927 1cd2 01F4      		brne .L254
 3928 1cd4 5583      		std Z+5,r21
 3929 1cd6 4483      		std Z+4,r20
 3930 1cd8 61E0      		ldi r22,lo8(1)
 3931 1cda 70E0      		ldi r23,hi8(1)
 3932               	.L254:
 3933 1cdc 2681      		ldd r18,Z+6
 3934 1cde 3781      		ldd r19,Z+7
 3935 1ce0 8F85      		ldd r24,Y+15
 3936 1ce2 9889      		ldd r25,Y+16
 3937 1ce4 2817      		cp r18,r24
 3938 1ce6 3907      		cpc r19,r25
 3939 1ce8 01F4      		brne .L253
 3940 1cea 5783      		std Z+7,r21
 3941 1cec 4683      		std Z+6,r20
 3942 1cee 61E0      		ldi r22,lo8(1)
 3943 1cf0 70E0      		ldi r23,hi8(1)
 3944               	.L253:
 3945 1cf2 0190      		ld __tmp_reg__,Z+
 3946 1cf4 F081      		ld r31,Z
 3947 1cf6 E02D      		mov r30,__tmp_reg__
 3948               	.L252:
 3949 1cf8 3097      		sbiw r30,0
 3950 1cfa 01F4      		brne .L255
 3951 1cfc 672B      		or r22,r23
 3952 1cfe 01F0      		breq .L249
 3953 1d00 2F85      		ldd r18,Y+15
 3954 1d02 3889      		ldd r19,Y+16
 3955 1d04 C501      		movw r24,r10
 3956 1d06 60E0      		ldi r22,lo8(0)
 3957 1d08 70E0      		ldi r23,hi8(0)
 3958 1d0a 00E0      		ldi r16,lo8(0)
 3959 1d0c 10E0      		ldi r17,hi8(0)
 3960 1d0e 0E94 0000 		call luaK_codeABC
 3961 1d12 C501      		movw r24,r10
 3962 1d14 61E0      		ldi r22,lo8(1)
 3963 1d16 70E0      		ldi r23,hi8(1)
 3964 1d18 0E94 0000 		call luaK_reserveregs
 3965               	.L249:
 3966 1d1c D701      		movw r26,r14
 3967 1d1e 5496      		adiw r26,20
 3968 1d20 ED91      		ld r30,X+
 3969 1d22 FC91      		ld r31,X
 3970 1d24 5597      		sbiw r26,20+1
 3971 1d26 68EC      		ldi r22,lo8(200)
 3972 1d28 70E0      		ldi r23,hi8(200)
 3973 1d2a 838D      		ldd r24,Z+27
 3974 1d2c 948D      		ldd r25,Z+28
 3975 1d2e 681B      		sub r22,r24
 3976 1d30 790B      		sbc r23,r25
 3977 1d32 6C15      		cp r22,r12
 3978 1d34 7D05      		cpc r23,r13
 3979 1d36 00F4      		brsh .L256
GAS LISTING C:\DOCUME~1\ADMINI~1\LOCALS~1\Temp/ccZLgXoL.s 			page 72


 3980 1d38 5296      		adiw r26,18
 3981 1d3a 8D91      		ld r24,X+
 3982 1d3c 9C91      		ld r25,X
 3983 1d3e 5397      		sbiw r26,18+1
 3984 1d40 40E0      		ldi r20,lo8(.LC20)
 3985 1d42 50E0      		ldi r21,hi8(.LC20)
 3986 1d44 0E94 0000 		call errorlimit
 3987               	.L256:
 3988 1d48 0894      		sec
 3989 1d4a C11C      		adc r12,__zero_reg__
 3990 1d4c D11C      		adc r13,__zero_reg__
 3991 1d4e C701      		movw r24,r14
 3992 1d50 BE01      		movw r22,r28
 3993 1d52 655F      		subi r22,lo8(-(11))
 3994 1d54 7F4F      		sbci r23,hi8(-(11))
 3995 1d56 A601      		movw r20,r12
 3996 1d58 0E94 0000 		call assignment
 3997 1d5c 00C0      		rjmp .L257
 3998               	.L250:
 3999 1d5e C701      		movw r24,r14
 4000 1d60 B601      		movw r22,r12
 4001 1d62 A801      		movw r20,r16
 4002 1d64 9501      		movw r18,r10
 4003 1d66 0E94 0000 		call adjust_assign
 4004 1d6a C016      		cp r12,r16
 4005 1d6c D106      		cpc r13,r17
 4006 1d6e 04F4      		brge .L257
 4007 1d70 D701      		movw r26,r14
 4008 1d72 5296      		adiw r26,18
 4009 1d74 ED91      		ld r30,X+
 4010 1d76 FC91      		ld r31,X
 4011 1d78 5397      		sbiw r26,18+1
 4012 1d7a 8289      		ldd r24,Z+18
 4013 1d7c 9389      		ldd r25,Z+19
 4014 1d7e C80E      		add r12,r24
 4015 1d80 D91E      		adc r13,r25
 4016 1d82 C01A      		sub r12,r16
 4017 1d84 D10A      		sbc r13,r17
 4018 1d86 D38A      		std Z+19,r13
 4019 1d88 C28A      		std Z+18,r12
 4020 1d8a 00C0      		rjmp .L257
 4021               	.L263:
 4022 1d8c F701      		movw r30,r14
 4023 1d8e 8289      		ldd r24,Z+18
 4024 1d90 9389      		ldd r25,Z+19
 4025 1d92 B501      		movw r22,r10
 4026 1d94 0E94 0000 		call luaK_setoneret
 4027 1d98 82E0      		ldi r24,lo8(2)
 4028 1d9a 90E0      		ldi r25,hi8(2)
 4029 1d9c 880E      		add r8,r24
 4030 1d9e 991E      		adc r9,r25
 4031 1da0 D701      		movw r26,r14
 4032 1da2 5296      		adiw r26,18
 4033 1da4 8D91      		ld r24,X+
 4034 1da6 9C91      		ld r25,X
 4035 1da8 5397      		sbiw r26,18+1
 4036 1daa B401      		movw r22,r8
GAS LISTING C:\DOCUME~1\ADMINI~1\LOCALS~1\Temp/ccZLgXoL.s 			page 73


 4037 1dac A501      		movw r20,r10
 4038 1dae 00C0      		rjmp .L261
 4039               	.L257:
 4040 1db0 D701      		movw r26,r14
 4041 1db2 5296      		adiw r26,18
 4042 1db4 ED91      		ld r30,X+
 4043 1db6 FC91      		ld r31,X
 4044 1db8 5397      		sbiw r26,18+1
 4045 1dba 2289      		ldd r18,Z+18
 4046 1dbc 3389      		ldd r19,Z+19
 4047 1dbe 2150      		subi r18,lo8(-(-1))
 4048 1dc0 3040      		sbci r19,hi8(-(-1))
 4049 1dc2 8FEF      		ldi r24,lo8(-1)
 4050 1dc4 9FEF      		ldi r25,hi8(-1)
 4051 1dc6 9887      		std Y+8,r25
 4052 1dc8 8F83      		std Y+7,r24
 4053 1dca 9A87      		std Y+10,r25
 4054 1dcc 8987      		std Y+9,r24
 4055 1dce 8CE0      		ldi r24,lo8(12)
 4056 1dd0 90E0      		ldi r25,hi8(12)
 4057 1dd2 9A83      		std Y+2,r25
 4058 1dd4 8983      		std Y+1,r24
 4059 1dd6 3C83      		std Y+4,r19
 4060 1dd8 2B83      		std Y+3,r18
 4061 1dda 82E0      		ldi r24,lo8(2)
 4062 1ddc 90E0      		ldi r25,hi8(2)
 4063 1dde 880E      		add r8,r24
 4064 1de0 991E      		adc r9,r25
 4065 1de2 CF01      		movw r24,r30
 4066 1de4 B401      		movw r22,r8
 4067 1de6 AE01      		movw r20,r28
 4068 1de8 4F5F      		subi r20,lo8(-(1))
 4069 1dea 5F4F      		sbci r21,hi8(-(1))
 4070               	.L261:
 4071 1dec 0E94 0000 		call luaK_storevar
 4072               	/* epilogue start */
 4073 1df0 6696      		adiw r28,22
 4074 1df2 0FB6      		in __tmp_reg__,__SREG__
 4075 1df4 F894      		cli
 4076 1df6 DEBF      		out __SP_H__,r29
 4077 1df8 0FBE      		out __SREG__,__tmp_reg__
 4078 1dfa CDBF      		out __SP_L__,r28
 4079 1dfc CF91      		pop r28
 4080 1dfe DF91      		pop r29
 4081 1e00 1F91      		pop r17
 4082 1e02 0F91      		pop r16
 4083 1e04 FF90      		pop r15
 4084 1e06 EF90      		pop r14
 4085 1e08 DF90      		pop r13
 4086 1e0a CF90      		pop r12
 4087 1e0c BF90      		pop r11
 4088 1e0e AF90      		pop r10
 4089 1e10 9F90      		pop r9
 4090 1e12 8F90      		pop r8
 4091 1e14 0895      		ret
 4092               		.size	assignment, .-assignment
 4093               		.type	exp1, @function
GAS LISTING C:\DOCUME~1\ADMINI~1\LOCALS~1\Temp/ccZLgXoL.s 			page 74


 4094               	exp1:
 4095 1e16 CF92      		push r12
 4096 1e18 DF92      		push r13
 4097 1e1a EF92      		push r14
 4098 1e1c FF92      		push r15
 4099 1e1e 0F93      		push r16
 4100 1e20 1F93      		push r17
 4101 1e22 DF93      		push r29
 4102 1e24 CF93      		push r28
 4103 1e26 CDB7      		in r28,__SP_L__
 4104 1e28 DEB7      		in r29,__SP_H__
 4105 1e2a 2A97      		sbiw r28,10
 4106 1e2c 0FB6      		in __tmp_reg__,__SREG__
 4107 1e2e F894      		cli
 4108 1e30 DEBF      		out __SP_H__,r29
 4109 1e32 0FBE      		out __SREG__,__tmp_reg__
 4110 1e34 CDBF      		out __SP_L__,r28
 4111               	/* prologue: function */
 4112               	/* frame size = 10 */
 4113 1e36 7C01      		movw r14,r24
 4114 1e38 8E01      		movw r16,r28
 4115 1e3a 0F5F      		subi r16,lo8(-(1))
 4116 1e3c 1F4F      		sbci r17,hi8(-(1))
 4117 1e3e B801      		movw r22,r16
 4118 1e40 40E0      		ldi r20,lo8(0)
 4119 1e42 50E0      		ldi r21,hi8(0)
 4120 1e44 0E94 0000 		call subexpr
 4121 1e48 D980      		ldd r13,Y+1
 4122 1e4a CA80      		ldd r12,Y+2
 4123 1e4c F701      		movw r30,r14
 4124 1e4e 8289      		ldd r24,Z+18
 4125 1e50 9389      		ldd r25,Z+19
 4126 1e52 B801      		movw r22,r16
 4127 1e54 0E94 0000 		call luaK_exp2nextreg
 4128 1e58 8D2D      		mov r24,r13
 4129 1e5a 9C2D      		mov r25,r12
 4130               	/* epilogue start */
 4131 1e5c 2A96      		adiw r28,10
 4132 1e5e 0FB6      		in __tmp_reg__,__SREG__
 4133 1e60 F894      		cli
 4134 1e62 DEBF      		out __SP_H__,r29
 4135 1e64 0FBE      		out __SREG__,__tmp_reg__
 4136 1e66 CDBF      		out __SP_L__,r28
 4137 1e68 CF91      		pop r28
 4138 1e6a DF91      		pop r29
 4139 1e6c 1F91      		pop r17
 4140 1e6e 0F91      		pop r16
 4141 1e70 FF90      		pop r15
 4142 1e72 EF90      		pop r14
 4143 1e74 DF90      		pop r13
 4144 1e76 CF90      		pop r12
 4145 1e78 0895      		ret
 4146               		.size	exp1, .-exp1
 4147               		.data
 4148               	.LC21:
 4149 01e6 2866 6F72 		.string	"(for index)"
 4149      2069 6E64 
GAS LISTING C:\DOCUME~1\ADMINI~1\LOCALS~1\Temp/ccZLgXoL.s 			page 75


 4149      6578 2900 
 4150               	.LC22:
 4151 01f2 2866 6F72 		.string	"(for limit)"
 4151      206C 696D 
 4151      6974 2900 
 4152               	.LC23:
 4153 01fe 2866 6F72 		.string	"(for step)"
 4153      2073 7465 
 4153      7029 00
 4154               	.LC24:
 4155 0209 2866 6F72 		.string	"(for generator)"
 4155      2067 656E 
 4155      6572 6174 
 4155      6F72 2900 
 4156               	.LC25:
 4157 0219 2866 6F72 		.string	"(for state)"
 4157      2073 7461 
 4157      7465 2900 
 4158               	.LC26:
 4159 0225 2866 6F72 		.string	"(for control)"
 4159      2063 6F6E 
 4159      7472 6F6C 
 4159      2900 
 4160               	.LC27:
 4161 0233 273D 2720 		.string	"'=' or 'in' expected"
 4161      6F72 2027 
 4161      696E 2720 
 4161      6578 7065 
 4161      6374 6564 
 4162               		.text
 4163               		.type	chunk, @function
 4164               	chunk:
 4165 1e7a 2F92      		push r2
 4166 1e7c 3F92      		push r3
 4167 1e7e 4F92      		push r4
 4168 1e80 5F92      		push r5
 4169 1e82 6F92      		push r6
 4170 1e84 7F92      		push r7
 4171 1e86 8F92      		push r8
 4172 1e88 9F92      		push r9
 4173 1e8a AF92      		push r10
 4174 1e8c BF92      		push r11
 4175 1e8e CF92      		push r12
 4176 1e90 DF92      		push r13
 4177 1e92 EF92      		push r14
 4178 1e94 FF92      		push r15
 4179 1e96 0F93      		push r16
 4180 1e98 1F93      		push r17
 4181 1e9a DF93      		push r29
 4182 1e9c CF93      		push r28
 4183 1e9e CDB7      		in r28,__SP_L__
 4184 1ea0 DEB7      		in r29,__SP_H__
 4185 1ea2 C456      		subi r28,lo8(-(-100))
 4186 1ea4 D040      		sbci r29,hi8(-(-100))
 4187 1ea6 0FB6      		in __tmp_reg__,__SREG__
 4188 1ea8 F894      		cli
 4189 1eaa DEBF      		out __SP_H__,r29
GAS LISTING C:\DOCUME~1\ADMINI~1\LOCALS~1\Temp/ccZLgXoL.s 			page 76


 4190 1eac 0FBE      		out __SREG__,__tmp_reg__
 4191 1eae CDBF      		out __SP_L__,r28
 4192               	/* prologue: function */
 4193               	/* frame size = 100 */
 4194 1eb0 5C01      		movw r10,r24
 4195 1eb2 DC01      		movw r26,r24
 4196 1eb4 5496      		adiw r26,20
 4197 1eb6 ED91      		ld r30,X+
 4198 1eb8 FC91      		ld r31,X
 4199 1eba 5597      		sbiw r26,20+1
 4200 1ebc 838D      		ldd r24,Z+27
 4201 1ebe 948D      		ldd r25,Z+28
 4202 1ec0 0196      		adiw r24,1
 4203 1ec2 948F      		std Z+28,r25
 4204 1ec4 838F      		std Z+27,r24
 4205 1ec6 893C      		cpi r24,201
 4206 1ec8 9105      		cpc r25,__zero_reg__
 4207 1eca 00F4      		brsh .+2
 4208 1ecc 00C0      		rjmp .L267
 4209 1ece C501      		movw r24,r10
 4210 1ed0 60E0      		ldi r22,lo8(.LC13)
 4211 1ed2 70E0      		ldi r23,hi8(.LC13)
 4212 1ed4 40E0      		ldi r20,lo8(0)
 4213 1ed6 50E0      		ldi r21,hi8(0)
 4214 1ed8 0E94 0000 		call luaX_lexerror
 4215 1edc 00C0      		rjmp .L267
 4216               	.L268:
 4217 1ede F501      		movw r30,r10
 4218 1ee0 0289      		ldd r16,Z+18
 4219 1ee2 1389      		ldd r17,Z+19
 4220 1ee4 2FEF      		ldi r18,lo8(-1)
 4221 1ee6 3FEF      		ldi r19,hi8(-1)
 4222 1ee8 3A83      		std Y+2,r19
 4223 1eea 2983      		std Y+1,r18
 4224 1eec 00C0      		rjmp .L322
 4225               	.L270:
 4226 1eee C801      		movw r24,r16
 4227 1ef0 0E94 0000 		call luaK_jump
 4228 1ef4 AC01      		movw r20,r24
 4229 1ef6 C801      		movw r24,r16
 4230 1ef8 BE01      		movw r22,r28
 4231 1efa 6F5F      		subi r22,lo8(-(1))
 4232 1efc 7F4F      		sbci r23,hi8(-(1))
 4233 1efe 0E94 0000 		call luaK_concat
 4234 1f02 C801      		movw r24,r16
 4235 1f04 B701      		movw r22,r14
 4236 1f06 0E94 0000 		call luaK_patchtohere
 4237               	.L322:
 4238 1f0a C501      		movw r24,r10
 4239 1f0c 0E94 0000 		call test_then_block
 4240 1f10 7C01      		movw r14,r24
 4241 1f12 D501      		movw r26,r10
 4242 1f14 1696      		adiw r26,6
 4243 1f16 8D91      		ld r24,X+
 4244 1f18 9C91      		ld r25,X
 4245 1f1a 1797      		sbiw r26,6+1
 4246 1f1c B1E0      		ldi r27,hi8(261)
GAS LISTING C:\DOCUME~1\ADMINI~1\LOCALS~1\Temp/ccZLgXoL.s 			page 77


 4247 1f1e 8530      		cpi r24,lo8(261)
 4248 1f20 9B07      		cpc r25,r27
 4249 1f22 01F0      		breq .L270
 4250 1f24 8450      		subi r24,lo8(260)
 4251 1f26 9140      		sbci r25,hi8(260)
 4252 1f28 01F4      		brne .L271
 4253 1f2a C801      		movw r24,r16
 4254 1f2c 0E94 0000 		call luaK_jump
 4255 1f30 AC01      		movw r20,r24
 4256 1f32 C801      		movw r24,r16
 4257 1f34 BE01      		movw r22,r28
 4258 1f36 6F5F      		subi r22,lo8(-(1))
 4259 1f38 7F4F      		sbci r23,hi8(-(1))
 4260 1f3a 0E94 0000 		call luaK_concat
 4261 1f3e C801      		movw r24,r16
 4262 1f40 B701      		movw r22,r14
 4263 1f42 0E94 0000 		call luaK_patchtohere
 4264 1f46 C501      		movw r24,r10
 4265 1f48 0E94 0000 		call luaX_next
 4266 1f4c C501      		movw r24,r10
 4267 1f4e 0E94 0000 		call block
 4268 1f52 00C0      		rjmp .L272
 4269               	.L271:
 4270 1f54 C801      		movw r24,r16
 4271 1f56 BE01      		movw r22,r28
 4272 1f58 6F5F      		subi r22,lo8(-(1))
 4273 1f5a 7F4F      		sbci r23,hi8(-(1))
 4274 1f5c A701      		movw r20,r14
 4275 1f5e 0E94 0000 		call luaK_concat
 4276               	.L272:
 4277 1f62 6981      		ldd r22,Y+1
 4278 1f64 7A81      		ldd r23,Y+2
 4279 1f66 C801      		movw r24,r16
 4280 1f68 0E94 0000 		call luaK_patchtohere
 4281 1f6c C501      		movw r24,r10
 4282 1f6e 66E0      		ldi r22,lo8(262)
 4283 1f70 71E0      		ldi r23,hi8(262)
 4284 1f72 4AE0      		ldi r20,lo8(266)
 4285 1f74 51E0      		ldi r21,hi8(266)
 4286 1f76 00C0      		rjmp .L327
 4287               	.L332:
 4288 1f78 D501      		movw r26,r10
 4289 1f7a 5296      		adiw r26,18
 4290 1f7c 0D91      		ld r16,X+
 4291 1f7e 1C91      		ld r17,X
 4292 1f80 5397      		sbiw r26,18+1
 4293 1f82 C501      		movw r24,r10
 4294 1f84 0E94 0000 		call luaX_next
 4295 1f88 C801      		movw r24,r16
 4296 1f8a 0E94 0000 		call luaK_getlabel
 4297 1f8e 7C01      		movw r14,r24
 4298 1f90 C501      		movw r24,r10
 4299 1f92 0E94 0000 		call cond
 4300 1f96 6C01      		movw r12,r24
 4301 1f98 EFEF      		ldi r30,lo8(-1)
 4302 1f9a FFEF      		ldi r31,hi8(-1)
 4303 1f9c FE83      		std Y+6,r31
GAS LISTING C:\DOCUME~1\ADMINI~1\LOCALS~1\Temp/ccZLgXoL.s 			page 78


 4304 1f9e ED83      		std Y+5,r30
 4305 1fa0 F1E0      		ldi r31,lo8(1)
 4306 1fa2 F987      		std Y+9,r31
 4307 1fa4 D801      		movw r26,r16
 4308 1fa6 5A96      		adiw r26,26
 4309 1fa8 8C91      		ld r24,X
 4310 1faa 5A97      		sbiw r26,26
 4311 1fac 8F83      		std Y+7,r24
 4312 1fae 1886      		std Y+8,__zero_reg__
 4313 1fb0 1A96      		adiw r26,10
 4314 1fb2 8D91      		ld r24,X+
 4315 1fb4 9C91      		ld r25,X
 4316 1fb6 1B97      		sbiw r26,10+1
 4317 1fb8 9C83      		std Y+4,r25
 4318 1fba 8B83      		std Y+3,r24
 4319 1fbc E3E0      		ldi r30,lo8(3)
 4320 1fbe F0E0      		ldi r31,hi8(3)
 4321 1fc0 EC0F      		add r30,r28
 4322 1fc2 FD1F      		adc r31,r29
 4323 1fc4 1B96      		adiw r26,10+1
 4324 1fc6 FC93      		st X,r31
 4325 1fc8 EE93      		st -X,r30
 4326 1fca 1A97      		sbiw r26,10
 4327 1fcc C501      		movw r24,r10
 4328 1fce 63E0      		ldi r22,lo8(259)
 4329 1fd0 71E0      		ldi r23,hi8(259)
 4330 1fd2 0E94 0000 		call checknext
 4331 1fd6 C501      		movw r24,r10
 4332 1fd8 0E94 0000 		call block
 4333 1fdc C801      		movw r24,r16
 4334 1fde 0E94 0000 		call luaK_jump
 4335 1fe2 BC01      		movw r22,r24
 4336 1fe4 C801      		movw r24,r16
 4337 1fe6 A701      		movw r20,r14
 4338 1fe8 0E94 0000 		call luaK_patchlist
 4339 1fec C501      		movw r24,r10
 4340 1fee 66E0      		ldi r22,lo8(262)
 4341 1ff0 71E0      		ldi r23,hi8(262)
 4342 1ff2 45E1      		ldi r20,lo8(277)
 4343 1ff4 51E0      		ldi r21,hi8(277)
 4344 1ff6 9401      		movw r18,r8
 4345 1ff8 0E94 0000 		call check_match
 4346 1ffc C801      		movw r24,r16
 4347 1ffe 0E94 0000 		call leaveblock
 4348 2002 C801      		movw r24,r16
 4349 2004 B601      		movw r22,r12
 4350 2006 0E94 0000 		call luaK_patchtohere
 4351 200a 00C0      		rjmp .L325
 4352               	.L275:
 4353 200c C501      		movw r24,r10
 4354 200e 0E94 0000 		call luaX_next
 4355 2012 C501      		movw r24,r10
 4356 2014 0E94 0000 		call block
 4357 2018 C501      		movw r24,r10
 4358 201a 66E0      		ldi r22,lo8(262)
 4359 201c 71E0      		ldi r23,hi8(262)
 4360 201e 43E0      		ldi r20,lo8(259)
GAS LISTING C:\DOCUME~1\ADMINI~1\LOCALS~1\Temp/ccZLgXoL.s 			page 79


 4361 2020 51E0      		ldi r21,hi8(259)
 4362               	.L327:
 4363 2022 9401      		movw r18,r8
 4364 2024 0E94 0000 		call check_match
 4365 2028 00C0      		rjmp .L325
 4366               	.L276:
 4367 202a D501      		movw r26,r10
 4368 202c 5296      		adiw r26,18
 4369 202e CD90      		ld r12,X+
 4370 2030 DC90      		ld r13,X
 4371 2032 5397      		sbiw r26,18+1
 4372 2034 EFEF      		ldi r30,lo8(-1)
 4373 2036 FFEF      		ldi r31,hi8(-1)
 4374 2038 FE83      		std Y+6,r31
 4375 203a ED83      		std Y+5,r30
 4376 203c F1E0      		ldi r31,lo8(1)
 4377 203e F987      		std Y+9,r31
 4378 2040 D601      		movw r26,r12
 4379 2042 5A96      		adiw r26,26
 4380 2044 8C91      		ld r24,X
 4381 2046 5A97      		sbiw r26,26
 4382 2048 8F83      		std Y+7,r24
 4383 204a 1886      		std Y+8,__zero_reg__
 4384 204c 1A96      		adiw r26,10
 4385 204e 8D91      		ld r24,X+
 4386 2050 9C91      		ld r25,X
 4387 2052 1B97      		sbiw r26,10+1
 4388 2054 9C83      		std Y+4,r25
 4389 2056 8B83      		std Y+3,r24
 4390 2058 E3E0      		ldi r30,lo8(3)
 4391 205a F0E0      		ldi r31,hi8(3)
 4392 205c EC0F      		add r30,r28
 4393 205e FD1F      		adc r31,r29
 4394 2060 1B96      		adiw r26,10+1
 4395 2062 FC93      		st X,r31
 4396 2064 EE93      		st -X,r30
 4397 2066 1A97      		sbiw r26,10
 4398 2068 C501      		movw r24,r10
 4399 206a 0E94 0000 		call luaX_next
 4400 206e C501      		movw r24,r10
 4401 2070 0E94 0000 		call str_checkname
 4402 2074 8C01      		movw r16,r24
 4403 2076 D501      		movw r26,r10
 4404 2078 1696      		adiw r26,6
 4405 207a 8D91      		ld r24,X+
 4406 207c 9C91      		ld r25,X
 4407 207e 1797      		sbiw r26,6+1
 4408 2080 8D33      		cpi r24,61
 4409 2082 9105      		cpc r25,__zero_reg__
 4410 2084 01F0      		breq .L279
 4411 2086 B1E0      		ldi r27,hi8(267)
 4412 2088 8B30      		cpi r24,lo8(267)
 4413 208a 9B07      		cpc r25,r27
 4414 208c 01F4      		brne .+2
 4415 208e 00C0      		rjmp .L278
 4416 2090 8C97      		sbiw r24,44
 4417 2092 01F0      		breq .+2
GAS LISTING C:\DOCUME~1\ADMINI~1\LOCALS~1\Temp/ccZLgXoL.s 			page 80


 4418 2094 00C0      		rjmp .L319
 4419 2096 00C0      		rjmp .L278
 4420               	.L279:
 4421 2098 F501      		movw r30,r10
 4422 209a E288      		ldd r14,Z+18
 4423 209c F388      		ldd r15,Z+19
 4424 209e D701      		movw r26,r14
 4425 20a0 5296      		adiw r26,18
 4426 20a2 6D90      		ld r6,X+
 4427 20a4 7C90      		ld r7,X
 4428 20a6 5397      		sbiw r26,18+1
 4429 20a8 C501      		movw r24,r10
 4430 20aa 60E0      		ldi r22,lo8(.LC21)
 4431 20ac 70E0      		ldi r23,hi8(.LC21)
 4432 20ae 4BE0      		ldi r20,lo8(11)
 4433 20b0 50E0      		ldi r21,hi8(11)
 4434 20b2 0E94 0000 		call luaX_newstring
 4435 20b6 BC01      		movw r22,r24
 4436 20b8 C501      		movw r24,r10
 4437 20ba 40E0      		ldi r20,lo8(0)
 4438 20bc 50E0      		ldi r21,hi8(0)
 4439 20be 0E94 0000 		call new_localvar
 4440 20c2 C501      		movw r24,r10
 4441 20c4 60E0      		ldi r22,lo8(.LC22)
 4442 20c6 70E0      		ldi r23,hi8(.LC22)
 4443 20c8 4BE0      		ldi r20,lo8(11)
 4444 20ca 50E0      		ldi r21,hi8(11)
 4445 20cc 0E94 0000 		call luaX_newstring
 4446 20d0 BC01      		movw r22,r24
 4447 20d2 C501      		movw r24,r10
 4448 20d4 41E0      		ldi r20,lo8(1)
 4449 20d6 50E0      		ldi r21,hi8(1)
 4450 20d8 0E94 0000 		call new_localvar
 4451 20dc C501      		movw r24,r10
 4452 20de 60E0      		ldi r22,lo8(.LC23)
 4453 20e0 70E0      		ldi r23,hi8(.LC23)
 4454 20e2 4AE0      		ldi r20,lo8(10)
 4455 20e4 50E0      		ldi r21,hi8(10)
 4456 20e6 0E94 0000 		call luaX_newstring
 4457 20ea BC01      		movw r22,r24
 4458 20ec C501      		movw r24,r10
 4459 20ee 42E0      		ldi r20,lo8(2)
 4460 20f0 50E0      		ldi r21,hi8(2)
 4461 20f2 0E94 0000 		call new_localvar
 4462 20f6 C501      		movw r24,r10
 4463 20f8 B801      		movw r22,r16
 4464 20fa 43E0      		ldi r20,lo8(3)
 4465 20fc 50E0      		ldi r21,hi8(3)
 4466 20fe 0E94 0000 		call new_localvar
 4467 2102 C501      		movw r24,r10
 4468 2104 6DE3      		ldi r22,lo8(61)
 4469 2106 70E0      		ldi r23,hi8(61)
 4470 2108 0E94 0000 		call checknext
 4471 210c C501      		movw r24,r10
 4472 210e 0E94 0000 		call exp1
 4473 2112 C501      		movw r24,r10
 4474 2114 6CE2      		ldi r22,lo8(44)
GAS LISTING C:\DOCUME~1\ADMINI~1\LOCALS~1\Temp/ccZLgXoL.s 			page 81


 4475 2116 70E0      		ldi r23,hi8(44)
 4476 2118 0E94 0000 		call checknext
 4477 211c C501      		movw r24,r10
 4478 211e 0E94 0000 		call exp1
 4479 2122 F501      		movw r30,r10
 4480 2124 8681      		ldd r24,Z+6
 4481 2126 9781      		ldd r25,Z+7
 4482 2128 8C97      		sbiw r24,44
 4483 212a 01F4      		brne .L280
 4484 212c C501      		movw r24,r10
 4485 212e 0E94 0000 		call luaX_next
 4486 2132 C501      		movw r24,r10
 4487 2134 0E94 0000 		call exp1
 4488 2138 00C0      		rjmp .L281
 4489               	.L280:
 4490 213a D701      		movw r26,r14
 4491 213c 5296      		adiw r26,18
 4492 213e 0D91      		ld r16,X+
 4493 2140 1C91      		ld r17,X
 4494 2142 5397      		sbiw r26,18+1
 4495 2144 C701      		movw r24,r14
 4496 2146 41E0      		ldi r20,lo8(1)
 4497 2148 50E0      		ldi r21,hi8(1)
 4498 214a 60E0      		ldi r22,hlo8(1)
 4499 214c 70E0      		ldi r23,hhi8(1)
 4500 214e 0E94 0000 		call luaK_numberK
 4501 2152 9C01      		movw r18,r24
 4502 2154 C701      		movw r24,r14
 4503 2156 61E0      		ldi r22,lo8(1)
 4504 2158 70E0      		ldi r23,hi8(1)
 4505 215a A801      		movw r20,r16
 4506 215c 0E94 0000 		call luaK_codeABx
 4507 2160 C701      		movw r24,r14
 4508 2162 61E0      		ldi r22,lo8(1)
 4509 2164 70E0      		ldi r23,hi8(1)
 4510 2166 0E94 0000 		call luaK_reserveregs
 4511               	.L281:
 4512 216a C501      		movw r24,r10
 4513 216c B301      		movw r22,r6
 4514 216e A401      		movw r20,r8
 4515 2170 21E0      		ldi r18,lo8(1)
 4516 2172 30E0      		ldi r19,hi8(1)
 4517 2174 01E0      		ldi r16,lo8(1)
 4518 2176 10E0      		ldi r17,hi8(1)
 4519 2178 00C0      		rjmp .L323
 4520               	.L278:
 4521 217a F501      		movw r30,r10
 4522 217c 6288      		ldd r6,Z+18
 4523 217e 7388      		ldd r7,Z+19
 4524 2180 D301      		movw r26,r6
 4525 2182 5296      		adiw r26,18
 4526 2184 4D90      		ld r4,X+
 4527 2186 5C90      		ld r5,X
 4528 2188 5397      		sbiw r26,18+1
 4529 218a C501      		movw r24,r10
 4530 218c 60E0      		ldi r22,lo8(.LC24)
 4531 218e 70E0      		ldi r23,hi8(.LC24)
GAS LISTING C:\DOCUME~1\ADMINI~1\LOCALS~1\Temp/ccZLgXoL.s 			page 82


 4532 2190 4FE0      		ldi r20,lo8(15)
 4533 2192 50E0      		ldi r21,hi8(15)
 4534 2194 0E94 0000 		call luaX_newstring
 4535 2198 BC01      		movw r22,r24
 4536 219a C501      		movw r24,r10
 4537 219c 40E0      		ldi r20,lo8(0)
 4538 219e 50E0      		ldi r21,hi8(0)
 4539 21a0 0E94 0000 		call new_localvar
 4540 21a4 C501      		movw r24,r10
 4541 21a6 60E0      		ldi r22,lo8(.LC25)
 4542 21a8 70E0      		ldi r23,hi8(.LC25)
 4543 21aa 4BE0      		ldi r20,lo8(11)
 4544 21ac 50E0      		ldi r21,hi8(11)
 4545 21ae 0E94 0000 		call luaX_newstring
 4546 21b2 BC01      		movw r22,r24
 4547 21b4 C501      		movw r24,r10
 4548 21b6 41E0      		ldi r20,lo8(1)
 4549 21b8 50E0      		ldi r21,hi8(1)
 4550 21ba 0E94 0000 		call new_localvar
 4551 21be C501      		movw r24,r10
 4552 21c0 60E0      		ldi r22,lo8(.LC26)
 4553 21c2 70E0      		ldi r23,hi8(.LC26)
 4554 21c4 4DE0      		ldi r20,lo8(13)
 4555 21c6 50E0      		ldi r21,hi8(13)
 4556 21c8 0E94 0000 		call luaX_newstring
 4557 21cc BC01      		movw r22,r24
 4558 21ce C501      		movw r24,r10
 4559 21d0 42E0      		ldi r20,lo8(2)
 4560 21d2 50E0      		ldi r21,hi8(2)
 4561 21d4 0E94 0000 		call new_localvar
 4562 21d8 C501      		movw r24,r10
 4563 21da B801      		movw r22,r16
 4564 21dc 43E0      		ldi r20,lo8(3)
 4565 21de 50E0      		ldi r21,hi8(3)
 4566 21e0 0E94 0000 		call new_localvar
 4567 21e4 64E0      		ldi r22,lo8(4)
 4568 21e6 E62E      		mov r14,r22
 4569 21e8 F12C      		mov r15,__zero_reg__
 4570               	.L284:
 4571 21ea F501      		movw r30,r10
 4572 21ec 8681      		ldd r24,Z+6
 4573 21ee 9781      		ldd r25,Z+7
 4574 21f0 8C97      		sbiw r24,44
 4575 21f2 01F4      		brne .L283
 4576 21f4 C501      		movw r24,r10
 4577 21f6 0E94 0000 		call luaX_next
 4578 21fa C501      		movw r24,r10
 4579 21fc 0E94 0000 		call str_checkname
 4580 2200 BC01      		movw r22,r24
 4581 2202 8701      		movw r16,r14
 4582 2204 0F5F      		subi r16,lo8(-(1))
 4583 2206 1F4F      		sbci r17,hi8(-(1))
 4584 2208 C501      		movw r24,r10
 4585 220a A701      		movw r20,r14
 4586 220c 0E94 0000 		call new_localvar
 4587 2210 7801      		movw r14,r16
 4588 2212 00C0      		rjmp .L284
GAS LISTING C:\DOCUME~1\ADMINI~1\LOCALS~1\Temp/ccZLgXoL.s 			page 83


 4589               	.L283:
 4590 2214 C501      		movw r24,r10
 4591 2216 6BE0      		ldi r22,lo8(267)
 4592 2218 71E0      		ldi r23,hi8(267)
 4593 221a 0E94 0000 		call checknext
 4594 221e D501      		movw r26,r10
 4595 2220 1296      		adiw r26,2
 4596 2222 0D91      		ld r16,X+
 4597 2224 1C91      		ld r17,X
 4598 2226 1397      		sbiw r26,2+1
 4599 2228 C501      		movw r24,r10
 4600 222a BE01      		movw r22,r28
 4601 222c 635B      		subi r22,lo8(-(77))
 4602 222e 7F4F      		sbci r23,hi8(-(77))
 4603 2230 0E94 0000 		call explist1
 4604 2234 AC01      		movw r20,r24
 4605 2236 C501      		movw r24,r10
 4606 2238 63E0      		ldi r22,lo8(3)
 4607 223a 70E0      		ldi r23,hi8(3)
 4608 223c 9E01      		movw r18,r28
 4609 223e 235B      		subi r18,lo8(-(77))
 4610 2240 3F4F      		sbci r19,hi8(-(77))
 4611 2242 0E94 0000 		call adjust_assign
 4612 2246 C301      		movw r24,r6
 4613 2248 63E0      		ldi r22,lo8(3)
 4614 224a 70E0      		ldi r23,hi8(3)
 4615 224c 0E94 0000 		call luaK_checkstack
 4616 2250 EDEF      		ldi r30,lo8(-3)
 4617 2252 FFEF      		ldi r31,hi8(-3)
 4618 2254 EE0E      		add r14,r30
 4619 2256 FF1E      		adc r15,r31
 4620 2258 C501      		movw r24,r10
 4621 225a B201      		movw r22,r4
 4622 225c A801      		movw r20,r16
 4623 225e 9701      		movw r18,r14
 4624 2260 00E0      		ldi r16,lo8(0)
 4625 2262 10E0      		ldi r17,hi8(0)
 4626               	.L323:
 4627 2264 0E94 0000 		call forbody
 4628 2268 00C0      		rjmp .L282
 4629               	.L319:
 4630 226a C501      		movw r24,r10
 4631 226c 60E0      		ldi r22,lo8(.LC27)
 4632 226e 70E0      		ldi r23,hi8(.LC27)
 4633 2270 0E94 0000 		call luaX_syntaxerror
 4634               	.L282:
 4635 2274 C501      		movw r24,r10
 4636 2276 66E0      		ldi r22,lo8(262)
 4637 2278 71E0      		ldi r23,hi8(262)
 4638 227a 48E0      		ldi r20,lo8(264)
 4639 227c 51E0      		ldi r21,hi8(264)
 4640 227e 9401      		movw r18,r8
 4641 2280 0E94 0000 		call check_match
 4642 2284 C601      		movw r24,r12
 4643 2286 00C0      		rjmp .L328
 4644               	.L285:
 4645 2288 D501      		movw r26,r10
GAS LISTING C:\DOCUME~1\ADMINI~1\LOCALS~1\Temp/ccZLgXoL.s 			page 84


 4646 228a 5296      		adiw r26,18
 4647 228c ED90      		ld r14,X+
 4648 228e FC90      		ld r15,X
 4649 2290 5397      		sbiw r26,18+1
 4650 2292 C701      		movw r24,r14
 4651 2294 0E94 0000 		call luaK_getlabel
 4652 2298 6C01      		movw r12,r24
 4653 229a EFEF      		ldi r30,lo8(-1)
 4654 229c FFEF      		ldi r31,hi8(-1)
 4655 229e FE83      		std Y+6,r31
 4656 22a0 ED83      		std Y+5,r30
 4657 22a2 F1E0      		ldi r31,lo8(1)
 4658 22a4 F987      		std Y+9,r31
 4659 22a6 D701      		movw r26,r14
 4660 22a8 5A96      		adiw r26,26
 4661 22aa 8C91      		ld r24,X
 4662 22ac 5A97      		sbiw r26,26
 4663 22ae 8F83      		std Y+7,r24
 4664 22b0 1886      		std Y+8,__zero_reg__
 4665 22b2 1A96      		adiw r26,10
 4666 22b4 8D91      		ld r24,X+
 4667 22b6 9C91      		ld r25,X
 4668 22b8 1B97      		sbiw r26,10+1
 4669 22ba 9C83      		std Y+4,r25
 4670 22bc 8B83      		std Y+3,r24
 4671 22be E3E0      		ldi r30,lo8(3)
 4672 22c0 F0E0      		ldi r31,hi8(3)
 4673 22c2 EC0F      		add r30,r28
 4674 22c4 FD1F      		adc r31,r29
 4675 22c6 1B96      		adiw r26,10+1
 4676 22c8 FC93      		st X,r31
 4677 22ca EE93      		st -X,r30
 4678 22cc 1A97      		sbiw r26,10
 4679 22ce 2FEF      		ldi r18,lo8(-1)
 4680 22d0 3FEF      		ldi r19,hi8(-1)
 4681 22d2 3D87      		std Y+13,r19
 4682 22d4 2C87      		std Y+12,r18
 4683 22d6 188A      		std Y+16,__zero_reg__
 4684 22d8 5A96      		adiw r26,26
 4685 22da 8C91      		ld r24,X
 4686 22dc 5A97      		sbiw r26,26
 4687 22de 8E87      		std Y+14,r24
 4688 22e0 1F86      		std Y+15,__zero_reg__
 4689 22e2 1A96      		adiw r26,10
 4690 22e4 8D91      		ld r24,X+
 4691 22e6 9C91      		ld r25,X
 4692 22e8 1B97      		sbiw r26,10+1
 4693 22ea 9B87      		std Y+11,r25
 4694 22ec 8A87      		std Y+10,r24
 4695 22ee 8AE0      		ldi r24,lo8(10)
 4696 22f0 90E0      		ldi r25,hi8(10)
 4697 22f2 8C0F      		add r24,r28
 4698 22f4 9D1F      		adc r25,r29
 4699 22f6 1B96      		adiw r26,10+1
 4700 22f8 9C93      		st X,r25
 4701 22fa 8E93      		st -X,r24
 4702 22fc 1A97      		sbiw r26,10
GAS LISTING C:\DOCUME~1\ADMINI~1\LOCALS~1\Temp/ccZLgXoL.s 			page 85


 4703 22fe C501      		movw r24,r10
 4704 2300 0E94 0000 		call luaX_next
 4705 2304 C501      		movw r24,r10
 4706 2306 0E94 0000 		call chunk
 4707 230a C501      		movw r24,r10
 4708 230c 64E1      		ldi r22,lo8(276)
 4709 230e 71E0      		ldi r23,hi8(276)
 4710 2310 40E1      		ldi r20,lo8(272)
 4711 2312 51E0      		ldi r21,hi8(272)
 4712 2314 9401      		movw r18,r8
 4713 2316 0E94 0000 		call check_match
 4714 231a C501      		movw r24,r10
 4715 231c 0E94 0000 		call cond
 4716 2320 8C01      		movw r16,r24
 4717 2322 8F85      		ldd r24,Y+15
 4718 2324 8823      		tst r24
 4719 2326 01F4      		brne .L286
 4720 2328 C701      		movw r24,r14
 4721 232a 0E94 0000 		call leaveblock
 4722 232e D501      		movw r26,r10
 4723 2330 5296      		adiw r26,18
 4724 2332 8D91      		ld r24,X+
 4725 2334 9C91      		ld r25,X
 4726 2336 5397      		sbiw r26,18+1
 4727 2338 B801      		movw r22,r16
 4728 233a 00C0      		rjmp .L324
 4729               	.L286:
 4730 233c C501      		movw r24,r10
 4731 233e 0E94 0000 		call breakstat
 4732 2342 F501      		movw r30,r10
 4733 2344 8289      		ldd r24,Z+18
 4734 2346 9389      		ldd r25,Z+19
 4735 2348 B801      		movw r22,r16
 4736 234a 0E94 0000 		call luaK_patchtohere
 4737 234e C701      		movw r24,r14
 4738 2350 0E94 0000 		call leaveblock
 4739 2354 D501      		movw r26,r10
 4740 2356 5296      		adiw r26,18
 4741 2358 0D91      		ld r16,X+
 4742 235a 1C91      		ld r17,X
 4743 235c 5397      		sbiw r26,18+1
 4744 235e C701      		movw r24,r14
 4745 2360 0E94 0000 		call luaK_jump
 4746 2364 BC01      		movw r22,r24
 4747 2366 C801      		movw r24,r16
 4748               	.L324:
 4749 2368 A601      		movw r20,r12
 4750 236a 0E94 0000 		call luaK_patchlist
 4751 236e C701      		movw r24,r14
 4752               	.L328:
 4753 2370 0E94 0000 		call leaveblock
 4754 2374 00C0      		rjmp .L325
 4755               	.L330:
 4756 2376 C501      		movw r24,r10
 4757 2378 0E94 0000 		call luaX_next
 4758 237c C501      		movw r24,r10
 4759 237e BE01      		movw r22,r28
GAS LISTING C:\DOCUME~1\ADMINI~1\LOCALS~1\Temp/ccZLgXoL.s 			page 86


 4760 2380 6F5E      		subi r22,lo8(-(17))
 4761 2382 7F4F      		sbci r23,hi8(-(17))
 4762 2384 0E94 0000 		call singlevar
 4763 2388 00C0      		rjmp .L289
 4764               	.L290:
 4765 238a C501      		movw r24,r10
 4766 238c BE01      		movw r22,r28
 4767 238e 6F5E      		subi r22,lo8(-(17))
 4768 2390 7F4F      		sbci r23,hi8(-(17))
 4769 2392 0E94 0000 		call field
 4770               	.L289:
 4771 2396 F501      		movw r30,r10
 4772 2398 8681      		ldd r24,Z+6
 4773 239a 9781      		ldd r25,Z+7
 4774 239c 8E32      		cpi r24,46
 4775 239e 9105      		cpc r25,__zero_reg__
 4776 23a0 01F0      		breq .L290
 4777 23a2 CA97      		sbiw r24,58
 4778 23a4 01F0      		breq .L291
 4779 23a6 40E0      		ldi r20,lo8(0)
 4780 23a8 50E0      		ldi r21,hi8(0)
 4781 23aa 00C0      		rjmp .L292
 4782               	.L291:
 4783 23ac C501      		movw r24,r10
 4784 23ae BE01      		movw r22,r28
 4785 23b0 6F5E      		subi r22,lo8(-(17))
 4786 23b2 7F4F      		sbci r23,hi8(-(17))
 4787 23b4 0E94 0000 		call field
 4788 23b8 41E0      		ldi r20,lo8(1)
 4789 23ba 50E0      		ldi r21,hi8(1)
 4790               	.L292:
 4791 23bc C501      		movw r24,r10
 4792 23be BE01      		movw r22,r28
 4793 23c0 655E      		subi r22,lo8(-(27))
 4794 23c2 7F4F      		sbci r23,hi8(-(27))
 4795 23c4 9401      		movw r18,r8
 4796 23c6 0E94 0000 		call body
 4797 23ca D501      		movw r26,r10
 4798 23cc 5296      		adiw r26,18
 4799 23ce 8D91      		ld r24,X+
 4800 23d0 9C91      		ld r25,X
 4801 23d2 5397      		sbiw r26,18+1
 4802 23d4 BE01      		movw r22,r28
 4803 23d6 6F5E      		subi r22,lo8(-(17))
 4804 23d8 7F4F      		sbci r23,hi8(-(17))
 4805 23da AE01      		movw r20,r28
 4806 23dc 455E      		subi r20,lo8(-(27))
 4807 23de 5F4F      		sbci r21,hi8(-(27))
 4808 23e0 0E94 0000 		call luaK_storevar
 4809 23e4 F501      		movw r30,r10
 4810 23e6 8289      		ldd r24,Z+18
 4811 23e8 9389      		ldd r25,Z+19
 4812 23ea B401      		movw r22,r8
 4813 23ec 0E94 0000 		call luaK_fixline
 4814 23f0 00C0      		rjmp .L325
 4815               	.L331:
 4816 23f2 C501      		movw r24,r10
GAS LISTING C:\DOCUME~1\ADMINI~1\LOCALS~1\Temp/ccZLgXoL.s 			page 87


 4817 23f4 0E94 0000 		call luaX_next
 4818 23f8 D501      		movw r26,r10
 4819 23fa 1696      		adiw r26,6
 4820 23fc 8D91      		ld r24,X+
 4821 23fe 9C91      		ld r25,X
 4822 2400 1797      		sbiw r26,6+1
 4823 2402 8950      		subi r24,lo8(265)
 4824 2404 9140      		sbci r25,hi8(265)
 4825 2406 01F0      		breq .+2
 4826 2408 00C0      		rjmp .L294
 4827 240a C501      		movw r24,r10
 4828 240c 0E94 0000 		call luaX_next
 4829 2410 F501      		movw r30,r10
 4830 2412 0289      		ldd r16,Z+18
 4831 2414 1389      		ldd r17,Z+19
 4832 2416 C501      		movw r24,r10
 4833 2418 0E94 0000 		call str_checkname
 4834 241c BC01      		movw r22,r24
 4835 241e C501      		movw r24,r10
 4836 2420 40E0      		ldi r20,lo8(0)
 4837 2422 50E0      		ldi r21,hi8(0)
 4838 2424 0E94 0000 		call new_localvar
 4839 2428 D801      		movw r26,r16
 4840 242a 5296      		adiw r26,18
 4841 242c 8D91      		ld r24,X+
 4842 242e 9C91      		ld r25,X
 4843 2430 5397      		sbiw r26,18+1
 4844 2432 EFEF      		ldi r30,lo8(-1)
 4845 2434 FFEF      		ldi r31,hi8(-1)
 4846 2436 FCA7      		std Y+44,r31
 4847 2438 EBA7      		std Y+43,r30
 4848 243a FEA7      		std Y+46,r31
 4849 243c EDA7      		std Y+45,r30
 4850 243e 26E0      		ldi r18,lo8(6)
 4851 2440 30E0      		ldi r19,hi8(6)
 4852 2442 3EA3      		std Y+38,r19
 4853 2444 2DA3      		std Y+37,r18
 4854 2446 98A7      		std Y+40,r25
 4855 2448 8FA3      		std Y+39,r24
 4856 244a C801      		movw r24,r16
 4857 244c 61E0      		ldi r22,lo8(1)
 4858 244e 70E0      		ldi r23,hi8(1)
 4859 2450 0E94 0000 		call luaK_reserveregs
 4860 2454 C501      		movw r24,r10
 4861 2456 61E0      		ldi r22,lo8(1)
 4862 2458 70E0      		ldi r23,hi8(1)
 4863 245a 0E94 0000 		call adjustlocalvars
 4864 245e D501      		movw r26,r10
 4865 2460 1296      		adiw r26,2
 4866 2462 2D91      		ld r18,X+
 4867 2464 3C91      		ld r19,X
 4868 2466 1397      		sbiw r26,2+1
 4869 2468 C501      		movw r24,r10
 4870 246a BE01      		movw r22,r28
 4871 246c 615D      		subi r22,lo8(-(47))
 4872 246e 7F4F      		sbci r23,hi8(-(47))
 4873 2470 40E0      		ldi r20,lo8(0)
GAS LISTING C:\DOCUME~1\ADMINI~1\LOCALS~1\Temp/ccZLgXoL.s 			page 88


 4874 2472 50E0      		ldi r21,hi8(0)
 4875 2474 0E94 0000 		call body
 4876 2478 C801      		movw r24,r16
 4877 247a BE01      		movw r22,r28
 4878 247c 6B5D      		subi r22,lo8(-(37))
 4879 247e 7F4F      		sbci r23,hi8(-(37))
 4880 2480 AE01      		movw r20,r28
 4881 2482 415D      		subi r20,lo8(-(47))
 4882 2484 5F4F      		sbci r21,hi8(-(47))
 4883 2486 0E94 0000 		call luaK_storevar
 4884 248a F801      		movw r30,r16
 4885 248c A081      		ld r26,Z
 4886 248e B181      		ldd r27,Z+1
 4887 2490 828D      		ldd r24,Z+26
 4888 2492 E82F      		mov r30,r24
 4889 2494 F0E0      		ldi r31,lo8(0)
 4890 2496 3197      		sbiw r30,1
 4891 2498 EE0F      		lsl r30
 4892 249a FF1F      		rol r31
 4893 249c E00F      		add r30,r16
 4894 249e F11F      		adc r31,r17
 4895 24a0 ED56      		subi r30,lo8(-(147))
 4896 24a2 FF4F      		sbci r31,hi8(-(147))
 4897 24a4 2081      		ld r18,Z
 4898 24a6 3181      		ldd r19,Z+1
 4899 24a8 C901      		movw r24,r18
 4900 24aa 880F      		lsl r24
 4901 24ac 991F      		rol r25
 4902 24ae 820F      		add r24,r18
 4903 24b0 931F      		adc r25,r19
 4904 24b2 880F      		lsl r24
 4905 24b4 991F      		rol r25
 4906 24b6 1C96      		adiw r26,12
 4907 24b8 ED91      		ld r30,X+
 4908 24ba FC91      		ld r31,X
 4909 24bc 1D97      		sbiw r26,12+1
 4910 24be E80F      		add r30,r24
 4911 24c0 F91F      		adc r31,r25
 4912 24c2 D801      		movw r26,r16
 4913 24c4 1C96      		adiw r26,12
 4914 24c6 8D91      		ld r24,X+
 4915 24c8 9C91      		ld r25,X
 4916 24ca 1D97      		sbiw r26,12+1
 4917 24cc 9383      		std Z+3,r25
 4918 24ce 8283      		std Z+2,r24
 4919 24d0 00C0      		rjmp .L325
 4920               	.L294:
 4921 24d2 00E0      		ldi r16,lo8(0)
 4922 24d4 10E0      		ldi r17,hi8(0)
 4923               	.L296:
 4924 24d6 C501      		movw r24,r10
 4925 24d8 0E94 0000 		call str_checkname
 4926 24dc BC01      		movw r22,r24
 4927 24de 7801      		movw r14,r16
 4928 24e0 0894      		sec
 4929 24e2 E11C      		adc r14,__zero_reg__
 4930 24e4 F11C      		adc r15,__zero_reg__
GAS LISTING C:\DOCUME~1\ADMINI~1\LOCALS~1\Temp/ccZLgXoL.s 			page 89


 4931 24e6 C501      		movw r24,r10
 4932 24e8 A801      		movw r20,r16
 4933 24ea 0E94 0000 		call new_localvar
 4934 24ee F501      		movw r30,r10
 4935 24f0 8681      		ldd r24,Z+6
 4936 24f2 9781      		ldd r25,Z+7
 4937 24f4 8C32      		cpi r24,44
 4938 24f6 9105      		cpc r25,__zero_reg__
 4939 24f8 01F4      		brne .L295
 4940 24fa C501      		movw r24,r10
 4941 24fc 0E94 0000 		call luaX_next
 4942 2500 8701      		movw r16,r14
 4943 2502 00C0      		rjmp .L296
 4944               	.L295:
 4945 2504 CD97      		sbiw r24,61
 4946 2506 01F4      		brne .L297
 4947 2508 C501      		movw r24,r10
 4948 250a 0E94 0000 		call luaX_next
 4949 250e C501      		movw r24,r10
 4950 2510 BE01      		movw r22,r28
 4951 2512 675C      		subi r22,lo8(-(57))
 4952 2514 7F4F      		sbci r23,hi8(-(57))
 4953 2516 0E94 0000 		call explist1
 4954 251a AC01      		movw r20,r24
 4955 251c 00C0      		rjmp .L298
 4956               	.L297:
 4957 251e 1AAE      		std Y+58,__zero_reg__
 4958 2520 19AE      		std Y+57,__zero_reg__
 4959 2522 40E0      		ldi r20,lo8(0)
 4960 2524 50E0      		ldi r21,hi8(0)
 4961               	.L298:
 4962 2526 C501      		movw r24,r10
 4963 2528 B701      		movw r22,r14
 4964 252a 9E01      		movw r18,r28
 4965 252c 275C      		subi r18,lo8(-(57))
 4966 252e 3F4F      		sbci r19,hi8(-(57))
 4967 2530 0E94 0000 		call adjust_assign
 4968 2534 C501      		movw r24,r10
 4969 2536 B701      		movw r22,r14
 4970 2538 0E94 0000 		call adjustlocalvars
 4971 253c 00C0      		rjmp .L325
 4972               	.L299:
 4973 253e D501      		movw r26,r10
 4974 2540 5296      		adiw r26,18
 4975 2542 ED90      		ld r14,X+
 4976 2544 FC90      		ld r15,X
 4977 2546 5397      		sbiw r26,18+1
 4978 2548 C501      		movw r24,r10
 4979 254a 0E94 0000 		call luaX_next
 4980 254e F501      		movw r30,r10
 4981 2550 2681      		ldd r18,Z+6
 4982 2552 3781      		ldd r19,Z+7
 4983 2554 F1E0      		ldi r31,hi8(276)
 4984 2556 2431      		cpi r18,lo8(276)
 4985 2558 3F07      		cpc r19,r31
 4986 255a 01F4      		brne .+2
 4987 255c 00C0      		rjmp .L301
GAS LISTING C:\DOCUME~1\ADMINI~1\LOCALS~1\Temp/ccZLgXoL.s 			page 90


 4988 255e 81E0      		ldi r24,hi8(277)
 4989 2560 2531      		cpi r18,lo8(277)
 4990 2562 3807      		cpc r19,r24
 4991 2564 04F4      		brge .L302
 4992 2566 C901      		movw r24,r18
 4993 2568 8450      		subi r24,lo8(-(-260))
 4994 256a 9140      		sbci r25,hi8(-(-260))
 4995 256c 0397      		sbiw r24,3
 4996 256e 00F0      		brlo .+2
 4997 2570 00C0      		rjmp .L300
 4998 2572 00C0      		rjmp .L301
 4999               	.L302:
 5000 2574 91E0      		ldi r25,hi8(287)
 5001 2576 2F31      		cpi r18,lo8(287)
 5002 2578 3907      		cpc r19,r25
 5003 257a 01F0      		breq .+2
 5004 257c 00C0      		rjmp .L300
 5005 257e 00C0      		rjmp .L301
 5006               	.L321:
 5007 2580 C501      		movw r24,r10
 5008 2582 B101      		movw r22,r2
 5009 2584 0E94 0000 		call explist1
 5010 2588 8C01      		movw r16,r24
 5011 258a D101      		movw r26,r2
 5012 258c 8D91      		ld r24,X+
 5013 258e 9C91      		ld r25,X
 5014 2590 0D97      		sbiw r24,13
 5015 2592 0297      		sbiw r24,2
 5016 2594 00F4      		brsh .L303
 5017 2596 C701      		movw r24,r14
 5018 2598 B101      		movw r22,r2
 5019 259a 4FEF      		ldi r20,lo8(-1)
 5020 259c 5FEF      		ldi r21,hi8(-1)
 5021 259e 0E94 0000 		call luaK_setreturns
 5022 25a2 F101      		movw r30,r2
 5023 25a4 8081      		ld r24,Z
 5024 25a6 9181      		ldd r25,Z+1
 5025 25a8 0D97      		sbiw r24,13
 5026 25aa 01F4      		brne .L304
 5027 25ac 0130      		cpi r16,1
 5028 25ae 1105      		cpc r17,__zero_reg__
 5029 25b0 01F4      		brne .L304
 5030 25b2 D701      		movw r26,r14
 5031 25b4 ED91      		ld r30,X+
 5032 25b6 FC91      		ld r31,X
 5033 25b8 D101      		movw r26,r2
 5034 25ba 1296      		adiw r26,2
 5035 25bc 8D91      		ld r24,X+
 5036 25be 9C91      		ld r25,X
 5037 25c0 1397      		sbiw r26,2+1
 5038 25c2 880F      		lsl r24
 5039 25c4 991F      		rol r25
 5040 25c6 880F      		lsl r24
 5041 25c8 991F      		rol r25
 5042 25ca 0680      		ldd __tmp_reg__,Z+6
 5043 25cc F781      		ldd r31,Z+7
 5044 25ce E02D      		mov r30,__tmp_reg__
GAS LISTING C:\DOCUME~1\ADMINI~1\LOCALS~1\Temp/ccZLgXoL.s 			page 91


 5045 25d0 E80F      		add r30,r24
 5046 25d2 F91F      		adc r31,r25
 5047 25d4 8081      		ld r24,Z
 5048 25d6 9181      		ldd r25,Z+1
 5049 25d8 A281      		ldd r26,Z+2
 5050 25da B381      		ldd r27,Z+3
 5051 25dc 807C      		andi r24,lo8(-64)
 5052 25de 8D61      		ori r24,lo8(29)
 5053 25e0 8083      		st Z,r24
 5054 25e2 9183      		std Z+1,r25
 5055 25e4 A283      		std Z+2,r26
 5056 25e6 B383      		std Z+3,r27
 5057               	.L304:
 5058 25e8 F701      		movw r30,r14
 5059 25ea 828D      		ldd r24,Z+26
 5060 25ec 682F      		mov r22,r24
 5061 25ee 70E0      		ldi r23,lo8(0)
 5062 25f0 0FEF      		ldi r16,lo8(-1)
 5063 25f2 1FEF      		ldi r17,hi8(-1)
 5064 25f4 00C0      		rjmp .L305
 5065               	.L303:
 5066 25f6 0130      		cpi r16,1
 5067 25f8 1105      		cpc r17,__zero_reg__
 5068 25fa 01F4      		brne .L306
 5069 25fc C701      		movw r24,r14
 5070 25fe B101      		movw r22,r2
 5071 2600 0E94 0000 		call luaK_exp2anyreg
 5072 2604 BC01      		movw r22,r24
 5073 2606 00C0      		rjmp .L305
 5074               	.L306:
 5075 2608 C701      		movw r24,r14
 5076 260a B101      		movw r22,r2
 5077 260c 0E94 0000 		call luaK_exp2nextreg
 5078 2610 D701      		movw r26,r14
 5079 2612 5A96      		adiw r26,26
 5080 2614 8C91      		ld r24,X
 5081 2616 682F      		mov r22,r24
 5082 2618 70E0      		ldi r23,lo8(0)
 5083 261a 00C0      		rjmp .L305
 5084               	.L301:
 5085 261c 60E0      		ldi r22,lo8(0)
 5086 261e 70E0      		ldi r23,hi8(0)
 5087 2620 00E0      		ldi r16,lo8(0)
 5088 2622 10E0      		ldi r17,hi8(0)
 5089               	.L305:
 5090 2624 C701      		movw r24,r14
 5091 2626 A801      		movw r20,r16
 5092 2628 0E94 0000 		call luaK_ret
 5093 262c 00C0      		rjmp .L326
 5094               	.L329:
 5095 262e C501      		movw r24,r10
 5096 2630 0E94 0000 		call luaX_next
 5097 2634 C501      		movw r24,r10
 5098 2636 0E94 0000 		call breakstat
 5099               	.L326:
 5100 263a 01E0      		ldi r16,lo8(1)
 5101 263c 10E0      		ldi r17,hi8(1)
GAS LISTING C:\DOCUME~1\ADMINI~1\LOCALS~1\Temp/ccZLgXoL.s 			page 92


 5102 263e 00C0      		rjmp .L273
 5103               	.L308:
 5104 2640 F501      		movw r30,r10
 5105 2642 0289      		ldd r16,Z+18
 5106 2644 1389      		ldd r17,Z+19
 5107 2646 C501      		movw r24,r10
 5108 2648 A596      		adiw r28,99-62
 5109 264a 6EAD      		ldd r22,Y+62
 5110 264c 7FAD      		ldd r23,Y+63
 5111 264e A597      		sbiw r28,99-62
 5112 2650 0E94 0000 		call primaryexp
 5113 2654 6B96      		adiw r28,89-62
 5114 2656 8EAD      		ldd r24,Y+62
 5115 2658 9FAD      		ldd r25,Y+63
 5116 265a 6B97      		sbiw r28,89-62
 5117 265c 0D97      		sbiw r24,13
 5118 265e 01F4      		brne .L309
 5119 2660 D801      		movw r26,r16
 5120 2662 ED91      		ld r30,X+
 5121 2664 FC91      		ld r31,X
 5122 2666 6D96      		adiw r28,91-62
 5123 2668 8EAD      		ldd r24,Y+62
 5124 266a 9FAD      		ldd r25,Y+63
 5125 266c 6D97      		sbiw r28,91-62
 5126 266e 880F      		lsl r24
 5127 2670 991F      		rol r25
 5128 2672 880F      		lsl r24
 5129 2674 991F      		rol r25
 5130 2676 0680      		ldd __tmp_reg__,Z+6
 5131 2678 F781      		ldd r31,Z+7
 5132 267a E02D      		mov r30,__tmp_reg__
 5133 267c E80F      		add r30,r24
 5134 267e F91F      		adc r31,r25
 5135 2680 8081      		ld r24,Z
 5136 2682 9181      		ldd r25,Z+1
 5137 2684 A281      		ldd r26,Z+2
 5138 2686 B381      		ldd r27,Z+3
 5139 2688 9F73      		andi r25,hi8(-8372225)
 5140 268a A078      		andi r26,hlo8(-8372225)
 5141 268c 9064      		ori r25,hi8(16384)
 5142 268e 8083      		st Z,r24
 5143 2690 9183      		std Z+1,r25
 5144 2692 A283      		std Z+2,r26
 5145 2694 B383      		std Z+3,r27
 5146 2696 00C0      		rjmp .L325
 5147               	.L309:
 5148 2698 6996      		adiw r28,87-62
 5149 269a 1FAE      		std Y+63,__zero_reg__
 5150 269c 1EAE      		std Y+62,__zero_reg__
 5151 269e 6997      		sbiw r28,87-62
 5152 26a0 C501      		movw r24,r10
 5153 26a2 BE01      		movw r22,r28
 5154 26a4 695A      		subi r22,lo8(-(87))
 5155 26a6 7F4F      		sbci r23,hi8(-(87))
 5156 26a8 41E0      		ldi r20,lo8(1)
 5157 26aa 50E0      		ldi r21,hi8(1)
 5158 26ac 0E94 0000 		call assignment
GAS LISTING C:\DOCUME~1\ADMINI~1\LOCALS~1\Temp/ccZLgXoL.s 			page 93


 5159               	.L325:
 5160 26b0 00E0      		ldi r16,lo8(0)
 5161 26b2 10E0      		ldi r17,hi8(0)
 5162               	.L273:
 5163 26b4 F501      		movw r30,r10
 5164 26b6 8681      		ldd r24,Z+6
 5165 26b8 9781      		ldd r25,Z+7
 5166 26ba CB97      		sbiw r24,59
 5167 26bc 01F4      		brne .L310
 5168 26be C501      		movw r24,r10
 5169 26c0 0E94 0000 		call luaX_next
 5170               	.L310:
 5171 26c4 D501      		movw r26,r10
 5172 26c6 5296      		adiw r26,18
 5173 26c8 ED91      		ld r30,X+
 5174 26ca FC91      		ld r31,X
 5175 26cc 5397      		sbiw r26,18+1
 5176 26ce 828D      		ldd r24,Z+26
 5177 26d0 828B      		std Z+18,r24
 5178 26d2 138A      		std Z+19,__zero_reg__
 5179 26d4 012B      		or r16,r17
 5180 26d6 01F0      		breq .L320
 5181 26d8 00C0      		rjmp .L311
 5182               	.L267:
 5183 26da 63E4      		ldi r22,lo8(67)
 5184 26dc 262E      		mov r2,r22
 5185 26de 312C      		mov r3,__zero_reg__
 5186 26e0 2C0E      		add r2,r28
 5187 26e2 3D1E      		adc r3,r29
 5188 26e4 E7E5      		ldi r30,lo8(87)
 5189 26e6 F0E0      		ldi r31,hi8(87)
 5190 26e8 EC0F      		add r30,r28
 5191 26ea FD1F      		adc r31,r29
 5192 26ec 3296      		adiw r30,2
 5193 26ee A596      		adiw r28,99-62
 5194 26f0 FFAF      		std Y+63,r31
 5195 26f2 EEAF      		std Y+62,r30
 5196 26f4 A597      		sbiw r28,99-62
 5197               	.L320:
 5198 26f6 D501      		movw r26,r10
 5199 26f8 1696      		adiw r26,6
 5200 26fa 2D91      		ld r18,X+
 5201 26fc 3C91      		ld r19,X
 5202 26fe 1797      		sbiw r26,6+1
 5203 2700 B1E0      		ldi r27,hi8(276)
 5204 2702 2431      		cpi r18,lo8(276)
 5205 2704 3B07      		cpc r19,r27
 5206 2706 01F0      		breq .L311
 5207 2708 E1E0      		ldi r30,hi8(277)
 5208 270a 2531      		cpi r18,lo8(277)
 5209 270c 3E07      		cpc r19,r30
 5210 270e 04F4      		brge .L313
 5211 2710 C901      		movw r24,r18
 5212 2712 8450      		subi r24,lo8(-(-260))
 5213 2714 9140      		sbci r25,hi8(-(-260))
 5214 2716 0397      		sbiw r24,3
 5215 2718 00F4      		brsh .L312
GAS LISTING C:\DOCUME~1\ADMINI~1\LOCALS~1\Temp/ccZLgXoL.s 			page 94


 5216 271a 00C0      		rjmp .L311
 5217               	.L313:
 5218 271c F1E0      		ldi r31,hi8(287)
 5219 271e 2F31      		cpi r18,lo8(287)
 5220 2720 3F07      		cpc r19,r31
 5221 2722 01F4      		brne .L312
 5222               	.L311:
 5223 2724 D501      		movw r26,r10
 5224 2726 5496      		adiw r26,20
 5225 2728 ED91      		ld r30,X+
 5226 272a FC91      		ld r31,X
 5227 272c 5597      		sbiw r26,20+1
 5228 272e 838D      		ldd r24,Z+27
 5229 2730 948D      		ldd r25,Z+28
 5230 2732 0197      		sbiw r24,1
 5231 2734 948F      		std Z+28,r25
 5232 2736 838F      		std Z+27,r24
 5233               	/* epilogue start */
 5234 2738 CC59      		subi r28,lo8(-(100))
 5235 273a DF4F      		sbci r29,hi8(-(100))
 5236 273c 0FB6      		in __tmp_reg__,__SREG__
 5237 273e F894      		cli
 5238 2740 DEBF      		out __SP_H__,r29
 5239 2742 0FBE      		out __SREG__,__tmp_reg__
 5240 2744 CDBF      		out __SP_L__,r28
 5241 2746 CF91      		pop r28
 5242 2748 DF91      		pop r29
 5243 274a 1F91      		pop r17
 5244 274c 0F91      		pop r16
 5245 274e FF90      		pop r15
 5246 2750 EF90      		pop r14
 5247 2752 DF90      		pop r13
 5248 2754 CF90      		pop r12
 5249 2756 BF90      		pop r11
 5250 2758 AF90      		pop r10
 5251 275a 9F90      		pop r9
 5252 275c 8F90      		pop r8
 5253 275e 7F90      		pop r7
 5254 2760 6F90      		pop r6
 5255 2762 5F90      		pop r5
 5256 2764 4F90      		pop r4
 5257 2766 3F90      		pop r3
 5258 2768 2F90      		pop r2
 5259 276a 0895      		ret
 5260               	.L300:
 5261 276c 2B33      		cpi r18,59
 5262 276e 3105      		cpc r19,__zero_reg__
 5263 2770 01F0      		breq .+2
 5264 2772 00C0      		rjmp .L321
 5265 2774 00C0      		rjmp .L301
 5266               	.L312:
 5267 2776 F501      		movw r30,r10
 5268 2778 8280      		ldd r8,Z+2
 5269 277a 9380      		ldd r9,Z+3
 5270 277c F1E0      		ldi r31,hi8(266)
 5271 277e 2A30      		cpi r18,lo8(266)
 5272 2780 3F07      		cpc r19,r31
GAS LISTING C:\DOCUME~1\ADMINI~1\LOCALS~1\Temp/ccZLgXoL.s 			page 95


 5273 2782 01F4      		brne .+2
 5274 2784 00C0      		rjmp .L268
 5275 2786 81E0      		ldi r24,hi8(267)
 5276 2788 2B30      		cpi r18,lo8(267)
 5277 278a 3807      		cpc r19,r24
 5278 278c 04F4      		brge .L315
 5279 278e 91E0      		ldi r25,hi8(259)
 5280 2790 2330      		cpi r18,lo8(259)
 5281 2792 3907      		cpc r19,r25
 5282 2794 01F4      		brne .+2
 5283 2796 00C0      		rjmp .L275
 5284 2798 A1E0      		ldi r26,hi8(260)
 5285 279a 2430      		cpi r18,lo8(260)
 5286 279c 3A07      		cpc r19,r26
 5287 279e 04F4      		brge .L316
 5288 27a0 2250      		subi r18,lo8(258)
 5289 27a2 3140      		sbci r19,hi8(258)
 5290 27a4 01F0      		breq .+2
 5291 27a6 00C0      		rjmp .L308
 5292 27a8 00C0      		rjmp .L329
 5293               	.L316:
 5294 27aa E1E0      		ldi r30,hi8(264)
 5295 27ac 2830      		cpi r18,lo8(264)
 5296 27ae 3E07      		cpc r19,r30
 5297 27b0 01F4      		brne .+2
 5298 27b2 00C0      		rjmp .L276
 5299 27b4 2950      		subi r18,lo8(265)
 5300 27b6 3140      		sbci r19,hi8(265)
 5301 27b8 01F0      		breq .+2
 5302 27ba 00C0      		rjmp .L308
 5303 27bc 00C0      		rjmp .L330
 5304               	.L315:
 5305 27be 81E0      		ldi r24,hi8(272)
 5306 27c0 2031      		cpi r18,lo8(272)
 5307 27c2 3807      		cpc r19,r24
 5308 27c4 01F4      		brne .+2
 5309 27c6 00C0      		rjmp .L285
 5310 27c8 91E0      		ldi r25,hi8(273)
 5311 27ca 2131      		cpi r18,lo8(273)
 5312 27cc 3907      		cpc r19,r25
 5313 27ce 04F4      		brge .L317
 5314 27d0 2C50      		subi r18,lo8(268)
 5315 27d2 3140      		sbci r19,hi8(268)
 5316 27d4 01F0      		breq .+2
 5317 27d6 00C0      		rjmp .L308
 5318 27d8 00C0      		rjmp .L331
 5319               	.L317:
 5320 27da B1E0      		ldi r27,hi8(273)
 5321 27dc 2131      		cpi r18,lo8(273)
 5322 27de 3B07      		cpc r19,r27
 5323 27e0 01F4      		brne .+2
 5324 27e2 00C0      		rjmp .L299
 5325 27e4 2551      		subi r18,lo8(277)
 5326 27e6 3140      		sbci r19,hi8(277)
 5327 27e8 01F0      		breq .+2
 5328 27ea 00C0      		rjmp .L308
 5329 27ec 00C0      		rjmp .L332
GAS LISTING C:\DOCUME~1\ADMINI~1\LOCALS~1\Temp/ccZLgXoL.s 			page 96


 5330               		.size	chunk, .-chunk
 5331               		.type	block, @function
 5332               	block:
 5333 27ee 0F93      		push r16
 5334 27f0 1F93      		push r17
 5335 27f2 DF93      		push r29
 5336 27f4 CF93      		push r28
 5337 27f6 CDB7      		in r28,__SP_L__
 5338 27f8 DEB7      		in r29,__SP_H__
 5339 27fa 2797      		sbiw r28,7
 5340 27fc 0FB6      		in __tmp_reg__,__SREG__
 5341 27fe F894      		cli
 5342 2800 DEBF      		out __SP_H__,r29
 5343 2802 0FBE      		out __SREG__,__tmp_reg__
 5344 2804 CDBF      		out __SP_L__,r28
 5345               	/* prologue: function */
 5346               	/* frame size = 7 */
 5347 2806 FC01      		movw r30,r24
 5348 2808 0289      		ldd r16,Z+18
 5349 280a 1389      		ldd r17,Z+19
 5350 280c 8FEF      		ldi r24,lo8(-1)
 5351 280e 9FEF      		ldi r25,hi8(-1)
 5352 2810 9C83      		std Y+4,r25
 5353 2812 8B83      		std Y+3,r24
 5354 2814 1F82      		std Y+7,__zero_reg__
 5355 2816 D801      		movw r26,r16
 5356 2818 5A96      		adiw r26,26
 5357 281a 8C91      		ld r24,X
 5358 281c 5A97      		sbiw r26,26
 5359 281e 8D83      		std Y+5,r24
 5360 2820 1E82      		std Y+6,__zero_reg__
 5361 2822 1A96      		adiw r26,10
 5362 2824 8D91      		ld r24,X+
 5363 2826 9C91      		ld r25,X
 5364 2828 1B97      		sbiw r26,10+1
 5365 282a 9A83      		std Y+2,r25
 5366 282c 8983      		std Y+1,r24
 5367 282e CE01      		movw r24,r28
 5368 2830 0196      		adiw r24,1
 5369 2832 1B96      		adiw r26,10+1
 5370 2834 9C93      		st X,r25
 5371 2836 8E93      		st -X,r24
 5372 2838 1A97      		sbiw r26,10
 5373 283a CF01      		movw r24,r30
 5374 283c 0E94 0000 		call chunk
 5375 2840 C801      		movw r24,r16
 5376 2842 0E94 0000 		call leaveblock
 5377               	/* epilogue start */
 5378 2846 2796      		adiw r28,7
 5379 2848 0FB6      		in __tmp_reg__,__SREG__
 5380 284a F894      		cli
 5381 284c DEBF      		out __SP_H__,r29
 5382 284e 0FBE      		out __SREG__,__tmp_reg__
 5383 2850 CDBF      		out __SP_L__,r28
 5384 2852 CF91      		pop r28
 5385 2854 DF91      		pop r29
 5386 2856 1F91      		pop r17
GAS LISTING C:\DOCUME~1\ADMINI~1\LOCALS~1\Temp/ccZLgXoL.s 			page 97


 5387 2858 0F91      		pop r16
 5388 285a 0895      		ret
 5389               		.size	block, .-block
 5390               		.type	test_then_block, @function
 5391               	test_then_block:
 5392 285c EF92      		push r14
 5393 285e FF92      		push r15
 5394 2860 0F93      		push r16
 5395 2862 1F93      		push r17
 5396               	/* prologue: function */
 5397               	/* frame size = 0 */
 5398 2864 8C01      		movw r16,r24
 5399 2866 0E94 0000 		call luaX_next
 5400 286a C801      		movw r24,r16
 5401 286c 0E94 0000 		call cond
 5402 2870 F82E      		mov r15,r24
 5403 2872 E92E      		mov r14,r25
 5404 2874 C801      		movw r24,r16
 5405 2876 62E1      		ldi r22,lo8(274)
 5406 2878 71E0      		ldi r23,hi8(274)
 5407 287a 0E94 0000 		call checknext
 5408 287e C801      		movw r24,r16
 5409 2880 0E94 0000 		call block
 5410 2884 8F2D      		mov r24,r15
 5411 2886 9E2D      		mov r25,r14
 5412               	/* epilogue start */
 5413 2888 1F91      		pop r17
 5414 288a 0F91      		pop r16
 5415 288c FF90      		pop r15
 5416 288e EF90      		pop r14
 5417 2890 0895      		ret
 5418               		.size	test_then_block, .-test_then_block
 5419               		.type	forbody, @function
 5420               	forbody:
 5421 2892 2F92      		push r2
 5422 2894 3F92      		push r3
 5423 2896 4F92      		push r4
 5424 2898 5F92      		push r5
 5425 289a 6F92      		push r6
 5426 289c 7F92      		push r7
 5427 289e 8F92      		push r8
 5428 28a0 9F92      		push r9
 5429 28a2 AF92      		push r10
 5430 28a4 BF92      		push r11
 5431 28a6 CF92      		push r12
 5432 28a8 DF92      		push r13
 5433 28aa EF92      		push r14
 5434 28ac FF92      		push r15
 5435 28ae 0F93      		push r16
 5436 28b0 1F93      		push r17
 5437 28b2 DF93      		push r29
 5438 28b4 CF93      		push r28
 5439 28b6 CDB7      		in r28,__SP_L__
 5440 28b8 DEB7      		in r29,__SP_H__
 5441 28ba 2797      		sbiw r28,7
 5442 28bc 0FB6      		in __tmp_reg__,__SREG__
 5443 28be F894      		cli
GAS LISTING C:\DOCUME~1\ADMINI~1\LOCALS~1\Temp/ccZLgXoL.s 			page 98


 5444 28c0 DEBF      		out __SP_H__,r29
 5445 28c2 0FBE      		out __SREG__,__tmp_reg__
 5446 28c4 CDBF      		out __SP_L__,r28
 5447               	/* prologue: function */
 5448               	/* frame size = 7 */
 5449 28c6 6C01      		movw r12,r24
 5450 28c8 3B01      		movw r6,r22
 5451 28ca 1A01      		movw r2,r20
 5452 28cc 4901      		movw r8,r18
 5453 28ce 2801      		movw r4,r16
 5454 28d0 FC01      		movw r30,r24
 5455 28d2 E288      		ldd r14,Z+18
 5456 28d4 F388      		ldd r15,Z+19
 5457 28d6 63E0      		ldi r22,lo8(3)
 5458 28d8 70E0      		ldi r23,hi8(3)
 5459 28da 0E94 0000 		call adjustlocalvars
 5460 28de C601      		movw r24,r12
 5461 28e0 63E0      		ldi r22,lo8(259)
 5462 28e2 71E0      		ldi r23,hi8(259)
 5463 28e4 0E94 0000 		call checknext
 5464 28e8 0115      		cp r16,__zero_reg__
 5465 28ea 1105      		cpc r17,__zero_reg__
 5466 28ec 01F0      		breq .L338
 5467 28ee C701      		movw r24,r14
 5468 28f0 60E2      		ldi r22,lo8(32)
 5469 28f2 70E0      		ldi r23,hi8(32)
 5470 28f4 A301      		movw r20,r6
 5471 28f6 2CEF      		ldi r18,lo8(32764)
 5472 28f8 3FE7      		ldi r19,hi8(32764)
 5473 28fa 0E94 0000 		call luaK_codeABx
 5474 28fe 00C0      		rjmp .L344
 5475               	.L338:
 5476 2900 C701      		movw r24,r14
 5477 2902 0E94 0000 		call luaK_jump
 5478               	.L344:
 5479 2906 5C01      		movw r10,r24
 5480 2908 8FEF      		ldi r24,lo8(-1)
 5481 290a 9FEF      		ldi r25,hi8(-1)
 5482 290c 9C83      		std Y+4,r25
 5483 290e 8B83      		std Y+3,r24
 5484 2910 1F82      		std Y+7,__zero_reg__
 5485 2912 F701      		movw r30,r14
 5486 2914 828D      		ldd r24,Z+26
 5487 2916 8D83      		std Y+5,r24
 5488 2918 1E82      		std Y+6,__zero_reg__
 5489 291a 8285      		ldd r24,Z+10
 5490 291c 9385      		ldd r25,Z+11
 5491 291e 9A83      		std Y+2,r25
 5492 2920 8983      		std Y+1,r24
 5493 2922 CE01      		movw r24,r28
 5494 2924 0196      		adiw r24,1
 5495 2926 9387      		std Z+11,r25
 5496 2928 8287      		std Z+10,r24
 5497 292a C601      		movw r24,r12
 5498 292c B401      		movw r22,r8
 5499 292e 0E94 0000 		call adjustlocalvars
 5500 2932 C701      		movw r24,r14
GAS LISTING C:\DOCUME~1\ADMINI~1\LOCALS~1\Temp/ccZLgXoL.s 			page 99


 5501 2934 B401      		movw r22,r8
 5502 2936 0E94 0000 		call luaK_reserveregs
 5503 293a C601      		movw r24,r12
 5504 293c 0E94 0000 		call block
 5505 2940 C701      		movw r24,r14
 5506 2942 0E94 0000 		call leaveblock
 5507 2946 C701      		movw r24,r14
 5508 2948 B501      		movw r22,r10
 5509 294a 0E94 0000 		call luaK_patchtohere
 5510 294e 4114      		cp r4,__zero_reg__
 5511 2950 5104      		cpc r5,__zero_reg__
 5512 2952 01F0      		breq .L340
 5513 2954 C701      		movw r24,r14
 5514 2956 6FE1      		ldi r22,lo8(31)
 5515 2958 70E0      		ldi r23,hi8(31)
 5516 295a A301      		movw r20,r6
 5517 295c 2CEF      		ldi r18,lo8(32764)
 5518 295e 3FE7      		ldi r19,hi8(32764)
 5519 2960 0E94 0000 		call luaK_codeABx
 5520 2964 00C0      		rjmp .L345
 5521               	.L340:
 5522 2966 C701      		movw r24,r14
 5523 2968 61E2      		ldi r22,lo8(33)
 5524 296a 70E0      		ldi r23,hi8(33)
 5525 296c A301      		movw r20,r6
 5526 296e 20E0      		ldi r18,lo8(0)
 5527 2970 30E0      		ldi r19,hi8(0)
 5528 2972 8401      		movw r16,r8
 5529 2974 0E94 0000 		call luaK_codeABC
 5530               	.L345:
 5531 2978 8C01      		movw r16,r24
 5532 297a C701      		movw r24,r14
 5533 297c B101      		movw r22,r2
 5534 297e 0E94 0000 		call luaK_fixline
 5535 2982 4528      		or r4,r5
 5536 2984 01F4      		brne .L342
 5537 2986 C701      		movw r24,r14
 5538 2988 0E94 0000 		call luaK_jump
 5539 298c 8C01      		movw r16,r24
 5540               	.L342:
 5541 298e 0894      		sec
 5542 2990 A11C      		adc r10,__zero_reg__
 5543 2992 B11C      		adc r11,__zero_reg__
 5544 2994 C701      		movw r24,r14
 5545 2996 B801      		movw r22,r16
 5546 2998 A501      		movw r20,r10
 5547 299a 0E94 0000 		call luaK_patchlist
 5548               	/* epilogue start */
 5549 299e 2796      		adiw r28,7
 5550 29a0 0FB6      		in __tmp_reg__,__SREG__
 5551 29a2 F894      		cli
 5552 29a4 DEBF      		out __SP_H__,r29
 5553 29a6 0FBE      		out __SREG__,__tmp_reg__
 5554 29a8 CDBF      		out __SP_L__,r28
 5555 29aa CF91      		pop r28
 5556 29ac DF91      		pop r29
 5557 29ae 1F91      		pop r17
GAS LISTING C:\DOCUME~1\ADMINI~1\LOCALS~1\Temp/ccZLgXoL.s 			page 100


 5558 29b0 0F91      		pop r16
 5559 29b2 FF90      		pop r15
 5560 29b4 EF90      		pop r14
 5561 29b6 DF90      		pop r13
 5562 29b8 CF90      		pop r12
 5563 29ba BF90      		pop r11
 5564 29bc AF90      		pop r10
 5565 29be 9F90      		pop r9
 5566 29c0 8F90      		pop r8
 5567 29c2 7F90      		pop r7
 5568 29c4 6F90      		pop r6
 5569 29c6 5F90      		pop r5
 5570 29c8 4F90      		pop r4
 5571 29ca 3F90      		pop r3
 5572 29cc 2F90      		pop r2
 5573 29ce 0895      		ret
 5574               		.size	forbody, .-forbody
 5575               	.global	luaY_parser
 5576               		.type	luaY_parser, @function
 5577               	luaY_parser:
 5578 29d0 EF92      		push r14
 5579 29d2 FF92      		push r15
 5580 29d4 0F93      		push r16
 5581 29d6 1F93      		push r17
 5582 29d8 DF93      		push r29
 5583 29da CF93      		push r28
 5584 29dc CDB7      		in r28,__SP_L__
 5585 29de DEB7      		in r29,__SP_H__
 5586 29e0 C054      		subi r28,lo8(-(-576))
 5587 29e2 D240      		sbci r29,hi8(-(-576))
 5588 29e4 0FB6      		in __tmp_reg__,__SREG__
 5589 29e6 F894      		cli
 5590 29e8 DEBF      		out __SP_H__,r29
 5591 29ea 0FBE      		out __SREG__,__tmp_reg__
 5592 29ec CDBF      		out __SP_L__,r28
 5593               	/* prologue: function */
 5594               	/* frame size = 576 */
 5595 29ee 8C01      		movw r16,r24
 5596 29f0 7B01      		movw r14,r22
 5597 29f2 5A8F      		std Y+26,r21
 5598 29f4 498F      		std Y+25,r20
 5599 29f6 D901      		movw r26,r18
 5600 29f8 0D90      		ld __tmp_reg__,X+
 5601 29fa 0020      		tst __tmp_reg__
 5602 29fc 01F4      		brne .-6
 5603 29fe 1197      		sbiw r26,1
 5604 2a00 A21B      		sub r26,r18
 5605 2a02 B30B      		sbc r27,r19
 5606 2a04 B901      		movw r22,r18
 5607 2a06 AD01      		movw r20,r26
 5608 2a08 0E94 0000 		call luaS_newlstr
 5609 2a0c 9C01      		movw r18,r24
 5610 2a0e C801      		movw r24,r16
 5611 2a10 8E01      		movw r16,r28
 5612 2a12 0F5F      		subi r16,lo8(-(1))
 5613 2a14 1F4F      		sbci r17,hi8(-(1))
 5614 2a16 B801      		movw r22,r16
GAS LISTING C:\DOCUME~1\ADMINI~1\LOCALS~1\Temp/ccZLgXoL.s 			page 101


 5615 2a18 A701      		movw r20,r14
 5616 2a1a 0E94 0000 		call luaX_setinput
 5617 2a1e C801      		movw r24,r16
 5618 2a20 BE01      		movw r22,r28
 5619 2a22 625E      		subi r22,lo8(-(30))
 5620 2a24 7F4F      		sbci r23,hi8(-(30))
 5621 2a26 0E94 0000 		call open_func
 5622 2a2a EE8D      		ldd r30,Y+30
 5623 2a2c FF8D      		ldd r31,Y+31
 5624 2a2e 82E0      		ldi r24,lo8(2)
 5625 2a30 86A3      		std Z+38,r24
 5626 2a32 C801      		movw r24,r16
 5627 2a34 0E94 0000 		call luaX_next
 5628 2a38 C801      		movw r24,r16
 5629 2a3a 0E94 0000 		call chunk
 5630 2a3e 8F81      		ldd r24,Y+7
 5631 2a40 9885      		ldd r25,Y+8
 5632 2a42 8F51      		subi r24,lo8(287)
 5633 2a44 9140      		sbci r25,hi8(287)
 5634 2a46 01F0      		breq .L347
 5635 2a48 C801      		movw r24,r16
 5636 2a4a 6FE1      		ldi r22,lo8(287)
 5637 2a4c 71E0      		ldi r23,hi8(287)
 5638 2a4e 0E94 0000 		call error_expected
 5639               	.L347:
 5640 2a52 CE01      		movw r24,r28
 5641 2a54 0196      		adiw r24,1
 5642 2a56 0E94 0000 		call close_func
 5643 2a5a 8E8D      		ldd r24,Y+30
 5644 2a5c 9F8D      		ldd r25,Y+31
 5645               	/* epilogue start */
 5646 2a5e C05C      		subi r28,lo8(-(576))
 5647 2a60 DD4F      		sbci r29,hi8(-(576))
 5648 2a62 0FB6      		in __tmp_reg__,__SREG__
 5649 2a64 F894      		cli
 5650 2a66 DEBF      		out __SP_H__,r29
 5651 2a68 0FBE      		out __SREG__,__tmp_reg__
 5652 2a6a CDBF      		out __SP_L__,r28
 5653 2a6c CF91      		pop r28
 5654 2a6e DF91      		pop r29
 5655 2a70 1F91      		pop r17
 5656 2a72 0F91      		pop r16
 5657 2a74 FF90      		pop r15
 5658 2a76 EF90      		pop r14
 5659 2a78 0895      		ret
 5660               		.size	luaY_parser, .-luaY_parser
 5661               		.data
 5662               		.type	priority, @object
 5663               		.size	priority, 30
 5664               	priority:
 5665 0248 06        		.byte	6
 5666 0249 06        		.byte	6
 5667 024a 06        		.byte	6
 5668 024b 06        		.byte	6
 5669 024c 07        		.byte	7
 5670 024d 07        		.byte	7
 5671 024e 07        		.byte	7
GAS LISTING C:\DOCUME~1\ADMINI~1\LOCALS~1\Temp/ccZLgXoL.s 			page 102


 5672 024f 07        		.byte	7
 5673 0250 07        		.byte	7
 5674 0251 07        		.byte	7
 5675 0252 0A        		.byte	10
 5676 0253 09        		.byte	9
 5677 0254 05        		.byte	5
 5678 0255 04        		.byte	4
 5679 0256 03        		.byte	3
 5680 0257 03        		.byte	3
 5681 0258 03        		.byte	3
 5682 0259 03        		.byte	3
 5683 025a 03        		.byte	3
 5684 025b 03        		.byte	3
 5685 025c 03        		.byte	3
 5686 025d 03        		.byte	3
 5687 025e 03        		.byte	3
 5688 025f 03        		.byte	3
 5689 0260 03        		.byte	3
 5690 0261 03        		.byte	3
 5691 0262 02        		.byte	2
 5692 0263 02        		.byte	2
 5693 0264 01        		.byte	1
 5694 0265 01        		.byte	1
 5695               	.global __do_copy_data
GAS LISTING C:\DOCUME~1\ADMINI~1\LOCALS~1\Temp/ccZLgXoL.s 			page 103


DEFINED SYMBOLS
                            *ABS*:00000000 lparser.c
C:\DOCUME~1\ADMINI~1\LOCALS~1\Temp/ccZLgXoL.s:2      *ABS*:0000003f __SREG__
C:\DOCUME~1\ADMINI~1\LOCALS~1\Temp/ccZLgXoL.s:3      *ABS*:0000003e __SP_H__
C:\DOCUME~1\ADMINI~1\LOCALS~1\Temp/ccZLgXoL.s:4      *ABS*:0000003d __SP_L__
C:\DOCUME~1\ADMINI~1\LOCALS~1\Temp/ccZLgXoL.s:5      *ABS*:00000034 __CCP__
C:\DOCUME~1\ADMINI~1\LOCALS~1\Temp/ccZLgXoL.s:6      *ABS*:00000000 __tmp_reg__
C:\DOCUME~1\ADMINI~1\LOCALS~1\Temp/ccZLgXoL.s:7      *ABS*:00000001 __zero_reg__
C:\DOCUME~1\ADMINI~1\LOCALS~1\Temp/ccZLgXoL.s:10     .text:00000000 adjustlocalvars
C:\DOCUME~1\ADMINI~1\LOCALS~1\Temp/ccZLgXoL.s:66     .text:00000060 open_func
C:\DOCUME~1\ADMINI~1\LOCALS~1\Temp/ccZLgXoL.s:203    .text:0000016a leaveblock
C:\DOCUME~1\ADMINI~1\LOCALS~1\Temp/ccZLgXoL.s:314    .text:00000232 breakstat
C:\DOCUME~1\ADMINI~1\LOCALS~1\Temp/ccZLgXoL.s:391    .text:000002b2 errorlimit
C:\DOCUME~1\ADMINI~1\LOCALS~1\Temp/ccZLgXoL.s:492    .text:00000366 new_localvar
C:\DOCUME~1\ADMINI~1\LOCALS~1\Temp/ccZLgXoL.s:712    .text:00000502 singlevaraux
C:\DOCUME~1\ADMINI~1\LOCALS~1\Temp/ccZLgXoL.s:1059   .text:00000782 error_expected
C:\DOCUME~1\ADMINI~1\LOCALS~1\Temp/ccZLgXoL.s:1111   .text:000007e4 str_checkname
C:\DOCUME~1\ADMINI~1\LOCALS~1\Temp/ccZLgXoL.s:1143   .text:0000081a checkname
C:\DOCUME~1\ADMINI~1\LOCALS~1\Temp/ccZLgXoL.s:1179   .text:0000085a field
C:\DOCUME~1\ADMINI~1\LOCALS~1\Temp/ccZLgXoL.s:1235   .text:000008c6 singlevar
C:\DOCUME~1\ADMINI~1\LOCALS~1\Temp/ccZLgXoL.s:1280   .text:00000918 checknext
C:\DOCUME~1\ADMINI~1\LOCALS~1\Temp/ccZLgXoL.s:1306   .text:0000093a check_match
C:\DOCUME~1\ADMINI~1\LOCALS~1\Temp/ccZLgXoL.s:1404   .text:000009f8 adjust_assign
C:\DOCUME~1\ADMINI~1\LOCALS~1\Temp/ccZLgXoL.s:1477   .text:00000a80 close_func
C:\DOCUME~1\ADMINI~1\LOCALS~1\Temp/ccZLgXoL.s:1805   .text:00000cf0 body
C:\DOCUME~1\ADMINI~1\LOCALS~1\Temp/ccZLgXoL.s:4164   .text:00001e7a chunk
C:\DOCUME~1\ADMINI~1\LOCALS~1\Temp/ccZLgXoL.s:2218   .text:0000101e subexpr
C:\DOCUME~1\ADMINI~1\LOCALS~1\Temp/ccZLgXoL.s:3047   .text:00001630 constructor
C:\DOCUME~1\ADMINI~1\LOCALS~1\Temp/ccZLgXoL.s:3653   .text:00001ac4 primaryexp
C:\DOCUME~1\ADMINI~1\LOCALS~1\Temp/ccZLgXoL.s:5664   .data:00000248 priority
C:\DOCUME~1\ADMINI~1\LOCALS~1\Temp/ccZLgXoL.s:2775   .text:00001432 cond
C:\DOCUME~1\ADMINI~1\LOCALS~1\Temp/ccZLgXoL.s:2829   .text:00001494 yindex
C:\DOCUME~1\ADMINI~1\LOCALS~1\Temp/ccZLgXoL.s:2865   .text:000014d0 recfield
C:\DOCUME~1\ADMINI~1\LOCALS~1\Temp/ccZLgXoL.s:3003   .text:000015e2 listfield
C:\DOCUME~1\ADMINI~1\LOCALS~1\Temp/ccZLgXoL.s:3393   .text:000018e2 explist1
C:\DOCUME~1\ADMINI~1\LOCALS~1\Temp/ccZLgXoL.s:3446   .text:00001938 funcargs
C:\DOCUME~1\ADMINI~1\LOCALS~1\Temp/ccZLgXoL.s:3826   .text:00001c0c assignment
C:\DOCUME~1\ADMINI~1\LOCALS~1\Temp/ccZLgXoL.s:4094   .text:00001e16 exp1
C:\DOCUME~1\ADMINI~1\LOCALS~1\Temp/ccZLgXoL.s:5391   .text:0000285c test_then_block
C:\DOCUME~1\ADMINI~1\LOCALS~1\Temp/ccZLgXoL.s:5332   .text:000027ee block
C:\DOCUME~1\ADMINI~1\LOCALS~1\Temp/ccZLgXoL.s:5420   .text:00002892 forbody
C:\DOCUME~1\ADMINI~1\LOCALS~1\Temp/ccZLgXoL.s:5577   .text:000029d0 luaY_parser

UNDEFINED SYMBOLS
luaF_newproto
luaH_new
luaD_growstack
luaK_codeABC
luaK_patchtohere
luaX_syntaxerror
luaK_jump
luaK_concat
luaO_pushfstring
luaX_lexerror
luaM_growaux_
luaC_barrierf
luaX_token2str
GAS LISTING C:\DOCUME~1\ADMINI~1\LOCALS~1\Temp/ccZLgXoL.s 			page 104


luaX_next
luaK_stringK
luaK_exp2anyreg
luaK_indexed
luaK_setreturns
luaK_reserveregs
luaK_exp2nextreg
luaK_nil
luaK_ret
luaM_realloc_
luaM_toobig
luaX_newstring
luaK_codeABx
luaK_prefix
luaK_infix
luaK_posfix
luaK_goiftrue
luaK_exp2val
luaK_exp2RK
luaK_setlist
luaX_lookahead
luaO_int2fb
luaK_fixline
luaK_dischargevars
luaK_self
luaK_setoneret
luaK_storevar
luaK_getlabel
luaK_patchlist
luaK_numberK
luaK_checkstack
luaS_newlstr
luaX_setinput
__do_copy_data
