GAS LISTING C:\DOCUME~1\ADMINI~1\LOCALS~1\Temp/cctKSLoe.s 			page 1


   1               		.file	"lstrlib.c"
   2               	__SREG__ = 0x3f
   3               	__SP_H__ = 0x3e
   4               	__SP_L__ = 0x3d
   5               	__CCP__  = 0x34
   6               	__tmp_reg__ = 0
   7               	__zero_reg__ = 1
   8               		.text
   9               		.type	str_upper, @function
  10               	str_upper:
  11 0000 8F92      		push r8
  12 0002 9F92      		push r9
  13 0004 AF92      		push r10
  14 0006 BF92      		push r11
  15 0008 CF92      		push r12
  16 000a DF92      		push r13
  17 000c EF92      		push r14
  18 000e FF92      		push r15
  19 0010 0F93      		push r16
  20 0012 1F93      		push r17
  21 0014 DF93      		push r29
  22 0016 CF93      		push r28
  23 0018 CDB7      		in r28,__SP_L__
  24 001a DEB7      		in r29,__SP_H__
  25 001c C850      		subi r28,lo8(-(-1032))
  26 001e D440      		sbci r29,hi8(-(-1032))
  27 0020 0FB6      		in __tmp_reg__,__SREG__
  28 0022 F894      		cli
  29 0024 DEBF      		out __SP_H__,r29
  30 0026 0FBE      		out __SREG__,__tmp_reg__
  31 0028 CDBF      		out __SP_L__,r28
  32               	/* prologue: function */
  33               	/* frame size = 1032 */
  34 002a 7C01      		movw r14,r24
  35 002c 61E0      		ldi r22,lo8(1)
  36 002e 70E0      		ldi r23,hi8(1)
  37 0030 AE01      		movw r20,r28
  38 0032 4F5F      		subi r20,lo8(-(1))
  39 0034 5F4F      		sbci r21,hi8(-(1))
  40 0036 0E94 0000 		call luaL_checklstring
  41 003a 6C01      		movw r12,r24
  42 003c 8E01      		movw r16,r28
  43 003e 0D5F      		subi r16,lo8(-(3))
  44 0040 1F4F      		sbci r17,hi8(-(3))
  45 0042 C701      		movw r24,r14
  46 0044 B801      		movw r22,r16
  47 0046 0E94 0000 		call luaL_buffinit
  48 004a EE24      		clr r14
  49 004c FF24      		clr r15
  50 004e B02E      		mov r11,r16
  51 0050 A12E      		mov r10,r17
  52 0052 89E0      		ldi r24,lo8(1033)
  53 0054 882E      		mov r8,r24
  54 0056 84E0      		ldi r24,hi8(1033)
  55 0058 982E      		mov r9,r24
  56 005a 8C0E      		add r8,r28
  57 005c 9D1E      		adc r9,r29
GAS LISTING C:\DOCUME~1\ADMINI~1\LOCALS~1\Temp/cctKSLoe.s 			page 2


  58 005e 00C0      		rjmp .L2
  59               	.L4:
  60 0060 8B81      		ldd r24,Y+3
  61 0062 9C81      		ldd r25,Y+4
  62 0064 8815      		cp r24,r8
  63 0066 9905      		cpc r25,r9
  64 0068 00F0      		brlo .L3
  65 006a 8B2D      		mov r24,r11
  66 006c 9A2D      		mov r25,r10
  67 006e 0E94 0000 		call luaL_prepbuffer
  68               	.L3:
  69 0072 1B81      		ldd r17,Y+3
  70 0074 0C81      		ldd r16,Y+4
  71 0076 F601      		movw r30,r12
  72 0078 EE0D      		add r30,r14
  73 007a FF1D      		adc r31,r15
  74 007c 8081      		ld r24,Z
  75 007e 90E0      		ldi r25,lo8(0)
  76 0080 0E94 0000 		call toupper
  77 0084 E12F      		mov r30,r17
  78 0086 F02F      		mov r31,r16
  79 0088 8193      		st Z+,r24
  80 008a FC83      		std Y+4,r31
  81 008c EB83      		std Y+3,r30
  82 008e 0894      		sec
  83 0090 E11C      		adc r14,__zero_reg__
  84 0092 F11C      		adc r15,__zero_reg__
  85               	.L2:
  86 0094 8981      		ldd r24,Y+1
  87 0096 9A81      		ldd r25,Y+2
  88 0098 E816      		cp r14,r24
  89 009a F906      		cpc r15,r25
  90 009c 00F0      		brlo .L4
  91 009e 8B2D      		mov r24,r11
  92 00a0 9A2D      		mov r25,r10
  93 00a2 0E94 0000 		call luaL_pushresult
  94 00a6 81E0      		ldi r24,lo8(1)
  95 00a8 90E0      		ldi r25,hi8(1)
  96               	/* epilogue start */
  97 00aa C85F      		subi r28,lo8(-(1032))
  98 00ac DB4F      		sbci r29,hi8(-(1032))
  99 00ae 0FB6      		in __tmp_reg__,__SREG__
 100 00b0 F894      		cli
 101 00b2 DEBF      		out __SP_H__,r29
 102 00b4 0FBE      		out __SREG__,__tmp_reg__
 103 00b6 CDBF      		out __SP_L__,r28
 104 00b8 CF91      		pop r28
 105 00ba DF91      		pop r29
 106 00bc 1F91      		pop r17
 107 00be 0F91      		pop r16
 108 00c0 FF90      		pop r15
 109 00c2 EF90      		pop r14
 110 00c4 DF90      		pop r13
 111 00c6 CF90      		pop r12
 112 00c8 BF90      		pop r11
 113 00ca AF90      		pop r10
 114 00cc 9F90      		pop r9
GAS LISTING C:\DOCUME~1\ADMINI~1\LOCALS~1\Temp/cctKSLoe.s 			page 3


 115 00ce 8F90      		pop r8
 116 00d0 0895      		ret
 117               		.size	str_upper, .-str_upper
 118               		.type	str_reverse, @function
 119               	str_reverse:
 120 00d2 AF92      		push r10
 121 00d4 BF92      		push r11
 122 00d6 CF92      		push r12
 123 00d8 DF92      		push r13
 124 00da EF92      		push r14
 125 00dc FF92      		push r15
 126 00de 0F93      		push r16
 127 00e0 1F93      		push r17
 128 00e2 DF93      		push r29
 129 00e4 CF93      		push r28
 130 00e6 CDB7      		in r28,__SP_L__
 131 00e8 DEB7      		in r29,__SP_H__
 132 00ea C850      		subi r28,lo8(-(-1032))
 133 00ec D440      		sbci r29,hi8(-(-1032))
 134 00ee 0FB6      		in __tmp_reg__,__SREG__
 135 00f0 F894      		cli
 136 00f2 DEBF      		out __SP_H__,r29
 137 00f4 0FBE      		out __SREG__,__tmp_reg__
 138 00f6 CDBF      		out __SP_L__,r28
 139               	/* prologue: function */
 140               	/* frame size = 1032 */
 141 00f8 7C01      		movw r14,r24
 142 00fa 61E0      		ldi r22,lo8(1)
 143 00fc 70E0      		ldi r23,hi8(1)
 144 00fe AE01      		movw r20,r28
 145 0100 4F5F      		subi r20,lo8(-(1))
 146 0102 5F4F      		sbci r21,hi8(-(1))
 147 0104 0E94 0000 		call luaL_checklstring
 148 0108 6C01      		movw r12,r24
 149 010a 8E01      		movw r16,r28
 150 010c 0D5F      		subi r16,lo8(-(3))
 151 010e 1F4F      		sbci r17,hi8(-(3))
 152 0110 C701      		movw r24,r14
 153 0112 B801      		movw r22,r16
 154 0114 0E94 0000 		call luaL_buffinit
 155 0118 E12E      		mov r14,r17
 156 011a 99E0      		ldi r25,lo8(1033)
 157 011c A92E      		mov r10,r25
 158 011e 94E0      		ldi r25,hi8(1033)
 159 0120 B92E      		mov r11,r25
 160 0122 AC0E      		add r10,r28
 161 0124 BD1E      		adc r11,r29
 162 0126 00C0      		rjmp .L7
 163               	.L9:
 164 0128 8B81      		ldd r24,Y+3
 165 012a 9C81      		ldd r25,Y+4
 166 012c 8A15      		cp r24,r10
 167 012e 9B05      		cpc r25,r11
 168 0130 00F0      		brlo .L8
 169 0132 802F      		mov r24,r16
 170 0134 9E2D      		mov r25,r14
 171 0136 0E94 0000 		call luaL_prepbuffer
GAS LISTING C:\DOCUME~1\ADMINI~1\LOCALS~1\Temp/cctKSLoe.s 			page 4


 172               	.L8:
 173 013a E981      		ldd r30,Y+1
 174 013c FA81      		ldd r31,Y+2
 175 013e EC0D      		add r30,r12
 176 0140 FD1D      		adc r31,r13
 177 0142 8081      		ld r24,Z
 178 0144 EB81      		ldd r30,Y+3
 179 0146 FC81      		ldd r31,Y+4
 180 0148 8193      		st Z+,r24
 181 014a FC83      		std Y+4,r31
 182 014c EB83      		std Y+3,r30
 183               	.L7:
 184 014e 8981      		ldd r24,Y+1
 185 0150 9A81      		ldd r25,Y+2
 186 0152 0197      		sbiw r24,1
 187 0154 9A83      		std Y+2,r25
 188 0156 8983      		std Y+1,r24
 189 0158 0196      		adiw r24,1
 190 015a 01F4      		brne .L9
 191 015c 802F      		mov r24,r16
 192 015e 9E2D      		mov r25,r14
 193 0160 0E94 0000 		call luaL_pushresult
 194 0164 81E0      		ldi r24,lo8(1)
 195 0166 90E0      		ldi r25,hi8(1)
 196               	/* epilogue start */
 197 0168 C85F      		subi r28,lo8(-(1032))
 198 016a DB4F      		sbci r29,hi8(-(1032))
 199 016c 0FB6      		in __tmp_reg__,__SREG__
 200 016e F894      		cli
 201 0170 DEBF      		out __SP_H__,r29
 202 0172 0FBE      		out __SREG__,__tmp_reg__
 203 0174 CDBF      		out __SP_L__,r28
 204 0176 CF91      		pop r28
 205 0178 DF91      		pop r29
 206 017a 1F91      		pop r17
 207 017c 0F91      		pop r16
 208 017e FF90      		pop r15
 209 0180 EF90      		pop r14
 210 0182 DF90      		pop r13
 211 0184 CF90      		pop r12
 212 0186 BF90      		pop r11
 213 0188 AF90      		pop r10
 214 018a 0895      		ret
 215               		.size	str_reverse, .-str_reverse
 216               		.data
 217               	.LC0:
 218 0000 00        		.string	""
 219               		.text
 220               		.type	str_sub, @function
 221               	str_sub:
 222 018c CF92      		push r12
 223 018e DF92      		push r13
 224 0190 EF92      		push r14
 225 0192 FF92      		push r15
 226 0194 0F93      		push r16
 227 0196 1F93      		push r17
 228 0198 DF93      		push r29
GAS LISTING C:\DOCUME~1\ADMINI~1\LOCALS~1\Temp/cctKSLoe.s 			page 5


 229 019a CF93      		push r28
 230 019c 00D0      		rcall .
 231 019e CDB7      		in r28,__SP_L__
 232 01a0 DEB7      		in r29,__SP_H__
 233               	/* prologue: function */
 234               	/* frame size = 2 */
 235 01a2 7C01      		movw r14,r24
 236 01a4 61E0      		ldi r22,lo8(1)
 237 01a6 70E0      		ldi r23,hi8(1)
 238 01a8 AE01      		movw r20,r28
 239 01aa 4F5F      		subi r20,lo8(-(1))
 240 01ac 5F4F      		sbci r21,hi8(-(1))
 241 01ae 0E94 0000 		call luaL_checklstring
 242 01b2 6C01      		movw r12,r24
 243 01b4 C701      		movw r24,r14
 244 01b6 62E0      		ldi r22,lo8(2)
 245 01b8 70E0      		ldi r23,hi8(2)
 246 01ba 0E94 0000 		call luaL_checkinteger
 247 01be 2981      		ldd r18,Y+1
 248 01c0 3A81      		ldd r19,Y+2
 249 01c2 97FF      		sbrs r25,7
 250 01c4 00C0      		rjmp .L12
 251 01c6 2F5F      		subi r18,lo8(-(1))
 252 01c8 3F4F      		sbci r19,hi8(-(1))
 253 01ca 820F      		add r24,r18
 254 01cc 931F      		adc r25,r19
 255               	.L12:
 256 01ce 8C01      		movw r16,r24
 257 01d0 97FF      		sbrs r25,7
 258 01d2 00C0      		rjmp .L13
 259 01d4 00E0      		ldi r16,lo8(0)
 260 01d6 10E0      		ldi r17,hi8(0)
 261               	.L13:
 262 01d8 C701      		movw r24,r14
 263 01da 63E0      		ldi r22,lo8(3)
 264 01dc 70E0      		ldi r23,hi8(3)
 265 01de 4FEF      		ldi r20,lo8(-1)
 266 01e0 5FEF      		ldi r21,hi8(-1)
 267 01e2 0E94 0000 		call luaL_optinteger
 268 01e6 2981      		ldd r18,Y+1
 269 01e8 3A81      		ldd r19,Y+2
 270 01ea 97FF      		sbrs r25,7
 271 01ec 00C0      		rjmp .L14
 272 01ee 2F5F      		subi r18,lo8(-(1))
 273 01f0 3F4F      		sbci r19,hi8(-(1))
 274 01f2 820F      		add r24,r18
 275 01f4 931F      		adc r25,r19
 276 01f6 2150      		subi r18,lo8(-(-1))
 277 01f8 3040      		sbci r19,hi8(-(-1))
 278               	.L14:
 279 01fa 0115      		cp r16,__zero_reg__
 280 01fc 1105      		cpc r17,__zero_reg__
 281 01fe 01F4      		brne .L15
 282 0200 01E0      		ldi r16,lo8(1)
 283 0202 10E0      		ldi r17,hi8(1)
 284               	.L15:
 285 0204 AC01      		movw r20,r24
GAS LISTING C:\DOCUME~1\ADMINI~1\LOCALS~1\Temp/cctKSLoe.s 			page 6


 286 0206 97FF      		sbrs r25,7
 287 0208 00C0      		rjmp .L16
 288 020a 40E0      		ldi r20,lo8(0)
 289 020c 50E0      		ldi r21,hi8(0)
 290               	.L16:
 291 020e 2417      		cp r18,r20
 292 0210 3507      		cpc r19,r21
 293 0212 04F4      		brge .L17
 294 0214 A901      		movw r20,r18
 295               	.L17:
 296 0216 4017      		cp r20,r16
 297 0218 5107      		cpc r21,r17
 298 021a 04F0      		brlt .L18
 299 021c B801      		movw r22,r16
 300 021e 6150      		subi r22,lo8(-(-1))
 301 0220 7040      		sbci r23,hi8(-(-1))
 302 0222 6C0D      		add r22,r12
 303 0224 7D1D      		adc r23,r13
 304 0226 4F5F      		subi r20,lo8(-(1))
 305 0228 5F4F      		sbci r21,hi8(-(1))
 306 022a 401B      		sub r20,r16
 307 022c 510B      		sbc r21,r17
 308 022e C701      		movw r24,r14
 309 0230 00C0      		rjmp .L21
 310               	.L18:
 311 0232 C701      		movw r24,r14
 312 0234 60E0      		ldi r22,lo8(.LC0)
 313 0236 70E0      		ldi r23,hi8(.LC0)
 314 0238 40E0      		ldi r20,lo8(0)
 315 023a 50E0      		ldi r21,hi8(0)
 316               	.L21:
 317 023c 0E94 0000 		call lua_pushlstring
 318 0240 81E0      		ldi r24,lo8(1)
 319 0242 90E0      		ldi r25,hi8(1)
 320               	/* epilogue start */
 321 0244 0F90      		pop __tmp_reg__
 322 0246 0F90      		pop __tmp_reg__
 323 0248 CF91      		pop r28
 324 024a DF91      		pop r29
 325 024c 1F91      		pop r17
 326 024e 0F91      		pop r16
 327 0250 FF90      		pop r15
 328 0252 EF90      		pop r14
 329 0254 DF90      		pop r13
 330 0256 CF90      		pop r12
 331 0258 0895      		ret
 332               		.size	str_sub, .-str_sub
 333               		.type	str_rep, @function
 334               	str_rep:
 335 025a AF92      		push r10
 336 025c BF92      		push r11
 337 025e CF92      		push r12
 338 0260 DF92      		push r13
 339 0262 EF92      		push r14
 340 0264 FF92      		push r15
 341 0266 0F93      		push r16
 342 0268 1F93      		push r17
GAS LISTING C:\DOCUME~1\ADMINI~1\LOCALS~1\Temp/cctKSLoe.s 			page 7


 343 026a DF93      		push r29
 344 026c CF93      		push r28
 345 026e CDB7      		in r28,__SP_L__
 346 0270 DEB7      		in r29,__SP_H__
 347 0272 C850      		subi r28,lo8(-(-1032))
 348 0274 D440      		sbci r29,hi8(-(-1032))
 349 0276 0FB6      		in __tmp_reg__,__SREG__
 350 0278 F894      		cli
 351 027a DEBF      		out __SP_H__,r29
 352 027c 0FBE      		out __SREG__,__tmp_reg__
 353 027e CDBF      		out __SP_L__,r28
 354               	/* prologue: function */
 355               	/* frame size = 1032 */
 356 0280 7C01      		movw r14,r24
 357 0282 61E0      		ldi r22,lo8(1)
 358 0284 70E0      		ldi r23,hi8(1)
 359 0286 AE01      		movw r20,r28
 360 0288 4F5F      		subi r20,lo8(-(1))
 361 028a 5F4F      		sbci r21,hi8(-(1))
 362 028c 0E94 0000 		call luaL_checklstring
 363 0290 5C01      		movw r10,r24
 364 0292 C701      		movw r24,r14
 365 0294 62E0      		ldi r22,lo8(2)
 366 0296 70E0      		ldi r23,hi8(2)
 367 0298 0E94 0000 		call luaL_checkinteger
 368 029c D82E      		mov r13,r24
 369 029e C92E      		mov r12,r25
 370 02a0 8E01      		movw r16,r28
 371 02a2 0D5F      		subi r16,lo8(-(3))
 372 02a4 1F4F      		sbci r17,hi8(-(3))
 373 02a6 C701      		movw r24,r14
 374 02a8 B801      		movw r22,r16
 375 02aa 0E94 0000 		call luaL_buffinit
 376 02ae 2D2D      		mov r18,r13
 377 02b0 3C2D      		mov r19,r12
 378 02b2 C901      		movw r24,r18
 379 02b4 6C01      		movw r12,r24
 380 02b6 E12E      		mov r14,r17
 381 02b8 00C0      		rjmp .L23
 382               	.L24:
 383 02ba 4981      		ldd r20,Y+1
 384 02bc 5A81      		ldd r21,Y+2
 385 02be 802F      		mov r24,r16
 386 02c0 9E2D      		mov r25,r14
 387 02c2 B501      		movw r22,r10
 388 02c4 0E94 0000 		call luaL_addlstring
 389 02c8 0894      		sec
 390 02ca C108      		sbc r12,__zero_reg__
 391 02cc D108      		sbc r13,__zero_reg__
 392               	.L23:
 393 02ce 1C14      		cp __zero_reg__,r12
 394 02d0 1D04      		cpc __zero_reg__,r13
 395 02d2 04F0      		brlt .L24
 396 02d4 802F      		mov r24,r16
 397 02d6 9E2D      		mov r25,r14
 398 02d8 0E94 0000 		call luaL_pushresult
 399 02dc 81E0      		ldi r24,lo8(1)
GAS LISTING C:\DOCUME~1\ADMINI~1\LOCALS~1\Temp/cctKSLoe.s 			page 8


 400 02de 90E0      		ldi r25,hi8(1)
 401               	/* epilogue start */
 402 02e0 C85F      		subi r28,lo8(-(1032))
 403 02e2 DB4F      		sbci r29,hi8(-(1032))
 404 02e4 0FB6      		in __tmp_reg__,__SREG__
 405 02e6 F894      		cli
 406 02e8 DEBF      		out __SP_H__,r29
 407 02ea 0FBE      		out __SREG__,__tmp_reg__
 408 02ec CDBF      		out __SP_L__,r28
 409 02ee CF91      		pop r28
 410 02f0 DF91      		pop r29
 411 02f2 1F91      		pop r17
 412 02f4 0F91      		pop r16
 413 02f6 FF90      		pop r15
 414 02f8 EF90      		pop r14
 415 02fa DF90      		pop r13
 416 02fc CF90      		pop r12
 417 02fe BF90      		pop r11
 418 0300 AF90      		pop r10
 419 0302 0895      		ret
 420               		.size	str_rep, .-str_rep
 421               		.type	writer, @function
 422               	writer:
 423               	/* prologue: function */
 424               	/* frame size = 0 */
 425 0304 C901      		movw r24,r18
 426 0306 0E94 0000 		call luaL_addlstring
 427 030a 80E0      		ldi r24,lo8(0)
 428 030c 90E0      		ldi r25,hi8(0)
 429               	/* epilogue start */
 430 030e 0895      		ret
 431               		.size	writer, .-writer
 432               		.type	str_len, @function
 433               	str_len:
 434 0310 0F93      		push r16
 435 0312 1F93      		push r17
 436 0314 DF93      		push r29
 437 0316 CF93      		push r28
 438 0318 00D0      		rcall .
 439 031a CDB7      		in r28,__SP_L__
 440 031c DEB7      		in r29,__SP_H__
 441               	/* prologue: function */
 442               	/* frame size = 2 */
 443 031e 8C01      		movw r16,r24
 444 0320 61E0      		ldi r22,lo8(1)
 445 0322 70E0      		ldi r23,hi8(1)
 446 0324 AE01      		movw r20,r28
 447 0326 4F5F      		subi r20,lo8(-(1))
 448 0328 5F4F      		sbci r21,hi8(-(1))
 449 032a 0E94 0000 		call luaL_checklstring
 450 032e 6981      		ldd r22,Y+1
 451 0330 7A81      		ldd r23,Y+2
 452 0332 C801      		movw r24,r16
 453 0334 0E94 0000 		call lua_pushinteger
 454 0338 81E0      		ldi r24,lo8(1)
 455 033a 90E0      		ldi r25,hi8(1)
 456               	/* epilogue start */
GAS LISTING C:\DOCUME~1\ADMINI~1\LOCALS~1\Temp/cctKSLoe.s 			page 9


 457 033c 0F90      		pop __tmp_reg__
 458 033e 0F90      		pop __tmp_reg__
 459 0340 CF91      		pop r28
 460 0342 DF91      		pop r29
 461 0344 1F91      		pop r17
 462 0346 0F91      		pop r16
 463 0348 0895      		ret
 464               		.size	str_len, .-str_len
 465               		.data
 466               	.LC1:
 467 0001 6D61 6C66 		.string	"malformed pattern (ends with '%%')"
 467      6F72 6D65 
 467      6420 7061 
 467      7474 6572 
 467      6E20 2865 
 468               	.LC2:
 469 0024 6D61 6C66 		.string	"malformed pattern (missing ']')"
 469      6F72 6D65 
 469      6420 7061 
 469      7474 6572 
 469      6E20 286D 
 470               		.text
 471               		.type	classend, @function
 472               	classend:
 473 034a EF92      		push r14
 474 034c FF92      		push r15
 475 034e 0F93      		push r16
 476 0350 1F93      		push r17
 477 0352 CF93      		push r28
 478 0354 DF93      		push r29
 479               	/* prologue: function */
 480               	/* frame size = 0 */
 481 0356 8C01      		movw r16,r24
 482 0358 FB01      		movw r30,r22
 483 035a EB01      		movw r28,r22
 484 035c 2196      		adiw r28,1
 485 035e 8081      		ld r24,Z
 486 0360 8532      		cpi r24,lo8(37)
 487 0362 01F0      		breq .L32
 488 0364 8B35      		cpi r24,lo8(91)
 489 0366 01F0      		breq .+2
 490 0368 00C0      		rjmp .L31
 491 036a 00C0      		rjmp .L42
 492               	.L32:
 493 036c 8181      		ldd r24,Z+1
 494 036e 8823      		tst r24
 495 0370 01F4      		brne .L41
 496 0372 00D0      		rcall .
 497 0374 00D0      		rcall .
 498 0376 F801      		movw r30,r16
 499 0378 8481      		ldd r24,Z+4
 500 037a 9581      		ldd r25,Z+5
 501 037c EDB7      		in r30,__SP_L__
 502 037e FEB7      		in r31,__SP_H__
 503 0380 9283      		std Z+2,r25
 504 0382 8183      		std Z+1,r24
 505 0384 80E0      		ldi r24,lo8(.LC1)
GAS LISTING C:\DOCUME~1\ADMINI~1\LOCALS~1\Temp/cctKSLoe.s 			page 10


 506 0386 90E0      		ldi r25,hi8(.LC1)
 507 0388 9483      		std Z+4,r25
 508 038a 8383      		std Z+3,r24
 509 038c 0E94 0000 		call luaL_error
 510 0390 0F90      		pop __tmp_reg__
 511 0392 0F90      		pop __tmp_reg__
 512 0394 0F90      		pop __tmp_reg__
 513 0396 0F90      		pop __tmp_reg__
 514 0398 00C0      		rjmp .L41
 515               	.L42:
 516 039a 8181      		ldd r24,Z+1
 517 039c 8E35      		cpi r24,lo8(94)
 518 039e 01F4      		brne .L35
 519 03a0 2196      		adiw r28,1
 520               	.L35:
 521 03a2 20E0      		ldi r18,lo8(.LC2)
 522 03a4 E22E      		mov r14,r18
 523 03a6 20E0      		ldi r18,hi8(.LC2)
 524 03a8 F22E      		mov r15,r18
 525               	.L39:
 526 03aa 8881      		ld r24,Y
 527 03ac 8823      		tst r24
 528 03ae 01F4      		brne .L36
 529 03b0 00D0      		rcall .
 530 03b2 00D0      		rcall .
 531 03b4 F801      		movw r30,r16
 532 03b6 8481      		ldd r24,Z+4
 533 03b8 9581      		ldd r25,Z+5
 534 03ba EDB7      		in r30,__SP_L__
 535 03bc FEB7      		in r31,__SP_H__
 536 03be 9283      		std Z+2,r25
 537 03c0 8183      		std Z+1,r24
 538 03c2 F482      		std Z+4,r15
 539 03c4 E382      		std Z+3,r14
 540 03c6 0E94 0000 		call luaL_error
 541 03ca 0F90      		pop __tmp_reg__
 542 03cc 0F90      		pop __tmp_reg__
 543 03ce 0F90      		pop __tmp_reg__
 544 03d0 0F90      		pop __tmp_reg__
 545               	.L36:
 546 03d2 8991      		ld r24,Y+
 547 03d4 8532      		cpi r24,lo8(37)
 548 03d6 01F4      		brne .L37
 549 03d8 8881      		ld r24,Y
 550 03da 8111      		cpse r24,__zero_reg__
 551 03dc 2196      		adiw r28,1
 552               	.L37:
 553 03de 8881      		ld r24,Y
 554 03e0 8D35      		cpi r24,lo8(93)
 555 03e2 01F4      		brne .L39
 556               	.L41:
 557 03e4 2196      		adiw r28,1
 558               	.L31:
 559 03e6 CE01      		movw r24,r28
 560               	/* epilogue start */
 561 03e8 DF91      		pop r29
 562 03ea CF91      		pop r28
GAS LISTING C:\DOCUME~1\ADMINI~1\LOCALS~1\Temp/cctKSLoe.s 			page 11


 563 03ec 1F91      		pop r17
 564 03ee 0F91      		pop r16
 565 03f0 FF90      		pop r15
 566 03f2 EF90      		pop r14
 567 03f4 0895      		ret
 568               		.size	classend, .-classend
 569               		.data
 570               	.LC3:
 571 0044 696E 7661 		.string	"invalid capture index"
 571      6C69 6420 
 571      6361 7074 
 571      7572 6520 
 571      696E 6465 
 572               	.LC4:
 573 005a 756E 6669 		.string	"unfinished capture"
 573      6E69 7368 
 573      6564 2063 
 573      6170 7475 
 573      7265 00
 574               		.text
 575               		.type	push_onecapture, @function
 576               	push_onecapture:
 577 03f6 EF92      		push r14
 578 03f8 FF92      		push r15
 579 03fa 0F93      		push r16
 580 03fc 1F93      		push r17
 581 03fe CF93      		push r28
 582 0400 DF93      		push r29
 583               	/* prologue: function */
 584               	/* frame size = 0 */
 585 0402 8C01      		movw r16,r24
 586 0404 EB01      		movw r28,r22
 587 0406 FC01      		movw r30,r24
 588 0408 8681      		ldd r24,Z+6
 589 040a 9781      		ldd r25,Z+7
 590 040c 6817      		cp r22,r24
 591 040e 7907      		cpc r23,r25
 592 0410 04F0      		brlt .L44
 593 0412 8481      		ldd r24,Z+4
 594 0414 9581      		ldd r25,Z+5
 595 0416 6115      		cp r22,__zero_reg__
 596 0418 7105      		cpc r23,__zero_reg__
 597 041a 01F4      		brne .L45
 598 041c 241B      		sub r18,r20
 599 041e 350B      		sbc r19,r21
 600 0420 BA01      		movw r22,r20
 601 0422 A901      		movw r20,r18
 602 0424 00C0      		rjmp .L50
 603               	.L45:
 604 0426 00D0      		rcall .
 605 0428 00D0      		rcall .
 606 042a EDB7      		in r30,__SP_L__
 607 042c FEB7      		in r31,__SP_H__
 608 042e 9283      		std Z+2,r25
 609 0430 8183      		std Z+1,r24
 610 0432 80E0      		ldi r24,lo8(.LC3)
 611 0434 90E0      		ldi r25,hi8(.LC3)
GAS LISTING C:\DOCUME~1\ADMINI~1\LOCALS~1\Temp/cctKSLoe.s 			page 12


 612 0436 9483      		std Z+4,r25
 613 0438 8383      		std Z+3,r24
 614 043a 0E94 0000 		call luaL_error
 615 043e 0F90      		pop __tmp_reg__
 616 0440 0F90      		pop __tmp_reg__
 617 0442 0F90      		pop __tmp_reg__
 618 0444 0F90      		pop __tmp_reg__
 619 0446 00C0      		rjmp .L49
 620               	.L44:
 621 0448 FB01      		movw r30,r22
 622 044a EE0F      		lsl r30
 623 044c FF1F      		rol r31
 624 044e EE0F      		lsl r30
 625 0450 FF1F      		rol r31
 626 0452 E00F      		add r30,r16
 627 0454 F11F      		adc r31,r17
 628 0456 E284      		ldd r14,Z+10
 629 0458 F384      		ldd r15,Z+11
 630 045a FFEF      		ldi r31,lo8(-1)
 631 045c EF16      		cp r14,r31
 632 045e FFEF      		ldi r31,hi8(-1)
 633 0460 FF06      		cpc r15,r31
 634 0462 01F4      		brne .L47
 635 0464 00D0      		rcall .
 636 0466 00D0      		rcall .
 637 0468 F801      		movw r30,r16
 638 046a 8481      		ldd r24,Z+4
 639 046c 9581      		ldd r25,Z+5
 640 046e EDB7      		in r30,__SP_L__
 641 0470 FEB7      		in r31,__SP_H__
 642 0472 9283      		std Z+2,r25
 643 0474 8183      		std Z+1,r24
 644 0476 80E0      		ldi r24,lo8(.LC4)
 645 0478 90E0      		ldi r25,hi8(.LC4)
 646 047a 9483      		std Z+4,r25
 647 047c 8383      		std Z+3,r24
 648 047e 0E94 0000 		call luaL_error
 649 0482 0F90      		pop __tmp_reg__
 650 0484 0F90      		pop __tmp_reg__
 651 0486 0F90      		pop __tmp_reg__
 652 0488 0F90      		pop __tmp_reg__
 653 048a 00C0      		rjmp .L48
 654               	.L47:
 655 048c FEEF      		ldi r31,lo8(-2)
 656 048e EF16      		cp r14,r31
 657 0490 FFEF      		ldi r31,hi8(-2)
 658 0492 FF06      		cpc r15,r31
 659 0494 01F4      		brne .L48
 660 0496 2296      		adiw r28,2
 661 0498 CC0F      		lsl r28
 662 049a DD1F      		rol r29
 663 049c CC0F      		lsl r28
 664 049e DD1F      		rol r29
 665 04a0 C00F      		add r28,r16
 666 04a2 D11F      		adc r29,r17
 667 04a4 6881      		ld r22,Y
 668 04a6 7981      		ldd r23,Y+1
GAS LISTING C:\DOCUME~1\ADMINI~1\LOCALS~1\Temp/cctKSLoe.s 			page 13


 669 04a8 6F5F      		subi r22,lo8(-(1))
 670 04aa 7F4F      		sbci r23,hi8(-(1))
 671 04ac F801      		movw r30,r16
 672 04ae 8081      		ld r24,Z
 673 04b0 9181      		ldd r25,Z+1
 674 04b2 681B      		sub r22,r24
 675 04b4 790B      		sbc r23,r25
 676 04b6 8481      		ldd r24,Z+4
 677 04b8 9581      		ldd r25,Z+5
 678 04ba 0E94 0000 		call lua_pushinteger
 679 04be 00C0      		rjmp .L49
 680               	.L48:
 681 04c0 2296      		adiw r28,2
 682 04c2 CC0F      		lsl r28
 683 04c4 DD1F      		rol r29
 684 04c6 CC0F      		lsl r28
 685 04c8 DD1F      		rol r29
 686 04ca C00F      		add r28,r16
 687 04cc D11F      		adc r29,r17
 688 04ce 6881      		ld r22,Y
 689 04d0 7981      		ldd r23,Y+1
 690 04d2 F801      		movw r30,r16
 691 04d4 8481      		ldd r24,Z+4
 692 04d6 9581      		ldd r25,Z+5
 693 04d8 A701      		movw r20,r14
 694               	.L50:
 695 04da 0E94 0000 		call lua_pushlstring
 696               	.L49:
 697               	/* epilogue start */
 698 04de DF91      		pop r29
 699 04e0 CF91      		pop r28
 700 04e2 1F91      		pop r17
 701 04e4 0F91      		pop r16
 702 04e6 FF90      		pop r15
 703 04e8 EF90      		pop r14
 704 04ea 0895      		ret
 705               		.size	push_onecapture, .-push_onecapture
 706               		.data
 707               	.LC5:
 708 006d 2773 7472 		.string	"'string.gfind' was renamed to 'string.gmatch'"
 708      696E 672E 
 708      6766 696E 
 708      6427 2077 
 708      6173 2072 
 709               		.text
 710               		.type	gfind_nodef, @function
 711               	gfind_nodef:
 712               	/* prologue: function */
 713               	/* frame size = 0 */
 714 04ec 00D0      		rcall .
 715 04ee 00D0      		rcall .
 716 04f0 EDB7      		in r30,__SP_L__
 717 04f2 FEB7      		in r31,__SP_H__
 718 04f4 9283      		std Z+2,r25
 719 04f6 8183      		std Z+1,r24
 720 04f8 80E0      		ldi r24,lo8(.LC5)
 721 04fa 90E0      		ldi r25,hi8(.LC5)
GAS LISTING C:\DOCUME~1\ADMINI~1\LOCALS~1\Temp/cctKSLoe.s 			page 14


 722 04fc 9483      		std Z+4,r25
 723 04fe 8383      		std Z+3,r24
 724 0500 0E94 0000 		call luaL_error
 725 0504 0F90      		pop __tmp_reg__
 726 0506 0F90      		pop __tmp_reg__
 727 0508 0F90      		pop __tmp_reg__
 728 050a 0F90      		pop __tmp_reg__
 729               	/* epilogue start */
 730 050c 0895      		ret
 731               		.size	gfind_nodef, .-gfind_nodef
 732               		.type	str_lower, @function
 733               	str_lower:
 734 050e 8F92      		push r8
 735 0510 9F92      		push r9
 736 0512 AF92      		push r10
 737 0514 BF92      		push r11
 738 0516 CF92      		push r12
 739 0518 DF92      		push r13
 740 051a EF92      		push r14
 741 051c FF92      		push r15
 742 051e 0F93      		push r16
 743 0520 1F93      		push r17
 744 0522 DF93      		push r29
 745 0524 CF93      		push r28
 746 0526 CDB7      		in r28,__SP_L__
 747 0528 DEB7      		in r29,__SP_H__
 748 052a C850      		subi r28,lo8(-(-1032))
 749 052c D440      		sbci r29,hi8(-(-1032))
 750 052e 0FB6      		in __tmp_reg__,__SREG__
 751 0530 F894      		cli
 752 0532 DEBF      		out __SP_H__,r29
 753 0534 0FBE      		out __SREG__,__tmp_reg__
 754 0536 CDBF      		out __SP_L__,r28
 755               	/* prologue: function */
 756               	/* frame size = 1032 */
 757 0538 7C01      		movw r14,r24
 758 053a 61E0      		ldi r22,lo8(1)
 759 053c 70E0      		ldi r23,hi8(1)
 760 053e AE01      		movw r20,r28
 761 0540 4F5F      		subi r20,lo8(-(1))
 762 0542 5F4F      		sbci r21,hi8(-(1))
 763 0544 0E94 0000 		call luaL_checklstring
 764 0548 6C01      		movw r12,r24
 765 054a 8E01      		movw r16,r28
 766 054c 0D5F      		subi r16,lo8(-(3))
 767 054e 1F4F      		sbci r17,hi8(-(3))
 768 0550 C701      		movw r24,r14
 769 0552 B801      		movw r22,r16
 770 0554 0E94 0000 		call luaL_buffinit
 771 0558 EE24      		clr r14
 772 055a FF24      		clr r15
 773 055c B02E      		mov r11,r16
 774 055e A12E      		mov r10,r17
 775 0560 69E0      		ldi r22,lo8(1033)
 776 0562 862E      		mov r8,r22
 777 0564 64E0      		ldi r22,hi8(1033)
 778 0566 962E      		mov r9,r22
GAS LISTING C:\DOCUME~1\ADMINI~1\LOCALS~1\Temp/cctKSLoe.s 			page 15


 779 0568 8C0E      		add r8,r28
 780 056a 9D1E      		adc r9,r29
 781 056c 00C0      		rjmp .L54
 782               	.L56:
 783 056e 8B81      		ldd r24,Y+3
 784 0570 9C81      		ldd r25,Y+4
 785 0572 8815      		cp r24,r8
 786 0574 9905      		cpc r25,r9
 787 0576 00F0      		brlo .L55
 788 0578 8B2D      		mov r24,r11
 789 057a 9A2D      		mov r25,r10
 790 057c 0E94 0000 		call luaL_prepbuffer
 791               	.L55:
 792 0580 1B81      		ldd r17,Y+3
 793 0582 0C81      		ldd r16,Y+4
 794 0584 F601      		movw r30,r12
 795 0586 EE0D      		add r30,r14
 796 0588 FF1D      		adc r31,r15
 797 058a 8081      		ld r24,Z
 798 058c 90E0      		ldi r25,lo8(0)
 799 058e 0E94 0000 		call tolower
 800 0592 E12F      		mov r30,r17
 801 0594 F02F      		mov r31,r16
 802 0596 8193      		st Z+,r24
 803 0598 FC83      		std Y+4,r31
 804 059a EB83      		std Y+3,r30
 805 059c 0894      		sec
 806 059e E11C      		adc r14,__zero_reg__
 807 05a0 F11C      		adc r15,__zero_reg__
 808               	.L54:
 809 05a2 8981      		ldd r24,Y+1
 810 05a4 9A81      		ldd r25,Y+2
 811 05a6 E816      		cp r14,r24
 812 05a8 F906      		cpc r15,r25
 813 05aa 00F0      		brlo .L56
 814 05ac 8B2D      		mov r24,r11
 815 05ae 9A2D      		mov r25,r10
 816 05b0 0E94 0000 		call luaL_pushresult
 817 05b4 81E0      		ldi r24,lo8(1)
 818 05b6 90E0      		ldi r25,hi8(1)
 819               	/* epilogue start */
 820 05b8 C85F      		subi r28,lo8(-(1032))
 821 05ba DB4F      		sbci r29,hi8(-(1032))
 822 05bc 0FB6      		in __tmp_reg__,__SREG__
 823 05be F894      		cli
 824 05c0 DEBF      		out __SP_H__,r29
 825 05c2 0FBE      		out __SREG__,__tmp_reg__
 826 05c4 CDBF      		out __SP_L__,r28
 827 05c6 CF91      		pop r28
 828 05c8 DF91      		pop r29
 829 05ca 1F91      		pop r17
 830 05cc 0F91      		pop r16
 831 05ce FF90      		pop r15
 832 05d0 EF90      		pop r14
 833 05d2 DF90      		pop r13
 834 05d4 CF90      		pop r12
 835 05d6 BF90      		pop r11
GAS LISTING C:\DOCUME~1\ADMINI~1\LOCALS~1\Temp/cctKSLoe.s 			page 16


 836 05d8 AF90      		pop r10
 837 05da 9F90      		pop r9
 838 05dc 8F90      		pop r8
 839 05de 0895      		ret
 840               		.size	str_lower, .-str_lower
 841               		.type	match_class, @function
 842               	match_class:
 843 05e0 EF92      		push r14
 844 05e2 FF92      		push r15
 845 05e4 0F93      		push r16
 846 05e6 1F93      		push r17
 847 05e8 CF93      		push r28
 848 05ea DF93      		push r29
 849               	/* prologue: function */
 850               	/* frame size = 0 */
 851 05ec 8C01      		movw r16,r24
 852 05ee 7B01      		movw r14,r22
 853 05f0 CB01      		movw r24,r22
 854 05f2 0E94 0000 		call tolower
 855 05f6 8037      		cpi r24,112
 856 05f8 9105      		cpc r25,__zero_reg__
 857 05fa 01F4      		brne .+2
 858 05fc 00C0      		rjmp .L64
 859 05fe 8137      		cpi r24,113
 860 0600 9105      		cpc r25,__zero_reg__
 861 0602 04F4      		brge .L70
 862 0604 8336      		cpi r24,99
 863 0606 9105      		cpc r25,__zero_reg__
 864 0608 01F0      		breq .L61
 865 060a 8436      		cpi r24,100
 866 060c 9105      		cpc r25,__zero_reg__
 867 060e 04F4      		brge .L71
 868 0610 8136      		cpi r24,97
 869 0612 9105      		cpc r25,__zero_reg__
 870 0614 01F0      		breq .+2
 871 0616 00C0      		rjmp .L59
 872 0618 00C0      		rjmp .L82
 873               	.L71:
 874 061a 8436      		cpi r24,100
 875 061c 9105      		cpc r25,__zero_reg__
 876 061e 01F0      		breq .L62
 877 0620 8C36      		cpi r24,108
 878 0622 9105      		cpc r25,__zero_reg__
 879 0624 01F0      		breq .+2
 880 0626 00C0      		rjmp .L59
 881 0628 00C0      		rjmp .L83
 882               	.L70:
 883 062a 8737      		cpi r24,119
 884 062c 9105      		cpc r25,__zero_reg__
 885 062e 01F0      		breq .L67
 886 0630 8837      		cpi r24,120
 887 0632 9105      		cpc r25,__zero_reg__
 888 0634 04F4      		brge .L72
 889 0636 8337      		cpi r24,115
 890 0638 9105      		cpc r25,__zero_reg__
 891 063a 01F0      		breq .L65
 892 063c 8537      		cpi r24,117
GAS LISTING C:\DOCUME~1\ADMINI~1\LOCALS~1\Temp/cctKSLoe.s 			page 17


 893 063e 9105      		cpc r25,__zero_reg__
 894 0640 01F4      		brne .L59
 895 0642 00C0      		rjmp .L84
 896               	.L72:
 897 0644 8837      		cpi r24,120
 898 0646 9105      		cpc r25,__zero_reg__
 899 0648 01F0      		breq .L68
 900 064a 8A37      		cpi r24,122
 901 064c 9105      		cpc r25,__zero_reg__
 902 064e 01F4      		brne .L59
 903 0650 00C0      		rjmp .L85
 904               	.L82:
 905 0652 C801      		movw r24,r16
 906 0654 0E94 0000 		call isalpha
 907 0658 00C0      		rjmp .L80
 908               	.L61:
 909 065a C801      		movw r24,r16
 910 065c 0E94 0000 		call iscntrl
 911               	.L80:
 912 0660 EC01      		movw r28,r24
 913 0662 00C0      		rjmp .L73
 914               	.L62:
 915 0664 C0E0      		ldi r28,lo8(0)
 916 0666 D0E0      		ldi r29,hi8(0)
 917 0668 0053      		subi r16,lo8(-(-48))
 918 066a 1040      		sbci r17,hi8(-(-48))
 919 066c 0A30      		cpi r16,10
 920 066e 1105      		cpc r17,__zero_reg__
 921 0670 00F4      		brsh .L73
 922 0672 00C0      		rjmp .L81
 923               	.L83:
 924 0674 C801      		movw r24,r16
 925 0676 0E94 0000 		call islower
 926 067a 00C0      		rjmp .L80
 927               	.L64:
 928 067c C801      		movw r24,r16
 929 067e 0E94 0000 		call ispunct
 930 0682 00C0      		rjmp .L80
 931               	.L65:
 932 0684 C801      		movw r24,r16
 933 0686 0E94 0000 		call isspace
 934 068a 00C0      		rjmp .L80
 935               	.L84:
 936 068c C801      		movw r24,r16
 937 068e 0E94 0000 		call isupper
 938 0692 00C0      		rjmp .L80
 939               	.L67:
 940 0694 C801      		movw r24,r16
 941 0696 0E94 0000 		call isalnum
 942 069a 00C0      		rjmp .L80
 943               	.L68:
 944 069c C801      		movw r24,r16
 945 069e 0E94 0000 		call isxdigit
 946 06a2 00C0      		rjmp .L80
 947               	.L85:
 948 06a4 C0E0      		ldi r28,lo8(0)
 949 06a6 D0E0      		ldi r29,hi8(0)
GAS LISTING C:\DOCUME~1\ADMINI~1\LOCALS~1\Temp/cctKSLoe.s 			page 18


 950 06a8 012B      		or r16,r17
 951 06aa 01F4      		brne .L73
 952               	.L81:
 953 06ac C1E0      		ldi r28,lo8(1)
 954 06ae D0E0      		ldi r29,hi8(1)
 955 06b0 00C0      		rjmp .L73
 956               	.L59:
 957 06b2 C0E0      		ldi r28,lo8(0)
 958 06b4 D0E0      		ldi r29,hi8(0)
 959 06b6 E016      		cp r14,r16
 960 06b8 F106      		cpc r15,r17
 961 06ba 01F4      		brne .L77
 962 06bc C1E0      		ldi r28,lo8(1)
 963 06be D0E0      		ldi r29,hi8(1)
 964 06c0 00C0      		rjmp .L77
 965               	.L73:
 966 06c2 C701      		movw r24,r14
 967 06c4 0E94 0000 		call islower
 968 06c8 892B      		or r24,r25
 969 06ca 01F4      		brne .L77
 970 06cc 80E0      		ldi r24,lo8(0)
 971 06ce 90E0      		ldi r25,hi8(0)
 972 06d0 CD2B      		or r28,r29
 973 06d2 01F4      		brne .L78
 974 06d4 81E0      		ldi r24,lo8(1)
 975 06d6 90E0      		ldi r25,hi8(1)
 976               	.L78:
 977 06d8 EC01      		movw r28,r24
 978               	.L77:
 979 06da CE01      		movw r24,r28
 980               	/* epilogue start */
 981 06dc DF91      		pop r29
 982 06de CF91      		pop r28
 983 06e0 1F91      		pop r17
 984 06e2 0F91      		pop r16
 985 06e4 FF90      		pop r15
 986 06e6 EF90      		pop r14
 987 06e8 0895      		ret
 988               		.size	match_class, .-match_class
 989               		.type	matchbracketclass, @function
 990               	matchbracketclass:
 991 06ea CF92      		push r12
 992 06ec DF92      		push r13
 993 06ee EF92      		push r14
 994 06f0 FF92      		push r15
 995 06f2 0F93      		push r16
 996 06f4 1F93      		push r17
 997 06f6 CF93      		push r28
 998 06f8 DF93      		push r29
 999               	/* prologue: function */
 1000               	/* frame size = 0 */
 1001 06fa 7C01      		movw r14,r24
 1002 06fc EB01      		movw r28,r22
 1003 06fe 6A01      		movw r12,r20
 1004 0700 9B01      		movw r18,r22
 1005 0702 2F5F      		subi r18,lo8(-(1))
 1006 0704 3F4F      		sbci r19,hi8(-(1))
GAS LISTING C:\DOCUME~1\ADMINI~1\LOCALS~1\Temp/cctKSLoe.s 			page 19


 1007 0706 8981      		ldd r24,Y+1
 1008 0708 8E35      		cpi r24,lo8(94)
 1009 070a 01F4      		brne .L87
 1010 070c E901      		movw r28,r18
 1011 070e 00E0      		ldi r16,lo8(0)
 1012 0710 10E0      		ldi r17,hi8(0)
 1013 0712 00C0      		rjmp .L96
 1014               	.L87:
 1015 0714 01E0      		ldi r16,lo8(1)
 1016 0716 10E0      		ldi r17,hi8(1)
 1017 0718 00C0      		rjmp .L96
 1018               	.L93:
 1019 071a 9881      		ld r25,Y
 1020 071c 9532      		cpi r25,lo8(37)
 1021 071e 01F4      		brne .L89
 1022 0720 2196      		adiw r28,1
 1023 0722 6881      		ld r22,Y
 1024 0724 C701      		movw r24,r14
 1025 0726 70E0      		ldi r23,lo8(0)
 1026 0728 0E94 0000 		call match_class
 1027 072c 892B      		or r24,r25
 1028 072e 01F0      		breq .L96
 1029 0730 00C0      		rjmp .L90
 1030               	.L89:
 1031 0732 8981      		ldd r24,Y+1
 1032 0734 8D32      		cpi r24,lo8(45)
 1033 0736 01F4      		brne .L91
 1034 0738 FE01      		movw r30,r28
 1035 073a 3296      		adiw r30,2
 1036 073c EC15      		cp r30,r12
 1037 073e FD05      		cpc r31,r13
 1038 0740 00F4      		brsh .L91
 1039 0742 892F      		mov r24,r25
 1040 0744 90E0      		ldi r25,lo8(0)
 1041 0746 E816      		cp r14,r24
 1042 0748 F906      		cpc r15,r25
 1043 074a 04F0      		brlt .L92
 1044 074c 8081      		ld r24,Z
 1045 074e 90E0      		ldi r25,lo8(0)
 1046 0750 8E15      		cp r24,r14
 1047 0752 9F05      		cpc r25,r15
 1048 0754 04F0      		brlt .L92
 1049 0756 00C0      		rjmp .L90
 1050               	.L91:
 1051 0758 892F      		mov r24,r25
 1052 075a 90E0      		ldi r25,lo8(0)
 1053 075c 8E15      		cp r24,r14
 1054 075e 9F05      		cpc r25,r15
 1055 0760 01F4      		brne .L96
 1056 0762 00C0      		rjmp .L90
 1057               	.L92:
 1058 0764 EF01      		movw r28,r30
 1059               	.L96:
 1060 0766 2196      		adiw r28,1
 1061 0768 CC15      		cp r28,r12
 1062 076a DD05      		cpc r29,r13
 1063 076c 00F0      		brlo .L93
GAS LISTING C:\DOCUME~1\ADMINI~1\LOCALS~1\Temp/cctKSLoe.s 			page 20


 1064 076e 80E0      		ldi r24,lo8(0)
 1065 0770 90E0      		ldi r25,hi8(0)
 1066 0772 012B      		or r16,r17
 1067 0774 01F4      		brne .L94
 1068 0776 81E0      		ldi r24,lo8(1)
 1069 0778 90E0      		ldi r25,hi8(1)
 1070               	.L94:
 1071 077a 8C01      		movw r16,r24
 1072               	.L90:
 1073 077c C801      		movw r24,r16
 1074               	/* epilogue start */
 1075 077e DF91      		pop r29
 1076 0780 CF91      		pop r28
 1077 0782 1F91      		pop r17
 1078 0784 0F91      		pop r16
 1079 0786 FF90      		pop r15
 1080 0788 EF90      		pop r14
 1081 078a DF90      		pop r13
 1082 078c CF90      		pop r12
 1083 078e 0895      		ret
 1084               		.size	matchbracketclass, .-matchbracketclass
 1085               		.type	singlematch, @function
 1086               	singlematch:
 1087               	/* prologue: function */
 1088               	/* frame size = 0 */
 1089 0790 DC01      		movw r26,r24
 1090 0792 FB01      		movw r30,r22
 1091 0794 8081      		ld r24,Z
 1092 0796 8E32      		cpi r24,lo8(46)
 1093 0798 01F0      		breq .L106
 1094 079a 8B35      		cpi r24,lo8(91)
 1095 079c 01F0      		breq .L101
 1096 079e 8532      		cpi r24,lo8(37)
 1097 07a0 01F4      		brne .L105
 1098 07a2 6181      		ldd r22,Z+1
 1099 07a4 CD01      		movw r24,r26
 1100 07a6 70E0      		ldi r23,lo8(0)
 1101 07a8 0E94 0000 		call match_class
 1102 07ac 00C0      		rjmp .L107
 1103               	.L101:
 1104 07ae 4150      		subi r20,lo8(-(-1))
 1105 07b0 5040      		sbci r21,hi8(-(-1))
 1106 07b2 CD01      		movw r24,r26
 1107 07b4 0E94 0000 		call matchbracketclass
 1108               	.L107:
 1109 07b8 9C01      		movw r18,r24
 1110 07ba 00C0      		rjmp .L102
 1111               	.L105:
 1112 07bc 20E0      		ldi r18,lo8(0)
 1113 07be 30E0      		ldi r19,hi8(0)
 1114 07c0 90E0      		ldi r25,lo8(0)
 1115 07c2 8A17      		cp r24,r26
 1116 07c4 9B07      		cpc r25,r27
 1117 07c6 01F4      		brne .L102
 1118               	.L106:
 1119 07c8 21E0      		ldi r18,lo8(1)
 1120 07ca 30E0      		ldi r19,hi8(1)
GAS LISTING C:\DOCUME~1\ADMINI~1\LOCALS~1\Temp/cctKSLoe.s 			page 21


 1121               	.L102:
 1122 07cc C901      		movw r24,r18
 1123               	/* epilogue start */
 1124 07ce 0895      		ret
 1125               		.size	singlematch, .-singlematch
 1126               		.type	max_expand, @function
 1127               	max_expand:
 1128 07d0 8F92      		push r8
 1129 07d2 9F92      		push r9
 1130 07d4 AF92      		push r10
 1131 07d6 BF92      		push r11
 1132 07d8 CF92      		push r12
 1133 07da DF92      		push r13
 1134 07dc EF92      		push r14
 1135 07de FF92      		push r15
 1136 07e0 0F93      		push r16
 1137 07e2 1F93      		push r17
 1138 07e4 CF93      		push r28
 1139 07e6 DF93      		push r29
 1140               	/* prologue: function */
 1141               	/* frame size = 0 */
 1142 07e8 4C01      		movw r8,r24
 1143 07ea 6B01      		movw r12,r22
 1144 07ec 5A01      		movw r10,r20
 1145 07ee 7901      		movw r14,r18
 1146 07f0 EB01      		movw r28,r22
 1147 07f2 00E0      		ldi r16,lo8(0)
 1148 07f4 10E0      		ldi r17,hi8(0)
 1149 07f6 00C0      		rjmp .L109
 1150               	.L112:
 1151 07f8 0F5F      		subi r16,lo8(-(1))
 1152 07fa 1F4F      		sbci r17,hi8(-(1))
 1153               	.L109:
 1154 07fc F401      		movw r30,r8
 1155 07fe 8281      		ldd r24,Z+2
 1156 0800 9381      		ldd r25,Z+3
 1157 0802 C817      		cp r28,r24
 1158 0804 D907      		cpc r29,r25
 1159 0806 00F0      		brlo .L110
 1160               	.L113:
 1161 0808 E601      		movw r28,r12
 1162 080a C00F      		add r28,r16
 1163 080c D11F      		adc r29,r17
 1164 080e 0894      		sec
 1165 0810 E11C      		adc r14,__zero_reg__
 1166 0812 F11C      		adc r15,__zero_reg__
 1167 0814 00C0      		rjmp .L111
 1168               	.L110:
 1169 0816 8991      		ld r24,Y+
 1170 0818 90E0      		ldi r25,lo8(0)
 1171 081a B501      		movw r22,r10
 1172 081c A701      		movw r20,r14
 1173 081e 0E94 0000 		call singlematch
 1174 0822 892B      		or r24,r25
 1175 0824 01F4      		brne .L112
 1176 0826 00C0      		rjmp .L113
 1177               	.L111:
GAS LISTING C:\DOCUME~1\ADMINI~1\LOCALS~1\Temp/cctKSLoe.s 			page 22


 1178 0828 C401      		movw r24,r8
 1179 082a BE01      		movw r22,r28
 1180 082c A701      		movw r20,r14
 1181 082e 0E94 0000 		call match
 1182 0832 9C01      		movw r18,r24
 1183 0834 0097      		sbiw r24,0
 1184 0836 01F4      		brne .L114
 1185 0838 0150      		subi r16,lo8(-(-1))
 1186 083a 1040      		sbci r17,hi8(-(-1))
 1187 083c 2197      		sbiw r28,1
 1188 083e FFEF      		ldi r31,hi8(-1)
 1189 0840 0F3F      		cpi r16,lo8(-1)
 1190 0842 1F07      		cpc r17,r31
 1191 0844 01F4      		brne .L111
 1192               	.L114:
 1193 0846 C901      		movw r24,r18
 1194               	/* epilogue start */
 1195 0848 DF91      		pop r29
 1196 084a CF91      		pop r28
 1197 084c 1F91      		pop r17
 1198 084e 0F91      		pop r16
 1199 0850 FF90      		pop r15
 1200 0852 EF90      		pop r14
 1201 0854 DF90      		pop r13
 1202 0856 CF90      		pop r12
 1203 0858 BF90      		pop r11
 1204 085a AF90      		pop r10
 1205 085c 9F90      		pop r9
 1206 085e 8F90      		pop r8
 1207 0860 0895      		ret
 1208               		.size	max_expand, .-max_expand
 1209               		.data
 1210               	.LC6:
 1211 009b 696E 7661 		.string	"invalid pattern capture"
 1211      6C69 6420 
 1211      7061 7474 
 1211      6572 6E20 
 1211      6361 7074 
 1212               	.LC7:
 1213 00b3 756E 6261 		.string	"unbalanced pattern"
 1213      6C61 6E63 
 1213      6564 2070 
 1213      6174 7465 
 1213      726E 00
 1214               	.LC8:
 1215 00c6 6D69 7373 		.string	"missing '[' after '%%f' in pattern"
 1215      696E 6720 
 1215      275B 2720 
 1215      6166 7465 
 1215      7220 2725 
 1216               		.text
 1217               		.type	match, @function
 1218               	match:
 1219 0862 4F92      		push r4
 1220 0864 5F92      		push r5
 1221 0866 6F92      		push r6
 1222 0868 7F92      		push r7
GAS LISTING C:\DOCUME~1\ADMINI~1\LOCALS~1\Temp/cctKSLoe.s 			page 23


 1223 086a 8F92      		push r8
 1224 086c 9F92      		push r9
 1225 086e AF92      		push r10
 1226 0870 BF92      		push r11
 1227 0872 CF92      		push r12
 1228 0874 DF92      		push r13
 1229 0876 EF92      		push r14
 1230 0878 FF92      		push r15
 1231 087a 0F93      		push r16
 1232 087c 1F93      		push r17
 1233 087e CF93      		push r28
 1234 0880 DF93      		push r29
 1235               	/* prologue: function */
 1236               	/* frame size = 0 */
 1237 0882 6C01      		movw r12,r24
 1238 0884 EB01      		movw r28,r22
 1239 0886 7A01      		movw r14,r20
 1240 0888 50E0      		ldi r21,lo8(.LC7)
 1241 088a 652E      		mov r6,r21
 1242 088c 50E0      		ldi r21,hi8(.LC7)
 1243 088e 752E      		mov r7,r21
 1244 0890 40E0      		ldi r20,lo8(.LC3)
 1245 0892 442E      		mov r4,r20
 1246 0894 40E0      		ldi r20,hi8(.LC3)
 1247 0896 542E      		mov r5,r20
 1248 0898 30E0      		ldi r19,lo8(.LC8)
 1249 089a 832E      		mov r8,r19
 1250 089c 30E0      		ldi r19,hi8(.LC8)
 1251 089e 932E      		mov r9,r19
 1252 08a0 00C0      		rjmp .L160
 1253               	.L163:
 1254 08a2 7501      		movw r14,r10
 1255               	.L160:
 1256 08a4 D701      		movw r26,r14
 1257 08a6 8C91      		ld r24,X
 1258 08a8 8532      		cpi r24,lo8(37)
 1259 08aa 01F4      		brne .+2
 1260 08ac 00C0      		rjmp .L122
 1261 08ae 8632      		cpi r24,lo8(38)
 1262 08b0 04F4      		brge .L125
 1263 08b2 8823      		tst r24
 1264 08b4 01F4      		brne .+2
 1265 08b6 00C0      		rjmp .L120
 1266 08b8 8432      		cpi r24,lo8(36)
 1267 08ba 01F0      		breq .+2
 1268 08bc 00C0      		rjmp .L119
 1269 08be 00C0      		rjmp .L168
 1270               	.L125:
 1271 08c0 8832      		cpi r24,lo8(40)
 1272 08c2 01F0      		breq .L123
 1273 08c4 8932      		cpi r24,lo8(41)
 1274 08c6 01F0      		breq .+2
 1275 08c8 00C0      		rjmp .L119
 1276 08ca 00C0      		rjmp .L169
 1277               	.L123:
 1278 08cc A701      		movw r20,r14
 1279 08ce 4F5F      		subi r20,lo8(-(1))
GAS LISTING C:\DOCUME~1\ADMINI~1\LOCALS~1\Temp/cctKSLoe.s 			page 24


 1280 08d0 5F4F      		sbci r21,hi8(-(1))
 1281 08d2 F701      		movw r30,r14
 1282 08d4 8181      		ldd r24,Z+1
 1283 08d6 8932      		cpi r24,lo8(41)
 1284 08d8 01F4      		brne .L126
 1285 08da 22E0      		ldi r18,lo8(2)
 1286 08dc 30E0      		ldi r19,hi8(2)
 1287 08de E20E      		add r14,r18
 1288 08e0 F31E      		adc r15,r19
 1289 08e2 C601      		movw r24,r12
 1290 08e4 BE01      		movw r22,r28
 1291 08e6 A701      		movw r20,r14
 1292 08e8 2EEF      		ldi r18,lo8(-2)
 1293 08ea 3FEF      		ldi r19,hi8(-2)
 1294 08ec 00C0      		rjmp .L166
 1295               	.L126:
 1296 08ee C601      		movw r24,r12
 1297 08f0 BE01      		movw r22,r28
 1298 08f2 2FEF      		ldi r18,lo8(-1)
 1299 08f4 3FEF      		ldi r19,hi8(-1)
 1300               	.L166:
 1301 08f6 0E94 0000 		call start_capture
 1302 08fa 00C0      		rjmp .L165
 1303               	.L169:
 1304 08fc D601      		movw r26,r12
 1305 08fe 1696      		adiw r26,6
 1306 0900 ED91      		ld r30,X+
 1307 0902 FC91      		ld r31,X
 1308 0904 1797      		sbiw r26,6+1
 1309 0906 3197      		sbiw r30,1
 1310 0908 DF01      		movw r26,r30
 1311 090a AA0F      		lsl r26
 1312 090c BB1F      		rol r27
 1313 090e AA0F      		lsl r26
 1314 0910 BB1F      		rol r27
 1315 0912 1A96      		adiw r26,10
 1316 0914 AC0D      		add r26,r12
 1317 0916 BD1D      		adc r27,r13
 1318 0918 00C0      		rjmp .L127
 1319               	.L129:
 1320 091a 8D91      		ld r24,X+
 1321 091c 9C91      		ld r25,X
 1322 091e 1197      		sbiw r26,1
 1323 0920 1497      		sbiw r26,4
 1324 0922 8F5F      		subi r24,lo8(-1)
 1325 0924 9F4F      		sbci r25,hi8(-1)
 1326 0926 01F0      		breq .L128
 1327 0928 3197      		sbiw r30,1
 1328               	.L127:
 1329 092a F7FF      		sbrs r31,7
 1330 092c 00C0      		rjmp .L129
 1331 092e 00D0      		rcall .
 1332 0930 00D0      		rcall .
 1333 0932 D601      		movw r26,r12
 1334 0934 1496      		adiw r26,4
 1335 0936 8D91      		ld r24,X+
 1336 0938 9C91      		ld r25,X
GAS LISTING C:\DOCUME~1\ADMINI~1\LOCALS~1\Temp/cctKSLoe.s 			page 25


 1337 093a 1597      		sbiw r26,4+1
 1338 093c EDB7      		in r30,__SP_L__
 1339 093e FEB7      		in r31,__SP_H__
 1340 0940 9283      		std Z+2,r25
 1341 0942 8183      		std Z+1,r24
 1342 0944 80E0      		ldi r24,lo8(.LC6)
 1343 0946 90E0      		ldi r25,hi8(.LC6)
 1344 0948 9483      		std Z+4,r25
 1345 094a 8383      		std Z+3,r24
 1346 094c 0E94 0000 		call luaL_error
 1347 0950 FC01      		movw r30,r24
 1348 0952 0F90      		pop __tmp_reg__
 1349 0954 0F90      		pop __tmp_reg__
 1350 0956 0F90      		pop __tmp_reg__
 1351 0958 0F90      		pop __tmp_reg__
 1352               	.L128:
 1353 095a 8F01      		movw r16,r30
 1354 095c 000F      		lsl r16
 1355 095e 111F      		rol r17
 1356 0960 000F      		lsl r16
 1357 0962 111F      		rol r17
 1358 0964 0C0D      		add r16,r12
 1359 0966 1D1D      		adc r17,r13
 1360 0968 3296      		adiw r30,2
 1361 096a EE0F      		lsl r30
 1362 096c FF1F      		rol r31
 1363 096e EE0F      		lsl r30
 1364 0970 FF1F      		rol r31
 1365 0972 EC0D      		add r30,r12
 1366 0974 FD1D      		adc r31,r13
 1367 0976 8081      		ld r24,Z
 1368 0978 9181      		ldd r25,Z+1
 1369 097a 9E01      		movw r18,r28
 1370 097c 281B      		sub r18,r24
 1371 097e 390B      		sbc r19,r25
 1372 0980 D801      		movw r26,r16
 1373 0982 1B96      		adiw r26,10+1
 1374 0984 3C93      		st X,r19
 1375 0986 2E93      		st -X,r18
 1376 0988 1A97      		sbiw r26,10
 1377 098a 0894      		sec
 1378 098c E11C      		adc r14,__zero_reg__
 1379 098e F11C      		adc r15,__zero_reg__
 1380 0990 C601      		movw r24,r12
 1381 0992 BE01      		movw r22,r28
 1382 0994 A701      		movw r20,r14
 1383 0996 0E94 0000 		call match
 1384 099a EC01      		movw r28,r24
 1385 099c 0097      		sbiw r24,0
 1386 099e 01F0      		breq .+2
 1387 09a0 00C0      		rjmp .L120
 1388 09a2 8FEF      		ldi r24,lo8(-1)
 1389 09a4 9FEF      		ldi r25,hi8(-1)
 1390 09a6 F801      		movw r30,r16
 1391 09a8 9387      		std Z+11,r25
 1392 09aa 8287      		std Z+10,r24
 1393 09ac 00C0      		rjmp .L120
GAS LISTING C:\DOCUME~1\ADMINI~1\LOCALS~1\Temp/cctKSLoe.s 			page 26


 1394               	.L122:
 1395 09ae D701      		movw r26,r14
 1396 09b0 1196      		adiw r26,1
 1397 09b2 8C91      		ld r24,X
 1398 09b4 8236      		cpi r24,lo8(98)
 1399 09b6 01F0      		breq .L131
 1400 09b8 8636      		cpi r24,lo8(102)
 1401 09ba 01F0      		breq .+2
 1402 09bc 00C0      		rjmp .L161
 1403 09be 00C0      		rjmp .L170
 1404               	.L131:
 1405 09c0 8701      		movw r16,r14
 1406 09c2 0E5F      		subi r16,lo8(-(2))
 1407 09c4 1F4F      		sbci r17,hi8(-(2))
 1408 09c6 F701      		movw r30,r14
 1409 09c8 8281      		ldd r24,Z+2
 1410 09ca 8823      		tst r24
 1411 09cc 01F0      		breq .L133
 1412 09ce D801      		movw r26,r16
 1413 09d0 1196      		adiw r26,1
 1414 09d2 8C91      		ld r24,X
 1415 09d4 8823      		tst r24
 1416 09d6 01F4      		brne .L134
 1417               	.L133:
 1418 09d8 00D0      		rcall .
 1419 09da 00D0      		rcall .
 1420 09dc F601      		movw r30,r12
 1421 09de 8481      		ldd r24,Z+4
 1422 09e0 9581      		ldd r25,Z+5
 1423 09e2 ADB7      		in r26,__SP_L__
 1424 09e4 BEB7      		in r27,__SP_H__
 1425 09e6 1296      		adiw r26,1+1
 1426 09e8 9C93      		st X,r25
 1427 09ea 8E93      		st -X,r24
 1428 09ec 1197      		sbiw r26,1
 1429 09ee 1496      		adiw r26,3+1
 1430 09f0 7C92      		st X,r7
 1431 09f2 6E92      		st -X,r6
 1432 09f4 1397      		sbiw r26,3
 1433 09f6 0E94 0000 		call luaL_error
 1434 09fa 0F90      		pop __tmp_reg__
 1435 09fc 0F90      		pop __tmp_reg__
 1436 09fe 0F90      		pop __tmp_reg__
 1437 0a00 0F90      		pop __tmp_reg__
 1438               	.L134:
 1439 0a02 6881      		ld r22,Y
 1440 0a04 F801      		movw r30,r16
 1441 0a06 8081      		ld r24,Z
 1442 0a08 6817      		cp r22,r24
 1443 0a0a 01F0      		breq .+2
 1444 0a0c 00C0      		rjmp .L135
 1445 0a0e 8181      		ldd r24,Z+1
 1446 0a10 D601      		movw r26,r12
 1447 0a12 1296      		adiw r26,2
 1448 0a14 4D91      		ld r20,X+
 1449 0a16 5C91      		ld r21,X
 1450 0a18 1397      		sbiw r26,2+1
GAS LISTING C:\DOCUME~1\ADMINI~1\LOCALS~1\Temp/cctKSLoe.s 			page 27


 1451 0a1a 21E0      		ldi r18,lo8(1)
 1452 0a1c 30E0      		ldi r19,hi8(1)
 1453 0a1e 00C0      		rjmp .L159
 1454               	.L139:
 1455 0a20 9881      		ld r25,Y
 1456 0a22 9817      		cp r25,r24
 1457 0a24 01F4      		brne .L137
 1458 0a26 2150      		subi r18,lo8(-(-1))
 1459 0a28 3040      		sbci r19,hi8(-(-1))
 1460 0a2a 01F4      		brne .L159
 1461 0a2c 2196      		adiw r28,1
 1462 0a2e 01F4      		brne .L162
 1463 0a30 00C0      		rjmp .L120
 1464               	.L137:
 1465 0a32 9617      		cp r25,r22
 1466 0a34 01F4      		brne .L159
 1467 0a36 2F5F      		subi r18,lo8(-(1))
 1468 0a38 3F4F      		sbci r19,hi8(-(1))
 1469               	.L159:
 1470 0a3a 2196      		adiw r28,1
 1471 0a3c C417      		cp r28,r20
 1472 0a3e D507      		cpc r29,r21
 1473 0a40 00F0      		brlo .L139
 1474 0a42 00C0      		rjmp .L135
 1475               	.L162:
 1476 0a44 E4E0      		ldi r30,lo8(4)
 1477 0a46 F0E0      		ldi r31,hi8(4)
 1478 0a48 EE0E      		add r14,r30
 1479 0a4a FF1E      		adc r15,r31
 1480 0a4c 00C0      		rjmp .L160
 1481               	.L170:
 1482 0a4e 8701      		movw r16,r14
 1483 0a50 0E5F      		subi r16,lo8(-(2))
 1484 0a52 1F4F      		sbci r17,hi8(-(2))
 1485 0a54 D701      		movw r26,r14
 1486 0a56 1296      		adiw r26,2
 1487 0a58 8C91      		ld r24,X
 1488 0a5a 8B35      		cpi r24,lo8(91)
 1489 0a5c 01F0      		breq .L140
 1490 0a5e 00D0      		rcall .
 1491 0a60 00D0      		rcall .
 1492 0a62 F601      		movw r30,r12
 1493 0a64 8481      		ldd r24,Z+4
 1494 0a66 9581      		ldd r25,Z+5
 1495 0a68 ADB7      		in r26,__SP_L__
 1496 0a6a BEB7      		in r27,__SP_H__
 1497 0a6c 1296      		adiw r26,1+1
 1498 0a6e 9C93      		st X,r25
 1499 0a70 8E93      		st -X,r24
 1500 0a72 1197      		sbiw r26,1
 1501 0a74 1496      		adiw r26,3+1
 1502 0a76 9C92      		st X,r9
 1503 0a78 8E92      		st -X,r8
 1504 0a7a 1397      		sbiw r26,3
 1505 0a7c 0E94 0000 		call luaL_error
 1506 0a80 0F90      		pop __tmp_reg__
 1507 0a82 0F90      		pop __tmp_reg__
GAS LISTING C:\DOCUME~1\ADMINI~1\LOCALS~1\Temp/cctKSLoe.s 			page 28


 1508 0a84 0F90      		pop __tmp_reg__
 1509 0a86 0F90      		pop __tmp_reg__
 1510               	.L140:
 1511 0a88 C601      		movw r24,r12
 1512 0a8a B801      		movw r22,r16
 1513 0a8c 0E94 0000 		call classend
 1514 0a90 5C01      		movw r10,r24
 1515 0a92 F601      		movw r30,r12
 1516 0a94 8081      		ld r24,Z
 1517 0a96 9181      		ldd r25,Z+1
 1518 0a98 C817      		cp r28,r24
 1519 0a9a D907      		cpc r29,r25
 1520 0a9c 01F4      		brne .L141
 1521 0a9e 80E0      		ldi r24,lo8(0)
 1522 0aa0 00C0      		rjmp .L142
 1523               	.L141:
 1524 0aa2 8A91      		ld r24,-Y
 1525 0aa4 2196      		adiw r28,1
 1526               	.L142:
 1527 0aa6 7501      		movw r14,r10
 1528 0aa8 0894      		sec
 1529 0aaa E108      		sbc r14,__zero_reg__
 1530 0aac F108      		sbc r15,__zero_reg__
 1531 0aae 90E0      		ldi r25,lo8(0)
 1532 0ab0 B801      		movw r22,r16
 1533 0ab2 A701      		movw r20,r14
 1534 0ab4 0E94 0000 		call matchbracketclass
 1535 0ab8 892B      		or r24,r25
 1536 0aba 01F0      		breq .+2
 1537 0abc 00C0      		rjmp .L135
 1538 0abe 8881      		ld r24,Y
 1539 0ac0 90E0      		ldi r25,lo8(0)
 1540 0ac2 B801      		movw r22,r16
 1541 0ac4 A701      		movw r20,r14
 1542 0ac6 0E94 0000 		call matchbracketclass
 1543 0aca 892B      		or r24,r25
 1544 0acc 01F0      		breq .+2
 1545 0ace 00C0      		rjmp .L163
 1546 0ad0 00C0      		rjmp .L135
 1547               	.L161:
 1548 0ad2 E82F      		mov r30,r24
 1549 0ad4 F0E0      		ldi r31,lo8(0)
 1550 0ad6 CF01      		movw r24,r30
 1551 0ad8 C097      		sbiw r24,48
 1552 0ada 0A97      		sbiw r24,10
 1553 0adc 00F0      		brlo .+2
 1554 0ade 00C0      		rjmp .L119
 1555 0ae0 DF01      		movw r26,r30
 1556 0ae2 D197      		sbiw r26,49
 1557 0ae4 B7FD      		sbrc r27,7
 1558 0ae6 00C0      		rjmp .L144
 1559 0ae8 F601      		movw r30,r12
 1560 0aea 8681      		ldd r24,Z+6
 1561 0aec 9781      		ldd r25,Z+7
 1562 0aee A817      		cp r26,r24
 1563 0af0 B907      		cpc r27,r25
 1564 0af2 04F4      		brge .L144
GAS LISTING C:\DOCUME~1\ADMINI~1\LOCALS~1\Temp/cctKSLoe.s 			page 29


 1565 0af4 FD01      		movw r30,r26
 1566 0af6 EE0F      		lsl r30
 1567 0af8 FF1F      		rol r31
 1568 0afa EE0F      		lsl r30
 1569 0afc FF1F      		rol r31
 1570 0afe EC0D      		add r30,r12
 1571 0b00 FD1D      		adc r31,r13
 1572 0b02 8285      		ldd r24,Z+10
 1573 0b04 9385      		ldd r25,Z+11
 1574 0b06 8F5F      		subi r24,lo8(-1)
 1575 0b08 9F4F      		sbci r25,hi8(-1)
 1576 0b0a 01F4      		brne .L145
 1577               	.L144:
 1578 0b0c 00D0      		rcall .
 1579 0b0e 00D0      		rcall .
 1580 0b10 D601      		movw r26,r12
 1581 0b12 1496      		adiw r26,4
 1582 0b14 8D91      		ld r24,X+
 1583 0b16 9C91      		ld r25,X
 1584 0b18 1597      		sbiw r26,4+1
 1585 0b1a EDB7      		in r30,__SP_L__
 1586 0b1c FEB7      		in r31,__SP_H__
 1587 0b1e 9283      		std Z+2,r25
 1588 0b20 8183      		std Z+1,r24
 1589 0b22 5482      		std Z+4,r5
 1590 0b24 4382      		std Z+3,r4
 1591 0b26 0E94 0000 		call luaL_error
 1592 0b2a DC01      		movw r26,r24
 1593 0b2c 0F90      		pop __tmp_reg__
 1594 0b2e 0F90      		pop __tmp_reg__
 1595 0b30 0F90      		pop __tmp_reg__
 1596 0b32 0F90      		pop __tmp_reg__
 1597               	.L145:
 1598 0b34 FD01      		movw r30,r26
 1599 0b36 EE0F      		lsl r30
 1600 0b38 FF1F      		rol r31
 1601 0b3a EE0F      		lsl r30
 1602 0b3c FF1F      		rol r31
 1603 0b3e EC0D      		add r30,r12
 1604 0b40 FD1D      		adc r31,r13
 1605 0b42 0285      		ldd r16,Z+10
 1606 0b44 1385      		ldd r17,Z+11
 1607 0b46 F601      		movw r30,r12
 1608 0b48 8281      		ldd r24,Z+2
 1609 0b4a 9381      		ldd r25,Z+3
 1610 0b4c 8C1B      		sub r24,r28
 1611 0b4e 9D0B      		sbc r25,r29
 1612 0b50 8017      		cp r24,r16
 1613 0b52 9107      		cpc r25,r17
 1614 0b54 00F4      		brsh .+2
 1615 0b56 00C0      		rjmp .L135
 1616 0b58 1296      		adiw r26,2
 1617 0b5a AA0F      		lsl r26
 1618 0b5c BB1F      		rol r27
 1619 0b5e AA0F      		lsl r26
 1620 0b60 BB1F      		rol r27
 1621 0b62 AC0D      		add r26,r12
GAS LISTING C:\DOCUME~1\ADMINI~1\LOCALS~1\Temp/cctKSLoe.s 			page 30


 1622 0b64 BD1D      		adc r27,r13
 1623 0b66 8D91      		ld r24,X+
 1624 0b68 9C91      		ld r25,X
 1625 0b6a BE01      		movw r22,r28
 1626 0b6c A801      		movw r20,r16
 1627 0b6e 0E94 0000 		call memcmp
 1628 0b72 0097      		sbiw r24,0
 1629 0b74 01F0      		breq .+2
 1630 0b76 00C0      		rjmp .L135
 1631 0b78 C00F      		add r28,r16
 1632 0b7a D11F      		adc r29,r17
 1633 0b7c 2097      		sbiw r28,0
 1634 0b7e 01F4      		brne .+2
 1635 0b80 00C0      		rjmp .L120
 1636 0b82 22E0      		ldi r18,lo8(2)
 1637 0b84 30E0      		ldi r19,hi8(2)
 1638 0b86 E20E      		add r14,r18
 1639 0b88 F31E      		adc r15,r19
 1640 0b8a 00C0      		rjmp .L160
 1641               	.L168:
 1642 0b8c D701      		movw r26,r14
 1643 0b8e 1196      		adiw r26,1
 1644 0b90 8C91      		ld r24,X
 1645 0b92 8823      		tst r24
 1646 0b94 01F4      		brne .L119
 1647 0b96 F601      		movw r30,r12
 1648 0b98 8281      		ldd r24,Z+2
 1649 0b9a 9381      		ldd r25,Z+3
 1650 0b9c C817      		cp r28,r24
 1651 0b9e D907      		cpc r29,r25
 1652 0ba0 01F0      		breq .+2
 1653 0ba2 00C0      		rjmp .L135
 1654 0ba4 00C0      		rjmp .L120
 1655               	.L119:
 1656 0ba6 C601      		movw r24,r12
 1657 0ba8 B701      		movw r22,r14
 1658 0baa 0E94 0000 		call classend
 1659 0bae 8C01      		movw r16,r24
 1660 0bb0 D601      		movw r26,r12
 1661 0bb2 1296      		adiw r26,2
 1662 0bb4 8D91      		ld r24,X+
 1663 0bb6 9C91      		ld r25,X
 1664 0bb8 1397      		sbiw r26,2+1
 1665 0bba C817      		cp r28,r24
 1666 0bbc D907      		cpc r29,r25
 1667 0bbe 00F4      		brsh .L146
 1668 0bc0 8881      		ld r24,Y
 1669 0bc2 90E0      		ldi r25,lo8(0)
 1670 0bc4 B701      		movw r22,r14
 1671 0bc6 A801      		movw r20,r16
 1672 0bc8 0E94 0000 		call singlematch
 1673 0bcc 892B      		or r24,r25
 1674 0bce 01F0      		breq .L146
 1675 0bd0 21E0      		ldi r18,lo8(1)
 1676 0bd2 30E0      		ldi r19,hi8(1)
 1677 0bd4 00C0      		rjmp .L147
 1678               	.L146:
GAS LISTING C:\DOCUME~1\ADMINI~1\LOCALS~1\Temp/cctKSLoe.s 			page 31


 1679 0bd6 20E0      		ldi r18,lo8(0)
 1680 0bd8 30E0      		ldi r19,hi8(0)
 1681               	.L147:
 1682 0bda F801      		movw r30,r16
 1683 0bdc 8081      		ld r24,Z
 1684 0bde 8B32      		cpi r24,lo8(43)
 1685 0be0 01F0      		breq .L150
 1686 0be2 8C32      		cpi r24,lo8(44)
 1687 0be4 04F4      		brge .L153
 1688 0be6 8A32      		cpi r24,lo8(42)
 1689 0be8 01F0      		breq .+2
 1690 0bea 00C0      		rjmp .L148
 1691 0bec 00C0      		rjmp .L167
 1692               	.L153:
 1693 0bee 8D32      		cpi r24,lo8(45)
 1694 0bf0 01F0      		breq .L151
 1695 0bf2 8F33      		cpi r24,lo8(63)
 1696 0bf4 01F4      		brne .L148
 1697 0bf6 232B      		or r18,r19
 1698 0bf8 01F0      		breq .L154
 1699 0bfa BE01      		movw r22,r28
 1700 0bfc 6F5F      		subi r22,lo8(-(1))
 1701 0bfe 7F4F      		sbci r23,hi8(-(1))
 1702 0c00 A801      		movw r20,r16
 1703 0c02 4F5F      		subi r20,lo8(-(1))
 1704 0c04 5F4F      		sbci r21,hi8(-(1))
 1705 0c06 C601      		movw r24,r12
 1706 0c08 0E94 0000 		call match
 1707 0c0c 0097      		sbiw r24,0
 1708 0c0e 01F4      		brne .L165
 1709               	.L154:
 1710 0c10 7801      		movw r14,r16
 1711 0c12 0894      		sec
 1712 0c14 E11C      		adc r14,__zero_reg__
 1713 0c16 F11C      		adc r15,__zero_reg__
 1714 0c18 00C0      		rjmp .L160
 1715               	.L150:
 1716 0c1a 232B      		or r18,r19
 1717 0c1c 01F0      		breq .L135
 1718 0c1e 2196      		adiw r28,1
 1719               	.L167:
 1720 0c20 C601      		movw r24,r12
 1721 0c22 BE01      		movw r22,r28
 1722 0c24 A701      		movw r20,r14
 1723 0c26 9801      		movw r18,r16
 1724 0c28 0E94 0000 		call max_expand
 1725               	.L165:
 1726 0c2c EC01      		movw r28,r24
 1727 0c2e 00C0      		rjmp .L120
 1728               	.L151:
 1729 0c30 4801      		movw r8,r16
 1730 0c32 0894      		sec
 1731 0c34 811C      		adc r8,__zero_reg__
 1732 0c36 911C      		adc r9,__zero_reg__
 1733               	.L164:
 1734 0c38 C601      		movw r24,r12
 1735 0c3a BE01      		movw r22,r28
GAS LISTING C:\DOCUME~1\ADMINI~1\LOCALS~1\Temp/cctKSLoe.s 			page 32


 1736 0c3c A401      		movw r20,r8
 1737 0c3e 0E94 0000 		call match
 1738 0c42 5C01      		movw r10,r24
 1739 0c44 0097      		sbiw r24,0
 1740 0c46 01F4      		brne .L155
 1741 0c48 D601      		movw r26,r12
 1742 0c4a 1296      		adiw r26,2
 1743 0c4c 8D91      		ld r24,X+
 1744 0c4e 9C91      		ld r25,X
 1745 0c50 1397      		sbiw r26,2+1
 1746 0c52 C817      		cp r28,r24
 1747 0c54 D907      		cpc r29,r25
 1748 0c56 00F4      		brsh .L155
 1749 0c58 8881      		ld r24,Y
 1750 0c5a 90E0      		ldi r25,lo8(0)
 1751 0c5c B701      		movw r22,r14
 1752 0c5e A801      		movw r20,r16
 1753 0c60 0E94 0000 		call singlematch
 1754 0c64 892B      		or r24,r25
 1755 0c66 01F0      		breq .L155
 1756 0c68 2196      		adiw r28,1
 1757 0c6a 00C0      		rjmp .L164
 1758               	.L148:
 1759 0c6c 232B      		or r18,r19
 1760 0c6e 01F0      		breq .L135
 1761 0c70 2196      		adiw r28,1
 1762 0c72 7801      		movw r14,r16
 1763 0c74 00C0      		rjmp .L160
 1764               	.L135:
 1765 0c76 C0E0      		ldi r28,lo8(0)
 1766 0c78 D0E0      		ldi r29,hi8(0)
 1767 0c7a 00C0      		rjmp .L120
 1768               	.L155:
 1769 0c7c E501      		movw r28,r10
 1770               	.L120:
 1771 0c7e CE01      		movw r24,r28
 1772               	/* epilogue start */
 1773 0c80 DF91      		pop r29
 1774 0c82 CF91      		pop r28
 1775 0c84 1F91      		pop r17
 1776 0c86 0F91      		pop r16
 1777 0c88 FF90      		pop r15
 1778 0c8a EF90      		pop r14
 1779 0c8c DF90      		pop r13
 1780 0c8e CF90      		pop r12
 1781 0c90 BF90      		pop r11
 1782 0c92 AF90      		pop r10
 1783 0c94 9F90      		pop r9
 1784 0c96 8F90      		pop r8
 1785 0c98 7F90      		pop r7
 1786 0c9a 6F90      		pop r6
 1787 0c9c 5F90      		pop r5
 1788 0c9e 4F90      		pop r4
 1789 0ca0 0895      		ret
 1790               		.size	match, .-match
 1791               		.data
 1792               	.LC9:
GAS LISTING C:\DOCUME~1\ADMINI~1\LOCALS~1\Temp/cctKSLoe.s 			page 33


 1793 00e9 746F 6F20 		.string	"too many captures"
 1793      6D61 6E79 
 1793      2063 6170 
 1793      7475 7265 
 1793      7300 
 1794               		.text
 1795               		.type	start_capture, @function
 1796               	start_capture:
 1797 0ca2 AF92      		push r10
 1798 0ca4 BF92      		push r11
 1799 0ca6 CF92      		push r12
 1800 0ca8 DF92      		push r13
 1801 0caa EF92      		push r14
 1802 0cac FF92      		push r15
 1803 0cae 0F93      		push r16
 1804 0cb0 1F93      		push r17
 1805 0cb2 CF93      		push r28
 1806 0cb4 DF93      		push r29
 1807               	/* prologue: function */
 1808               	/* frame size = 0 */
 1809 0cb6 EC01      		movw r28,r24
 1810 0cb8 7B01      		movw r14,r22
 1811 0cba 5A01      		movw r10,r20
 1812 0cbc 6901      		movw r12,r18
 1813 0cbe 0E81      		ldd r16,Y+6
 1814 0cc0 1F81      		ldd r17,Y+7
 1815 0cc2 0032      		cpi r16,32
 1816 0cc4 1105      		cpc r17,__zero_reg__
 1817 0cc6 04F0      		brlt .L172
 1818 0cc8 00D0      		rcall .
 1819 0cca 00D0      		rcall .
 1820 0ccc 8C81      		ldd r24,Y+4
 1821 0cce 9D81      		ldd r25,Y+5
 1822 0cd0 EDB7      		in r30,__SP_L__
 1823 0cd2 FEB7      		in r31,__SP_H__
 1824 0cd4 9283      		std Z+2,r25
 1825 0cd6 8183      		std Z+1,r24
 1826 0cd8 80E0      		ldi r24,lo8(.LC9)
 1827 0cda 90E0      		ldi r25,hi8(.LC9)
 1828 0cdc 9483      		std Z+4,r25
 1829 0cde 8383      		std Z+3,r24
 1830 0ce0 0E94 0000 		call luaL_error
 1831 0ce4 0F90      		pop __tmp_reg__
 1832 0ce6 0F90      		pop __tmp_reg__
 1833 0ce8 0F90      		pop __tmp_reg__
 1834 0cea 0F90      		pop __tmp_reg__
 1835               	.L172:
 1836 0cec F801      		movw r30,r16
 1837 0cee 3296      		adiw r30,2
 1838 0cf0 EE0F      		lsl r30
 1839 0cf2 FF1F      		rol r31
 1840 0cf4 EE0F      		lsl r30
 1841 0cf6 FF1F      		rol r31
 1842 0cf8 EC0F      		add r30,r28
 1843 0cfa FD1F      		adc r31,r29
 1844 0cfc F182      		std Z+1,r15
 1845 0cfe E082      		st Z,r14
GAS LISTING C:\DOCUME~1\ADMINI~1\LOCALS~1\Temp/cctKSLoe.s 			page 34


 1846 0d00 F801      		movw r30,r16
 1847 0d02 EE0F      		lsl r30
 1848 0d04 FF1F      		rol r31
 1849 0d06 EE0F      		lsl r30
 1850 0d08 FF1F      		rol r31
 1851 0d0a EC0F      		add r30,r28
 1852 0d0c FD1F      		adc r31,r29
 1853 0d0e D386      		std Z+11,r13
 1854 0d10 C286      		std Z+10,r12
 1855 0d12 0F5F      		subi r16,lo8(-(1))
 1856 0d14 1F4F      		sbci r17,hi8(-(1))
 1857 0d16 1F83      		std Y+7,r17
 1858 0d18 0E83      		std Y+6,r16
 1859 0d1a CE01      		movw r24,r28
 1860 0d1c B701      		movw r22,r14
 1861 0d1e A501      		movw r20,r10
 1862 0d20 0E94 0000 		call match
 1863 0d24 9C01      		movw r18,r24
 1864 0d26 0097      		sbiw r24,0
 1865 0d28 01F4      		brne .L173
 1866 0d2a 8E81      		ldd r24,Y+6
 1867 0d2c 9F81      		ldd r25,Y+7
 1868 0d2e 0197      		sbiw r24,1
 1869 0d30 9F83      		std Y+7,r25
 1870 0d32 8E83      		std Y+6,r24
 1871               	.L173:
 1872 0d34 C901      		movw r24,r18
 1873               	/* epilogue start */
 1874 0d36 DF91      		pop r29
 1875 0d38 CF91      		pop r28
 1876 0d3a 1F91      		pop r17
 1877 0d3c 0F91      		pop r16
 1878 0d3e FF90      		pop r15
 1879 0d40 EF90      		pop r14
 1880 0d42 DF90      		pop r13
 1881 0d44 CF90      		pop r12
 1882 0d46 BF90      		pop r11
 1883 0d48 AF90      		pop r10
 1884 0d4a 0895      		ret
 1885               		.size	start_capture, .-start_capture
 1886               		.type	push_captures, @function
 1887               	push_captures:
 1888 0d4c AF92      		push r10
 1889 0d4e BF92      		push r11
 1890 0d50 CF92      		push r12
 1891 0d52 DF92      		push r13
 1892 0d54 EF92      		push r14
 1893 0d56 FF92      		push r15
 1894 0d58 0F93      		push r16
 1895 0d5a 1F93      		push r17
 1896 0d5c CF93      		push r28
 1897 0d5e DF93      		push r29
 1898               	/* prologue: function */
 1899               	/* frame size = 0 */
 1900 0d60 7C01      		movw r14,r24
 1901 0d62 6B01      		movw r12,r22
 1902 0d64 5A01      		movw r10,r20
GAS LISTING C:\DOCUME~1\ADMINI~1\LOCALS~1\Temp/cctKSLoe.s 			page 35


 1903 0d66 FC01      		movw r30,r24
 1904 0d68 0681      		ldd r16,Z+6
 1905 0d6a 1781      		ldd r17,Z+7
 1906 0d6c 0115      		cp r16,__zero_reg__
 1907 0d6e 1105      		cpc r17,__zero_reg__
 1908 0d70 01F4      		brne .L176
 1909 0d72 60E0      		ldi r22,lo8(0)
 1910 0d74 C114      		cp r12,__zero_reg__
 1911 0d76 D104      		cpc r13,__zero_reg__
 1912 0d78 01F4      		brne .L177
 1913 0d7a 61E0      		ldi r22,lo8(1)
 1914               	.L177:
 1915 0d7c 81E0      		ldi r24,lo8(1)
 1916 0d7e 6827      		eor r22,r24
 1917 0d80 062F      		mov r16,r22
 1918 0d82 10E0      		ldi r17,lo8(0)
 1919               	.L176:
 1920 0d84 F701      		movw r30,r14
 1921 0d86 8481      		ldd r24,Z+4
 1922 0d88 9581      		ldd r25,Z+5
 1923 0d8a B801      		movw r22,r16
 1924 0d8c 40E0      		ldi r20,lo8(.LC9)
 1925 0d8e 50E0      		ldi r21,hi8(.LC9)
 1926 0d90 0E94 0000 		call luaL_checkstack
 1927 0d94 C0E0      		ldi r28,lo8(0)
 1928 0d96 D0E0      		ldi r29,hi8(0)
 1929 0d98 00C0      		rjmp .L178
 1930               	.L179:
 1931 0d9a C701      		movw r24,r14
 1932 0d9c BE01      		movw r22,r28
 1933 0d9e A601      		movw r20,r12
 1934 0da0 9501      		movw r18,r10
 1935 0da2 0E94 0000 		call push_onecapture
 1936 0da6 2196      		adiw r28,1
 1937               	.L178:
 1938 0da8 C017      		cp r28,r16
 1939 0daa D107      		cpc r29,r17
 1940 0dac 04F0      		brlt .L179
 1941 0dae C801      		movw r24,r16
 1942               	/* epilogue start */
 1943 0db0 DF91      		pop r29
 1944 0db2 CF91      		pop r28
 1945 0db4 1F91      		pop r17
 1946 0db6 0F91      		pop r16
 1947 0db8 FF90      		pop r15
 1948 0dba EF90      		pop r14
 1949 0dbc DF90      		pop r13
 1950 0dbe CF90      		pop r12
 1951 0dc0 BF90      		pop r11
 1952 0dc2 AF90      		pop r10
 1953 0dc4 0895      		ret
 1954               		.size	push_captures, .-push_captures
 1955               		.data
 1956               	.LC10:
 1957 00fb 5E24 2A2B 		.string	"^$*+?.([%-"
 1957      3F2E 285B 
 1957      252D 00
GAS LISTING C:\DOCUME~1\ADMINI~1\LOCALS~1\Temp/cctKSLoe.s 			page 36


 1958               		.text
 1959               		.type	str_find_aux, @function
 1960               	str_find_aux:
 1961 0dc6 2F92      		push r2
 1962 0dc8 3F92      		push r3
 1963 0dca 4F92      		push r4
 1964 0dcc 5F92      		push r5
 1965 0dce 6F92      		push r6
 1966 0dd0 7F92      		push r7
 1967 0dd2 8F92      		push r8
 1968 0dd4 9F92      		push r9
 1969 0dd6 AF92      		push r10
 1970 0dd8 BF92      		push r11
 1971 0dda CF92      		push r12
 1972 0ddc DF92      		push r13
 1973 0dde EF92      		push r14
 1974 0de0 FF92      		push r15
 1975 0de2 0F93      		push r16
 1976 0de4 1F93      		push r17
 1977 0de6 DF93      		push r29
 1978 0de8 CF93      		push r28
 1979 0dea CDB7      		in r28,__SP_L__
 1980 0dec DEB7      		in r29,__SP_H__
 1981 0dee CE58      		subi r28,lo8(-(-142))
 1982 0df0 D040      		sbci r29,hi8(-(-142))
 1983 0df2 0FB6      		in __tmp_reg__,__SREG__
 1984 0df4 F894      		cli
 1985 0df6 DEBF      		out __SP_H__,r29
 1986 0df8 0FBE      		out __SREG__,__tmp_reg__
 1987 0dfa CDBF      		out __SP_L__,r28
 1988               	/* prologue: function */
 1989               	/* frame size = 142 */
 1990 0dfc 4C01      		movw r8,r24
 1991 0dfe 1B01      		movw r2,r22
 1992 0e00 61E0      		ldi r22,lo8(1)
 1993 0e02 70E0      		ldi r23,hi8(1)
 1994 0e04 AE01      		movw r20,r28
 1995 0e06 4F5F      		subi r20,lo8(-(1))
 1996 0e08 5F4F      		sbci r21,hi8(-(1))
 1997 0e0a 0E94 0000 		call luaL_checklstring
 1998 0e0e 2C01      		movw r4,r24
 1999 0e10 C401      		movw r24,r8
 2000 0e12 62E0      		ldi r22,lo8(2)
 2001 0e14 70E0      		ldi r23,hi8(2)
 2002 0e16 AE01      		movw r20,r28
 2003 0e18 4D5F      		subi r20,lo8(-(3))
 2004 0e1a 5F4F      		sbci r21,hi8(-(3))
 2005 0e1c 0E94 0000 		call luaL_checklstring
 2006 0e20 3C01      		movw r6,r24
 2007 0e22 C401      		movw r24,r8
 2008 0e24 63E0      		ldi r22,lo8(3)
 2009 0e26 70E0      		ldi r23,hi8(3)
 2010 0e28 41E0      		ldi r20,lo8(1)
 2011 0e2a 50E0      		ldi r21,hi8(1)
 2012 0e2c 0E94 0000 		call luaL_optinteger
 2013 0e30 2981      		ldd r18,Y+1
 2014 0e32 3A81      		ldd r19,Y+2
GAS LISTING C:\DOCUME~1\ADMINI~1\LOCALS~1\Temp/cctKSLoe.s 			page 37


 2015 0e34 97FF      		sbrs r25,7
 2016 0e36 00C0      		rjmp .L182
 2017 0e38 2F5F      		subi r18,lo8(-(1))
 2018 0e3a 3F4F      		sbci r19,hi8(-(1))
 2019 0e3c 820F      		add r24,r18
 2020 0e3e 931F      		adc r25,r19
 2021 0e40 2150      		subi r18,lo8(-(-1))
 2022 0e42 3040      		sbci r19,hi8(-(-1))
 2023               	.L182:
 2024 0e44 97FF      		sbrs r25,7
 2025 0e46 00C0      		rjmp .L183
 2026 0e48 80E0      		ldi r24,lo8(0)
 2027 0e4a 90E0      		ldi r25,hi8(0)
 2028               	.L183:
 2029 0e4c 8C01      		movw r16,r24
 2030 0e4e 0150      		subi r16,lo8(-(-1))
 2031 0e50 1040      		sbci r17,hi8(-(-1))
 2032 0e52 8FEF      		ldi r24,hi8(-1)
 2033 0e54 0F3F      		cpi r16,lo8(-1)
 2034 0e56 1807      		cpc r17,r24
 2035 0e58 01F4      		brne .L184
 2036 0e5a 00E0      		ldi r16,lo8(0)
 2037 0e5c 10E0      		ldi r17,hi8(0)
 2038 0e5e 00C0      		rjmp .L185
 2039               	.L184:
 2040 0e60 2017      		cp r18,r16
 2041 0e62 3107      		cpc r19,r17
 2042 0e64 00F4      		brsh .L185
 2043 0e66 8901      		movw r16,r18
 2044               	.L185:
 2045 0e68 2114      		cp r2,__zero_reg__
 2046 0e6a 3104      		cpc r3,__zero_reg__
 2047 0e6c 01F4      		brne .+2
 2048 0e6e 00C0      		rjmp .L186
 2049 0e70 C401      		movw r24,r8
 2050 0e72 64E0      		ldi r22,lo8(4)
 2051 0e74 70E0      		ldi r23,hi8(4)
 2052 0e76 0E94 0000 		call lua_toboolean
 2053 0e7a 892B      		or r24,r25
 2054 0e7c 01F4      		brne .L187
 2055 0e7e C301      		movw r24,r6
 2056 0e80 60E0      		ldi r22,lo8(.LC10)
 2057 0e82 70E0      		ldi r23,hi8(.LC10)
 2058 0e84 0E94 0000 		call strpbrk
 2059 0e88 0097      		sbiw r24,0
 2060 0e8a 01F0      		breq .+2
 2061 0e8c 00C0      		rjmp .L186
 2062               	.L187:
 2063 0e8e 6201      		movw r12,r4
 2064 0e90 C00E      		add r12,r16
 2065 0e92 D11E      		adc r13,r17
 2066 0e94 8981      		ldd r24,Y+1
 2067 0e96 9A81      		ldd r25,Y+2
 2068 0e98 4B81      		ldd r20,Y+3
 2069 0e9a 5C81      		ldd r21,Y+4
 2070 0e9c 4115      		cp r20,__zero_reg__
 2071 0e9e 5105      		cpc r21,__zero_reg__
GAS LISTING C:\DOCUME~1\ADMINI~1\LOCALS~1\Temp/cctKSLoe.s 			page 38


 2072 0ea0 01F0      		breq .L188
 2073 0ea2 801B      		sub r24,r16
 2074 0ea4 910B      		sbc r25,r17
 2075 0ea6 8417      		cp r24,r20
 2076 0ea8 9507      		cpc r25,r21
 2077 0eaa 00F4      		brsh .+2
 2078 0eac 00C0      		rjmp .L189
 2079 0eae 1A01      		movw r2,r20
 2080 0eb0 0894      		sec
 2081 0eb2 2108      		sbc r2,__zero_reg__
 2082 0eb4 3108      		sbc r3,__zero_reg__
 2083 0eb6 5C01      		movw r10,r24
 2084 0eb8 A218      		sub r10,r2
 2085 0eba B308      		sbc r11,r3
 2086 0ebc F301      		movw r30,r6
 2087 0ebe 3196      		adiw r30,1
 2088 0ec0 C357      		subi r28,lo8(-141)
 2089 0ec2 DF4F      		sbci r29,hi8(-141)
 2090 0ec4 F983      		std Y+1,r31
 2091 0ec6 E883      		st Y,r30
 2092 0ec8 CD58      		subi r28,lo8(141)
 2093 0eca D040      		sbci r29,hi8(141)
 2094 0ecc 00C0      		rjmp .L190
 2095               	.L193:
 2096 0ece 7801      		movw r14,r16
 2097 0ed0 0894      		sec
 2098 0ed2 E11C      		adc r14,__zero_reg__
 2099 0ed4 F11C      		adc r15,__zero_reg__
 2100 0ed6 C701      		movw r24,r14
 2101 0ed8 C357      		subi r28,lo8(-141)
 2102 0eda DF4F      		sbci r29,hi8(-141)
 2103 0edc 6881      		ld r22,Y
 2104 0ede 7981      		ldd r23,Y+1
 2105 0ee0 CD58      		subi r28,lo8(141)
 2106 0ee2 D040      		sbci r29,hi8(141)
 2107 0ee4 A101      		movw r20,r2
 2108 0ee6 0E94 0000 		call memcmp
 2109 0eea 0097      		sbiw r24,0
 2110 0eec 01F4      		brne .L191
 2111 0eee 6801      		movw r12,r16
 2112 0ef0 00C0      		rjmp .L192
 2113               	.L191:
 2114 0ef2 CE18      		sub r12,r14
 2115 0ef4 DF08      		sbc r13,r15
 2116 0ef6 AC0C      		add r10,r12
 2117 0ef8 BD1C      		adc r11,r13
 2118 0efa 6701      		movw r12,r14
 2119               	.L190:
 2120 0efc A114      		cp r10,__zero_reg__
 2121 0efe B104      		cpc r11,__zero_reg__
 2122 0f00 01F4      		brne .+2
 2123 0f02 00C0      		rjmp .L189
 2124 0f04 F301      		movw r30,r6
 2125 0f06 6081      		ld r22,Z
 2126 0f08 7727      		clr r23
 2127 0f0a 67FD      		sbrc r22,7
 2128 0f0c 7095      		com r23
GAS LISTING C:\DOCUME~1\ADMINI~1\LOCALS~1\Temp/cctKSLoe.s 			page 39


 2129 0f0e C601      		movw r24,r12
 2130 0f10 A501      		movw r20,r10
 2131 0f12 0E94 0000 		call memchr
 2132 0f16 8C01      		movw r16,r24
 2133 0f18 0097      		sbiw r24,0
 2134 0f1a 01F4      		brne .L193
 2135 0f1c 00C0      		rjmp .L189
 2136               	.L188:
 2137 0f1e C114      		cp r12,__zero_reg__
 2138 0f20 D104      		cpc r13,__zero_reg__
 2139 0f22 01F4      		brne .+2
 2140 0f24 00C0      		rjmp .L189
 2141               	.L192:
 2142 0f26 8601      		movw r16,r12
 2143 0f28 0419      		sub r16,r4
 2144 0f2a 1509      		sbc r17,r5
 2145 0f2c B801      		movw r22,r16
 2146 0f2e 6F5F      		subi r22,lo8(-(1))
 2147 0f30 7F4F      		sbci r23,hi8(-(1))
 2148 0f32 C401      		movw r24,r8
 2149 0f34 0E94 0000 		call lua_pushinteger
 2150 0f38 8B81      		ldd r24,Y+3
 2151 0f3a 9C81      		ldd r25,Y+4
 2152 0f3c 080F      		add r16,r24
 2153 0f3e 191F      		adc r17,r25
 2154 0f40 C401      		movw r24,r8
 2155 0f42 B801      		movw r22,r16
 2156 0f44 0E94 0000 		call lua_pushinteger
 2157 0f48 22E0      		ldi r18,lo8(2)
 2158 0f4a 30E0      		ldi r19,hi8(2)
 2159 0f4c 00C0      		rjmp .L194
 2160               	.L186:
 2161 0f4e F301      		movw r30,r6
 2162 0f50 8081      		ld r24,Z
 2163 0f52 8E35      		cpi r24,lo8(94)
 2164 0f54 01F0      		breq .L195
 2165 0f56 AA24      		clr r10
 2166 0f58 BB24      		clr r11
 2167 0f5a 00C0      		rjmp .L196
 2168               	.L195:
 2169 0f5c 0894      		sec
 2170 0f5e 611C      		adc r6,__zero_reg__
 2171 0f60 711C      		adc r7,__zero_reg__
 2172 0f62 F1E0      		ldi r31,lo8(1)
 2173 0f64 AF2E      		mov r10,r31
 2174 0f66 B12C      		mov r11,__zero_reg__
 2175               	.L196:
 2176 0f68 040D      		add r16,r4
 2177 0f6a 151D      		adc r17,r5
 2178 0f6c 9A86      		std Y+10,r9
 2179 0f6e 8986      		std Y+9,r8
 2180 0f70 5E82      		std Y+6,r5
 2181 0f72 4D82      		std Y+5,r4
 2182 0f74 8981      		ldd r24,Y+1
 2183 0f76 9A81      		ldd r25,Y+2
 2184 0f78 840D      		add r24,r4
 2185 0f7a 951D      		adc r25,r5
GAS LISTING C:\DOCUME~1\ADMINI~1\LOCALS~1\Temp/cctKSLoe.s 			page 40


 2186 0f7c 9887      		std Y+8,r25
 2187 0f7e 8F83      		std Y+7,r24
 2188 0f80 E5E0      		ldi r30,lo8(5)
 2189 0f82 CE2E      		mov r12,r30
 2190 0f84 D12C      		mov r13,__zero_reg__
 2191 0f86 CC0E      		add r12,r28
 2192 0f88 DD1E      		adc r13,r29
 2193               	.L199:
 2194 0f8a 1C86      		std Y+12,__zero_reg__
 2195 0f8c 1B86      		std Y+11,__zero_reg__
 2196 0f8e C601      		movw r24,r12
 2197 0f90 B801      		movw r22,r16
 2198 0f92 A301      		movw r20,r6
 2199 0f94 0E94 0000 		call match
 2200 0f98 7C01      		movw r14,r24
 2201 0f9a 0097      		sbiw r24,0
 2202 0f9c 01F0      		breq .L197
 2203 0f9e 2328      		or r2,r3
 2204 0fa0 01F0      		breq .L198
 2205 0fa2 0419      		sub r16,r4
 2206 0fa4 1509      		sbc r17,r5
 2207 0fa6 0F5F      		subi r16,lo8(-(1))
 2208 0fa8 1F4F      		sbci r17,hi8(-(1))
 2209 0faa C401      		movw r24,r8
 2210 0fac B801      		movw r22,r16
 2211 0fae 0E94 0000 		call lua_pushinteger
 2212 0fb2 E418      		sub r14,r4
 2213 0fb4 F508      		sbc r15,r5
 2214 0fb6 C401      		movw r24,r8
 2215 0fb8 B701      		movw r22,r14
 2216 0fba 0E94 0000 		call lua_pushinteger
 2217 0fbe C601      		movw r24,r12
 2218 0fc0 60E0      		ldi r22,lo8(0)
 2219 0fc2 70E0      		ldi r23,hi8(0)
 2220 0fc4 40E0      		ldi r20,lo8(0)
 2221 0fc6 50E0      		ldi r21,hi8(0)
 2222 0fc8 0E94 0000 		call push_captures
 2223 0fcc 9C01      		movw r18,r24
 2224 0fce 2E5F      		subi r18,lo8(-(2))
 2225 0fd0 3F4F      		sbci r19,hi8(-(2))
 2226 0fd2 00C0      		rjmp .L194
 2227               	.L198:
 2228 0fd4 C601      		movw r24,r12
 2229 0fd6 B801      		movw r22,r16
 2230 0fd8 A701      		movw r20,r14
 2231 0fda 0E94 0000 		call push_captures
 2232 0fde 9C01      		movw r18,r24
 2233 0fe0 00C0      		rjmp .L194
 2234               	.L197:
 2235 0fe2 8F81      		ldd r24,Y+7
 2236 0fe4 9885      		ldd r25,Y+8
 2237 0fe6 0817      		cp r16,r24
 2238 0fe8 1907      		cpc r17,r25
 2239 0fea 00F4      		brsh .L189
 2240 0fec A114      		cp r10,__zero_reg__
 2241 0fee B104      		cpc r11,__zero_reg__
 2242 0ff0 01F4      		brne .L189
GAS LISTING C:\DOCUME~1\ADMINI~1\LOCALS~1\Temp/cctKSLoe.s 			page 41


 2243 0ff2 0F5F      		subi r16,lo8(-(1))
 2244 0ff4 1F4F      		sbci r17,hi8(-(1))
 2245 0ff6 00C0      		rjmp .L199
 2246               	.L189:
 2247 0ff8 C401      		movw r24,r8
 2248 0ffa 0E94 0000 		call lua_pushnil
 2249 0ffe 21E0      		ldi r18,lo8(1)
 2250 1000 30E0      		ldi r19,hi8(1)
 2251               	.L194:
 2252 1002 C901      		movw r24,r18
 2253               	/* epilogue start */
 2254 1004 C257      		subi r28,lo8(-(142))
 2255 1006 DF4F      		sbci r29,hi8(-(142))
 2256 1008 0FB6      		in __tmp_reg__,__SREG__
 2257 100a F894      		cli
 2258 100c DEBF      		out __SP_H__,r29
 2259 100e 0FBE      		out __SREG__,__tmp_reg__
 2260 1010 CDBF      		out __SP_L__,r28
 2261 1012 CF91      		pop r28
 2262 1014 DF91      		pop r29
 2263 1016 1F91      		pop r17
 2264 1018 0F91      		pop r16
 2265 101a FF90      		pop r15
 2266 101c EF90      		pop r14
 2267 101e DF90      		pop r13
 2268 1020 CF90      		pop r12
 2269 1022 BF90      		pop r11
 2270 1024 AF90      		pop r10
 2271 1026 9F90      		pop r9
 2272 1028 8F90      		pop r8
 2273 102a 7F90      		pop r7
 2274 102c 6F90      		pop r6
 2275 102e 5F90      		pop r5
 2276 1030 4F90      		pop r4
 2277 1032 3F90      		pop r3
 2278 1034 2F90      		pop r2
 2279 1036 0895      		ret
 2280               		.size	str_find_aux, .-str_find_aux
 2281               		.type	str_match, @function
 2282               	str_match:
 2283               	/* prologue: function */
 2284               	/* frame size = 0 */
 2285 1038 60E0      		ldi r22,lo8(0)
 2286 103a 70E0      		ldi r23,hi8(0)
 2287 103c 0E94 0000 		call str_find_aux
 2288               	/* epilogue start */
 2289 1040 0895      		ret
 2290               		.size	str_match, .-str_match
 2291               		.type	str_find, @function
 2292               	str_find:
 2293               	/* prologue: function */
 2294               	/* frame size = 0 */
 2295 1042 61E0      		ldi r22,lo8(1)
 2296 1044 70E0      		ldi r23,hi8(1)
 2297 1046 0E94 0000 		call str_find_aux
 2298               	/* epilogue start */
 2299 104a 0895      		ret
GAS LISTING C:\DOCUME~1\ADMINI~1\LOCALS~1\Temp/cctKSLoe.s 			page 42


 2300               		.size	str_find, .-str_find
 2301               		.data
 2302               	.LC11:
 2303 0106 7374 7269 		.string	"string slice too long"
 2303      6E67 2073 
 2303      6C69 6365 
 2303      2074 6F6F 
 2303      206C 6F6E 
 2304               		.text
 2305               		.type	str_byte, @function
 2306               	str_byte:
 2307 104c 8F92      		push r8
 2308 104e 9F92      		push r9
 2309 1050 AF92      		push r10
 2310 1052 BF92      		push r11
 2311 1054 CF92      		push r12
 2312 1056 DF92      		push r13
 2313 1058 EF92      		push r14
 2314 105a FF92      		push r15
 2315 105c 0F93      		push r16
 2316 105e 1F93      		push r17
 2317 1060 DF93      		push r29
 2318 1062 CF93      		push r28
 2319 1064 00D0      		rcall .
 2320 1066 CDB7      		in r28,__SP_L__
 2321 1068 DEB7      		in r29,__SP_H__
 2322               	/* prologue: function */
 2323               	/* frame size = 2 */
 2324 106a 5C01      		movw r10,r24
 2325 106c 61E0      		ldi r22,lo8(1)
 2326 106e 70E0      		ldi r23,hi8(1)
 2327 1070 AE01      		movw r20,r28
 2328 1072 4F5F      		subi r20,lo8(-(1))
 2329 1074 5F4F      		sbci r21,hi8(-(1))
 2330 1076 0E94 0000 		call luaL_checklstring
 2331 107a 4C01      		movw r8,r24
 2332 107c C501      		movw r24,r10
 2333 107e 62E0      		ldi r22,lo8(2)
 2334 1080 70E0      		ldi r23,hi8(2)
 2335 1082 41E0      		ldi r20,lo8(1)
 2336 1084 50E0      		ldi r21,hi8(1)
 2337 1086 0E94 0000 		call luaL_optinteger
 2338 108a AC01      		movw r20,r24
 2339 108c 2981      		ldd r18,Y+1
 2340 108e 3A81      		ldd r19,Y+2
 2341 1090 97FF      		sbrs r25,7
 2342 1092 00C0      		rjmp .L206
 2343 1094 2F5F      		subi r18,lo8(-(1))
 2344 1096 3F4F      		sbci r19,hi8(-(1))
 2345 1098 420F      		add r20,r18
 2346 109a 531F      		adc r21,r19
 2347               	.L206:
 2348 109c 7A01      		movw r14,r20
 2349 109e 57FF      		sbrs r21,7
 2350 10a0 00C0      		rjmp .L207
 2351 10a2 EE24      		clr r14
 2352 10a4 FF24      		clr r15
GAS LISTING C:\DOCUME~1\ADMINI~1\LOCALS~1\Temp/cctKSLoe.s 			page 43


 2353               	.L207:
 2354 10a6 C501      		movw r24,r10
 2355 10a8 63E0      		ldi r22,lo8(3)
 2356 10aa 70E0      		ldi r23,hi8(3)
 2357 10ac A701      		movw r20,r14
 2358 10ae 0E94 0000 		call luaL_optinteger
 2359 10b2 4981      		ldd r20,Y+1
 2360 10b4 5A81      		ldd r21,Y+2
 2361 10b6 97FF      		sbrs r25,7
 2362 10b8 00C0      		rjmp .L208
 2363 10ba 4F5F      		subi r20,lo8(-(1))
 2364 10bc 5F4F      		sbci r21,hi8(-(1))
 2365 10be 840F      		add r24,r20
 2366 10c0 951F      		adc r25,r21
 2367 10c2 4150      		subi r20,lo8(-(-1))
 2368 10c4 5040      		sbci r21,hi8(-(-1))
 2369               	.L208:
 2370 10c6 9C01      		movw r18,r24
 2371 10c8 97FF      		sbrs r25,7
 2372 10ca 00C0      		rjmp .L209
 2373 10cc 20E0      		ldi r18,lo8(0)
 2374 10ce 30E0      		ldi r19,hi8(0)
 2375               	.L209:
 2376 10d0 E114      		cp r14,__zero_reg__
 2377 10d2 F104      		cpc r15,__zero_reg__
 2378 10d4 01F4      		brne .L210
 2379 10d6 A1E0      		ldi r26,lo8(1)
 2380 10d8 EA2E      		mov r14,r26
 2381 10da F12C      		mov r15,__zero_reg__
 2382               	.L210:
 2383 10dc 4217      		cp r20,r18
 2384 10de 5307      		cpc r21,r19
 2385 10e0 00F4      		brsh .L211
 2386 10e2 9A01      		movw r18,r20
 2387               	.L211:
 2388 10e4 2E15      		cp r18,r14
 2389 10e6 3F05      		cpc r19,r15
 2390 10e8 04F4      		brge .L212
 2391 10ea 00E0      		ldi r16,lo8(0)
 2392 10ec 10E0      		ldi r17,hi8(0)
 2393 10ee 00C0      		rjmp .L213
 2394               	.L212:
 2395 10f0 8901      		movw r16,r18
 2396 10f2 0E19      		sub r16,r14
 2397 10f4 1F09      		sbc r17,r15
 2398 10f6 0F5F      		subi r16,lo8(-(1))
 2399 10f8 1F4F      		sbci r17,hi8(-(1))
 2400 10fa C801      		movw r24,r16
 2401 10fc 8E0D      		add r24,r14
 2402 10fe 9F1D      		adc r25,r15
 2403 1100 2817      		cp r18,r24
 2404 1102 3907      		cpc r19,r25
 2405 1104 04F0      		brlt .L214
 2406 1106 00D0      		rcall .
 2407 1108 00D0      		rcall .
 2408 110a EDB7      		in r30,__SP_L__
 2409 110c FEB7      		in r31,__SP_H__
GAS LISTING C:\DOCUME~1\ADMINI~1\LOCALS~1\Temp/cctKSLoe.s 			page 44


 2410 110e B282      		std Z+2,r11
 2411 1110 A182      		std Z+1,r10
 2412 1112 80E0      		ldi r24,lo8(.LC11)
 2413 1114 90E0      		ldi r25,hi8(.LC11)
 2414 1116 9483      		std Z+4,r25
 2415 1118 8383      		std Z+3,r24
 2416 111a 0E94 0000 		call luaL_error
 2417 111e 0F90      		pop __tmp_reg__
 2418 1120 0F90      		pop __tmp_reg__
 2419 1122 0F90      		pop __tmp_reg__
 2420 1124 0F90      		pop __tmp_reg__
 2421               	.L214:
 2422 1126 C501      		movw r24,r10
 2423 1128 B801      		movw r22,r16
 2424 112a 40E0      		ldi r20,lo8(.LC11)
 2425 112c 50E0      		ldi r21,hi8(.LC11)
 2426 112e 0E94 0000 		call luaL_checkstack
 2427 1132 6701      		movw r12,r14
 2428 1134 0894      		sec
 2429 1136 C108      		sbc r12,__zero_reg__
 2430 1138 D108      		sbc r13,__zero_reg__
 2431 113a C80C      		add r12,r8
 2432 113c D91C      		adc r13,r9
 2433 113e EE24      		clr r14
 2434 1140 FF24      		clr r15
 2435 1142 00C0      		rjmp .L215
 2436               	.L216:
 2437 1144 F601      		movw r30,r12
 2438 1146 6191      		ld r22,Z+
 2439 1148 6F01      		movw r12,r30
 2440 114a C501      		movw r24,r10
 2441 114c 70E0      		ldi r23,lo8(0)
 2442 114e 0E94 0000 		call lua_pushinteger
 2443 1152 0894      		sec
 2444 1154 E11C      		adc r14,__zero_reg__
 2445 1156 F11C      		adc r15,__zero_reg__
 2446               	.L215:
 2447 1158 E016      		cp r14,r16
 2448 115a F106      		cpc r15,r17
 2449 115c 04F0      		brlt .L216
 2450               	.L213:
 2451 115e C801      		movw r24,r16
 2452               	/* epilogue start */
 2453 1160 0F90      		pop __tmp_reg__
 2454 1162 0F90      		pop __tmp_reg__
 2455 1164 CF91      		pop r28
 2456 1166 DF91      		pop r29
 2457 1168 1F91      		pop r17
 2458 116a 0F91      		pop r16
 2459 116c FF90      		pop r15
 2460 116e EF90      		pop r14
 2461 1170 DF90      		pop r13
 2462 1172 CF90      		pop r12
 2463 1174 BF90      		pop r11
 2464 1176 AF90      		pop r10
 2465 1178 9F90      		pop r9
 2466 117a 8F90      		pop r8
GAS LISTING C:\DOCUME~1\ADMINI~1\LOCALS~1\Temp/cctKSLoe.s 			page 45


 2467 117c 0895      		ret
 2468               		.size	str_byte, .-str_byte
 2469               		.data
 2470               	.LC12:
 2471 011c 7374 7269 		.string	"string/function/table/lightfunction expected"
 2471      6E67 2F66 
 2471      756E 6374 
 2471      696F 6E2F 
 2471      7461 626C 
 2472               	.LC13:
 2473 0149 696E 7661 		.string	"invalid replacement value (a %s)"
 2473      6C69 6420 
 2473      7265 706C 
 2473      6163 656D 
 2473      656E 7420 
 2474               		.text
 2475               		.type	str_gsub, @function
 2476               	str_gsub:
 2477 117e 2F92      		push r2
 2478 1180 3F92      		push r3
 2479 1182 4F92      		push r4
 2480 1184 5F92      		push r5
 2481 1186 6F92      		push r6
 2482 1188 7F92      		push r7
 2483 118a 8F92      		push r8
 2484 118c 9F92      		push r9
 2485 118e AF92      		push r10
 2486 1190 BF92      		push r11
 2487 1192 CF92      		push r12
 2488 1194 DF92      		push r13
 2489 1196 EF92      		push r14
 2490 1198 FF92      		push r15
 2491 119a 0F93      		push r16
 2492 119c 1F93      		push r17
 2493 119e DF93      		push r29
 2494 11a0 CF93      		push r28
 2495 11a2 CDB7      		in r28,__SP_L__
 2496 11a4 DEB7      		in r29,__SP_H__
 2497 11a6 CC59      		subi r28,lo8(-(-1180))
 2498 11a8 D440      		sbci r29,hi8(-(-1180))
 2499 11aa 0FB6      		in __tmp_reg__,__SREG__
 2500 11ac F894      		cli
 2501 11ae DEBF      		out __SP_H__,r29
 2502 11b0 0FBE      		out __SREG__,__tmp_reg__
 2503 11b2 CDBF      		out __SP_L__,r28
 2504               	/* prologue: function */
 2505               	/* frame size = 1180 */
 2506 11b4 3C01      		movw r6,r24
 2507 11b6 61E0      		ldi r22,lo8(1)
 2508 11b8 70E0      		ldi r23,hi8(1)
 2509 11ba AE01      		movw r20,r28
 2510 11bc 4F5F      		subi r20,lo8(-(1))
 2511 11be 5F4F      		sbci r21,hi8(-(1))
 2512 11c0 0E94 0000 		call luaL_checklstring
 2513 11c4 7C01      		movw r14,r24
 2514 11c6 C301      		movw r24,r6
 2515 11c8 62E0      		ldi r22,lo8(2)
GAS LISTING C:\DOCUME~1\ADMINI~1\LOCALS~1\Temp/cctKSLoe.s 			page 46


 2516 11ca 70E0      		ldi r23,hi8(2)
 2517 11cc 40E0      		ldi r20,lo8(0)
 2518 11ce 50E0      		ldi r21,hi8(0)
 2519 11d0 0E94 0000 		call luaL_checklstring
 2520 11d4 C956      		subi r28,lo8(-1175)
 2521 11d6 DB4F      		sbci r29,hi8(-1175)
 2522 11d8 9983      		std Y+1,r25
 2523 11da 8883      		st Y,r24
 2524 11dc C759      		subi r28,lo8(1175)
 2525 11de D440      		sbci r29,hi8(1175)
 2526 11e0 C301      		movw r24,r6
 2527 11e2 63E0      		ldi r22,lo8(3)
 2528 11e4 70E0      		ldi r23,hi8(3)
 2529 11e6 0E94 0000 		call lua_type
 2530 11ea 8C01      		movw r16,r24
 2531 11ec 4981      		ldd r20,Y+1
 2532 11ee 5A81      		ldd r21,Y+2
 2533 11f0 4F5F      		subi r20,lo8(-(1))
 2534 11f2 5F4F      		sbci r21,hi8(-(1))
 2535 11f4 C301      		movw r24,r6
 2536 11f6 64E0      		ldi r22,lo8(4)
 2537 11f8 70E0      		ldi r23,hi8(4)
 2538 11fa 0E94 0000 		call luaL_optinteger
 2539 11fe CB56      		subi r28,lo8(-1173)
 2540 1200 DB4F      		sbci r29,hi8(-1173)
 2541 1202 9983      		std Y+1,r25
 2542 1204 8883      		st Y,r24
 2543 1206 C559      		subi r28,lo8(1173)
 2544 1208 D440      		sbci r29,hi8(1173)
 2545 120a C956      		subi r28,lo8(-1175)
 2546 120c DB4F      		sbci r29,hi8(-1175)
 2547 120e A881      		ld r26,Y
 2548 1210 B981      		ldd r27,Y+1
 2549 1212 C759      		subi r28,lo8(1175)
 2550 1214 D440      		sbci r29,hi8(1175)
 2551 1216 8C91      		ld r24,X
 2552 1218 8E35      		cpi r24,lo8(94)
 2553 121a 01F0      		breq .L219
 2554 121c CD56      		subi r28,lo8(-1171)
 2555 121e DB4F      		sbci r29,hi8(-1171)
 2556 1220 1982      		std Y+1,__zero_reg__
 2557 1222 1882      		st Y,__zero_reg__
 2558 1224 C359      		subi r28,lo8(1171)
 2559 1226 D440      		sbci r29,hi8(1171)
 2560 1228 00C0      		rjmp .L220
 2561               	.L219:
 2562 122a C956      		subi r28,lo8(-1175)
 2563 122c DB4F      		sbci r29,hi8(-1175)
 2564 122e E881      		ld r30,Y
 2565 1230 F981      		ldd r31,Y+1
 2566 1232 C759      		subi r28,lo8(1175)
 2567 1234 D440      		sbci r29,hi8(1175)
 2568 1236 3196      		adiw r30,1
 2569 1238 C956      		subi r28,lo8(-1175)
 2570 123a DB4F      		sbci r29,hi8(-1175)
 2571 123c F983      		std Y+1,r31
 2572 123e E883      		st Y,r30
GAS LISTING C:\DOCUME~1\ADMINI~1\LOCALS~1\Temp/cctKSLoe.s 			page 47


 2573 1240 C759      		subi r28,lo8(1175)
 2574 1242 D440      		sbci r29,hi8(1175)
 2575 1244 21E0      		ldi r18,lo8(1)
 2576 1246 30E0      		ldi r19,hi8(1)
 2577 1248 CD56      		subi r28,lo8(-1171)
 2578 124a DB4F      		sbci r29,hi8(-1171)
 2579 124c 3983      		std Y+1,r19
 2580 124e 2883      		st Y,r18
 2581 1250 C359      		subi r28,lo8(1171)
 2582 1252 D440      		sbci r29,hi8(1171)
 2583               	.L220:
 2584 1254 C801      		movw r24,r16
 2585 1256 0597      		sbiw r24,5
 2586 1258 0297      		sbiw r24,2
 2587 125a 00F0      		brlo .L221
 2588 125c 0830      		cpi r16,8
 2589 125e 1105      		cpc r17,__zero_reg__
 2590 1260 01F0      		breq .L221
 2591 1262 0730      		cpi r16,7
 2592 1264 1105      		cpc r17,__zero_reg__
 2593 1266 01F0      		breq .L221
 2594 1268 0330      		cpi r16,3
 2595 126a 1105      		cpc r17,__zero_reg__
 2596 126c 01F0      		breq .L221
 2597 126e C301      		movw r24,r6
 2598 1270 63E0      		ldi r22,lo8(3)
 2599 1272 70E0      		ldi r23,hi8(3)
 2600 1274 40E0      		ldi r20,lo8(.LC12)
 2601 1276 50E0      		ldi r21,hi8(.LC12)
 2602 1278 0E94 0000 		call luaL_argerror
 2603               	.L221:
 2604 127c 8E01      		movw r16,r28
 2605 127e 0357      		subi r16,lo8(-(141))
 2606 1280 1F4F      		sbci r17,hi8(-(141))
 2607 1282 C301      		movw r24,r6
 2608 1284 B801      		movw r22,r16
 2609 1286 0E94 0000 		call luaL_buffinit
 2610 128a 7A86      		std Y+10,r7
 2611 128c 6986      		std Y+9,r6
 2612 128e FE82      		std Y+6,r15
 2613 1290 ED82      		std Y+5,r14
 2614 1292 8981      		ldd r24,Y+1
 2615 1294 9A81      		ldd r25,Y+2
 2616 1296 8E0D      		add r24,r14
 2617 1298 9F1D      		adc r25,r15
 2618 129a 9887      		std Y+8,r25
 2619 129c 8F83      		std Y+7,r24
 2620 129e 4424      		clr r4
 2621 12a0 5524      		clr r5
 2622 12a2 4801      		movw r8,r16
 2623 12a4 CE01      		movw r24,r28
 2624 12a6 8D56      		subi r24,lo8(-(1171))
 2625 12a8 9B4F      		sbci r25,hi8(-(1171))
 2626 12aa C556      		subi r28,lo8(-1179)
 2627 12ac DB4F      		sbci r29,hi8(-1179)
 2628 12ae 9983      		std Y+1,r25
 2629 12b0 8883      		st Y,r24
GAS LISTING C:\DOCUME~1\ADMINI~1\LOCALS~1\Temp/cctKSLoe.s 			page 48


 2630 12b2 CB59      		subi r28,lo8(1179)
 2631 12b4 D440      		sbci r29,hi8(1179)
 2632 12b6 00C0      		rjmp .L222
 2633               	.L242:
 2634 12b8 1C86      		std Y+12,__zero_reg__
 2635 12ba 1B86      		std Y+11,__zero_reg__
 2636 12bc CE01      		movw r24,r28
 2637 12be 0596      		adiw r24,5
 2638 12c0 B701      		movw r22,r14
 2639 12c2 C956      		subi r28,lo8(-1175)
 2640 12c4 DB4F      		sbci r29,hi8(-1175)
 2641 12c6 4881      		ld r20,Y
 2642 12c8 5981      		ldd r21,Y+1
 2643 12ca C759      		subi r28,lo8(1175)
 2644 12cc D440      		sbci r29,hi8(1175)
 2645 12ce 0E94 0000 		call match
 2646 12d2 5C01      		movw r10,r24
 2647 12d4 0097      		sbiw r24,0
 2648 12d6 01F4      		brne .+2
 2649 12d8 00C0      		rjmp .L223
 2650 12da 0894      		sec
 2651 12dc 411C      		adc r4,__zero_reg__
 2652 12de 511C      		adc r5,__zero_reg__
 2653 12e0 0985      		ldd r16,Y+9
 2654 12e2 1A85      		ldd r17,Y+10
 2655 12e4 C801      		movw r24,r16
 2656 12e6 63E0      		ldi r22,lo8(3)
 2657 12e8 70E0      		ldi r23,hi8(3)
 2658 12ea 0E94 0000 		call lua_type
 2659 12ee 8730      		cpi r24,7
 2660 12f0 9105      		cpc r25,__zero_reg__
 2661 12f2 04F4      		brge .L228
 2662 12f4 8530      		cpi r24,5
 2663 12f6 9105      		cpc r25,__zero_reg__
 2664 12f8 04F4      		brge .L226
 2665 12fa 0397      		sbiw r24,3
 2666 12fc 01F0      		breq .+2
 2667 12fe 00C0      		rjmp .L224
 2668 1300 00C0      		rjmp .L225
 2669               	.L228:
 2670 1302 8730      		cpi r24,7
 2671 1304 9105      		cpc r25,__zero_reg__
 2672 1306 01F4      		brne .+2
 2673 1308 00C0      		rjmp .L227
 2674 130a 0897      		sbiw r24,8
 2675 130c 01F0      		breq .+2
 2676 130e 00C0      		rjmp .L224
 2677 1310 00C0      		rjmp .L225
 2678               	.L226:
 2679 1312 8985      		ldd r24,Y+9
 2680 1314 9A85      		ldd r25,Y+10
 2681 1316 63E0      		ldi r22,lo8(3)
 2682 1318 70E0      		ldi r23,hi8(3)
 2683 131a AE01      		movw r20,r28
 2684 131c 4D5F      		subi r20,lo8(-(3))
 2685 131e 5F4F      		sbci r21,hi8(-(3))
 2686 1320 0E94 0000 		call lua_tolstring
GAS LISTING C:\DOCUME~1\ADMINI~1\LOCALS~1\Temp/cctKSLoe.s 			page 49


 2687 1324 1C01      		movw r2,r24
 2688 1326 00E0      		ldi r16,lo8(0)
 2689 1328 10E0      		ldi r17,hi8(0)
 2690 132a D501      		movw r26,r10
 2691 132c AE19      		sub r26,r14
 2692 132e BF09      		sbc r27,r15
 2693 1330 C756      		subi r28,lo8(-1177)
 2694 1332 DB4F      		sbci r29,hi8(-1177)
 2695 1334 B983      		std Y+1,r27
 2696 1336 A883      		st Y,r26
 2697 1338 C959      		subi r28,lo8(1177)
 2698 133a D440      		sbci r29,hi8(1177)
 2699 133c 00C0      		rjmp .L229
 2700               	.L236:
 2701 133e 6101      		movw r12,r2
 2702 1340 C00E      		add r12,r16
 2703 1342 D11E      		adc r13,r17
 2704 1344 F601      		movw r30,r12
 2705 1346 8081      		ld r24,Z
 2706 1348 8532      		cpi r24,lo8(37)
 2707 134a 01F4      		brne .L246
 2708               	.L230:
 2709 134c 0F5F      		subi r16,lo8(-(1))
 2710 134e 1F4F      		sbci r17,hi8(-(1))
 2711 1350 6101      		movw r12,r2
 2712 1352 C00E      		add r12,r16
 2713 1354 D11E      		adc r13,r17
 2714 1356 F601      		movw r30,r12
 2715 1358 6081      		ld r22,Z
 2716 135a 862F      		mov r24,r22
 2717 135c 90E0      		ldi r25,lo8(0)
 2718 135e C097      		sbiw r24,48
 2719 1360 0A97      		sbiw r24,10
 2720 1362 00F0      		brlo .L233
 2721               	.L246:
 2722 1364 D401      		movw r26,r8
 2723 1366 8D91      		ld r24,X+
 2724 1368 9C91      		ld r25,X
 2725 136a C556      		subi r28,lo8(-1179)
 2726 136c DB4F      		sbci r29,hi8(-1179)
 2727 136e E881      		ld r30,Y
 2728 1370 F981      		ldd r31,Y+1
 2729 1372 CB59      		subi r28,lo8(1179)
 2730 1374 D440      		sbci r29,hi8(1179)
 2731 1376 8E17      		cp r24,r30
 2732 1378 9F07      		cpc r25,r31
 2733 137a 00F0      		brlo .L234
 2734 137c C401      		movw r24,r8
 2735 137e 0E94 0000 		call luaL_prepbuffer
 2736               	.L234:
 2737 1382 D601      		movw r26,r12
 2738 1384 8C91      		ld r24,X
 2739 1386 D401      		movw r26,r8
 2740 1388 ED91      		ld r30,X+
 2741 138a FC91      		ld r31,X
 2742 138c 1197      		sbiw r26,1
 2743 138e 8193      		st Z+,r24
GAS LISTING C:\DOCUME~1\ADMINI~1\LOCALS~1\Temp/cctKSLoe.s 			page 50


 2744 1390 ED93      		st X+,r30
 2745 1392 FC93      		st X,r31
 2746 1394 00C0      		rjmp .L232
 2747               	.L233:
 2748 1396 6033      		cpi r22,lo8(48)
 2749 1398 01F4      		brne .L235
 2750 139a C401      		movw r24,r8
 2751 139c B701      		movw r22,r14
 2752 139e C756      		subi r28,lo8(-1177)
 2753 13a0 DB4F      		sbci r29,hi8(-1177)
 2754 13a2 4881      		ld r20,Y
 2755 13a4 5981      		ldd r21,Y+1
 2756 13a6 C959      		subi r28,lo8(1177)
 2757 13a8 D440      		sbci r29,hi8(1177)
 2758 13aa 0E94 0000 		call luaL_addlstring
 2759 13ae 00C0      		rjmp .L232
 2760               	.L235:
 2761 13b0 7727      		clr r23
 2762 13b2 67FD      		sbrc r22,7
 2763 13b4 7095      		com r23
 2764 13b6 6153      		subi r22,lo8(-(-49))
 2765 13b8 7040      		sbci r23,hi8(-(-49))
 2766 13ba CE01      		movw r24,r28
 2767 13bc 0596      		adiw r24,5
 2768 13be A701      		movw r20,r14
 2769 13c0 9501      		movw r18,r10
 2770 13c2 0E94 0000 		call push_onecapture
 2771 13c6 C401      		movw r24,r8
 2772 13c8 0E94 0000 		call luaL_addvalue
 2773               	.L232:
 2774 13cc 0F5F      		subi r16,lo8(-(1))
 2775 13ce 1F4F      		sbci r17,hi8(-(1))
 2776               	.L229:
 2777 13d0 8B81      		ldd r24,Y+3
 2778 13d2 9C81      		ldd r25,Y+4
 2779 13d4 0817      		cp r16,r24
 2780 13d6 1907      		cpc r17,r25
 2781 13d8 00F4      		brsh .+2
 2782 13da 00C0      		rjmp .L236
 2783 13dc 00C0      		rjmp .L237
 2784               	.L225:
 2785 13de C801      		movw r24,r16
 2786 13e0 63E0      		ldi r22,lo8(3)
 2787 13e2 70E0      		ldi r23,hi8(3)
 2788 13e4 0E94 0000 		call lua_pushvalue
 2789 13e8 CE01      		movw r24,r28
 2790 13ea 0596      		adiw r24,5
 2791 13ec B701      		movw r22,r14
 2792 13ee A501      		movw r20,r10
 2793 13f0 0E94 0000 		call push_captures
 2794 13f4 BC01      		movw r22,r24
 2795 13f6 C801      		movw r24,r16
 2796 13f8 41E0      		ldi r20,lo8(1)
 2797 13fa 50E0      		ldi r21,hi8(1)
 2798 13fc 0E94 0000 		call lua_call
 2799 1400 00C0      		rjmp .L224
 2800               	.L227:
GAS LISTING C:\DOCUME~1\ADMINI~1\LOCALS~1\Temp/cctKSLoe.s 			page 51


 2801 1402 CE01      		movw r24,r28
 2802 1404 0596      		adiw r24,5
 2803 1406 60E0      		ldi r22,lo8(0)
 2804 1408 70E0      		ldi r23,hi8(0)
 2805 140a A701      		movw r20,r14
 2806 140c 9501      		movw r18,r10
 2807 140e 0E94 0000 		call push_onecapture
 2808 1412 C801      		movw r24,r16
 2809 1414 63E0      		ldi r22,lo8(3)
 2810 1416 70E0      		ldi r23,hi8(3)
 2811 1418 0E94 0000 		call lua_gettable
 2812               	.L224:
 2813 141c C801      		movw r24,r16
 2814 141e 6FEF      		ldi r22,lo8(-1)
 2815 1420 7FEF      		ldi r23,hi8(-1)
 2816 1422 0E94 0000 		call lua_toboolean
 2817 1426 892B      		or r24,r25
 2818 1428 01F4      		brne .L238
 2819 142a C801      		movw r24,r16
 2820 142c 6EEF      		ldi r22,lo8(-2)
 2821 142e 7FEF      		ldi r23,hi8(-2)
 2822 1430 0E94 0000 		call lua_settop
 2823 1434 A501      		movw r20,r10
 2824 1436 4E19      		sub r20,r14
 2825 1438 5F09      		sbc r21,r15
 2826 143a C801      		movw r24,r16
 2827 143c B701      		movw r22,r14
 2828 143e 0E94 0000 		call lua_pushlstring
 2829 1442 00C0      		rjmp .L239
 2830               	.L238:
 2831 1444 C801      		movw r24,r16
 2832 1446 6FEF      		ldi r22,lo8(-1)
 2833 1448 7FEF      		ldi r23,hi8(-1)
 2834 144a 0E94 0000 		call lua_isstring
 2835 144e 892B      		or r24,r25
 2836 1450 01F4      		brne .L239
 2837 1452 C801      		movw r24,r16
 2838 1454 6FEF      		ldi r22,lo8(-1)
 2839 1456 7FEF      		ldi r23,hi8(-1)
 2840 1458 0E94 0000 		call lua_type
 2841 145c BC01      		movw r22,r24
 2842 145e C801      		movw r24,r16
 2843 1460 0E94 0000 		call lua_typename
 2844 1464 00D0      		rcall .
 2845 1466 00D0      		rcall .
 2846 1468 00D0      		rcall .
 2847 146a EDB7      		in r30,__SP_L__
 2848 146c FEB7      		in r31,__SP_H__
 2849 146e 3196      		adiw r30,1
 2850 1470 ADB7      		in r26,__SP_L__
 2851 1472 BEB7      		in r27,__SP_H__
 2852 1474 1296      		adiw r26,1+1
 2853 1476 1C93      		st X,r17
 2854 1478 0E93      		st -X,r16
 2855 147a 1197      		sbiw r26,1
 2856 147c 20E0      		ldi r18,lo8(.LC13)
 2857 147e 30E0      		ldi r19,hi8(.LC13)
GAS LISTING C:\DOCUME~1\ADMINI~1\LOCALS~1\Temp/cctKSLoe.s 			page 52


 2858 1480 3383      		std Z+3,r19
 2859 1482 2283      		std Z+2,r18
 2860 1484 9583      		std Z+5,r25
 2861 1486 8483      		std Z+4,r24
 2862 1488 0E94 0000 		call luaL_error
 2863 148c 8DB7      		in r24,__SP_L__
 2864 148e 9EB7      		in r25,__SP_H__
 2865 1490 0696      		adiw r24,6
 2866 1492 0FB6      		in __tmp_reg__,__SREG__
 2867 1494 F894      		cli
 2868 1496 9EBF      		out __SP_H__,r25
 2869 1498 0FBE      		out __SREG__,__tmp_reg__
 2870 149a 8DBF      		out __SP_L__,r24
 2871               	.L239:
 2872 149c C401      		movw r24,r8
 2873 149e 0E94 0000 		call luaL_addvalue
 2874 14a2 00C0      		rjmp .L237
 2875               	.L223:
 2876 14a4 8F81      		ldd r24,Y+7
 2877 14a6 9885      		ldd r25,Y+8
 2878 14a8 E816      		cp r14,r24
 2879 14aa F906      		cpc r15,r25
 2880 14ac 00F4      		brsh .L240
 2881 14ae D401      		movw r26,r8
 2882 14b0 8D91      		ld r24,X+
 2883 14b2 9C91      		ld r25,X
 2884 14b4 C556      		subi r28,lo8(-1179)
 2885 14b6 DB4F      		sbci r29,hi8(-1179)
 2886 14b8 E881      		ld r30,Y
 2887 14ba F981      		ldd r31,Y+1
 2888 14bc CB59      		subi r28,lo8(1179)
 2889 14be D440      		sbci r29,hi8(1179)
 2890 14c0 8E17      		cp r24,r30
 2891 14c2 9F07      		cpc r25,r31
 2892 14c4 00F0      		brlo .L241
 2893 14c6 C401      		movw r24,r8
 2894 14c8 0E94 0000 		call luaL_prepbuffer
 2895               	.L241:
 2896 14cc D701      		movw r26,r14
 2897 14ce 8D91      		ld r24,X+
 2898 14d0 7D01      		movw r14,r26
 2899 14d2 D401      		movw r26,r8
 2900 14d4 ED91      		ld r30,X+
 2901 14d6 FC91      		ld r31,X
 2902 14d8 1197      		sbiw r26,1
 2903 14da 8193      		st Z+,r24
 2904 14dc ED93      		st X+,r30
 2905 14de FC93      		st X,r31
 2906               	.L243:
 2907 14e0 CD56      		subi r28,lo8(-1171)
 2908 14e2 DB4F      		sbci r29,hi8(-1171)
 2909 14e4 E881      		ld r30,Y
 2910 14e6 F981      		ldd r31,Y+1
 2911 14e8 C359      		subi r28,lo8(1171)
 2912 14ea D440      		sbci r29,hi8(1171)
 2913 14ec EF2B      		or r30,r31
 2914 14ee 01F4      		brne .L240
GAS LISTING C:\DOCUME~1\ADMINI~1\LOCALS~1\Temp/cctKSLoe.s 			page 53


 2915               	.L222:
 2916 14f0 CB56      		subi r28,lo8(-1173)
 2917 14f2 DB4F      		sbci r29,hi8(-1173)
 2918 14f4 2881      		ld r18,Y
 2919 14f6 3981      		ldd r19,Y+1
 2920 14f8 C559      		subi r28,lo8(1173)
 2921 14fa D440      		sbci r29,hi8(1173)
 2922 14fc 4216      		cp r4,r18
 2923 14fe 5306      		cpc r5,r19
 2924 1500 04F4      		brge .+2
 2925 1502 00C0      		rjmp .L242
 2926               	.L240:
 2927 1504 8E01      		movw r16,r28
 2928 1506 0357      		subi r16,lo8(-(141))
 2929 1508 1F4F      		sbci r17,hi8(-(141))
 2930 150a 4F81      		ldd r20,Y+7
 2931 150c 5885      		ldd r21,Y+8
 2932 150e 4E19      		sub r20,r14
 2933 1510 5F09      		sbc r21,r15
 2934 1512 C801      		movw r24,r16
 2935 1514 B701      		movw r22,r14
 2936 1516 0E94 0000 		call luaL_addlstring
 2937 151a C801      		movw r24,r16
 2938 151c 0E94 0000 		call luaL_pushresult
 2939 1520 C301      		movw r24,r6
 2940 1522 B201      		movw r22,r4
 2941 1524 0E94 0000 		call lua_pushinteger
 2942 1528 82E0      		ldi r24,lo8(2)
 2943 152a 90E0      		ldi r25,hi8(2)
 2944               	/* epilogue start */
 2945 152c C456      		subi r28,lo8(-(1180))
 2946 152e DB4F      		sbci r29,hi8(-(1180))
 2947 1530 0FB6      		in __tmp_reg__,__SREG__
 2948 1532 F894      		cli
 2949 1534 DEBF      		out __SP_H__,r29
 2950 1536 0FBE      		out __SREG__,__tmp_reg__
 2951 1538 CDBF      		out __SP_L__,r28
 2952 153a CF91      		pop r28
 2953 153c DF91      		pop r29
 2954 153e 1F91      		pop r17
 2955 1540 0F91      		pop r16
 2956 1542 FF90      		pop r15
 2957 1544 EF90      		pop r14
 2958 1546 DF90      		pop r13
 2959 1548 CF90      		pop r12
 2960 154a BF90      		pop r11
 2961 154c AF90      		pop r10
 2962 154e 9F90      		pop r9
 2963 1550 8F90      		pop r8
 2964 1552 7F90      		pop r7
 2965 1554 6F90      		pop r6
 2966 1556 5F90      		pop r5
 2967 1558 4F90      		pop r4
 2968 155a 3F90      		pop r3
 2969 155c 2F90      		pop r2
 2970 155e 0895      		ret
 2971               	.L237:
GAS LISTING C:\DOCUME~1\ADMINI~1\LOCALS~1\Temp/cctKSLoe.s 			page 54


 2972 1560 EA14      		cp r14,r10
 2973 1562 FB04      		cpc r15,r11
 2974 1564 00F0      		brlo .+2
 2975 1566 00C0      		rjmp .L223
 2976 1568 7501      		movw r14,r10
 2977 156a 00C0      		rjmp .L243
 2978               		.size	str_gsub, .-str_gsub
 2979               		.type	gmatch, @function
 2980               	gmatch:
 2981 156c 0F93      		push r16
 2982 156e 1F93      		push r17
 2983               	/* prologue: function */
 2984               	/* frame size = 0 */
 2985 1570 8C01      		movw r16,r24
 2986 1572 61E0      		ldi r22,lo8(1)
 2987 1574 70E0      		ldi r23,hi8(1)
 2988 1576 40E0      		ldi r20,lo8(0)
 2989 1578 50E0      		ldi r21,hi8(0)
 2990 157a 0E94 0000 		call luaL_checklstring
 2991 157e C801      		movw r24,r16
 2992 1580 62E0      		ldi r22,lo8(2)
 2993 1582 70E0      		ldi r23,hi8(2)
 2994 1584 40E0      		ldi r20,lo8(0)
 2995 1586 50E0      		ldi r21,hi8(0)
 2996 1588 0E94 0000 		call luaL_checklstring
 2997 158c C801      		movw r24,r16
 2998 158e 62E0      		ldi r22,lo8(2)
 2999 1590 70E0      		ldi r23,hi8(2)
 3000 1592 0E94 0000 		call lua_settop
 3001 1596 C801      		movw r24,r16
 3002 1598 60E0      		ldi r22,lo8(0)
 3003 159a 70E0      		ldi r23,hi8(0)
 3004 159c 0E94 0000 		call lua_pushinteger
 3005 15a0 C801      		movw r24,r16
 3006 15a2 60E0      		ldi r22,lo8(gs(gmatch_aux))
 3007 15a4 70E0      		ldi r23,hi8(gs(gmatch_aux))
 3008 15a6 43E0      		ldi r20,lo8(3)
 3009 15a8 50E0      		ldi r21,hi8(3)
 3010 15aa 0E94 0000 		call lua_pushcclosure
 3011 15ae 81E0      		ldi r24,lo8(1)
 3012 15b0 90E0      		ldi r25,hi8(1)
 3013               	/* epilogue start */
 3014 15b2 1F91      		pop r17
 3015 15b4 0F91      		pop r16
 3016 15b6 0895      		ret
 3017               		.size	gmatch, .-gmatch
 3018               		.type	gmatch_aux, @function
 3019               	gmatch_aux:
 3020 15b8 6F92      		push r6
 3021 15ba 7F92      		push r7
 3022 15bc 8F92      		push r8
 3023 15be 9F92      		push r9
 3024 15c0 AF92      		push r10
 3025 15c2 BF92      		push r11
 3026 15c4 CF92      		push r12
 3027 15c6 DF92      		push r13
 3028 15c8 EF92      		push r14
GAS LISTING C:\DOCUME~1\ADMINI~1\LOCALS~1\Temp/cctKSLoe.s 			page 55


 3029 15ca FF92      		push r15
 3030 15cc 0F93      		push r16
 3031 15ce 1F93      		push r17
 3032 15d0 DF93      		push r29
 3033 15d2 CF93      		push r28
 3034 15d4 CDB7      		in r28,__SP_L__
 3035 15d6 DEB7      		in r29,__SP_H__
 3036 15d8 CA58      		subi r28,lo8(-(-138))
 3037 15da D040      		sbci r29,hi8(-(-138))
 3038 15dc 0FB6      		in __tmp_reg__,__SREG__
 3039 15de F894      		cli
 3040 15e0 DEBF      		out __SP_H__,r29
 3041 15e2 0FBE      		out __SREG__,__tmp_reg__
 3042 15e4 CDBF      		out __SP_L__,r28
 3043               	/* prologue: function */
 3044               	/* frame size = 138 */
 3045 15e6 5C01      		movw r10,r24
 3046 15e8 6DEE      		ldi r22,lo8(-10003)
 3047 15ea 78ED      		ldi r23,hi8(-10003)
 3048 15ec AE01      		movw r20,r28
 3049 15ee 4F5F      		subi r20,lo8(-(1))
 3050 15f0 5F4F      		sbci r21,hi8(-(1))
 3051 15f2 0E94 0000 		call lua_tolstring
 3052 15f6 6C01      		movw r12,r24
 3053 15f8 C501      		movw r24,r10
 3054 15fa 6CEE      		ldi r22,lo8(-10004)
 3055 15fc 78ED      		ldi r23,hi8(-10004)
 3056 15fe 40E0      		ldi r20,lo8(0)
 3057 1600 50E0      		ldi r21,hi8(0)
 3058 1602 0E94 0000 		call lua_tolstring
 3059 1606 4C01      		movw r8,r24
 3060 1608 B886      		std Y+8,r11
 3061 160a AF82      		std Y+7,r10
 3062 160c DC82      		std Y+4,r13
 3063 160e CB82      		std Y+3,r12
 3064 1610 8981      		ldd r24,Y+1
 3065 1612 9A81      		ldd r25,Y+2
 3066 1614 8C0D      		add r24,r12
 3067 1616 9D1D      		adc r25,r13
 3068 1618 9E83      		std Y+6,r25
 3069 161a 8D83      		std Y+5,r24
 3070 161c C501      		movw r24,r10
 3071 161e 6BEE      		ldi r22,lo8(-10005)
 3072 1620 78ED      		ldi r23,hi8(-10005)
 3073 1622 0E94 0000 		call lua_tointeger
 3074 1626 7601      		movw r14,r12
 3075 1628 E80E      		add r14,r24
 3076 162a F91E      		adc r15,r25
 3077 162c B3E0      		ldi r27,lo8(3)
 3078 162e 6B2E      		mov r6,r27
 3079 1630 712C      		mov r7,__zero_reg__
 3080 1632 6C0E      		add r6,r28
 3081 1634 7D1E      		adc r7,r29
 3082 1636 00C0      		rjmp .L250
 3083               	.L254:
 3084 1638 1A86      		std Y+10,__zero_reg__
 3085 163a 1986      		std Y+9,__zero_reg__
GAS LISTING C:\DOCUME~1\ADMINI~1\LOCALS~1\Temp/cctKSLoe.s 			page 56


 3086 163c C301      		movw r24,r6
 3087 163e B701      		movw r22,r14
 3088 1640 A401      		movw r20,r8
 3089 1642 0E94 0000 		call match
 3090 1646 8C01      		movw r16,r24
 3091 1648 0097      		sbiw r24,0
 3092 164a 01F0      		breq .L251
 3093 164c BC01      		movw r22,r24
 3094 164e 6C19      		sub r22,r12
 3095 1650 7D09      		sbc r23,r13
 3096 1652 8E15      		cp r24,r14
 3097 1654 9F05      		cpc r25,r15
 3098 1656 01F4      		brne .L252
 3099 1658 6F5F      		subi r22,lo8(-(1))
 3100 165a 7F4F      		sbci r23,hi8(-(1))
 3101               	.L252:
 3102 165c C501      		movw r24,r10
 3103 165e 0E94 0000 		call lua_pushinteger
 3104 1662 C501      		movw r24,r10
 3105 1664 6BEE      		ldi r22,lo8(-10005)
 3106 1666 78ED      		ldi r23,hi8(-10005)
 3107 1668 0E94 0000 		call lua_replace
 3108 166c CE01      		movw r24,r28
 3109 166e 0396      		adiw r24,3
 3110 1670 B701      		movw r22,r14
 3111 1672 A801      		movw r20,r16
 3112 1674 0E94 0000 		call push_captures
 3113 1678 9C01      		movw r18,r24
 3114 167a 00C0      		rjmp .L253
 3115               	.L251:
 3116 167c 0894      		sec
 3117 167e E11C      		adc r14,__zero_reg__
 3118 1680 F11C      		adc r15,__zero_reg__
 3119               	.L250:
 3120 1682 8D81      		ldd r24,Y+5
 3121 1684 9E81      		ldd r25,Y+6
 3122 1686 8E15      		cp r24,r14
 3123 1688 9F05      		cpc r25,r15
 3124 168a 00F4      		brsh .L254
 3125 168c 20E0      		ldi r18,lo8(0)
 3126 168e 30E0      		ldi r19,hi8(0)
 3127               	.L253:
 3128 1690 C901      		movw r24,r18
 3129               	/* epilogue start */
 3130 1692 C657      		subi r28,lo8(-(138))
 3131 1694 DF4F      		sbci r29,hi8(-(138))
 3132 1696 0FB6      		in __tmp_reg__,__SREG__
 3133 1698 F894      		cli
 3134 169a DEBF      		out __SP_H__,r29
 3135 169c 0FBE      		out __SREG__,__tmp_reg__
 3136 169e CDBF      		out __SP_L__,r28
 3137 16a0 CF91      		pop r28
 3138 16a2 DF91      		pop r29
 3139 16a4 1F91      		pop r17
 3140 16a6 0F91      		pop r16
 3141 16a8 FF90      		pop r15
 3142 16aa EF90      		pop r14
GAS LISTING C:\DOCUME~1\ADMINI~1\LOCALS~1\Temp/cctKSLoe.s 			page 57


 3143 16ac DF90      		pop r13
 3144 16ae CF90      		pop r12
 3145 16b0 BF90      		pop r11
 3146 16b2 AF90      		pop r10
 3147 16b4 9F90      		pop r9
 3148 16b6 8F90      		pop r8
 3149 16b8 7F90      		pop r7
 3150 16ba 6F90      		pop r6
 3151 16bc 0895      		ret
 3152               		.size	gmatch_aux, .-gmatch_aux
 3153               		.data
 3154               	.LC14:
 3155 016a 6C00      		.string	"l"
 3156               		.text
 3157               		.type	addintlen, @function
 3158               	addintlen:
 3159 16be DF92      		push r13
 3160 16c0 EF92      		push r14
 3161 16c2 FF92      		push r15
 3162 16c4 0F93      		push r16
 3163 16c6 1F93      		push r17
 3164               	/* prologue: function */
 3165               	/* frame size = 0 */
 3166 16c8 7C01      		movw r14,r24
 3167 16ca DC01      		movw r26,r24
 3168 16cc 0D90      		ld __tmp_reg__,X+
 3169 16ce 0020      		tst __tmp_reg__
 3170 16d0 01F4      		brne .-6
 3171 16d2 8D01      		movw r16,r26
 3172 16d4 0150      		subi r16,lo8(-(-1))
 3173 16d6 1040      		sbci r17,hi8(-(-1))
 3174 16d8 081B      		sub r16,r24
 3175 16da 190B      		sbc r17,r25
 3176 16dc 0150      		subi r16,lo8(-(-1))
 3177 16de 1040      		sbci r17,hi8(-(-1))
 3178 16e0 FC01      		movw r30,r24
 3179 16e2 E00F      		add r30,r16
 3180 16e4 F11F      		adc r31,r17
 3181 16e6 0F5F      		subi r16,lo8(-(1))
 3182 16e8 1F4F      		sbci r17,hi8(-(1))
 3183 16ea D080      		ld r13,Z
 3184 16ec CF01      		movw r24,r30
 3185 16ee 60E0      		ldi r22,lo8(.LC14)
 3186 16f0 70E0      		ldi r23,hi8(.LC14)
 3187 16f2 0E94 0000 		call strcpy
 3188 16f6 E00E      		add r14,r16
 3189 16f8 F11E      		adc r15,r17
 3190 16fa F701      		movw r30,r14
 3191 16fc D082      		st Z,r13
 3192 16fe 1182      		std Z+1,__zero_reg__
 3193               	/* epilogue start */
 3194 1700 1F91      		pop r17
 3195 1702 0F91      		pop r16
 3196 1704 FF90      		pop r15
 3197 1706 EF90      		pop r14
 3198 1708 DF90      		pop r13
 3199 170a 0895      		ret
GAS LISTING C:\DOCUME~1\ADMINI~1\LOCALS~1\Temp/cctKSLoe.s 			page 58


 3200               		.size	addintlen, .-addintlen
 3201               		.data
 3202               	.LC15:
 3203 016c 2D2B 2023 		.string	"-+ #0"
 3203      3000 
 3204               	.LC16:
 3205 0172 696E 7661 		.string	"invalid format (repeated flags)"
 3205      6C69 6420 
 3205      666F 726D 
 3205      6174 2028 
 3205      7265 7065 
 3206               	.LC17:
 3207 0192 696E 7661 		.string	"invalid format (width or precision too long)"
 3207      6C69 6420 
 3207      666F 726D 
 3207      6174 2028 
 3207      7769 6474 
 3208               	.LC18:
 3209 01bf 5C72 00   		.string	"\\r"
 3210               	.LC19:
 3211 01c2 5C30 3030 		.string	"\\000"
 3211      00
 3212               	.LC20:
 3213 01c7 696E 7661 		.string	"invalid option '%%%c' to 'format'"
 3213      6C69 6420 
 3213      6F70 7469 
 3213      6F6E 2027 
 3213      2525 2563 
 3214               		.text
 3215               		.type	str_format, @function
 3216               	str_format:
 3217 170c 2F92      		push r2
 3218 170e 3F92      		push r3
 3219 1710 4F92      		push r4
 3220 1712 5F92      		push r5
 3221 1714 6F92      		push r6
 3222 1716 7F92      		push r7
 3223 1718 8F92      		push r8
 3224 171a 9F92      		push r9
 3225 171c AF92      		push r10
 3226 171e BF92      		push r11
 3227 1720 CF92      		push r12
 3228 1722 DF92      		push r13
 3229 1724 EF92      		push r14
 3230 1726 FF92      		push r15
 3231 1728 0F93      		push r16
 3232 172a 1F93      		push r17
 3233 172c DF93      		push r29
 3234 172e CF93      		push r28
 3235 1730 CDB7      		in r28,__SP_L__
 3236 1732 DEB7      		in r29,__SP_H__
 3237 1734 C252      		subi r28,lo8(-(-1570))
 3238 1736 D640      		sbci r29,hi8(-(-1570))
 3239 1738 0FB6      		in __tmp_reg__,__SREG__
 3240 173a F894      		cli
 3241 173c DEBF      		out __SP_H__,r29
 3242 173e 0FBE      		out __SREG__,__tmp_reg__
GAS LISTING C:\DOCUME~1\ADMINI~1\LOCALS~1\Temp/cctKSLoe.s 			page 59


 3243 1740 CDBF      		out __SP_L__,r28
 3244               	/* prologue: function */
 3245               	/* frame size = 1570 */
 3246 1742 3C01      		movw r6,r24
 3247 1744 61E0      		ldi r22,lo8(1)
 3248 1746 70E0      		ldi r23,hi8(1)
 3249 1748 AE01      		movw r20,r28
 3250 174a 4F5F      		subi r20,lo8(-(1))
 3251 174c 5F4F      		sbci r21,hi8(-(1))
 3252 174e 0E94 0000 		call luaL_checklstring
 3253 1752 5C01      		movw r10,r24
 3254 1754 2981      		ldd r18,Y+1
 3255 1756 3A81      		ldd r19,Y+2
 3256 1758 280F      		add r18,r24
 3257 175a 391F      		adc r19,r25
 3258 175c C35E      		subi r28,lo8(-1565)
 3259 175e D94F      		sbci r29,hi8(-1565)
 3260 1760 3983      		std Y+1,r19
 3261 1762 2883      		st Y,r18
 3262 1764 CD51      		subi r28,lo8(1565)
 3263 1766 D640      		sbci r29,hi8(1565)
 3264 1768 8E01      		movw r16,r28
 3265 176a 095E      		subi r16,lo8(-(535))
 3266 176c 1D4F      		sbci r17,hi8(-(535))
 3267 176e C301      		movw r24,r6
 3268 1770 B801      		movw r22,r16
 3269 1772 0E94 0000 		call luaL_buffinit
 3270 1776 91E0      		ldi r25,lo8(1)
 3271 1778 492E      		mov r4,r25
 3272 177a 512C      		mov r5,__zero_reg__
 3273 177c 85E0      		ldi r24,lo8(5)
 3274 177e 282E      		mov r2,r24
 3275 1780 312C      		mov r3,__zero_reg__
 3276 1782 2C0E      		add r2,r28
 3277 1784 3D1E      		adc r3,r29
 3278 1786 CE01      		movw r24,r28
 3279 1788 4796      		adiw r24,23
 3280 178a CF5D      		subi r28,lo8(-1569)
 3281 178c D94F      		sbci r29,hi8(-1569)
 3282 178e 9983      		std Y+1,r25
 3283 1790 8883      		st Y,r24
 3284 1792 C152      		subi r28,lo8(1569)
 3285 1794 D640      		sbci r29,hi8(1569)
 3286 1796 6801      		movw r12,r16
 3287 1798 DE01      		movw r26,r28
 3288 179a A35E      		subi r26,lo8(-(1565))
 3289 179c B94F      		sbci r27,hi8(-(1565))
 3290 179e C15E      		subi r28,lo8(-1567)
 3291 17a0 D94F      		sbci r29,hi8(-1567)
 3292 17a2 B983      		std Y+1,r27
 3293 17a4 A883      		st Y,r26
 3294 17a6 CF51      		subi r28,lo8(1567)
 3295 17a8 D640      		sbci r29,hi8(1567)
 3296 17aa 00C0      		rjmp .L301
 3297               	.L299:
 3298 17ac F501      		movw r30,r10
 3299 17ae 8081      		ld r24,Z
GAS LISTING C:\DOCUME~1\ADMINI~1\LOCALS~1\Temp/cctKSLoe.s 			page 60


 3300 17b0 8532      		cpi r24,lo8(37)
 3301 17b2 01F0      		breq .L260
 3302 17b4 D601      		movw r26,r12
 3303 17b6 8D91      		ld r24,X+
 3304 17b8 9C91      		ld r25,X
 3305 17ba C15E      		subi r28,lo8(-1567)
 3306 17bc D94F      		sbci r29,hi8(-1567)
 3307 17be E881      		ld r30,Y
 3308 17c0 F981      		ldd r31,Y+1
 3309 17c2 CF51      		subi r28,lo8(1567)
 3310 17c4 D640      		sbci r29,hi8(1567)
 3311 17c6 8E17      		cp r24,r30
 3312 17c8 9F07      		cpc r25,r31
 3313 17ca 00F0      		brlo .L307
 3314 17cc C601      		movw r24,r12
 3315 17ce 0E94 0000 		call luaL_prepbuffer
 3316 17d2 00C0      		rjmp .L307
 3317               	.L260:
 3318 17d4 4501      		movw r8,r10
 3319 17d6 0894      		sec
 3320 17d8 811C      		adc r8,__zero_reg__
 3321 17da 911C      		adc r9,__zero_reg__
 3322 17dc F501      		movw r30,r10
 3323 17de 8181      		ldd r24,Z+1
 3324 17e0 8532      		cpi r24,lo8(37)
 3325 17e2 01F4      		brne .L262
 3326 17e4 D601      		movw r26,r12
 3327 17e6 8D91      		ld r24,X+
 3328 17e8 9C91      		ld r25,X
 3329 17ea C15E      		subi r28,lo8(-1567)
 3330 17ec D94F      		sbci r29,hi8(-1567)
 3331 17ee E881      		ld r30,Y
 3332 17f0 F981      		ldd r31,Y+1
 3333 17f2 CF51      		subi r28,lo8(1567)
 3334 17f4 D640      		sbci r29,hi8(1567)
 3335 17f6 8E17      		cp r24,r30
 3336 17f8 9F07      		cpc r25,r31
 3337 17fa 00F0      		brlo .L263
 3338 17fc C601      		movw r24,r12
 3339 17fe 0E94 0000 		call luaL_prepbuffer
 3340               	.L263:
 3341 1802 5401      		movw r10,r8
 3342               	.L307:
 3343 1804 D501      		movw r26,r10
 3344 1806 8D91      		ld r24,X+
 3345 1808 5D01      		movw r10,r26
 3346 180a D601      		movw r26,r12
 3347 180c ED91      		ld r30,X+
 3348 180e FC91      		ld r31,X
 3349 1810 1197      		sbiw r26,1
 3350 1812 8193      		st Z+,r24
 3351 1814 00C0      		rjmp .L304
 3352               	.L262:
 3353 1816 0894      		sec
 3354 1818 411C      		adc r4,__zero_reg__
 3355 181a 511C      		adc r5,__zero_reg__
 3356 181c 7401      		movw r14,r8
GAS LISTING C:\DOCUME~1\ADMINI~1\LOCALS~1\Temp/cctKSLoe.s 			page 61


 3357 181e 00C0      		rjmp .L264
 3358               	.L266:
 3359 1820 0894      		sec
 3360 1822 E11C      		adc r14,__zero_reg__
 3361 1824 F11C      		adc r15,__zero_reg__
 3362               	.L264:
 3363 1826 F701      		movw r30,r14
 3364 1828 6081      		ld r22,Z
 3365 182a 6623      		tst r22
 3366 182c 01F0      		breq .L265
 3367 182e 7727      		clr r23
 3368 1830 67FD      		sbrc r22,7
 3369 1832 7095      		com r23
 3370 1834 80E0      		ldi r24,lo8(.LC15)
 3371 1836 90E0      		ldi r25,hi8(.LC15)
 3372 1838 0E94 0000 		call strchr
 3373 183c 0097      		sbiw r24,0
 3374 183e 01F4      		brne .L266
 3375               	.L265:
 3376 1840 C701      		movw r24,r14
 3377 1842 8819      		sub r24,r8
 3378 1844 9909      		sbc r25,r9
 3379 1846 0697      		sbiw r24,6
 3380 1848 00F0      		brlo .L267
 3381 184a 00D0      		rcall .
 3382 184c 00D0      		rcall .
 3383 184e ADB7      		in r26,__SP_L__
 3384 1850 BEB7      		in r27,__SP_H__
 3385 1852 1296      		adiw r26,1+1
 3386 1854 7C92      		st X,r7
 3387 1856 6E92      		st -X,r6
 3388 1858 1197      		sbiw r26,1
 3389 185a E0E0      		ldi r30,lo8(.LC16)
 3390 185c F0E0      		ldi r31,hi8(.LC16)
 3391 185e 1496      		adiw r26,3+1
 3392 1860 FC93      		st X,r31
 3393 1862 EE93      		st -X,r30
 3394 1864 1397      		sbiw r26,3
 3395 1866 0E94 0000 		call luaL_error
 3396 186a 0F90      		pop __tmp_reg__
 3397 186c 0F90      		pop __tmp_reg__
 3398 186e 0F90      		pop __tmp_reg__
 3399 1870 0F90      		pop __tmp_reg__
 3400               	.L267:
 3401 1872 D701      		movw r26,r14
 3402 1874 8C91      		ld r24,X
 3403 1876 90E0      		ldi r25,lo8(0)
 3404 1878 C097      		sbiw r24,48
 3405 187a 0A97      		sbiw r24,10
 3406 187c 00F4      		brsh .L268
 3407 187e 0894      		sec
 3408 1880 E11C      		adc r14,__zero_reg__
 3409 1882 F11C      		adc r15,__zero_reg__
 3410               	.L268:
 3411 1884 F701      		movw r30,r14
 3412 1886 8081      		ld r24,Z
 3413 1888 90E0      		ldi r25,lo8(0)
GAS LISTING C:\DOCUME~1\ADMINI~1\LOCALS~1\Temp/cctKSLoe.s 			page 62


 3414 188a C097      		sbiw r24,48
 3415 188c 0A97      		sbiw r24,10
 3416 188e 00F4      		brsh .L269
 3417 1890 0894      		sec
 3418 1892 E11C      		adc r14,__zero_reg__
 3419 1894 F11C      		adc r15,__zero_reg__
 3420               	.L269:
 3421 1896 D701      		movw r26,r14
 3422 1898 8C91      		ld r24,X
 3423 189a 8E32      		cpi r24,lo8(46)
 3424 189c 01F4      		brne .L270
 3425 189e 0894      		sec
 3426 18a0 E11C      		adc r14,__zero_reg__
 3427 18a2 F11C      		adc r15,__zero_reg__
 3428 18a4 F701      		movw r30,r14
 3429 18a6 8081      		ld r24,Z
 3430 18a8 90E0      		ldi r25,lo8(0)
 3431 18aa C097      		sbiw r24,48
 3432 18ac 0A97      		sbiw r24,10
 3433 18ae 00F4      		brsh .L271
 3434 18b0 0894      		sec
 3435 18b2 E11C      		adc r14,__zero_reg__
 3436 18b4 F11C      		adc r15,__zero_reg__
 3437               	.L271:
 3438 18b6 D701      		movw r26,r14
 3439 18b8 8C91      		ld r24,X
 3440 18ba 90E0      		ldi r25,lo8(0)
 3441 18bc C097      		sbiw r24,48
 3442 18be 0A97      		sbiw r24,10
 3443 18c0 00F4      		brsh .L270
 3444 18c2 0894      		sec
 3445 18c4 E11C      		adc r14,__zero_reg__
 3446 18c6 F11C      		adc r15,__zero_reg__
 3447               	.L270:
 3448 18c8 F701      		movw r30,r14
 3449 18ca 8081      		ld r24,Z
 3450 18cc 90E0      		ldi r25,lo8(0)
 3451 18ce C097      		sbiw r24,48
 3452 18d0 0A97      		sbiw r24,10
 3453 18d2 00F4      		brsh .L272
 3454 18d4 00D0      		rcall .
 3455 18d6 00D0      		rcall .
 3456 18d8 ADB7      		in r26,__SP_L__
 3457 18da BEB7      		in r27,__SP_H__
 3458 18dc 1296      		adiw r26,1+1
 3459 18de 7C92      		st X,r7
 3460 18e0 6E92      		st -X,r6
 3461 18e2 1197      		sbiw r26,1
 3462 18e4 E0E0      		ldi r30,lo8(.LC17)
 3463 18e6 F0E0      		ldi r31,hi8(.LC17)
 3464 18e8 1496      		adiw r26,3+1
 3465 18ea FC93      		st X,r31
 3466 18ec EE93      		st -X,r30
 3467 18ee 1397      		sbiw r26,3
 3468 18f0 0E94 0000 		call luaL_error
 3469 18f4 0F90      		pop __tmp_reg__
 3470 18f6 0F90      		pop __tmp_reg__
GAS LISTING C:\DOCUME~1\ADMINI~1\LOCALS~1\Temp/cctKSLoe.s 			page 63


 3471 18f8 0F90      		pop __tmp_reg__
 3472 18fa 0F90      		pop __tmp_reg__
 3473               	.L272:
 3474 18fc F5E2      		ldi r31,lo8(37)
 3475 18fe FD83      		std Y+5,r31
 3476 1900 8701      		movw r16,r14
 3477 1902 0819      		sub r16,r8
 3478 1904 1909      		sbc r17,r9
 3479 1906 A801      		movw r20,r16
 3480 1908 4F5F      		subi r20,lo8(-(1))
 3481 190a 5F4F      		sbci r21,hi8(-(1))
 3482 190c CE01      		movw r24,r28
 3483 190e 0696      		adiw r24,6
 3484 1910 B401      		movw r22,r8
 3485 1912 0E94 0000 		call strncpy
 3486 1916 020D      		add r16,r2
 3487 1918 131D      		adc r17,r3
 3488 191a D801      		movw r26,r16
 3489 191c 1296      		adiw r26,2
 3490 191e 1C92      		st X,__zero_reg__
 3491 1920 F701      		movw r30,r14
 3492 1922 2191      		ld r18,Z+
 3493 1924 5F01      		movw r10,r30
 3494 1926 2836      		cpi r18,lo8(104)
 3495 1928 04F4      		brge .L280
 3496 192a 2536      		cpi r18,lo8(101)
 3497 192c 04F0      		brlt .+2
 3498 192e 00C0      		rjmp .L274
 3499 1930 2835      		cpi r18,lo8(88)
 3500 1932 01F0      		breq .L277
 3501 1934 2935      		cpi r18,lo8(89)
 3502 1936 04F4      		brge .L281
 3503 1938 2534      		cpi r18,lo8(69)
 3504 193a 01F4      		brne .+2
 3505 193c 00C0      		rjmp .L274
 3506 193e 2734      		cpi r18,lo8(71)
 3507 1940 01F0      		breq .+2
 3508 1942 00C0      		rjmp .L273
 3509 1944 00C0      		rjmp .L274
 3510               	.L281:
 3511 1946 2336      		cpi r18,lo8(99)
 3512 1948 01F0      		breq .L276
 3513 194a 2436      		cpi r18,lo8(100)
 3514 194c 01F0      		breq .+2
 3515 194e 00C0      		rjmp .L273
 3516 1950 00C0      		rjmp .L277
 3517               	.L280:
 3518 1952 2137      		cpi r18,lo8(113)
 3519 1954 01F4      		brne .+2
 3520 1956 00C0      		rjmp .L278
 3521 1958 2237      		cpi r18,lo8(114)
 3522 195a 04F4      		brge .L282
 3523 195c 2936      		cpi r18,lo8(105)
 3524 195e 01F0      		breq .L277
 3525 1960 2F36      		cpi r18,lo8(111)
 3526 1962 01F0      		breq .+2
 3527 1964 00C0      		rjmp .L273
GAS LISTING C:\DOCUME~1\ADMINI~1\LOCALS~1\Temp/cctKSLoe.s 			page 64


 3528 1966 00C0      		rjmp .L277
 3529               	.L282:
 3530 1968 2537      		cpi r18,lo8(117)
 3531 196a 01F0      		breq .L277
 3532 196c 2837      		cpi r18,lo8(120)
 3533 196e 01F0      		breq .L277
 3534 1970 2337      		cpi r18,lo8(115)
 3535 1972 01F0      		breq .+2
 3536 1974 00C0      		rjmp .L273
 3537 1976 00C0      		rjmp .L308
 3538               	.L276:
 3539 1978 C301      		movw r24,r6
 3540 197a B201      		movw r22,r4
 3541 197c 0E94 0000 		call luaL_checknumber
 3542 1980 00D0      		rcall .
 3543 1982 00D0      		rcall .
 3544 1984 00D0      		rcall .
 3545 1986 EDB7      		in r30,__SP_L__
 3546 1988 FEB7      		in r31,__SP_H__
 3547 198a 3196      		adiw r30,1
 3548 198c 27E1      		ldi r18,lo8(23)
 3549 198e 30E0      		ldi r19,hi8(23)
 3550 1990 2C0F      		add r18,r28
 3551 1992 3D1F      		adc r19,r29
 3552 1994 ADB7      		in r26,__SP_L__
 3553 1996 BEB7      		in r27,__SP_H__
 3554 1998 1296      		adiw r26,1+1
 3555 199a 3C93      		st X,r19
 3556 199c 2E93      		st -X,r18
 3557 199e 1197      		sbiw r26,1
 3558 19a0 3382      		std Z+3,r3
 3559 19a2 2282      		std Z+2,r2
 3560 19a4 7583      		std Z+5,r23
 3561 19a6 6483      		std Z+4,r22
 3562 19a8 00C0      		rjmp .L305
 3563               	.L277:
 3564 19aa C101      		movw r24,r2
 3565 19ac 0E94 0000 		call addintlen
 3566 19b0 C301      		movw r24,r6
 3567 19b2 B201      		movw r22,r4
 3568 19b4 0E94 0000 		call luaL_checknumber
 3569 19b8 ADB7      		in r26,__SP_L__
 3570 19ba BEB7      		in r27,__SP_H__
 3571 19bc 1897      		sbiw r26,8
 3572 19be 0FB6      		in __tmp_reg__,__SREG__
 3573 19c0 F894      		cli
 3574 19c2 BEBF      		out __SP_H__,r27
 3575 19c4 0FBE      		out __SREG__,__tmp_reg__
 3576 19c6 ADBF      		out __SP_L__,r26
 3577 19c8 EDB7      		in r30,__SP_L__
 3578 19ca FEB7      		in r31,__SP_H__
 3579 19cc 3196      		adiw r30,1
 3580 19ce 27E1      		ldi r18,lo8(23)
 3581 19d0 30E0      		ldi r19,hi8(23)
 3582 19d2 2C0F      		add r18,r28
 3583 19d4 3D1F      		adc r19,r29
 3584 19d6 1296      		adiw r26,1+1
GAS LISTING C:\DOCUME~1\ADMINI~1\LOCALS~1\Temp/cctKSLoe.s 			page 65


 3585 19d8 3C93      		st X,r19
 3586 19da 2E93      		st -X,r18
 3587 19dc 1197      		sbiw r26,1
 3588 19de 3382      		std Z+3,r3
 3589 19e0 2282      		std Z+2,r2
 3590 19e2 6483      		std Z+4,r22
 3591 19e4 7583      		std Z+5,r23
 3592 19e6 8683      		std Z+6,r24
 3593 19e8 9783      		std Z+7,r25
 3594 19ea 0E94 0000 		call sprintf
 3595 19ee 8DB7      		in r24,__SP_L__
 3596 19f0 9EB7      		in r25,__SP_H__
 3597 19f2 0896      		adiw r24,8
 3598               	.L303:
 3599 19f4 0FB6      		in __tmp_reg__,__SREG__
 3600 19f6 F894      		cli
 3601 19f8 9EBF      		out __SP_H__,r25
 3602 19fa 0FBE      		out __SREG__,__tmp_reg__
 3603 19fc 8DBF      		out __SP_L__,r24
 3604 19fe 00C0      		rjmp .L283
 3605               	.L274:
 3606 1a00 C301      		movw r24,r6
 3607 1a02 B201      		movw r22,r4
 3608 1a04 0E94 0000 		call luaL_checknumber
 3609 1a08 ADB7      		in r26,__SP_L__
 3610 1a0a BEB7      		in r27,__SP_H__
 3611 1a0c 1897      		sbiw r26,8
 3612 1a0e 0FB6      		in __tmp_reg__,__SREG__
 3613 1a10 F894      		cli
 3614 1a12 BEBF      		out __SP_H__,r27
 3615 1a14 0FBE      		out __SREG__,__tmp_reg__
 3616 1a16 ADBF      		out __SP_L__,r26
 3617 1a18 0DB7      		in r16,__SP_L__
 3618 1a1a 1EB7      		in r17,__SP_H__
 3619 1a1c 0F5F      		subi r16,lo8(-(1))
 3620 1a1e 1F4F      		sbci r17,hi8(-(1))
 3621 1a20 E7E1      		ldi r30,lo8(23)
 3622 1a22 F0E0      		ldi r31,hi8(23)
 3623 1a24 EC0F      		add r30,r28
 3624 1a26 FD1F      		adc r31,r29
 3625 1a28 1296      		adiw r26,1+1
 3626 1a2a FC93      		st X,r31
 3627 1a2c EE93      		st -X,r30
 3628 1a2e 1197      		sbiw r26,1
 3629 1a30 D801      		movw r26,r16
 3630 1a32 1396      		adiw r26,2+1
 3631 1a34 3C92      		st X,r3
 3632 1a36 2E92      		st -X,r2
 3633 1a38 1297      		sbiw r26,2
 3634 1a3a 0E94 0000 		call __floatsisf
 3635 1a3e F801      		movw r30,r16
 3636 1a40 6483      		std Z+4,r22
 3637 1a42 7583      		std Z+5,r23
 3638 1a44 8683      		std Z+6,r24
 3639 1a46 9783      		std Z+7,r25
 3640 1a48 0E94 0000 		call sprintf
 3641 1a4c 2DB7      		in r18,__SP_L__
GAS LISTING C:\DOCUME~1\ADMINI~1\LOCALS~1\Temp/cctKSLoe.s 			page 66


 3642 1a4e 3EB7      		in r19,__SP_H__
 3643 1a50 285F      		subi r18,lo8(-(8))
 3644 1a52 3F4F      		sbci r19,hi8(-(8))
 3645 1a54 0FB6      		in __tmp_reg__,__SREG__
 3646 1a56 F894      		cli
 3647 1a58 3EBF      		out __SP_H__,r19
 3648 1a5a 0FBE      		out __SREG__,__tmp_reg__
 3649 1a5c 2DBF      		out __SP_L__,r18
 3650 1a5e 00C0      		rjmp .L283
 3651               	.L278:
 3652 1a60 C301      		movw r24,r6
 3653 1a62 B201      		movw r22,r4
 3654 1a64 AE01      		movw r20,r28
 3655 1a66 4D5F      		subi r20,lo8(-(3))
 3656 1a68 5F4F      		sbci r21,hi8(-(3))
 3657 1a6a 0E94 0000 		call luaL_checklstring
 3658 1a6e 7C01      		movw r14,r24
 3659 1a70 D601      		movw r26,r12
 3660 1a72 8D91      		ld r24,X+
 3661 1a74 9C91      		ld r25,X
 3662 1a76 C15E      		subi r28,lo8(-1567)
 3663 1a78 D94F      		sbci r29,hi8(-1567)
 3664 1a7a E881      		ld r30,Y
 3665 1a7c F981      		ldd r31,Y+1
 3666 1a7e CF51      		subi r28,lo8(1567)
 3667 1a80 D640      		sbci r29,hi8(1567)
 3668 1a82 8E17      		cp r24,r30
 3669 1a84 9F07      		cpc r25,r31
 3670 1a86 00F0      		brlo .L284
 3671 1a88 C601      		movw r24,r12
 3672 1a8a 0E94 0000 		call luaL_prepbuffer
 3673               	.L284:
 3674 1a8e D601      		movw r26,r12
 3675 1a90 ED91      		ld r30,X+
 3676 1a92 FC91      		ld r31,X
 3677 1a94 B2E2      		ldi r27,lo8(34)
 3678 1a96 B193      		st Z+,r27
 3679 1a98 D601      		movw r26,r12
 3680 1a9a ED93      		st X+,r30
 3681 1a9c FC93      		st X,r31
 3682 1a9e 00C0      		rjmp .L285
 3683               	.L295:
 3684 1aa0 F701      		movw r30,r14
 3685 1aa2 8081      		ld r24,Z
 3686 1aa4 8D30      		cpi r24,lo8(13)
 3687 1aa6 01F0      		breq .L289
 3688 1aa8 8E30      		cpi r24,lo8(14)
 3689 1aaa 04F4      		brge .L290
 3690 1aac 8823      		tst r24
 3691 1aae 01F0      		breq .L287
 3692 1ab0 8A30      		cpi r24,lo8(10)
 3693 1ab2 01F4      		brne .L286
 3694 1ab4 00C0      		rjmp .L288
 3695               	.L290:
 3696 1ab6 8232      		cpi r24,lo8(34)
 3697 1ab8 01F0      		breq .L288
 3698 1aba 8C35      		cpi r24,lo8(92)
GAS LISTING C:\DOCUME~1\ADMINI~1\LOCALS~1\Temp/cctKSLoe.s 			page 67


 3699 1abc 01F4      		brne .L286
 3700               	.L288:
 3701 1abe D601      		movw r26,r12
 3702 1ac0 8D91      		ld r24,X+
 3703 1ac2 9C91      		ld r25,X
 3704 1ac4 C15E      		subi r28,lo8(-1567)
 3705 1ac6 D94F      		sbci r29,hi8(-1567)
 3706 1ac8 E881      		ld r30,Y
 3707 1aca F981      		ldd r31,Y+1
 3708 1acc CF51      		subi r28,lo8(1567)
 3709 1ace D640      		sbci r29,hi8(1567)
 3710 1ad0 8E17      		cp r24,r30
 3711 1ad2 9F07      		cpc r25,r31
 3712 1ad4 00F0      		brlo .L291
 3713 1ad6 C601      		movw r24,r12
 3714 1ad8 0E94 0000 		call luaL_prepbuffer
 3715               	.L291:
 3716 1adc D601      		movw r26,r12
 3717 1ade ED91      		ld r30,X+
 3718 1ae0 FC91      		ld r31,X
 3719 1ae2 BCE5      		ldi r27,lo8(92)
 3720 1ae4 B193      		st Z+,r27
 3721 1ae6 D601      		movw r26,r12
 3722 1ae8 ED93      		st X+,r30
 3723 1aea FC93      		st X,r31
 3724 1aec C15E      		subi r28,lo8(-1567)
 3725 1aee D94F      		sbci r29,hi8(-1567)
 3726 1af0 2881      		ld r18,Y
 3727 1af2 3981      		ldd r19,Y+1
 3728 1af4 CF51      		subi r28,lo8(1567)
 3729 1af6 D640      		sbci r29,hi8(1567)
 3730 1af8 E217      		cp r30,r18
 3731 1afa F307      		cpc r31,r19
 3732 1afc 00F0      		brlo .L294
 3733 1afe 00C0      		rjmp .L306
 3734               	.L289:
 3735 1b00 C601      		movw r24,r12
 3736 1b02 60E0      		ldi r22,lo8(.LC18)
 3737 1b04 70E0      		ldi r23,hi8(.LC18)
 3738 1b06 42E0      		ldi r20,lo8(2)
 3739 1b08 50E0      		ldi r21,hi8(2)
 3740 1b0a 00C0      		rjmp .L302
 3741               	.L287:
 3742 1b0c C601      		movw r24,r12
 3743 1b0e 60E0      		ldi r22,lo8(.LC19)
 3744 1b10 70E0      		ldi r23,hi8(.LC19)
 3745 1b12 44E0      		ldi r20,lo8(4)
 3746 1b14 50E0      		ldi r21,hi8(4)
 3747               	.L302:
 3748 1b16 0E94 0000 		call luaL_addlstring
 3749 1b1a 00C0      		rjmp .L293
 3750               	.L286:
 3751 1b1c F601      		movw r30,r12
 3752 1b1e 8081      		ld r24,Z
 3753 1b20 9181      		ldd r25,Z+1
 3754 1b22 C15E      		subi r28,lo8(-1567)
 3755 1b24 D94F      		sbci r29,hi8(-1567)
GAS LISTING C:\DOCUME~1\ADMINI~1\LOCALS~1\Temp/cctKSLoe.s 			page 68


 3756 1b26 2881      		ld r18,Y
 3757 1b28 3981      		ldd r19,Y+1
 3758 1b2a CF51      		subi r28,lo8(1567)
 3759 1b2c D640      		sbci r29,hi8(1567)
 3760 1b2e 8217      		cp r24,r18
 3761 1b30 9307      		cpc r25,r19
 3762 1b32 00F0      		brlo .L294
 3763               	.L306:
 3764 1b34 C601      		movw r24,r12
 3765 1b36 0E94 0000 		call luaL_prepbuffer
 3766               	.L294:
 3767 1b3a D701      		movw r26,r14
 3768 1b3c 8C91      		ld r24,X
 3769 1b3e D601      		movw r26,r12
 3770 1b40 ED91      		ld r30,X+
 3771 1b42 FC91      		ld r31,X
 3772 1b44 1197      		sbiw r26,1
 3773 1b46 8193      		st Z+,r24
 3774 1b48 ED93      		st X+,r30
 3775 1b4a FC93      		st X,r31
 3776               	.L293:
 3777 1b4c 0894      		sec
 3778 1b4e E11C      		adc r14,__zero_reg__
 3779 1b50 F11C      		adc r15,__zero_reg__
 3780               	.L285:
 3781 1b52 8B81      		ldd r24,Y+3
 3782 1b54 9C81      		ldd r25,Y+4
 3783 1b56 0197      		sbiw r24,1
 3784 1b58 9C83      		std Y+4,r25
 3785 1b5a 8B83      		std Y+3,r24
 3786 1b5c 0196      		adiw r24,1
 3787 1b5e 01F0      		breq .+2
 3788 1b60 00C0      		rjmp .L295
 3789 1b62 F601      		movw r30,r12
 3790 1b64 8081      		ld r24,Z
 3791 1b66 9181      		ldd r25,Z+1
 3792 1b68 C15E      		subi r28,lo8(-1567)
 3793 1b6a D94F      		sbci r29,hi8(-1567)
 3794 1b6c 2881      		ld r18,Y
 3795 1b6e 3981      		ldd r19,Y+1
 3796 1b70 CF51      		subi r28,lo8(1567)
 3797 1b72 D640      		sbci r29,hi8(1567)
 3798 1b74 8217      		cp r24,r18
 3799 1b76 9307      		cpc r25,r19
 3800 1b78 00F0      		brlo .L296
 3801 1b7a C601      		movw r24,r12
 3802 1b7c 0E94 0000 		call luaL_prepbuffer
 3803               	.L296:
 3804 1b80 D601      		movw r26,r12
 3805 1b82 ED91      		ld r30,X+
 3806 1b84 FC91      		ld r31,X
 3807 1b86 B2E2      		ldi r27,lo8(34)
 3808 1b88 B193      		st Z+,r27
 3809 1b8a D601      		movw r26,r12
 3810               	.L304:
 3811 1b8c ED93      		st X+,r30
 3812 1b8e FC93      		st X,r31
GAS LISTING C:\DOCUME~1\ADMINI~1\LOCALS~1\Temp/cctKSLoe.s 			page 69


 3813 1b90 00C0      		rjmp .L301
 3814               	.L308:
 3815 1b92 C301      		movw r24,r6
 3816 1b94 B201      		movw r22,r4
 3817 1b96 AE01      		movw r20,r28
 3818 1b98 4D5F      		subi r20,lo8(-(3))
 3819 1b9a 5F4F      		sbci r21,hi8(-(3))
 3820 1b9c 0E94 0000 		call luaL_checklstring
 3821 1ba0 7C01      		movw r14,r24
 3822 1ba2 C101      		movw r24,r2
 3823 1ba4 6EE2      		ldi r22,lo8(46)
 3824 1ba6 70E0      		ldi r23,hi8(46)
 3825 1ba8 0E94 0000 		call strchr
 3826 1bac 0097      		sbiw r24,0
 3827 1bae 01F4      		brne .L297
 3828 1bb0 8B81      		ldd r24,Y+3
 3829 1bb2 9C81      		ldd r25,Y+4
 3830 1bb4 8436      		cpi r24,100
 3831 1bb6 9105      		cpc r25,__zero_reg__
 3832 1bb8 00F0      		brlo .L297
 3833 1bba C301      		movw r24,r6
 3834 1bbc B201      		movw r22,r4
 3835 1bbe 0E94 0000 		call lua_pushvalue
 3836 1bc2 C601      		movw r24,r12
 3837 1bc4 0E94 0000 		call luaL_addvalue
 3838 1bc8 00C0      		rjmp .L301
 3839               	.L297:
 3840 1bca 00D0      		rcall .
 3841 1bcc 00D0      		rcall .
 3842 1bce 00D0      		rcall .
 3843 1bd0 EDB7      		in r30,__SP_L__
 3844 1bd2 FEB7      		in r31,__SP_H__
 3845 1bd4 3196      		adiw r30,1
 3846 1bd6 27E1      		ldi r18,lo8(23)
 3847 1bd8 30E0      		ldi r19,hi8(23)
 3848 1bda 2C0F      		add r18,r28
 3849 1bdc 3D1F      		adc r19,r29
 3850 1bde ADB7      		in r26,__SP_L__
 3851 1be0 BEB7      		in r27,__SP_H__
 3852 1be2 1296      		adiw r26,1+1
 3853 1be4 3C93      		st X,r19
 3854 1be6 2E93      		st -X,r18
 3855 1be8 1197      		sbiw r26,1
 3856 1bea 3382      		std Z+3,r3
 3857 1bec 2282      		std Z+2,r2
 3858 1bee F582      		std Z+5,r15
 3859 1bf0 E482      		std Z+4,r14
 3860               	.L305:
 3861 1bf2 0E94 0000 		call sprintf
 3862 1bf6 8DB7      		in r24,__SP_L__
 3863 1bf8 9EB7      		in r25,__SP_H__
 3864 1bfa 0696      		adiw r24,6
 3865 1bfc 00C0      		rjmp .L303
 3866               	.L273:
 3867 1bfe 00D0      		rcall .
 3868 1c00 00D0      		rcall .
 3869 1c02 00D0      		rcall .
GAS LISTING C:\DOCUME~1\ADMINI~1\LOCALS~1\Temp/cctKSLoe.s 			page 70


 3870 1c04 EDB7      		in r30,__SP_L__
 3871 1c06 FEB7      		in r31,__SP_H__
 3872 1c08 3196      		adiw r30,1
 3873 1c0a ADB7      		in r26,__SP_L__
 3874 1c0c BEB7      		in r27,__SP_H__
 3875 1c0e 1296      		adiw r26,1+1
 3876 1c10 7C92      		st X,r7
 3877 1c12 6E92      		st -X,r6
 3878 1c14 1197      		sbiw r26,1
 3879 1c16 80E0      		ldi r24,lo8(.LC20)
 3880 1c18 90E0      		ldi r25,hi8(.LC20)
 3881 1c1a 9383      		std Z+3,r25
 3882 1c1c 8283      		std Z+2,r24
 3883 1c1e 822F      		mov r24,r18
 3884 1c20 9927      		clr r25
 3885 1c22 87FD      		sbrc r24,7
 3886 1c24 9095      		com r25
 3887 1c26 9583      		std Z+5,r25
 3888 1c28 8483      		std Z+4,r24
 3889 1c2a 0E94 0000 		call luaL_error
 3890 1c2e 9C01      		movw r18,r24
 3891 1c30 EDB7      		in r30,__SP_L__
 3892 1c32 FEB7      		in r31,__SP_H__
 3893 1c34 3696      		adiw r30,6
 3894 1c36 0FB6      		in __tmp_reg__,__SREG__
 3895 1c38 F894      		cli
 3896 1c3a FEBF      		out __SP_H__,r31
 3897 1c3c 0FBE      		out __SREG__,__tmp_reg__
 3898 1c3e EDBF      		out __SP_L__,r30
 3899 1c40 00C0      		rjmp .L298
 3900               	.L283:
 3901 1c42 CF5D      		subi r28,lo8(-1569)
 3902 1c44 D94F      		sbci r29,hi8(-1569)
 3903 1c46 E881      		ld r30,Y
 3904 1c48 F981      		ldd r31,Y+1
 3905 1c4a C152      		subi r28,lo8(1569)
 3906 1c4c D640      		sbci r29,hi8(1569)
 3907 1c4e 0190      		ld __tmp_reg__,Z+
 3908 1c50 0020      		tst __tmp_reg__
 3909 1c52 01F4      		brne .-6
 3910 1c54 3197      		sbiw r30,1
 3911 1c56 CF5D      		subi r28,lo8(-1569)
 3912 1c58 D94F      		sbci r29,hi8(-1569)
 3913 1c5a 2881      		ld r18,Y
 3914 1c5c 3981      		ldd r19,Y+1
 3915 1c5e C152      		subi r28,lo8(1569)
 3916 1c60 D640      		sbci r29,hi8(1569)
 3917 1c62 E21B      		sub r30,r18
 3918 1c64 F30B      		sbc r31,r19
 3919 1c66 C601      		movw r24,r12
 3920 1c68 BE01      		movw r22,r28
 3921 1c6a 695E      		subi r22,lo8(-(23))
 3922 1c6c 7F4F      		sbci r23,hi8(-(23))
 3923 1c6e AF01      		movw r20,r30
 3924 1c70 0E94 0000 		call luaL_addlstring
 3925               	.L301:
 3926 1c74 C35E      		subi r28,lo8(-1565)
GAS LISTING C:\DOCUME~1\ADMINI~1\LOCALS~1\Temp/cctKSLoe.s 			page 71


 3927 1c76 D94F      		sbci r29,hi8(-1565)
 3928 1c78 8881      		ld r24,Y
 3929 1c7a 9981      		ldd r25,Y+1
 3930 1c7c CD51      		subi r28,lo8(1565)
 3931 1c7e D640      		sbci r29,hi8(1565)
 3932 1c80 A816      		cp r10,r24
 3933 1c82 B906      		cpc r11,r25
 3934 1c84 00F4      		brsh .+2
 3935 1c86 00C0      		rjmp .L299
 3936 1c88 CE01      		movw r24,r28
 3937 1c8a 895E      		subi r24,lo8(-(535))
 3938 1c8c 9D4F      		sbci r25,hi8(-(535))
 3939 1c8e 0E94 0000 		call luaL_pushresult
 3940 1c92 21E0      		ldi r18,lo8(1)
 3941 1c94 30E0      		ldi r19,hi8(1)
 3942               	.L298:
 3943 1c96 C901      		movw r24,r18
 3944               	/* epilogue start */
 3945 1c98 CE5D      		subi r28,lo8(-(1570))
 3946 1c9a D94F      		sbci r29,hi8(-(1570))
 3947 1c9c 0FB6      		in __tmp_reg__,__SREG__
 3948 1c9e F894      		cli
 3949 1ca0 DEBF      		out __SP_H__,r29
 3950 1ca2 0FBE      		out __SREG__,__tmp_reg__
 3951 1ca4 CDBF      		out __SP_L__,r28
 3952 1ca6 CF91      		pop r28
 3953 1ca8 DF91      		pop r29
 3954 1caa 1F91      		pop r17
 3955 1cac 0F91      		pop r16
 3956 1cae FF90      		pop r15
 3957 1cb0 EF90      		pop r14
 3958 1cb2 DF90      		pop r13
 3959 1cb4 CF90      		pop r12
 3960 1cb6 BF90      		pop r11
 3961 1cb8 AF90      		pop r10
 3962 1cba 9F90      		pop r9
 3963 1cbc 8F90      		pop r8
 3964 1cbe 7F90      		pop r7
 3965 1cc0 6F90      		pop r6
 3966 1cc2 5F90      		pop r5
 3967 1cc4 4F90      		pop r4
 3968 1cc6 3F90      		pop r3
 3969 1cc8 2F90      		pop r2
 3970 1cca 0895      		ret
 3971               		.size	str_format, .-str_format
 3972               		.data
 3973               	.LC21:
 3974 01e9 756E 6162 		.string	"unable to dump given function"
 3974      6C65 2074 
 3974      6F20 6475 
 3974      6D70 2067 
 3974      6976 656E 
 3975               		.text
 3976               		.type	str_dump, @function
 3977               	str_dump:
 3978 1ccc EF92      		push r14
 3979 1cce FF92      		push r15
GAS LISTING C:\DOCUME~1\ADMINI~1\LOCALS~1\Temp/cctKSLoe.s 			page 72


 3980 1cd0 0F93      		push r16
 3981 1cd2 1F93      		push r17
 3982 1cd4 DF93      		push r29
 3983 1cd6 CF93      		push r28
 3984 1cd8 CDB7      		in r28,__SP_L__
 3985 1cda DEB7      		in r29,__SP_H__
 3986 1cdc C650      		subi r28,lo8(-(-1030))
 3987 1cde D440      		sbci r29,hi8(-(-1030))
 3988 1ce0 0FB6      		in __tmp_reg__,__SREG__
 3989 1ce2 F894      		cli
 3990 1ce4 DEBF      		out __SP_H__,r29
 3991 1ce6 0FBE      		out __SREG__,__tmp_reg__
 3992 1ce8 CDBF      		out __SP_L__,r28
 3993               	/* prologue: function */
 3994               	/* frame size = 1030 */
 3995 1cea 7C01      		movw r14,r24
 3996 1cec 61E0      		ldi r22,lo8(1)
 3997 1cee 70E0      		ldi r23,hi8(1)
 3998 1cf0 48E0      		ldi r20,lo8(8)
 3999 1cf2 50E0      		ldi r21,hi8(8)
 4000 1cf4 0E94 0000 		call luaL_checktype
 4001 1cf8 C701      		movw r24,r14
 4002 1cfa 61E0      		ldi r22,lo8(1)
 4003 1cfc 70E0      		ldi r23,hi8(1)
 4004 1cfe 0E94 0000 		call lua_settop
 4005 1d02 C701      		movw r24,r14
 4006 1d04 8E01      		movw r16,r28
 4007 1d06 0F5F      		subi r16,lo8(-(1))
 4008 1d08 1F4F      		sbci r17,hi8(-(1))
 4009 1d0a B801      		movw r22,r16
 4010 1d0c 0E94 0000 		call luaL_buffinit
 4011 1d10 C701      		movw r24,r14
 4012 1d12 60E0      		ldi r22,lo8(gs(writer))
 4013 1d14 70E0      		ldi r23,hi8(gs(writer))
 4014 1d16 A801      		movw r20,r16
 4015 1d18 0E94 0000 		call lua_dump
 4016 1d1c 892B      		or r24,r25
 4017 1d1e 01F0      		breq .L310
 4018 1d20 00D0      		rcall .
 4019 1d22 00D0      		rcall .
 4020 1d24 EDB7      		in r30,__SP_L__
 4021 1d26 FEB7      		in r31,__SP_H__
 4022 1d28 F282      		std Z+2,r15
 4023 1d2a E182      		std Z+1,r14
 4024 1d2c 80E0      		ldi r24,lo8(.LC21)
 4025 1d2e 90E0      		ldi r25,hi8(.LC21)
 4026 1d30 9483      		std Z+4,r25
 4027 1d32 8383      		std Z+3,r24
 4028 1d34 0E94 0000 		call luaL_error
 4029 1d38 0F90      		pop __tmp_reg__
 4030 1d3a 0F90      		pop __tmp_reg__
 4031 1d3c 0F90      		pop __tmp_reg__
 4032 1d3e 0F90      		pop __tmp_reg__
 4033               	.L310:
 4034 1d40 CE01      		movw r24,r28
 4035 1d42 0196      		adiw r24,1
 4036 1d44 0E94 0000 		call luaL_pushresult
GAS LISTING C:\DOCUME~1\ADMINI~1\LOCALS~1\Temp/cctKSLoe.s 			page 73


 4037 1d48 81E0      		ldi r24,lo8(1)
 4038 1d4a 90E0      		ldi r25,hi8(1)
 4039               	/* epilogue start */
 4040 1d4c CA5F      		subi r28,lo8(-(1030))
 4041 1d4e DB4F      		sbci r29,hi8(-(1030))
 4042 1d50 0FB6      		in __tmp_reg__,__SREG__
 4043 1d52 F894      		cli
 4044 1d54 DEBF      		out __SP_H__,r29
 4045 1d56 0FBE      		out __SREG__,__tmp_reg__
 4046 1d58 CDBF      		out __SP_L__,r28
 4047 1d5a CF91      		pop r28
 4048 1d5c DF91      		pop r29
 4049 1d5e 1F91      		pop r17
 4050 1d60 0F91      		pop r16
 4051 1d62 FF90      		pop r15
 4052 1d64 EF90      		pop r14
 4053 1d66 0895      		ret
 4054               		.size	str_dump, .-str_dump
 4055               		.data
 4056               	.LC22:
 4057 0207 696E 7661 		.string	"invalid value"
 4057      6C69 6420 
 4057      7661 6C75 
 4057      6500 
 4058               		.text
 4059               		.type	str_char, @function
 4060               	str_char:
 4061 1d68 6F92      		push r6
 4062 1d6a 7F92      		push r7
 4063 1d6c 8F92      		push r8
 4064 1d6e 9F92      		push r9
 4065 1d70 AF92      		push r10
 4066 1d72 BF92      		push r11
 4067 1d74 CF92      		push r12
 4068 1d76 DF92      		push r13
 4069 1d78 EF92      		push r14
 4070 1d7a FF92      		push r15
 4071 1d7c 0F93      		push r16
 4072 1d7e 1F93      		push r17
 4073 1d80 DF93      		push r29
 4074 1d82 CF93      		push r28
 4075 1d84 CDB7      		in r28,__SP_L__
 4076 1d86 DEB7      		in r29,__SP_H__
 4077 1d88 C650      		subi r28,lo8(-(-1030))
 4078 1d8a D440      		sbci r29,hi8(-(-1030))
 4079 1d8c 0FB6      		in __tmp_reg__,__SREG__
 4080 1d8e F894      		cli
 4081 1d90 DEBF      		out __SP_H__,r29
 4082 1d92 0FBE      		out __SREG__,__tmp_reg__
 4083 1d94 CDBF      		out __SP_L__,r28
 4084               	/* prologue: function */
 4085               	/* frame size = 1030 */
 4086 1d96 6C01      		movw r12,r24
 4087 1d98 0E94 0000 		call lua_gettop
 4088 1d9c 5C01      		movw r10,r24
 4089 1d9e C601      		movw r24,r12
 4090 1da0 8E01      		movw r16,r28
GAS LISTING C:\DOCUME~1\ADMINI~1\LOCALS~1\Temp/cctKSLoe.s 			page 74


 4091 1da2 0F5F      		subi r16,lo8(-(1))
 4092 1da4 1F4F      		sbci r17,hi8(-(1))
 4093 1da6 B801      		movw r22,r16
 4094 1da8 0E94 0000 		call luaL_buffinit
 4095 1dac 31E0      		ldi r19,lo8(1)
 4096 1dae E32E      		mov r14,r19
 4097 1db0 F12C      		mov r15,__zero_reg__
 4098 1db2 27E0      		ldi r18,lo8(1031)
 4099 1db4 622E      		mov r6,r18
 4100 1db6 24E0      		ldi r18,hi8(1031)
 4101 1db8 722E      		mov r7,r18
 4102 1dba 6C0E      		add r6,r28
 4103 1dbc 7D1E      		adc r7,r29
 4104 1dbe 4801      		movw r8,r16
 4105 1dc0 00C0      		rjmp .L313
 4106               	.L316:
 4107 1dc2 C601      		movw r24,r12
 4108 1dc4 B701      		movw r22,r14
 4109 1dc6 0E94 0000 		call luaL_checkinteger
 4110 1dca 8C01      		movw r16,r24
 4111 1dcc 90E0      		ldi r25,lo8(0)
 4112 1dce 8017      		cp r24,r16
 4113 1dd0 9107      		cpc r25,r17
 4114 1dd2 01F0      		breq .L314
 4115 1dd4 C601      		movw r24,r12
 4116 1dd6 B701      		movw r22,r14
 4117 1dd8 40E0      		ldi r20,lo8(.LC22)
 4118 1dda 50E0      		ldi r21,hi8(.LC22)
 4119 1ddc 0E94 0000 		call luaL_argerror
 4120               	.L314:
 4121 1de0 8981      		ldd r24,Y+1
 4122 1de2 9A81      		ldd r25,Y+2
 4123 1de4 8615      		cp r24,r6
 4124 1de6 9705      		cpc r25,r7
 4125 1de8 00F0      		brlo .L315
 4126 1dea C401      		movw r24,r8
 4127 1dec 0E94 0000 		call luaL_prepbuffer
 4128               	.L315:
 4129 1df0 E981      		ldd r30,Y+1
 4130 1df2 FA81      		ldd r31,Y+2
 4131 1df4 0193      		st Z+,r16
 4132 1df6 FA83      		std Y+2,r31
 4133 1df8 E983      		std Y+1,r30
 4134 1dfa 0894      		sec
 4135 1dfc E11C      		adc r14,__zero_reg__
 4136 1dfe F11C      		adc r15,__zero_reg__
 4137               	.L313:
 4138 1e00 AE14      		cp r10,r14
 4139 1e02 BF04      		cpc r11,r15
 4140 1e04 04F4      		brge .L316
 4141 1e06 CE01      		movw r24,r28
 4142 1e08 0196      		adiw r24,1
 4143 1e0a 0E94 0000 		call luaL_pushresult
 4144 1e0e 81E0      		ldi r24,lo8(1)
 4145 1e10 90E0      		ldi r25,hi8(1)
 4146               	/* epilogue start */
 4147 1e12 CA5F      		subi r28,lo8(-(1030))
GAS LISTING C:\DOCUME~1\ADMINI~1\LOCALS~1\Temp/cctKSLoe.s 			page 75


 4148 1e14 DB4F      		sbci r29,hi8(-(1030))
 4149 1e16 0FB6      		in __tmp_reg__,__SREG__
 4150 1e18 F894      		cli
 4151 1e1a DEBF      		out __SP_H__,r29
 4152 1e1c 0FBE      		out __SREG__,__tmp_reg__
 4153 1e1e CDBF      		out __SP_L__,r28
 4154 1e20 CF91      		pop r28
 4155 1e22 DF91      		pop r29
 4156 1e24 1F91      		pop r17
 4157 1e26 0F91      		pop r16
 4158 1e28 FF90      		pop r15
 4159 1e2a EF90      		pop r14
 4160 1e2c DF90      		pop r13
 4161 1e2e CF90      		pop r12
 4162 1e30 BF90      		pop r11
 4163 1e32 AF90      		pop r10
 4164 1e34 9F90      		pop r9
 4165 1e36 8F90      		pop r8
 4166 1e38 7F90      		pop r7
 4167 1e3a 6F90      		pop r6
 4168 1e3c 0895      		ret
 4169               		.size	str_char, .-str_char
 4170               		.data
 4171               	.LC23:
 4172 0215 7374 7269 		.string	"string"
 4172      6E67 00
 4173               	.LC24:
 4174 021c 676D 6174 		.string	"gmatch"
 4174      6368 00
 4175               	.LC25:
 4176 0223 6766 696E 		.string	"gfind"
 4176      6400 
 4177               	.LC26:
 4178 0229 5F5F 696E 		.string	"__index"
 4178      6465 7800 
 4179               		.text
 4180               	.global	luaopen_string
 4181               		.type	luaopen_string, @function
 4182               	luaopen_string:
 4183 1e3e 0F93      		push r16
 4184 1e40 1F93      		push r17
 4185               	/* prologue: function */
 4186               	/* frame size = 0 */
 4187 1e42 8C01      		movw r16,r24
 4188 1e44 60E0      		ldi r22,lo8(.LC23)
 4189 1e46 70E0      		ldi r23,hi8(.LC23)
 4190 1e48 40E0      		ldi r20,lo8(strlib)
 4191 1e4a 50E0      		ldi r21,hi8(strlib)
 4192 1e4c 0E94 0000 		call luaL_register
 4193 1e50 C801      		movw r24,r16
 4194 1e52 6FEF      		ldi r22,lo8(-1)
 4195 1e54 7FEF      		ldi r23,hi8(-1)
 4196 1e56 40E0      		ldi r20,lo8(.LC24)
 4197 1e58 50E0      		ldi r21,hi8(.LC24)
 4198 1e5a 0E94 0000 		call lua_getfield
 4199 1e5e C801      		movw r24,r16
 4200 1e60 6EEF      		ldi r22,lo8(-2)
GAS LISTING C:\DOCUME~1\ADMINI~1\LOCALS~1\Temp/cctKSLoe.s 			page 76


 4201 1e62 7FEF      		ldi r23,hi8(-2)
 4202 1e64 40E0      		ldi r20,lo8(.LC25)
 4203 1e66 50E0      		ldi r21,hi8(.LC25)
 4204 1e68 0E94 0000 		call lua_setfield
 4205 1e6c C801      		movw r24,r16
 4206 1e6e 60E0      		ldi r22,lo8(0)
 4207 1e70 70E0      		ldi r23,hi8(0)
 4208 1e72 41E0      		ldi r20,lo8(1)
 4209 1e74 50E0      		ldi r21,hi8(1)
 4210 1e76 0E94 0000 		call lua_createtable
 4211 1e7a C801      		movw r24,r16
 4212 1e7c 60E0      		ldi r22,lo8(.LC0)
 4213 1e7e 70E0      		ldi r23,hi8(.LC0)
 4214 1e80 40E0      		ldi r20,lo8(0)
 4215 1e82 50E0      		ldi r21,hi8(0)
 4216 1e84 0E94 0000 		call lua_pushlstring
 4217 1e88 C801      		movw r24,r16
 4218 1e8a 6EEF      		ldi r22,lo8(-2)
 4219 1e8c 7FEF      		ldi r23,hi8(-2)
 4220 1e8e 0E94 0000 		call lua_pushvalue
 4221 1e92 C801      		movw r24,r16
 4222 1e94 6EEF      		ldi r22,lo8(-2)
 4223 1e96 7FEF      		ldi r23,hi8(-2)
 4224 1e98 0E94 0000 		call lua_setmetatable
 4225 1e9c C801      		movw r24,r16
 4226 1e9e 6EEF      		ldi r22,lo8(-2)
 4227 1ea0 7FEF      		ldi r23,hi8(-2)
 4228 1ea2 0E94 0000 		call lua_settop
 4229 1ea6 C801      		movw r24,r16
 4230 1ea8 6EEF      		ldi r22,lo8(-2)
 4231 1eaa 7FEF      		ldi r23,hi8(-2)
 4232 1eac 0E94 0000 		call lua_pushvalue
 4233 1eb0 C801      		movw r24,r16
 4234 1eb2 6EEF      		ldi r22,lo8(-2)
 4235 1eb4 7FEF      		ldi r23,hi8(-2)
 4236 1eb6 40E0      		ldi r20,lo8(.LC26)
 4237 1eb8 50E0      		ldi r21,hi8(.LC26)
 4238 1eba 0E94 0000 		call lua_setfield
 4239 1ebe C801      		movw r24,r16
 4240 1ec0 6EEF      		ldi r22,lo8(-2)
 4241 1ec2 7FEF      		ldi r23,hi8(-2)
 4242 1ec4 0E94 0000 		call lua_settop
 4243 1ec8 81E0      		ldi r24,lo8(1)
 4244 1eca 90E0      		ldi r25,hi8(1)
 4245               	/* epilogue start */
 4246 1ecc 1F91      		pop r17
 4247 1ece 0F91      		pop r16
 4248 1ed0 0895      		ret
 4249               		.size	luaopen_string, .-luaopen_string
 4250               		.data
 4251               	.LC27:
 4252 0231 6279 7465 		.string	"byte"
 4252      00
 4253               	.LC28:
 4254 0236 6368 6172 		.string	"char"
 4254      00
 4255               	.LC29:
GAS LISTING C:\DOCUME~1\ADMINI~1\LOCALS~1\Temp/cctKSLoe.s 			page 77


 4256 023b 6475 6D70 		.string	"dump"
 4256      00
 4257               	.LC30:
 4258 0240 6669 6E64 		.string	"find"
 4258      00
 4259               	.LC31:
 4260 0245 666F 726D 		.string	"format"
 4260      6174 00
 4261               	.LC32:
 4262 024c 6773 7562 		.string	"gsub"
 4262      00
 4263               	.LC33:
 4264 0251 6C65 6E00 		.string	"len"
 4265               	.LC34:
 4266 0255 6C6F 7765 		.string	"lower"
 4266      7200 
 4267               	.LC35:
 4268 025b 6D61 7463 		.string	"match"
 4268      6800 
 4269               	.LC36:
 4270 0261 7265 7000 		.string	"rep"
 4271               	.LC37:
 4272 0265 7265 7665 		.string	"reverse"
 4272      7273 6500 
 4273               	.LC38:
 4274 026d 7375 6200 		.string	"sub"
 4275               	.LC39:
 4276 0271 7570 7065 		.string	"upper"
 4276      7200 
 4277               		.type	strlib, @object
 4278               		.size	strlib, 64
 4279               	strlib:
 4280 0277 0000      		.word	.LC27
 4281 0279 0000      		.word	gs(str_byte)
 4282 027b 0000      		.word	.LC28
 4283 027d 0000      		.word	gs(str_char)
 4284 027f 0000      		.word	.LC29
 4285 0281 0000      		.word	gs(str_dump)
 4286 0283 0000      		.word	.LC30
 4287 0285 0000      		.word	gs(str_find)
 4288 0287 0000      		.word	.LC31
 4289 0289 0000      		.word	gs(str_format)
 4290 028b 0000      		.word	.LC25
 4291 028d 0000      		.word	gs(gfind_nodef)
 4292 028f 0000      		.word	.LC24
 4293 0291 0000      		.word	gs(gmatch)
 4294 0293 0000      		.word	.LC32
 4295 0295 0000      		.word	gs(str_gsub)
 4296 0297 0000      		.word	.LC33
 4297 0299 0000      		.word	gs(str_len)
 4298 029b 0000      		.word	.LC34
 4299 029d 0000      		.word	gs(str_lower)
 4300 029f 0000      		.word	.LC35
 4301 02a1 0000      		.word	gs(str_match)
 4302 02a3 0000      		.word	.LC36
 4303 02a5 0000      		.word	gs(str_rep)
 4304 02a7 0000      		.word	.LC37
GAS LISTING C:\DOCUME~1\ADMINI~1\LOCALS~1\Temp/cctKSLoe.s 			page 78


 4305 02a9 0000      		.word	gs(str_reverse)
 4306 02ab 0000      		.word	.LC38
 4307 02ad 0000      		.word	gs(str_sub)
 4308 02af 0000      		.word	.LC39
 4309 02b1 0000      		.word	gs(str_upper)
 4310 02b3 0000      		.word	0
 4311 02b5 0000      		.word	0
 4312               	.global __do_copy_data
GAS LISTING C:\DOCUME~1\ADMINI~1\LOCALS~1\Temp/cctKSLoe.s 			page 79


DEFINED SYMBOLS
                            *ABS*:00000000 lstrlib.c
C:\DOCUME~1\ADMINI~1\LOCALS~1\Temp/cctKSLoe.s:2      *ABS*:0000003f __SREG__
C:\DOCUME~1\ADMINI~1\LOCALS~1\Temp/cctKSLoe.s:3      *ABS*:0000003e __SP_H__
C:\DOCUME~1\ADMINI~1\LOCALS~1\Temp/cctKSLoe.s:4      *ABS*:0000003d __SP_L__
C:\DOCUME~1\ADMINI~1\LOCALS~1\Temp/cctKSLoe.s:5      *ABS*:00000034 __CCP__
C:\DOCUME~1\ADMINI~1\LOCALS~1\Temp/cctKSLoe.s:6      *ABS*:00000000 __tmp_reg__
C:\DOCUME~1\ADMINI~1\LOCALS~1\Temp/cctKSLoe.s:7      *ABS*:00000001 __zero_reg__
C:\DOCUME~1\ADMINI~1\LOCALS~1\Temp/cctKSLoe.s:10     .text:00000000 str_upper
C:\DOCUME~1\ADMINI~1\LOCALS~1\Temp/cctKSLoe.s:119    .text:000000d2 str_reverse
C:\DOCUME~1\ADMINI~1\LOCALS~1\Temp/cctKSLoe.s:221    .text:0000018c str_sub
C:\DOCUME~1\ADMINI~1\LOCALS~1\Temp/cctKSLoe.s:334    .text:0000025a str_rep
C:\DOCUME~1\ADMINI~1\LOCALS~1\Temp/cctKSLoe.s:422    .text:00000304 writer
C:\DOCUME~1\ADMINI~1\LOCALS~1\Temp/cctKSLoe.s:433    .text:00000310 str_len
C:\DOCUME~1\ADMINI~1\LOCALS~1\Temp/cctKSLoe.s:472    .text:0000034a classend
C:\DOCUME~1\ADMINI~1\LOCALS~1\Temp/cctKSLoe.s:576    .text:000003f6 push_onecapture
C:\DOCUME~1\ADMINI~1\LOCALS~1\Temp/cctKSLoe.s:711    .text:000004ec gfind_nodef
C:\DOCUME~1\ADMINI~1\LOCALS~1\Temp/cctKSLoe.s:733    .text:0000050e str_lower
C:\DOCUME~1\ADMINI~1\LOCALS~1\Temp/cctKSLoe.s:842    .text:000005e0 match_class
C:\DOCUME~1\ADMINI~1\LOCALS~1\Temp/cctKSLoe.s:990    .text:000006ea matchbracketclass
C:\DOCUME~1\ADMINI~1\LOCALS~1\Temp/cctKSLoe.s:1086   .text:00000790 singlematch
C:\DOCUME~1\ADMINI~1\LOCALS~1\Temp/cctKSLoe.s:1127   .text:000007d0 max_expand
C:\DOCUME~1\ADMINI~1\LOCALS~1\Temp/cctKSLoe.s:1218   .text:00000862 match
C:\DOCUME~1\ADMINI~1\LOCALS~1\Temp/cctKSLoe.s:1796   .text:00000ca2 start_capture
C:\DOCUME~1\ADMINI~1\LOCALS~1\Temp/cctKSLoe.s:1887   .text:00000d4c push_captures
C:\DOCUME~1\ADMINI~1\LOCALS~1\Temp/cctKSLoe.s:1960   .text:00000dc6 str_find_aux
C:\DOCUME~1\ADMINI~1\LOCALS~1\Temp/cctKSLoe.s:2282   .text:00001038 str_match
C:\DOCUME~1\ADMINI~1\LOCALS~1\Temp/cctKSLoe.s:2292   .text:00001042 str_find
C:\DOCUME~1\ADMINI~1\LOCALS~1\Temp/cctKSLoe.s:2306   .text:0000104c str_byte
C:\DOCUME~1\ADMINI~1\LOCALS~1\Temp/cctKSLoe.s:2476   .text:0000117e str_gsub
C:\DOCUME~1\ADMINI~1\LOCALS~1\Temp/cctKSLoe.s:2980   .text:0000156c gmatch
C:\DOCUME~1\ADMINI~1\LOCALS~1\Temp/cctKSLoe.s:3019   .text:000015b8 gmatch_aux
C:\DOCUME~1\ADMINI~1\LOCALS~1\Temp/cctKSLoe.s:3158   .text:000016be addintlen
C:\DOCUME~1\ADMINI~1\LOCALS~1\Temp/cctKSLoe.s:3216   .text:0000170c str_format
C:\DOCUME~1\ADMINI~1\LOCALS~1\Temp/cctKSLoe.s:3977   .text:00001ccc str_dump
C:\DOCUME~1\ADMINI~1\LOCALS~1\Temp/cctKSLoe.s:4060   .text:00001d68 str_char
C:\DOCUME~1\ADMINI~1\LOCALS~1\Temp/cctKSLoe.s:4182   .text:00001e3e luaopen_string
C:\DOCUME~1\ADMINI~1\LOCALS~1\Temp/cctKSLoe.s:4279   .data:00000277 strlib

UNDEFINED SYMBOLS
luaL_checklstring
luaL_buffinit
luaL_prepbuffer
toupper
luaL_pushresult
luaL_checkinteger
luaL_optinteger
lua_pushlstring
luaL_addlstring
lua_pushinteger
luaL_error
tolower
isalpha
iscntrl
islower
ispunct
isspace
GAS LISTING C:\DOCUME~1\ADMINI~1\LOCALS~1\Temp/cctKSLoe.s 			page 80


isupper
isalnum
isxdigit
memcmp
luaL_checkstack
lua_toboolean
strpbrk
memchr
lua_pushnil
lua_type
luaL_argerror
lua_tolstring
luaL_addvalue
lua_pushvalue
lua_call
lua_gettable
lua_settop
lua_isstring
lua_typename
lua_pushcclosure
lua_tointeger
lua_replace
strcpy
strchr
strncpy
luaL_checknumber
sprintf
__floatsisf
luaL_checktype
lua_dump
lua_gettop
luaL_register
lua_getfield
lua_setfield
lua_createtable
lua_setmetatable
__do_copy_data
