GAS LISTING C:\Temp/cceMJOdu.s 			page 1


   1               		.file	"putf.c"
   2               	__SREG__ = 0x3f
   3               	__SP_H__ = 0x3e
   4               	__SP_L__ = 0x3d
   5               	__CCP__  = 0x34
   6               	__tmp_reg__ = 0
   7               	__zero_reg__ = 1
   8               		.global __do_copy_data
   9               		.global __do_clear_bss
  10               		.text
  11               		.type	_putpad, @function
  12               	_putpad:
  13 0000 CF92      		push r12
  14 0002 DF92      		push r13
  15 0004 EF92      		push r14
  16 0006 FF92      		push r15
  17 0008 0F93      		push r16
  18 000a 1F93      		push r17
  19 000c CF93      		push r28
  20 000e DF93      		push r29
  21               	/* prologue: function */
  22               	/* frame size = 0 */
  23 0010 6C01      		movw r12,r24
  24 0012 7B01      		movw r14,r22
  25 0014 8A01      		movw r16,r20
  26 0016 E901      		movw r28,r18
  27 0018 00C0      		rjmp .L2
  28               	.L3:
  29 001a 40E1      		ldi r20,lo8(16)
  30 001c 50E0      		ldi r21,hi8(16)
  31 001e B801      		movw r22,r16
  32 0020 C701      		movw r24,r14
  33 0022 F601      		movw r30,r12
  34 0024 0995      		icall
  35 0026 6097      		sbiw r28,16
  36               	.L2:
  37 0028 C131      		cpi r28,17
  38 002a D105      		cpc r29,__zero_reg__
  39 002c 04F4      		brge .L3
  40 002e 1C16      		cp __zero_reg__,r28
  41 0030 1D06      		cpc __zero_reg__,r29
  42 0032 04F4      		brge .L5
  43 0034 AE01      		movw r20,r28
  44 0036 B801      		movw r22,r16
  45 0038 C701      		movw r24,r14
  46 003a F601      		movw r30,r12
  47 003c 0995      		icall
  48               	.L5:
  49               	/* epilogue start */
  50 003e DF91      		pop r29
  51 0040 CF91      		pop r28
  52 0042 1F91      		pop r17
  53 0044 0F91      		pop r16
  54 0046 FF90      		pop r15
  55 0048 EF90      		pop r14
  56 004a DF90      		pop r13
  57 004c CF90      		pop r12
GAS LISTING C:\Temp/cceMJOdu.s 			page 2


  58 004e 0895      		ret
  59               		.size	_putpad, .-_putpad
  60               		.data
  61               	.LC0:
  62 0000 286E 756C 		.string	"(null)"
  62      6C29 00
  63               	.LC1:
  64 0007 3031 3233 		.string	"0123456789abcdef"
  64      3435 3637 
  64      3839 6162 
  64      6364 6566 
  64      00
  65               	.LC2:
  66 0018 3031 3233 		.string	"0123456789ABCDEF"
  66      3435 3637 
  66      3839 4142 
  66      4344 4546 
  66      00
  67               		.text
  68               	.global	_putf
  69               		.type	_putf, @function
  70               	_putf:
  71 0050 2F92      		push r2
  72 0052 3F92      		push r3
  73 0054 4F92      		push r4
  74 0056 5F92      		push r5
  75 0058 6F92      		push r6
  76 005a 7F92      		push r7
  77 005c 8F92      		push r8
  78 005e 9F92      		push r9
  79 0060 AF92      		push r10
  80 0062 BF92      		push r11
  81 0064 CF92      		push r12
  82 0066 DF92      		push r13
  83 0068 EF92      		push r14
  84 006a FF92      		push r15
  85 006c 0F93      		push r16
  86 006e 1F93      		push r17
  87 0070 DF93      		push r29
  88 0072 CF93      		push r28
  89 0074 CDB7      		in r28,__SP_L__
  90 0076 DEB7      		in r29,__SP_H__
  91 0078 6D97      		sbiw r28,29
  92 007a 0FB6      		in __tmp_reg__,__SREG__
  93 007c F894      		cli
  94 007e DEBF      		out __SP_H__,r29
  95 0080 0FBE      		out __SREG__,__tmp_reg__
  96 0082 CDBF      		out __SP_L__,r28
  97               	/* prologue: function */
  98               	/* frame size = 29 */
  99 0084 998F      		std Y+25,r25
 100 0086 888F      		std Y+24,r24
 101 0088 7B8F      		std Y+27,r23
 102 008a 6A8F      		std Y+26,r22
 103 008c 1A01      		movw r2,r20
 104 008e 4901      		movw r8,r18
 105 0090 1D8A      		std Y+21,__zero_reg__
GAS LISTING C:\Temp/cceMJOdu.s 			page 3


 106 0092 1C8A      		std Y+20,__zero_reg__
 107 0094 9E01      		movw r18,r28
 108 0096 2E5E      		subi r18,lo8(-(18))
 109 0098 3F4F      		sbci r19,hi8(-(18))
 110 009a 3D8F      		std Y+29,r19
 111 009c 2C8F      		std Y+28,r18
 112               	.L90:
 113 009e B101      		movw r22,r2
 114 00a0 00C0      		rjmp .L7
 115               	.L9:
 116 00a2 0894      		sec
 117 00a4 211C      		adc r2,__zero_reg__
 118 00a6 311C      		adc r3,__zero_reg__
 119               	.L7:
 120 00a8 D101      		movw r26,r2
 121 00aa FC90      		ld r15,X
 122 00ac FF20      		tst r15
 123 00ae 01F0      		breq .L8
 124 00b0 B5E2      		ldi r27,lo8(37)
 125 00b2 FB16      		cp r15,r27
 126 00b4 01F4      		brne .L9
 127               	.L8:
 128 00b6 8101      		movw r16,r2
 129 00b8 061B      		sub r16,r22
 130 00ba 170B      		sbc r17,r23
 131 00bc 01F0      		breq .L10
 132 00be A801      		movw r20,r16
 133 00c0 8A8D      		ldd r24,Y+26
 134 00c2 9B8D      		ldd r25,Y+27
 135 00c4 E88D      		ldd r30,Y+24
 136 00c6 F98D      		ldd r31,Y+25
 137 00c8 0995      		icall
 138 00ca 2C89      		ldd r18,Y+20
 139 00cc 3D89      		ldd r19,Y+21
 140 00ce 200F      		add r18,r16
 141 00d0 311F      		adc r19,r17
 142 00d2 3D8B      		std Y+21,r19
 143 00d4 2C8B      		std Y+20,r18
 144               	.L10:
 145 00d6 FF20      		tst r15
 146 00d8 01F4      		brne .+2
 147 00da 00C0      		rjmp .L11
 148 00dc 0894      		sec
 149 00de 211C      		adc r2,__zero_reg__
 150 00e0 311C      		adc r3,__zero_reg__
 151 00e2 1982      		std Y+1,__zero_reg__
 152 00e4 1E8A      		std Y+22,__zero_reg__
 153 00e6 4424      		clr r4
 154 00e8 5524      		clr r5
 155               	.L26:
 156 00ea 6624      		clr r6
 157 00ec 6A94      		dec r6
 158 00ee 762C      		mov r7,r6
 159               	.L89:
 160 00f0 D101      		movw r26,r2
 161 00f2 BD90      		ld r11,X+
 162 00f4 1D01      		movw r2,r26
GAS LISTING C:\Temp/cceMJOdu.s 			page 4


 163 00f6 B0E2      		ldi r27,lo8(32)
 164 00f8 BB16      		cp r11,r27
 165 00fa 01F4      		brne .L13
 166 00fc 8981      		ldd r24,Y+1
 167 00fe 8823      		tst r24
 168 0100 01F4      		brne .L89
 169 0102 00C0      		rjmp .L91
 170               	.L13:
 171 0104 EBE2      		ldi r30,lo8(43)
 172 0106 BE16      		cp r11,r30
 173 0108 01F4      		brne .L14
 174               	.L91:
 175 010a B982      		std Y+1,r11
 176 010c 00C0      		rjmp .L89
 177               	.L14:
 178 010e FDE2      		ldi r31,lo8(45)
 179 0110 BF16      		cp r11,r31
 180 0112 01F4      		brne .L15
 181 0114 2E89      		ldd r18,Y+22
 182 0116 2460      		ori r18,lo8(4)
 183 0118 2E8B      		std Y+22,r18
 184 011a 00C0      		rjmp .L89
 185               	.L15:
 186 011c 33E2      		ldi r19,lo8(35)
 187 011e B316      		cp r11,r19
 188 0120 01F4      		brne .L16
 189 0122 4E89      		ldd r20,Y+22
 190 0124 4160      		ori r20,lo8(1)
 191 0126 4E8B      		std Y+22,r20
 192 0128 00C0      		rjmp .L89
 193               	.L16:
 194 012a 80E3      		ldi r24,lo8(48)
 195 012c B816      		cp r11,r24
 196 012e 01F4      		brne .L17
 197 0130 9E89      		ldd r25,Y+22
 198 0132 9061      		ori r25,lo8(16)
 199 0134 9E8B      		std Y+22,r25
 200 0136 00C0      		rjmp .L89
 201               	.L17:
 202 0138 ACE6      		ldi r26,lo8(108)
 203 013a BA16      		cp r11,r26
 204 013c 01F4      		brne .L18
 205 013e BE89      		ldd r27,Y+22
 206 0140 B860      		ori r27,lo8(8)
 207 0142 BE8B      		std Y+22,r27
 208 0144 00C0      		rjmp .L89
 209               	.L18:
 210 0146 EAE7      		ldi r30,lo8(122)
 211 0148 BE16      		cp r11,r30
 212 014a 01F0      		breq .L89
 213 014c FAE2      		ldi r31,lo8(42)
 214 014e BF16      		cp r11,r31
 215 0150 01F4      		brne .L19
 216 0152 C401      		movw r24,r8
 217 0154 0296      		adiw r24,2
 218 0156 D401      		movw r26,r8
 219 0158 4D90      		ld r4,X+
GAS LISTING C:\Temp/cceMJOdu.s 			page 5


 220 015a 5C90      		ld r5,X
 221 015c 57FE      		sbrs r5,7
 222 015e 00C0      		rjmp .L92
 223               	.L20:
 224 0160 BE89      		ldd r27,Y+22
 225 0162 B460      		ori r27,lo8(4)
 226 0164 BE8B      		std Y+22,r27
 227 0166 5094      		com r5
 228 0168 4194      		neg r4
 229 016a 5108      		sbc r5,__zero_reg__
 230 016c 5394      		inc r5
 231               	.L92:
 232 016e 4C01      		movw r8,r24
 233 0170 00C0      		rjmp .L89
 234               	.L19:
 235 0172 EEE2      		ldi r30,lo8(46)
 236 0174 BE16      		cp r11,r30
 237 0176 01F4      		brne .L21
 238 0178 D101      		movw r26,r2
 239 017a 8C91      		ld r24,X
 240 017c 8A32      		cpi r24,lo8(42)
 241 017e 01F0      		breq .L22
 242 0180 6624      		clr r6
 243 0182 7724      		clr r7
 244 0184 00C0      		rjmp .L23
 245               	.L22:
 246 0186 0894      		sec
 247 0188 211C      		adc r2,__zero_reg__
 248 018a 311C      		adc r3,__zero_reg__
 249 018c F401      		movw r30,r8
 250 018e 6080      		ld r6,Z
 251 0190 7180      		ldd r7,Z+1
 252 0192 22E0      		ldi r18,lo8(2)
 253 0194 30E0      		ldi r19,hi8(2)
 254 0196 820E      		add r8,r18
 255 0198 931E      		adc r9,r19
 256 019a 00C0      		rjmp .L24
 257               	.L25:
 258 019c C301      		movw r24,r6
 259 019e E3E0      		ldi r30,3
 260 01a0 880F      	1:	lsl r24
 261 01a2 991F      		rol r25
 262 01a4 EA95      		dec r30
 263 01a6 01F4      		brne 1b
 264 01a8 660C      		lsl r6
 265 01aa 771C      		rol r7
 266 01ac 860D      		add r24,r6
 267 01ae 971D      		adc r25,r7
 268 01b0 622E      		mov r6,r18
 269 01b2 7724      		clr r7
 270 01b4 67FC      		sbrc r6,7
 271 01b6 7094      		com r7
 272 01b8 A0ED      		ldi r26,lo8(-48)
 273 01ba BFEF      		ldi r27,hi8(-48)
 274 01bc 6A0E      		add r6,r26
 275 01be 7B1E      		adc r7,r27
 276 01c0 680E      		add r6,r24
GAS LISTING C:\Temp/cceMJOdu.s 			page 6


 277 01c2 791E      		adc r7,r25
 278 01c4 0894      		sec
 279 01c6 211C      		adc r2,__zero_reg__
 280 01c8 311C      		adc r3,__zero_reg__
 281               	.L23:
 282 01ca F101      		movw r30,r2
 283 01cc 2081      		ld r18,Z
 284 01ce 822F      		mov r24,r18
 285 01d0 8053      		subi r24,lo8(-(-48))
 286 01d2 8A30      		cpi r24,lo8(10)
 287 01d4 00F0      		brlo .L25
 288               	.L24:
 289 01d6 77FE      		sbrs r7,7
 290 01d8 00C0      		rjmp .L89
 291 01da 00C0      		rjmp .L26
 292               	.L21:
 293 01dc 8B2D      		mov r24,r11
 294 01de 8153      		subi r24,lo8(-(-49))
 295 01e0 8930      		cpi r24,lo8(9)
 296 01e2 00F4      		brsh .L27
 297 01e4 4B2C      		mov r4,r11
 298 01e6 5524      		clr r5
 299 01e8 20ED      		ldi r18,lo8(-48)
 300 01ea 3FEF      		ldi r19,hi8(-48)
 301 01ec 420E      		add r4,r18
 302 01ee 531E      		adc r5,r19
 303 01f0 00C0      		rjmp .L28
 304               	.L29:
 305 01f2 C201      		movw r24,r4
 306 01f4 63E0      		ldi r22,3
 307 01f6 880F      	1:	lsl r24
 308 01f8 991F      		rol r25
 309 01fa 6A95      		dec r22
 310 01fc 01F4      		brne 1b
 311 01fe 440C      		lsl r4
 312 0200 551C      		rol r5
 313 0202 840D      		add r24,r4
 314 0204 951D      		adc r25,r5
 315 0206 422E      		mov r4,r18
 316 0208 5524      		clr r5
 317 020a 47FC      		sbrc r4,7
 318 020c 5094      		com r5
 319 020e A0ED      		ldi r26,lo8(-48)
 320 0210 BFEF      		ldi r27,hi8(-48)
 321 0212 4A0E      		add r4,r26
 322 0214 5B1E      		adc r5,r27
 323 0216 480E      		add r4,r24
 324 0218 591E      		adc r5,r25
 325 021a 0894      		sec
 326 021c 211C      		adc r2,__zero_reg__
 327 021e 311C      		adc r3,__zero_reg__
 328               	.L28:
 329 0220 F101      		movw r30,r2
 330 0222 2081      		ld r18,Z
 331 0224 822F      		mov r24,r18
 332 0226 8053      		subi r24,lo8(-(-48))
 333 0228 8A30      		cpi r24,lo8(10)
GAS LISTING C:\Temp/cceMJOdu.s 			page 7


 334 022a 00F0      		brlo .L29
 335 022c 00C0      		rjmp .L89
 336               	.L27:
 337 022e F401      		movw r30,r8
 338 0230 BF8A      		std Y+23,r11
 339 0232 27E6      		ldi r18,lo8(103)
 340 0234 2B15      		cp r18,r11
 341 0236 00F0      		brlo .L39
 342 0238 35E6      		ldi r19,lo8(101)
 343 023a B316      		cp r11,r19
 344 023c 00F0      		brlo .+2
 345 023e 00C0      		rjmp .L31
 346 0240 40E5      		ldi r20,lo8(80)
 347 0242 B416      		cp r11,r20
 348 0244 01F0      		breq .L32
 349 0246 4B15      		cp r20,r11
 350 0248 00F0      		brlo .L40
 351 024a 85E4      		ldi r24,lo8(69)
 352 024c B816      		cp r11,r24
 353 024e 01F4      		brne .+2
 354 0250 00C0      		rjmp .L31
 355 0252 97E4      		ldi r25,lo8(71)
 356 0254 B916      		cp r11,r25
 357 0256 01F0      		breq .+2
 358 0258 00C0      		rjmp .L30
 359 025a 00C0      		rjmp .L31
 360               	.L40:
 361 025c A3E6      		ldi r26,lo8(99)
 362 025e BA16      		cp r11,r26
 363 0260 01F0      		breq .L34
 364 0262 AB15      		cp r26,r11
 365 0264 00F4      		brsh .+2
 366 0266 00C0      		rjmp .L35
 367 0268 B8E5      		ldi r27,lo8(88)
 368 026a BB16      		cp r11,r27
 369 026c 01F0      		breq .+2
 370 026e 00C0      		rjmp .L30
 371 0270 00C0      		rjmp .L33
 372               	.L39:
 373 0272 20E7      		ldi r18,lo8(112)
 374 0274 B216      		cp r11,r18
 375 0276 01F4      		brne .+2
 376 0278 00C0      		rjmp .L33
 377 027a 2B15      		cp r18,r11
 378 027c 00F0      		brlo .L41
 379 027e 39E6      		ldi r19,lo8(105)
 380 0280 B316      		cp r11,r19
 381 0282 01F4      		brne .+2
 382 0284 00C0      		rjmp .L35
 383 0286 4FE6      		ldi r20,lo8(111)
 384 0288 B416      		cp r11,r20
 385 028a 01F0      		breq .+2
 386 028c 00C0      		rjmp .L30
 387 028e 00C0      		rjmp .L96
 388               	.L41:
 389 0290 8F89      		ldd r24,Y+23
 390 0292 8537      		cpi r24,lo8(117)
GAS LISTING C:\Temp/cceMJOdu.s 			page 8


 391 0294 01F4      		brne .+2
 392 0296 00C0      		rjmp .L38
 393 0298 8837      		cpi r24,lo8(120)
 394 029a 01F4      		brne .+2
 395 029c 00C0      		rjmp .L33
 396 029e 8337      		cpi r24,lo8(115)
 397 02a0 01F0      		breq .+2
 398 02a2 00C0      		rjmp .L30
 399 02a4 00C0      		rjmp .L97
 400               	.L34:
 401 02a6 A2E0      		ldi r26,lo8(2)
 402 02a8 B0E0      		ldi r27,hi8(2)
 403 02aa 8A0E      		add r8,r26
 404 02ac 9B1E      		adc r9,r27
 405 02ae 8081      		ld r24,Z
 406 02b0 8A83      		std Y+2,r24
 407 02b2 1982      		std Y+1,__zero_reg__
 408 02b4 00C0      		rjmp .L94
 409               	.L32:
 410 02b6 22E0      		ldi r18,lo8(2)
 411 02b8 30E0      		ldi r19,hi8(2)
 412 02ba 820E      		add r8,r18
 413 02bc 931E      		adc r9,r19
 414 02be E080      		ld r14,Z
 415 02c0 F180      		ldd r15,Z+1
 416 02c2 E114      		cp r14,__zero_reg__
 417 02c4 F104      		cpc r15,__zero_reg__
 418 02c6 01F4      		brne .L43
 419 02c8 40E0      		ldi r20,lo8(.LC0)
 420 02ca C42E      		mov r12,r20
 421 02cc 40E0      		ldi r20,hi8(.LC0)
 422 02ce D42E      		mov r13,r20
 423 02d0 33E7      		ldi r19,lo8(115)
 424 02d2 3F8B      		std Y+23,r19
 425 02d4 00C0      		rjmp .L44
 426               	.L43:
 427 02d6 C701      		movw r24,r14
 428 02d8 0E94 0000 		call strlen_P
 429 02dc 0196      		adiw r24,1
 430 02de 0E94 0000 		call malloc
 431 02e2 182F      		mov r17,r24
 432 02e4 092F      		mov r16,r25
 433 02e6 B701      		movw r22,r14
 434 02e8 0E94 0000 		call strcpy_P
 435 02ec 212F      		mov r18,r17
 436 02ee 302F      		mov r19,r16
 437 02f0 C901      		movw r24,r18
 438 02f2 6C01      		movw r12,r24
 439 02f4 00C0      		rjmp .L45
 440               	.L97:
 441 02f6 82E0      		ldi r24,lo8(2)
 442 02f8 90E0      		ldi r25,hi8(2)
 443 02fa 880E      		add r8,r24
 444 02fc 991E      		adc r9,r25
 445 02fe C080      		ld r12,Z
 446 0300 D180      		ldd r13,Z+1
 447               	.L45:
GAS LISTING C:\Temp/cceMJOdu.s 			page 9


 448 0302 C114      		cp r12,__zero_reg__
 449 0304 D104      		cpc r13,__zero_reg__
 450 0306 01F4      		brne .L44
 451 0308 30E0      		ldi r19,lo8(.LC0)
 452 030a C32E      		mov r12,r19
 453 030c 30E0      		ldi r19,hi8(.LC0)
 454 030e D32E      		mov r13,r19
 455               	.L44:
 456 0310 77FC      		sbrc r7,7
 457 0312 00C0      		rjmp .L46
 458 0314 A301      		movw r20,r6
 459 0316 60E0      		ldi r22,lo8(0)
 460 0318 70E0      		ldi r23,hi8(0)
 461 031a C601      		movw r24,r12
 462 031c 0E94 0000 		call memchr
 463 0320 0097      		sbiw r24,0
 464 0322 01F0      		breq .L47
 465 0324 8C01      		movw r16,r24
 466 0326 0C19      		sub r16,r12
 467 0328 1D09      		sbc r17,r13
 468 032a 6016      		cp r6,r16
 469 032c 7106      		cpc r7,r17
 470 032e 04F0      		brlt .L47
 471 0330 00C0      		rjmp .L48
 472               	.L46:
 473 0332 D601      		movw r26,r12
 474 0334 0D90      		ld __tmp_reg__,X+
 475 0336 0020      		tst __tmp_reg__
 476 0338 01F4      		brne .-6
 477 033a 8D01      		movw r16,r26
 478 033c 0150      		subi r16,lo8(-(-1))
 479 033e 1040      		sbci r17,hi8(-(-1))
 480 0340 0C19      		sub r16,r12
 481 0342 1D09      		sbc r17,r13
 482 0344 00C0      		rjmp .L48
 483               	.L47:
 484 0346 8301      		movw r16,r6
 485               	.L48:
 486 0348 1982      		std Y+1,__zero_reg__
 487 034a EE24      		clr r14
 488 034c FF24      		clr r15
 489 034e 00C0      		rjmp .L42
 490               	.L38:
 491 0350 1982      		std Y+1,__zero_reg__
 492               	.L35:
 493 0352 BE89      		ldd r27,Y+22
 494 0354 B3FF      		sbrs r27,3
 495 0356 00C0      		rjmp .L49
 496 0358 24E0      		ldi r18,lo8(4)
 497 035a 30E0      		ldi r19,hi8(4)
 498 035c 820E      		add r8,r18
 499 035e 931E      		adc r9,r19
 500 0360 E080      		ld r14,Z
 501 0362 F180      		ldd r15,Z+1
 502 0364 0281      		ldd r16,Z+2
 503 0366 1381      		ldd r17,Z+3
 504 0368 00C0      		rjmp .L50
GAS LISTING C:\Temp/cceMJOdu.s 			page 10


 505               	.L49:
 506 036a C401      		movw r24,r8
 507 036c 0296      		adiw r24,2
 508 036e D401      		movw r26,r8
 509 0370 2D91      		ld r18,X+
 510 0372 3C91      		ld r19,X
 511 0374 B5E7      		ldi r27,lo8(117)
 512 0376 BB16      		cp r11,r27
 513 0378 01F4      		brne .L51
 514 037a 4C01      		movw r8,r24
 515 037c 7901      		movw r14,r18
 516 037e 00E0      		ldi r16,lo8(0)
 517 0380 10E0      		ldi r17,hi8(0)
 518 0382 00C0      		rjmp .L52
 519               	.L51:
 520 0384 4C01      		movw r8,r24
 521 0386 7901      		movw r14,r18
 522 0388 0027      		clr r16
 523 038a F7FC      		sbrc r15,7
 524 038c 0095      		com r16
 525 038e 102F      		mov r17,r16
 526               	.L50:
 527 0390 E5E7      		ldi r30,lo8(117)
 528 0392 BE16      		cp r11,r30
 529 0394 01F0      		breq .L52
 530 0396 17FF      		sbrs r17,7
 531 0398 00C0      		rjmp .L52
 532 039a 1095      		com r17
 533 039c 0095      		com r16
 534 039e F094      		com r15
 535 03a0 E094      		com r14
 536 03a2 E11C      		adc r14,__zero_reg__
 537 03a4 F11C      		adc r15,__zero_reg__
 538 03a6 011D      		adc r16,__zero_reg__
 539 03a8 111D      		adc r17,__zero_reg__
 540 03aa FDE2      		ldi r31,lo8(45)
 541 03ac F983      		std Y+1,r31
 542               	.L52:
 543 03ae 77FC      		sbrc r7,7
 544 03b0 00C0      		rjmp .L53
 545 03b2 2E89      		ldd r18,Y+22
 546 03b4 2F7E      		andi r18,lo8(-17)
 547 03b6 2E8B      		std Y+22,r18
 548               	.L53:
 549 03b8 E114      		cp r14,__zero_reg__
 550 03ba F104      		cpc r15,__zero_reg__
 551 03bc 0105      		cpc r16,__zero_reg__
 552 03be 1105      		cpc r17,__zero_reg__
 553 03c0 01F4      		brne .L54
 554 03c2 6114      		cp r6,__zero_reg__
 555 03c4 7104      		cpc r7,__zero_reg__
 556 03c6 01F4      		brne .L55
 557 03c8 22E1      		ldi r18,lo8(18)
 558 03ca C22E      		mov r12,r18
 559 03cc D12C      		mov r13,__zero_reg__
 560 03ce CC0E      		add r12,r28
 561 03d0 DD1E      		adc r13,r29
GAS LISTING C:\Temp/cceMJOdu.s 			page 11


 562 03d2 00C0      		rjmp .L56
 563               	.L54:
 564 03d4 3AE0      		ldi r19,lo8(10)
 565 03d6 E316      		cp r14,r19
 566 03d8 F104      		cpc r15,__zero_reg__
 567 03da 0105      		cpc r16,__zero_reg__
 568 03dc 1105      		cpc r17,__zero_reg__
 569 03de 00F4      		brsh .L57
 570               	.L55:
 571 03e0 91E1      		ldi r25,lo8(17)
 572 03e2 C92E      		mov r12,r25
 573 03e4 D12C      		mov r13,__zero_reg__
 574 03e6 CC0E      		add r12,r28
 575 03e8 DD1E      		adc r13,r29
 576 03ea 8E2D      		mov r24,r14
 577 03ec 805D      		subi r24,lo8(-(48))
 578 03ee 898B      		std Y+17,r24
 579 03f0 00C0      		rjmp .L56
 580               	.L57:
 581 03f2 82E1      		ldi r24,lo8(18)
 582 03f4 C82E      		mov r12,r24
 583 03f6 D12C      		mov r13,__zero_reg__
 584 03f8 CC0E      		add r12,r28
 585 03fa DD1E      		adc r13,r29
 586               	.L58:
 587 03fc C801      		movw r24,r16
 588 03fe B701      		movw r22,r14
 589 0400 2AE0      		ldi r18,lo8(10)
 590 0402 30E0      		ldi r19,hi8(10)
 591 0404 40E0      		ldi r20,hlo8(10)
 592 0406 50E0      		ldi r21,hhi8(10)
 593 0408 0E94 0000 		call __udivmodsi4
 594 040c 605D      		subi r22,lo8(-(48))
 595 040e D601      		movw r26,r12
 596 0410 6E93      		st -X,r22
 597 0412 6D01      		movw r12,r26
 598 0414 C801      		movw r24,r16
 599 0416 B701      		movw r22,r14
 600 0418 2AE0      		ldi r18,lo8(10)
 601 041a 30E0      		ldi r19,hi8(10)
 602 041c 40E0      		ldi r20,hlo8(10)
 603 041e 50E0      		ldi r21,hhi8(10)
 604 0420 0E94 0000 		call __udivmodsi4
 605 0424 C901      		movw r24,r18
 606 0426 DA01      		movw r26,r20
 607 0428 7C01      		movw r14,r24
 608 042a 8D01      		movw r16,r26
 609 042c E114      		cp r14,__zero_reg__
 610 042e F104      		cpc r15,__zero_reg__
 611 0430 0105      		cpc r16,__zero_reg__
 612 0432 1105      		cpc r17,__zero_reg__
 613 0434 01F4      		brne .L58
 614               	.L56:
 615 0436 0C8D      		ldd r16,Y+28
 616 0438 1D8D      		ldd r17,Y+29
 617 043a 0C19      		sub r16,r12
 618 043c 1D09      		sbc r17,r13
GAS LISTING C:\Temp/cceMJOdu.s 			page 12


 619 043e BF8A      		std Y+23,r11
 620 0440 00C0      		rjmp .L95
 621               	.L96:
 622 0442 BE89      		ldd r27,Y+22
 623 0444 B3FF      		sbrs r27,3
 624 0446 00C0      		rjmp .L59
 625 0448 24E0      		ldi r18,lo8(4)
 626 044a 30E0      		ldi r19,hi8(4)
 627 044c 820E      		add r8,r18
 628 044e 931E      		adc r9,r19
 629 0450 6081      		ld r22,Z
 630 0452 7181      		ldd r23,Z+1
 631 0454 8281      		ldd r24,Z+2
 632 0456 9381      		ldd r25,Z+3
 633 0458 00C0      		rjmp .L60
 634               	.L59:
 635 045a 82E0      		ldi r24,lo8(2)
 636 045c 90E0      		ldi r25,hi8(2)
 637 045e 880E      		add r8,r24
 638 0460 991E      		adc r9,r25
 639 0462 8081      		ld r24,Z
 640 0464 9181      		ldd r25,Z+1
 641 0466 BC01      		movw r22,r24
 642 0468 80E0      		ldi r24,lo8(0)
 643 046a 90E0      		ldi r25,hi8(0)
 644               	.L60:
 645 046c 1982      		std Y+1,__zero_reg__
 646 046e 77FC      		sbrc r7,7
 647 0470 00C0      		rjmp .L61
 648 0472 AE89      		ldd r26,Y+22
 649 0474 AF7E      		andi r26,lo8(-17)
 650 0476 AE8B      		std Y+22,r26
 651               	.L61:
 652 0478 6115      		cp r22,__zero_reg__
 653 047a 7105      		cpc r23,__zero_reg__
 654 047c 8105      		cpc r24,__zero_reg__
 655 047e 9105      		cpc r25,__zero_reg__
 656 0480 01F4      		brne .L62
 657 0482 6114      		cp r6,__zero_reg__
 658 0484 7104      		cpc r7,__zero_reg__
 659 0486 01F4      		brne .L62
 660 0488 B2E1      		ldi r27,lo8(18)
 661 048a CB2E      		mov r12,r27
 662 048c D12C      		mov r13,__zero_reg__
 663 048e CC0E      		add r12,r28
 664 0490 DD1E      		adc r13,r29
 665 0492 00C0      		rjmp .L63
 666               	.L62:
 667 0494 A2E1      		ldi r26,lo8(18)
 668 0496 CA2E      		mov r12,r26
 669 0498 D12C      		mov r13,__zero_reg__
 670 049a CC0E      		add r12,r28
 671 049c DD1E      		adc r13,r29
 672               	.L64:
 673 049e 262F      		mov r18,r22
 674 04a0 2770      		andi r18,lo8(7)
 675 04a2 205D      		subi r18,lo8(-(48))
GAS LISTING C:\Temp/cceMJOdu.s 			page 13


 676 04a4 F601      		movw r30,r12
 677 04a6 2293      		st -Z,r18
 678 04a8 6F01      		movw r12,r30
 679 04aa F3E0      		ldi r31,3
 680 04ac 9695      	1:	lsr r25
 681 04ae 8795      		ror r24
 682 04b0 7795      		ror r23
 683 04b2 6795      		ror r22
 684 04b4 FA95      		dec r31
 685 04b6 01F4      		brne 1b
 686 04b8 6115      		cp r22,__zero_reg__
 687 04ba 7105      		cpc r23,__zero_reg__
 688 04bc 8105      		cpc r24,__zero_reg__
 689 04be 9105      		cpc r25,__zero_reg__
 690 04c0 01F4      		brne .L64
 691 04c2 FE89      		ldd r31,Y+22
 692 04c4 F0FF      		sbrs r31,0
 693 04c6 00C0      		rjmp .L63
 694 04c8 2033      		cpi r18,lo8(48)
 695 04ca 01F0      		breq .L63
 696 04cc D601      		movw r26,r12
 697 04ce E0E3      		ldi r30,lo8(48)
 698 04d0 EE93      		st -X,r30
 699 04d2 6D01      		movw r12,r26
 700               	.L63:
 701 04d4 0C8D      		ldd r16,Y+28
 702 04d6 1D8D      		ldd r17,Y+29
 703 04d8 0C19      		sub r16,r12
 704 04da 1D09      		sbc r17,r13
 705 04dc FFE6      		ldi r31,lo8(111)
 706 04de FF8B      		std Y+23,r31
 707 04e0 00C0      		rjmp .L95
 708               	.L33:
 709 04e2 20E7      		ldi r18,lo8(112)
 710 04e4 B216      		cp r11,r18
 711 04e6 01F4      		brne .L65
 712 04e8 82E0      		ldi r24,lo8(2)
 713 04ea 90E0      		ldi r25,hi8(2)
 714 04ec 880E      		add r8,r24
 715 04ee 991E      		adc r9,r25
 716 04f0 8081      		ld r24,Z
 717 04f2 9181      		ldd r25,Z+1
 718 04f4 9C01      		movw r18,r24
 719 04f6 40E0      		ldi r20,lo8(0)
 720 04f8 50E0      		ldi r21,hi8(0)
 721 04fa 9E89      		ldd r25,Y+22
 722 04fc 9160      		ori r25,lo8(1)
 723 04fe 9E8B      		std Y+22,r25
 724 0500 A8E7      		ldi r26,lo8(120)
 725 0502 AF8B      		std Y+23,r26
 726 0504 00C0      		rjmp .L66
 727               	.L65:
 728 0506 BE89      		ldd r27,Y+22
 729 0508 B3FF      		sbrs r27,3
 730 050a 00C0      		rjmp .L67
 731 050c 24E0      		ldi r18,lo8(4)
 732 050e 30E0      		ldi r19,hi8(4)
GAS LISTING C:\Temp/cceMJOdu.s 			page 14


 733 0510 820E      		add r8,r18
 734 0512 931E      		adc r9,r19
 735 0514 2081      		ld r18,Z
 736 0516 3181      		ldd r19,Z+1
 737 0518 4281      		ldd r20,Z+2
 738 051a 5381      		ldd r21,Z+3
 739 051c 00C0      		rjmp .L93
 740               	.L67:
 741 051e 82E0      		ldi r24,lo8(2)
 742 0520 90E0      		ldi r25,hi8(2)
 743 0522 880E      		add r8,r24
 744 0524 991E      		adc r9,r25
 745 0526 8081      		ld r24,Z
 746 0528 9181      		ldd r25,Z+1
 747 052a 9C01      		movw r18,r24
 748 052c 40E0      		ldi r20,lo8(0)
 749 052e 50E0      		ldi r21,hi8(0)
 750               	.L93:
 751 0530 BF8A      		std Y+23,r11
 752               	.L66:
 753 0532 77FC      		sbrc r7,7
 754 0534 00C0      		rjmp .L68
 755 0536 9E89      		ldd r25,Y+22
 756 0538 9F7E      		andi r25,lo8(-17)
 757 053a 9E8B      		std Y+22,r25
 758               	.L68:
 759 053c AF89      		ldd r26,Y+23
 760 053e A835      		cpi r26,lo8(88)
 761 0540 01F0      		breq .L69
 762 0542 60E0      		ldi r22,lo8(.LC1)
 763 0544 70E0      		ldi r23,hi8(.LC1)
 764 0546 00C0      		rjmp .L70
 765               	.L69:
 766 0548 60E0      		ldi r22,lo8(.LC2)
 767 054a 70E0      		ldi r23,hi8(.LC2)
 768               	.L70:
 769 054c 1982      		std Y+1,__zero_reg__
 770 054e E2E1      		ldi r30,lo8(18)
 771 0550 CE2E      		mov r12,r30
 772 0552 D12C      		mov r13,__zero_reg__
 773 0554 CC0E      		add r12,r28
 774 0556 DD1E      		adc r13,r29
 775               	.L71:
 776 0558 F901      		movw r30,r18
 777 055a EF70      		andi r30,lo8(15)
 778 055c F070      		andi r31,hi8(15)
 779 055e E60F      		add r30,r22
 780 0560 F71F      		adc r31,r23
 781 0562 8081      		ld r24,Z
 782 0564 F601      		movw r30,r12
 783 0566 8293      		st -Z,r24
 784 0568 6F01      		movw r12,r30
 785 056a 94E0      		ldi r25,4
 786 056c 5695      	1:	lsr r21
 787 056e 4795      		ror r20
 788 0570 3795      		ror r19
 789 0572 2795      		ror r18
GAS LISTING C:\Temp/cceMJOdu.s 			page 15


 790 0574 9A95      		dec r25
 791 0576 01F4      		brne 1b
 792 0578 2115      		cp r18,__zero_reg__
 793 057a 3105      		cpc r19,__zero_reg__
 794 057c 4105      		cpc r20,__zero_reg__
 795 057e 5105      		cpc r21,__zero_reg__
 796 0580 01F4      		brne .L71
 797 0582 FE89      		ldd r31,Y+22
 798 0584 F0FF      		sbrs r31,0
 799 0586 00C0      		rjmp .L72
 800 0588 D601      		movw r26,r12
 801 058a EF89      		ldd r30,Y+23
 802 058c EE93      		st -X,r30
 803 058e E0E3      		ldi r30,lo8(48)
 804 0590 EE93      		st -X,r30
 805 0592 6D01      		movw r12,r26
 806               	.L72:
 807 0594 0C8D      		ldd r16,Y+28
 808 0596 1D8D      		ldd r17,Y+29
 809 0598 0C19      		sub r16,r12
 810 059a 1D09      		sbc r17,r13
 811               	.L95:
 812 059c 7301      		movw r14,r6
 813 059e 00C0      		rjmp .L42
 814               	.L31:
 815 05a0 24E0      		ldi r18,lo8(4)
 816 05a2 30E0      		ldi r19,hi8(4)
 817 05a4 820E      		add r8,r18
 818 05a6 931E      		adc r9,r19
 819               	.L30:
 820 05a8 BB20      		tst r11
 821 05aa 01F4      		brne .+2
 822 05ac 00C0      		rjmp .L11
 823 05ae BA82      		std Y+2,r11
 824 05b0 1982      		std Y+1,__zero_reg__
 825 05b2 BF8A      		std Y+23,r11
 826               	.L94:
 827 05b4 82E0      		ldi r24,lo8(2)
 828 05b6 C82E      		mov r12,r24
 829 05b8 D12C      		mov r13,__zero_reg__
 830 05ba CC0E      		add r12,r28
 831 05bc DD1E      		adc r13,r29
 832 05be EE24      		clr r14
 833 05c0 FF24      		clr r15
 834 05c2 01E0      		ldi r16,lo8(1)
 835 05c4 10E0      		ldi r17,hi8(1)
 836               	.L42:
 837 05c6 5801      		movw r10,r16
 838 05c8 0E15      		cp r16,r14
 839 05ca 1F05      		cpc r17,r15
 840 05cc 04F4      		brge .L73
 841 05ce 5701      		movw r10,r14
 842               	.L73:
 843 05d0 8981      		ldd r24,Y+1
 844 05d2 8823      		tst r24
 845 05d4 01F0      		breq .L74
 846 05d6 0894      		sec
GAS LISTING C:\Temp/cceMJOdu.s 			page 16


 847 05d8 A11C      		adc r10,__zero_reg__
 848 05da B11C      		adc r11,__zero_reg__
 849               	.L74:
 850 05dc 9E89      		ldd r25,Y+22
 851 05de 892F      		mov r24,r25
 852 05e0 90E0      		ldi r25,lo8(0)
 853 05e2 9B8B      		std Y+19,r25
 854 05e4 8A8B      		std Y+18,r24
 855 05e6 3C01      		movw r6,r24
 856 05e8 A4E1      		ldi r26,lo8(20)
 857 05ea 6A22      		and r6,r26
 858 05ec 7724      		clr r7
 859 05ee 6114      		cp r6,__zero_reg__
 860 05f0 7104      		cpc r7,__zero_reg__
 861 05f2 01F4      		brne .L75
 862 05f4 9201      		movw r18,r4
 863 05f6 2A19      		sub r18,r10
 864 05f8 3B09      		sbc r19,r11
 865 05fa 40E0      		ldi r20,lo8(blanks)
 866 05fc 50E0      		ldi r21,hi8(blanks)
 867 05fe 6A8D      		ldd r22,Y+26
 868 0600 7B8D      		ldd r23,Y+27
 869 0602 888D      		ldd r24,Y+24
 870 0604 998D      		ldd r25,Y+25
 871 0606 0E94 0000 		call _putpad
 872               	.L75:
 873 060a 8981      		ldd r24,Y+1
 874 060c 8823      		tst r24
 875 060e 01F0      		breq .L76
 876 0610 41E0      		ldi r20,lo8(1)
 877 0612 50E0      		ldi r21,hi8(1)
 878 0614 BE01      		movw r22,r28
 879 0616 6F5F      		subi r22,lo8(-(1))
 880 0618 7F4F      		sbci r23,hi8(-(1))
 881 061a 8A8D      		ldd r24,Y+26
 882 061c 9B8D      		ldd r25,Y+27
 883 061e E88D      		ldd r30,Y+24
 884 0620 F98D      		ldd r31,Y+25
 885 0622 0995      		icall
 886               	.L76:
 887 0624 F0E1      		ldi r31,lo8(16)
 888 0626 6F16      		cp r6,r31
 889 0628 7104      		cpc r7,__zero_reg__
 890 062a 01F4      		brne .L77
 891 062c 9201      		movw r18,r4
 892 062e 2A19      		sub r18,r10
 893 0630 3B09      		sbc r19,r11
 894 0632 40E0      		ldi r20,lo8(zeroes)
 895 0634 50E0      		ldi r21,hi8(zeroes)
 896 0636 6A8D      		ldd r22,Y+26
 897 0638 7B8D      		ldd r23,Y+27
 898 063a 888D      		ldd r24,Y+24
 899 063c 998D      		ldd r25,Y+25
 900 063e 0E94 0000 		call _putpad
 901               	.L77:
 902 0642 E01A      		sub r14,r16
 903 0644 F10A      		sbc r15,r17
GAS LISTING C:\Temp/cceMJOdu.s 			page 17


 904 0646 9701      		movw r18,r14
 905 0648 40E0      		ldi r20,lo8(zeroes)
 906 064a 50E0      		ldi r21,hi8(zeroes)
 907 064c 6A8D      		ldd r22,Y+26
 908 064e 7B8D      		ldd r23,Y+27
 909 0650 888D      		ldd r24,Y+24
 910 0652 998D      		ldd r25,Y+25
 911 0654 0E94 0000 		call _putpad
 912 0658 0115      		cp r16,__zero_reg__
 913 065a 1105      		cpc r17,__zero_reg__
 914 065c 01F0      		breq .L78
 915 065e A801      		movw r20,r16
 916 0660 B601      		movw r22,r12
 917 0662 8A8D      		ldd r24,Y+26
 918 0664 9B8D      		ldd r25,Y+27
 919 0666 288D      		ldd r18,Y+24
 920 0668 398D      		ldd r19,Y+25
 921 066a F901      		movw r30,r18
 922 066c 0995      		icall
 923               	.L78:
 924 066e 3F89      		ldd r19,Y+23
 925 0670 3035      		cpi r19,lo8(80)
 926 0672 01F4      		brne .L79
 927 0674 C601      		movw r24,r12
 928 0676 0E94 0000 		call free
 929               	.L79:
 930 067a 4A89      		ldd r20,Y+18
 931 067c 42FF      		sbrs r20,2
 932 067e 00C0      		rjmp .L80
 933 0680 9201      		movw r18,r4
 934 0682 2A19      		sub r18,r10
 935 0684 3B09      		sbc r19,r11
 936 0686 40E0      		ldi r20,lo8(blanks)
 937 0688 50E0      		ldi r21,hi8(blanks)
 938 068a 6A8D      		ldd r22,Y+26
 939 068c 7B8D      		ldd r23,Y+27
 940 068e 888D      		ldd r24,Y+24
 941 0690 998D      		ldd r25,Y+25
 942 0692 0E94 0000 		call _putpad
 943               	.L80:
 944 0696 4A14      		cp r4,r10
 945 0698 5B04      		cpc r5,r11
 946 069a 04F0      		brlt .L81
 947 069c 8C89      		ldd r24,Y+20
 948 069e 9D89      		ldd r25,Y+21
 949 06a0 840D      		add r24,r4
 950 06a2 951D      		adc r25,r5
 951 06a4 9D8B      		std Y+21,r25
 952 06a6 8C8B      		std Y+20,r24
 953 06a8 00C0      		rjmp .L90
 954               	.L81:
 955 06aa AC89      		ldd r26,Y+20
 956 06ac BD89      		ldd r27,Y+21
 957 06ae AA0D      		add r26,r10
 958 06b0 BB1D      		adc r27,r11
 959 06b2 BD8B      		std Y+21,r27
 960 06b4 AC8B      		std Y+20,r26
GAS LISTING C:\Temp/cceMJOdu.s 			page 18


 961 06b6 00C0      		rjmp .L90
 962               	.L11:
 963 06b8 8C89      		ldd r24,Y+20
 964 06ba 9D89      		ldd r25,Y+21
 965               	/* epilogue start */
 966 06bc 6D96      		adiw r28,29
 967 06be 0FB6      		in __tmp_reg__,__SREG__
 968 06c0 F894      		cli
 969 06c2 DEBF      		out __SP_H__,r29
 970 06c4 0FBE      		out __SREG__,__tmp_reg__
 971 06c6 CDBF      		out __SP_L__,r28
 972 06c8 CF91      		pop r28
 973 06ca DF91      		pop r29
 974 06cc 1F91      		pop r17
 975 06ce 0F91      		pop r16
 976 06d0 FF90      		pop r15
 977 06d2 EF90      		pop r14
 978 06d4 DF90      		pop r13
 979 06d6 CF90      		pop r12
 980 06d8 BF90      		pop r11
 981 06da AF90      		pop r10
 982 06dc 9F90      		pop r9
 983 06de 8F90      		pop r8
 984 06e0 7F90      		pop r7
 985 06e2 6F90      		pop r6
 986 06e4 5F90      		pop r5
 987 06e6 4F90      		pop r4
 988 06e8 3F90      		pop r3
 989 06ea 2F90      		pop r2
 990 06ec 0895      		ret
 991               		.size	_putf, .-_putf
 992               		.data
 993               		.type	blanks, @object
 994               		.size	blanks, 16
 995               	blanks:
 996 0029 20        		.byte	32
 997 002a 20        		.byte	32
 998 002b 20        		.byte	32
 999 002c 20        		.byte	32
 1000 002d 20        		.byte	32
 1001 002e 20        		.byte	32
 1002 002f 20        		.byte	32
 1003 0030 20        		.byte	32
 1004 0031 20        		.byte	32
 1005 0032 20        		.byte	32
 1006 0033 20        		.byte	32
 1007 0034 20        		.byte	32
 1008 0035 20        		.byte	32
 1009 0036 20        		.byte	32
 1010 0037 20        		.byte	32
 1011 0038 20        		.byte	32
 1012               		.type	zeroes, @object
 1013               		.size	zeroes, 16
 1014               	zeroes:
 1015 0039 30        		.byte	48
 1016 003a 30        		.byte	48
 1017 003b 30        		.byte	48
GAS LISTING C:\Temp/cceMJOdu.s 			page 19


 1018 003c 30        		.byte	48
 1019 003d 30        		.byte	48
 1020 003e 30        		.byte	48
 1021 003f 30        		.byte	48
 1022 0040 30        		.byte	48
 1023 0041 30        		.byte	48
 1024 0042 30        		.byte	48
 1025 0043 30        		.byte	48
 1026 0044 30        		.byte	48
 1027 0045 30        		.byte	48
 1028 0046 30        		.byte	48
 1029 0047 30        		.byte	48
 1030 0048 30        		.byte	48
GAS LISTING C:\Temp/cceMJOdu.s 			page 20


DEFINED SYMBOLS
                            *ABS*:00000000 putf.c
  C:\Temp/cceMJOdu.s:2      *ABS*:0000003f __SREG__
  C:\Temp/cceMJOdu.s:3      *ABS*:0000003e __SP_H__
  C:\Temp/cceMJOdu.s:4      *ABS*:0000003d __SP_L__
  C:\Temp/cceMJOdu.s:5      *ABS*:00000034 __CCP__
  C:\Temp/cceMJOdu.s:6      *ABS*:00000000 __tmp_reg__
  C:\Temp/cceMJOdu.s:7      *ABS*:00000001 __zero_reg__
  C:\Temp/cceMJOdu.s:12     .text:00000000 _putpad
  C:\Temp/cceMJOdu.s:70     .text:00000050 _putf
  C:\Temp/cceMJOdu.s:995    .data:00000029 blanks
  C:\Temp/cceMJOdu.s:1014   .data:00000039 zeroes

UNDEFINED SYMBOLS
__do_copy_data
__do_clear_bss
strlen_P
malloc
strcpy_P
memchr
__udivmodsi4
free
