GAS LISTING C:\Temp/ccGyfq3q.s 			page 1


   1               		.file	"vsprintf_p.c"
   2               	__SREG__ = 0x3f
   3               	__SP_H__ = 0x3e
   4               	__SP_L__ = 0x3d
   5               	__CCP__  = 0x34
   6               	__tmp_reg__ = 0
   7               	__zero_reg__ = 1
   8               		.global __do_copy_data
   9               		.global __do_clear_bss
  10               		.text
  11               	.global	vsprintf_P
  12               		.type	vsprintf_P, @function
  13               	vsprintf_P:
  14 0000 AF92      		push r10
  15 0002 BF92      		push r11
  16 0004 CF92      		push r12
  17 0006 DF92      		push r13
  18 0008 EF92      		push r14
  19 000a FF92      		push r15
  20 000c 0F93      		push r16
  21 000e 1F93      		push r17
  22 0010 DF93      		push r29
  23 0012 CF93      		push r28
  24 0014 00D0      		rcall .
  25 0016 CDB7      		in r28,__SP_L__
  26 0018 DEB7      		in r29,__SP_H__
  27               	/* prologue: function */
  28               	/* frame size = 2 */
  29 001a 9A83      		std Y+2,r25
  30 001c 8983      		std Y+1,r24
  31 001e 6B01      		movw r12,r22
  32 0020 5A01      		movw r10,r20
  33 0022 CB01      		movw r24,r22
  34 0024 0E94 0000 		call strlen_P
  35 0028 7C01      		movw r14,r24
  36 002a 0894      		sec
  37 002c E11C      		adc r14,__zero_reg__
  38 002e F11C      		adc r15,__zero_reg__
  39 0030 B701      		movw r22,r14
  40 0032 80E0      		ldi r24,lo8(heapFreeList)
  41 0034 90E0      		ldi r25,hi8(heapFreeList)
  42 0036 0E94 0000 		call NutHeapRootAlloc
  43 003a 8C01      		movw r16,r24
  44 003c 0097      		sbiw r24,0
  45 003e 01F4      		brne .L2
  46 0040 EE24      		clr r14
  47 0042 EA94      		dec r14
  48 0044 FE2C      		mov r15,r14
  49 0046 00C0      		rjmp .L3
  50               	.L2:
  51 0048 A701      		movw r20,r14
  52 004a B601      		movw r22,r12
  53 004c 0E94 0000 		call memcpy_P
  54 0050 9501      		movw r18,r10
  55 0052 A801      		movw r20,r16
  56 0054 BE01      		movw r22,r28
  57 0056 6F5F      		subi r22,lo8(-(1))
GAS LISTING C:\Temp/ccGyfq3q.s 			page 2


  58 0058 7F4F      		sbci r23,hi8(-(1))
  59 005a 80E0      		ldi r24,lo8(gs(_sputb))
  60 005c 90E0      		ldi r25,hi8(gs(_sputb))
  61 005e 0E94 0000 		call _putf
  62 0062 7C01      		movw r14,r24
  63 0064 B801      		movw r22,r16
  64 0066 80E0      		ldi r24,lo8(heapFreeList)
  65 0068 90E0      		ldi r25,hi8(heapFreeList)
  66 006a 0E94 0000 		call NutHeapRootFree
  67 006e E981      		ldd r30,Y+1
  68 0070 FA81      		ldd r31,Y+2
  69 0072 1082      		st Z,__zero_reg__
  70               	.L3:
  71 0074 C701      		movw r24,r14
  72               	/* epilogue start */
  73 0076 0F90      		pop __tmp_reg__
  74 0078 0F90      		pop __tmp_reg__
  75 007a CF91      		pop r28
  76 007c DF91      		pop r29
  77 007e 1F91      		pop r17
  78 0080 0F91      		pop r16
  79 0082 FF90      		pop r15
  80 0084 EF90      		pop r14
  81 0086 DF90      		pop r13
  82 0088 CF90      		pop r12
  83 008a BF90      		pop r11
  84 008c AF90      		pop r10
  85 008e 0895      		ret
  86               		.size	vsprintf_P, .-vsprintf_P
  87               		.type	_sputb, @function
  88               	_sputb:
  89 0090 EF92      		push r14
  90 0092 FF92      		push r15
  91 0094 0F93      		push r16
  92 0096 1F93      		push r17
  93               	/* prologue: function */
  94               	/* frame size = 0 */
  95 0098 7A01      		movw r14,r20
  96 009a 8C01      		movw r16,r24
  97 009c FC01      		movw r30,r24
  98 009e 8081      		ld r24,Z
  99 00a0 9181      		ldd r25,Z+1
 100 00a2 0E94 0000 		call memcpy
 101 00a6 F801      		movw r30,r16
 102 00a8 8081      		ld r24,Z
 103 00aa 9181      		ldd r25,Z+1
 104 00ac 8E0D      		add r24,r14
 105 00ae 9F1D      		adc r25,r15
 106 00b0 9183      		std Z+1,r25
 107 00b2 8083      		st Z,r24
 108 00b4 C701      		movw r24,r14
 109               	/* epilogue start */
 110 00b6 1F91      		pop r17
 111 00b8 0F91      		pop r16
 112 00ba FF90      		pop r15
 113 00bc EF90      		pop r14
 114 00be 0895      		ret
GAS LISTING C:\Temp/ccGyfq3q.s 			page 3


 115               		.size	_sputb, .-_sputb
GAS LISTING C:\Temp/ccGyfq3q.s 			page 4


DEFINED SYMBOLS
                            *ABS*:00000000 vsprintf_p.c
  C:\Temp/ccGyfq3q.s:2      *ABS*:0000003f __SREG__
  C:\Temp/ccGyfq3q.s:3      *ABS*:0000003e __SP_H__
  C:\Temp/ccGyfq3q.s:4      *ABS*:0000003d __SP_L__
  C:\Temp/ccGyfq3q.s:5      *ABS*:00000034 __CCP__
  C:\Temp/ccGyfq3q.s:6      *ABS*:00000000 __tmp_reg__
  C:\Temp/ccGyfq3q.s:7      *ABS*:00000001 __zero_reg__
  C:\Temp/ccGyfq3q.s:13     .text:00000000 vsprintf_P
  C:\Temp/ccGyfq3q.s:88     .text:00000090 _sputb

UNDEFINED SYMBOLS
__do_copy_data
__do_clear_bss
strlen_P
heapFreeList
NutHeapRootAlloc
memcpy_P
_putf
NutHeapRootFree
memcpy
