GAS LISTING C:\DOCUME~1\ADMINI~1\LOCALS~1\Temp/ccXJuB6S.s 			page 1


   1               		.file	"edline.c"
   2               	__SREG__ = 0x3f
   3               	__SP_H__ = 0x3e
   4               	__SP_L__ = 0x3d
   5               	__CCP__  = 0x34
   6               	__tmp_reg__ = 0
   7               	__zero_reg__ = 1
   8               		.text
   9               	.global	EdLineRegisterInput
  10               		.type	EdLineRegisterInput, @function
  11               	EdLineRegisterInput:
  12               	/* prologue: function */
  13               	/* frame size = 0 */
  14 0000 FC01      		movw r30,r24
  15 0002 6115      		cp r22,__zero_reg__
  16 0004 7105      		cpc r23,__zero_reg__
  17 0006 01F0      		breq .L2
  18 0008 7183      		std Z+1,r23
  19 000a 6083      		st Z,r22
  20 000c 00C0      		rjmp .L3
  21               	.L2:
  22 000e 80E0      		ldi r24,lo8(gs(EdLineGetChar))
  23 0010 90E0      		ldi r25,hi8(gs(EdLineGetChar))
  24 0012 9183      		std Z+1,r25
  25 0014 8083      		st Z,r24
  26               	.L3:
  27 0016 5383      		std Z+3,r21
  28 0018 4283      		std Z+2,r20
  29               	/* epilogue start */
  30 001a 0895      		ret
  31               		.size	EdLineRegisterInput, .-EdLineRegisterInput
  32               	.global	EdLineRegisterOutput
  33               		.type	EdLineRegisterOutput, @function
  34               	EdLineRegisterOutput:
  35               	/* prologue: function */
  36               	/* frame size = 0 */
  37 001c FC01      		movw r30,r24
  38 001e 6115      		cp r22,__zero_reg__
  39 0020 7105      		cpc r23,__zero_reg__
  40 0022 01F0      		breq .L6
  41 0024 7583      		std Z+5,r23
  42 0026 6483      		std Z+4,r22
  43 0028 00C0      		rjmp .L7
  44               	.L6:
  45 002a 80E0      		ldi r24,lo8(gs(EdLinePutChar))
  46 002c 90E0      		ldi r25,hi8(gs(EdLinePutChar))
  47 002e 9583      		std Z+5,r25
  48 0030 8483      		std Z+4,r24
  49               	.L7:
  50 0032 5783      		std Z+7,r21
  51 0034 4683      		std Z+6,r20
  52               	/* epilogue start */
  53 0036 0895      		ret
  54               		.size	EdLineRegisterOutput, .-EdLineRegisterOutput
  55               	.global	EdLineKeyMap
  56               		.type	EdLineKeyMap, @function
  57               	EdLineKeyMap:
GAS LISTING C:\DOCUME~1\ADMINI~1\LOCALS~1\Temp/ccXJuB6S.s 			page 2


  58               	/* prologue: function */
  59               	/* frame size = 0 */
  60 0038 9C01      		movw r18,r24
  61 003a FB01      		movw r30,r22
  62 003c 8D30      		cpi r24,13
  63 003e 9105      		cpc r25,__zero_reg__
  64 0040 01F4      		brne .L10
  65 0042 8FEF      		ldi r24,lo8(-1)
  66 0044 9FEF      		ldi r25,hi8(-1)
  67 0046 9183      		std Z+1,r25
  68 0048 8083      		st Z,r24
  69 004a 2AE0      		ldi r18,lo8(10)
  70 004c 30E0      		ldi r19,hi8(10)
  71 004e 00C0      		rjmp .L11
  72               	.L10:
  73 0050 8A30      		cpi r24,10
  74 0052 9105      		cpc r25,__zero_reg__
  75 0054 01F4      		brne .L12
  76 0056 8081      		ld r24,Z
  77 0058 9181      		ldd r25,Z+1
  78 005a 97FF      		sbrs r25,7
  79 005c 00C0      		rjmp .L12
  80 005e 20E0      		ldi r18,lo8(0)
  81 0060 30E0      		ldi r19,hi8(0)
  82               	.L12:
  83 0062 1182      		std Z+1,__zero_reg__
  84 0064 1082      		st Z,__zero_reg__
  85               	.L11:
  86 0066 C901      		movw r24,r18
  87               	/* epilogue start */
  88 0068 0895      		ret
  89               		.size	EdLineKeyMap, .-EdLineKeyMap
  90               	.global	EdLineRegisterKeymap
  91               		.type	EdLineRegisterKeymap, @function
  92               	EdLineRegisterKeymap:
  93               	/* prologue: function */
  94               	/* frame size = 0 */
  95 006a FC01      		movw r30,r24
  96 006c 6115      		cp r22,__zero_reg__
  97 006e 7105      		cpc r23,__zero_reg__
  98 0070 01F0      		breq .L15
  99 0072 7187      		std Z+9,r23
 100 0074 6087      		std Z+8,r22
 101 0076 0895      		ret
 102               	.L15:
 103 0078 80E0      		ldi r24,lo8(gs(EdLineKeyMap))
 104 007a 90E0      		ldi r25,hi8(gs(EdLineKeyMap))
 105 007c 9187      		std Z+9,r25
 106 007e 8087      		std Z+8,r24
 107 0080 0895      		ret
 108               		.size	EdLineRegisterKeymap, .-EdLineRegisterKeymap
 109               		.type	PrintString, @function
 110               	PrintString:
 111 0082 0F93      		push r16
 112 0084 1F93      		push r17
 113 0086 CF93      		push r28
 114 0088 DF93      		push r29
GAS LISTING C:\DOCUME~1\ADMINI~1\LOCALS~1\Temp/ccXJuB6S.s 			page 3


 115               	/* prologue: function */
 116               	/* frame size = 0 */
 117 008a 8C01      		movw r16,r24
 118 008c EB01      		movw r28,r22
 119 008e 00C0      		rjmp .L19
 120               	.L20:
 121 0090 7727      		clr r23
 122 0092 67FD      		sbrc r22,7
 123 0094 7095      		com r23
 124 0096 D801      		movw r26,r16
 125 0098 1496      		adiw r26,4
 126 009a ED91      		ld r30,X+
 127 009c FC91      		ld r31,X
 128 009e 1597      		sbiw r26,4+1
 129 00a0 1696      		adiw r26,6
 130 00a2 8D91      		ld r24,X+
 131 00a4 9C91      		ld r25,X
 132 00a6 1797      		sbiw r26,6+1
 133 00a8 0995      		icall
 134 00aa 2196      		adiw r28,1
 135               	.L19:
 136 00ac 6881      		ld r22,Y
 137 00ae 6623      		tst r22
 138 00b0 01F4      		brne .L20
 139 00b2 80E0      		ldi r24,lo8(0)
 140 00b4 90E0      		ldi r25,hi8(0)
 141               	/* epilogue start */
 142 00b6 DF91      		pop r29
 143 00b8 CF91      		pop r28
 144 00ba 1F91      		pop r17
 145 00bc 0F91      		pop r16
 146 00be 0895      		ret
 147               		.size	PrintString, .-PrintString
 148               		.type	PrintCharacter, @function
 149               	PrintCharacter:
 150 00c0 EF92      		push r14
 151 00c2 FF92      		push r15
 152 00c4 0F93      		push r16
 153 00c6 1F93      		push r17
 154 00c8 CF93      		push r28
 155 00ca DF93      		push r29
 156               	/* prologue: function */
 157               	/* frame size = 0 */
 158 00cc 8C01      		movw r16,r24
 159 00ce 7B01      		movw r14,r22
 160 00d0 EA01      		movw r28,r20
 161 00d2 00C0      		rjmp .L23
 162               	.L24:
 163 00d4 D801      		movw r26,r16
 164 00d6 1496      		adiw r26,4
 165 00d8 ED91      		ld r30,X+
 166 00da FC91      		ld r31,X
 167 00dc 1597      		sbiw r26,4+1
 168 00de 1696      		adiw r26,6
 169 00e0 8D91      		ld r24,X+
 170 00e2 9C91      		ld r25,X
 171 00e4 1797      		sbiw r26,6+1
GAS LISTING C:\DOCUME~1\ADMINI~1\LOCALS~1\Temp/ccXJuB6S.s 			page 4


 172 00e6 B701      		movw r22,r14
 173 00e8 0995      		icall
 174 00ea 2197      		sbiw r28,1
 175               	.L23:
 176 00ec 1C16      		cp __zero_reg__,r28
 177 00ee 1D06      		cpc __zero_reg__,r29
 178 00f0 04F0      		brlt .L24
 179               	/* epilogue start */
 180 00f2 DF91      		pop r29
 181 00f4 CF91      		pop r28
 182 00f6 1F91      		pop r17
 183 00f8 0F91      		pop r16
 184 00fa FF90      		pop r15
 185 00fc EF90      		pop r14
 186 00fe 0895      		ret
 187               		.size	PrintCharacter, .-PrintCharacter
 188               		.data
 189               	.LC0:
 190 0000 0D0A 00   		.string	"\r\n"
 191               		.text
 192               	.global	EdLineRead
 193               		.type	EdLineRead, @function
 194               	EdLineRead:
 195 0100 2F92      		push r2
 196 0102 3F92      		push r3
 197 0104 4F92      		push r4
 198 0106 5F92      		push r5
 199 0108 6F92      		push r6
 200 010a 7F92      		push r7
 201 010c 8F92      		push r8
 202 010e 9F92      		push r9
 203 0110 AF92      		push r10
 204 0112 BF92      		push r11
 205 0114 CF92      		push r12
 206 0116 DF92      		push r13
 207 0118 EF92      		push r14
 208 011a FF92      		push r15
 209 011c 0F93      		push r16
 210 011e 1F93      		push r17
 211 0120 DF93      		push r29
 212 0122 CF93      		push r28
 213 0124 00D0      		rcall .
 214 0126 00D0      		rcall .
 215 0128 CDB7      		in r28,__SP_L__
 216 012a DEB7      		in r29,__SP_H__
 217               	/* prologue: function */
 218               	/* frame size = 4 */
 219 012c 7C01      		movw r14,r24
 220 012e 6B01      		movw r12,r22
 221 0130 5A01      		movw r10,r20
 222 0132 FB01      		movw r30,r22
 223 0134 E40F      		add r30,r20
 224 0136 F51F      		adc r31,r21
 225 0138 3197      		sbiw r30,1
 226 013a 1082      		st Z,__zero_reg__
 227 013c DC01      		movw r26,r24
 228 013e 1E96      		adiw r26,14
GAS LISTING C:\DOCUME~1\ADMINI~1\LOCALS~1\Temp/ccXJuB6S.s 			page 5


 229 0140 8D91      		ld r24,X+
 230 0142 9C91      		ld r25,X
 231 0144 1F97      		sbiw r26,14+1
 232 0146 60E0      		ldi r22,lo8(0)
 233 0148 70E0      		ldi r23,hi8(0)
 234 014a A601      		movw r20,r12
 235 014c 0E94 0000 		call EditHistorySet
 236 0150 C701      		movw r24,r14
 237 0152 B601      		movw r22,r12
 238 0154 0E94 0000 		call PrintString
 239 0158 D601      		movw r26,r12
 240 015a 0D90      		ld __tmp_reg__,X+
 241 015c 0020      		tst __tmp_reg__
 242 015e 01F4      		brne .-6
 243 0160 1197      		sbiw r26,1
 244 0162 AC19      		sub r26,r12
 245 0164 BD09      		sbc r27,r13
 246 0166 BC83      		std Y+4,r27
 247 0168 AB83      		std Y+3,r26
 248 016a F701      		movw r30,r14
 249 016c 3C96      		adiw r30,12
 250 016e FA83      		std Y+2,r31
 251 0170 E983      		std Y+1,r30
 252 0172 8824      		clr r8
 253 0174 9924      		clr r9
 254 0176 6624      		clr r6
 255 0178 7724      		clr r7
 256 017a 2501      		movw r4,r10
 257 017c 0894      		sec
 258 017e 4108      		sbc r4,__zero_reg__
 259 0180 5108      		sbc r5,__zero_reg__
 260 0182 8EEF      		ldi r24,lo8(-2)
 261 0184 9FEF      		ldi r25,hi8(-2)
 262 0186 A80E      		add r10,r24
 263 0188 B91E      		adc r11,r25
 264 018a 1601      		movw r2,r12
 265 018c 2A0C      		add r2,r10
 266 018e 3B1C      		adc r3,r11
 267 0190 A2E0      		ldi r26,lo8(2)
 268 0192 B0E0      		ldi r27,hi8(2)
 269 0194 AA0E      		add r10,r26
 270 0196 BB1E      		adc r11,r27
 271 0198 00C0      		rjmp .L55
 272               	.L50:
 273 019a 81E0      		ldi r24,lo8(1)
 274 019c 682E      		mov r6,r24
 275 019e 712C      		mov r7,__zero_reg__
 276               	.L55:
 277 01a0 D701      		movw r26,r14
 278 01a2 ED91      		ld r30,X+
 279 01a4 FC91      		ld r31,X
 280 01a6 1197      		sbiw r26,1
 281 01a8 1296      		adiw r26,2
 282 01aa 8D91      		ld r24,X+
 283 01ac 9C91      		ld r25,X
 284 01ae 1397      		sbiw r26,2+1
 285 01b0 0995      		icall
GAS LISTING C:\DOCUME~1\ADMINI~1\LOCALS~1\Temp/ccXJuB6S.s 			page 6


 286 01b2 BFEF      		ldi r27,hi8(-1)
 287 01b4 8F3F      		cpi r24,lo8(-1)
 288 01b6 9B07      		cpc r25,r27
 289 01b8 01F4      		brne .L28
 290 01ba AFEF      		ldi r26,lo8(-1)
 291 01bc BFEF      		ldi r27,hi8(-1)
 292 01be 00C0      		rjmp .L29
 293               	.L28:
 294 01c0 D701      		movw r26,r14
 295 01c2 1896      		adiw r26,8
 296 01c4 ED91      		ld r30,X+
 297 01c6 FC91      		ld r31,X
 298 01c8 1997      		sbiw r26,8+1
 299 01ca 6981      		ldd r22,Y+1
 300 01cc 7A81      		ldd r23,Y+2
 301 01ce 0995      		icall
 302 01d0 8C01      		movw r16,r24
 303 01d2 8A30      		cpi r24,10
 304 01d4 9105      		cpc r25,__zero_reg__
 305 01d6 01F4      		brne .+2
 306 01d8 00C0      		rjmp .L30
 307 01da 8830      		cpi r24,8
 308 01dc 9105      		cpc r25,__zero_reg__
 309 01de 01F0      		breq .+2
 310 01e0 00C0      		rjmp .L31
 311 01e2 EB81      		ldd r30,Y+3
 312 01e4 FC81      		ldd r31,Y+4
 313 01e6 3097      		sbiw r30,0
 314 01e8 01F4      		brne .+2
 315 01ea 00C0      		rjmp .L32
 316 01ec 3197      		sbiw r30,1
 317 01ee FC83      		std Y+4,r31
 318 01f0 EB83      		std Y+3,r30
 319 01f2 8F01      		movw r16,r30
 320 01f4 0C0D      		add r16,r12
 321 01f6 1D1D      		adc r17,r13
 322 01f8 F801      		movw r30,r16
 323 01fa 2B81      		ldd r18,Y+3
 324 01fc 3C81      		ldd r19,Y+4
 325 01fe 00C0      		rjmp .L33
 326               	.L34:
 327 0200 8181      		ldd r24,Z+1
 328 0202 8193      		st Z+,r24
 329 0204 2F5F      		subi r18,lo8(-(1))
 330 0206 3F4F      		sbci r19,hi8(-(1))
 331               	.L33:
 332 0208 2415      		cp r18,r4
 333 020a 3505      		cpc r19,r5
 334 020c 04F0      		brlt .L34
 335 020e D701      		movw r26,r14
 336 0210 1A96      		adiw r26,10
 337 0212 8C91      		ld r24,X
 338 0214 1A97      		sbiw r26,10
 339 0216 80FF      		sbrs r24,0
 340 0218 00C0      		rjmp .L35
 341 021a 1496      		adiw r26,4
 342 021c ED91      		ld r30,X+
GAS LISTING C:\DOCUME~1\ADMINI~1\LOCALS~1\Temp/ccXJuB6S.s 			page 7


 343 021e FC91      		ld r31,X
 344 0220 1597      		sbiw r26,4+1
 345 0222 1696      		adiw r26,6
 346 0224 8D91      		ld r24,X+
 347 0226 9C91      		ld r25,X
 348 0228 1797      		sbiw r26,6+1
 349 022a 68E0      		ldi r22,lo8(8)
 350 022c 70E0      		ldi r23,hi8(8)
 351 022e 0995      		icall
 352               	.L35:
 353 0230 C701      		movw r24,r14
 354 0232 B801      		movw r22,r16
 355 0234 0E94 0000 		call PrintString
 356 0238 D701      		movw r26,r14
 357 023a 1496      		adiw r26,4
 358 023c ED91      		ld r30,X+
 359 023e FC91      		ld r31,X
 360 0240 1597      		sbiw r26,4+1
 361 0242 1696      		adiw r26,6
 362 0244 8D91      		ld r24,X+
 363 0246 9C91      		ld r25,X
 364 0248 1797      		sbiw r26,6+1
 365 024a 60E2      		ldi r22,lo8(32)
 366 024c 70E0      		ldi r23,hi8(32)
 367 024e 0995      		icall
 368 0250 D601      		movw r26,r12
 369 0252 0D90      		ld __tmp_reg__,X+
 370 0254 0020      		tst __tmp_reg__
 371 0256 01F4      		brne .-6
 372 0258 AC19      		sub r26,r12
 373 025a BD09      		sbc r27,r13
 374 025c EB81      		ldd r30,Y+3
 375 025e FC81      		ldd r31,Y+4
 376 0260 AE1B      		sub r26,r30
 377 0262 BF0B      		sbc r27,r31
 378 0264 C701      		movw r24,r14
 379 0266 68E0      		ldi r22,lo8(8)
 380 0268 70E0      		ldi r23,hi8(8)
 381 026a AD01      		movw r20,r26
 382 026c 00C0      		rjmp .L56
 383               	.L31:
 384 026e 8B31      		cpi r24,27
 385 0270 9105      		cpc r25,__zero_reg__
 386 0272 01F4      		brne .+2
 387 0274 00C0      		rjmp .L36
 388 0276 8231      		cpi r24,18
 389 0278 9105      		cpc r25,__zero_reg__
 390 027a 01F4      		brne .L37
 391 027c 8401      		movw r16,r8
 392 027e 0F5F      		subi r16,lo8(-(1))
 393 0280 1F4F      		sbci r17,hi8(-(1))
 394 0282 D701      		movw r26,r14
 395 0284 1E96      		adiw r26,14
 396 0286 8D91      		ld r24,X+
 397 0288 9C91      		ld r25,X
 398 028a 1F97      		sbiw r26,14+1
 399 028c B801      		movw r22,r16
GAS LISTING C:\DOCUME~1\ADMINI~1\LOCALS~1\Temp/ccXJuB6S.s 			page 8


 400 028e 40E0      		ldi r20,lo8(0)
 401 0290 50E0      		ldi r21,hi8(0)
 402 0292 20E0      		ldi r18,lo8(0)
 403 0294 30E0      		ldi r19,hi8(0)
 404 0296 0E94 0000 		call EditHistoryGet
 405 029a 97FF      		sbrs r25,7
 406 029c 00C0      		rjmp .L38
 407 029e 00C0      		rjmp .L32
 408               	.L37:
 409 02a0 8631      		cpi r24,22
 410 02a2 9105      		cpc r25,__zero_reg__
 411 02a4 01F4      		brne .L39
 412 02a6 8114      		cp r8,__zero_reg__
 413 02a8 9104      		cpc r9,__zero_reg__
 414 02aa 01F4      		brne .+2
 415 02ac 00C0      		rjmp .L32
 416 02ae 8401      		movw r16,r8
 417 02b0 0150      		subi r16,lo8(-(-1))
 418 02b2 1040      		sbci r17,hi8(-(-1))
 419 02b4 00C0      		rjmp .L38
 420               	.L39:
 421 02b6 8630      		cpi r24,6
 422 02b8 9105      		cpc r25,__zero_reg__
 423 02ba 01F4      		brne .L40
 424 02bc F601      		movw r30,r12
 425 02be 0190      		ld __tmp_reg__,Z+
 426 02c0 0020      		tst __tmp_reg__
 427 02c2 01F4      		brne .-6
 428 02c4 3197      		sbiw r30,1
 429 02c6 EC19      		sub r30,r12
 430 02c8 FD09      		sbc r31,r13
 431 02ca 8B81      		ldd r24,Y+3
 432 02cc 9C81      		ldd r25,Y+4
 433 02ce 8E17      		cp r24,r30
 434 02d0 9F07      		cpc r25,r31
 435 02d2 00F0      		brlo .+2
 436 02d4 00C0      		rjmp .L32
 437 02d6 D701      		movw r26,r14
 438 02d8 1A96      		adiw r26,10
 439 02da 8C91      		ld r24,X
 440 02dc 1A97      		sbiw r26,10
 441 02de 80FF      		sbrs r24,0
 442 02e0 00C0      		rjmp .L41
 443 02e2 EB81      		ldd r30,Y+3
 444 02e4 FC81      		ldd r31,Y+4
 445 02e6 EC0D      		add r30,r12
 446 02e8 FD1D      		adc r31,r13
 447 02ea 6081      		ld r22,Z
 448 02ec 7727      		clr r23
 449 02ee 67FD      		sbrc r22,7
 450 02f0 7095      		com r23
 451 02f2 1496      		adiw r26,4
 452 02f4 ED91      		ld r30,X+
 453 02f6 FC91      		ld r31,X
 454 02f8 1597      		sbiw r26,4+1
 455 02fa 1696      		adiw r26,6
 456 02fc 8D91      		ld r24,X+
GAS LISTING C:\DOCUME~1\ADMINI~1\LOCALS~1\Temp/ccXJuB6S.s 			page 9


 457 02fe 9C91      		ld r25,X
 458 0300 1797      		sbiw r26,6+1
 459 0302 0995      		icall
 460               	.L41:
 461 0304 EB81      		ldd r30,Y+3
 462 0306 FC81      		ldd r31,Y+4
 463 0308 3196      		adiw r30,1
 464 030a 00C0      		rjmp .L57
 465               	.L40:
 466 030c 8230      		cpi r24,2
 467 030e 9105      		cpc r25,__zero_reg__
 468 0310 01F4      		brne .L42
 469 0312 8B81      		ldd r24,Y+3
 470 0314 9C81      		ldd r25,Y+4
 471 0316 892B      		or r24,r25
 472 0318 01F4      		brne .+2
 473 031a 00C0      		rjmp .L32
 474 031c D701      		movw r26,r14
 475 031e 1A96      		adiw r26,10
 476 0320 8C91      		ld r24,X
 477 0322 1A97      		sbiw r26,10
 478 0324 80FF      		sbrs r24,0
 479 0326 00C0      		rjmp .L43
 480 0328 1496      		adiw r26,4
 481 032a ED91      		ld r30,X+
 482 032c FC91      		ld r31,X
 483 032e 1597      		sbiw r26,4+1
 484 0330 1696      		adiw r26,6
 485 0332 8D91      		ld r24,X+
 486 0334 9C91      		ld r25,X
 487 0336 1797      		sbiw r26,6+1
 488 0338 68E0      		ldi r22,lo8(8)
 489 033a 70E0      		ldi r23,hi8(8)
 490 033c 0995      		icall
 491               	.L43:
 492 033e EB81      		ldd r30,Y+3
 493 0340 FC81      		ldd r31,Y+4
 494 0342 3197      		sbiw r30,1
 495               	.L57:
 496 0344 FC83      		std Y+4,r31
 497 0346 EB83      		std Y+3,r30
 498 0348 00C0      		rjmp .L32
 499               	.L42:
 500 034a 8130      		cpi r24,1
 501 034c 9105      		cpc r25,__zero_reg__
 502 034e 01F4      		brne .L44
 503 0350 C701      		movw r24,r14
 504 0352 68E0      		ldi r22,lo8(8)
 505 0354 70E0      		ldi r23,hi8(8)
 506 0356 4B81      		ldd r20,Y+3
 507 0358 5C81      		ldd r21,Y+4
 508 035a 0E94 0000 		call PrintCharacter
 509 035e 1C82      		std Y+4,__zero_reg__
 510 0360 1B82      		std Y+3,__zero_reg__
 511 0362 00C0      		rjmp .L32
 512               	.L44:
 513 0364 8530      		cpi r24,5
GAS LISTING C:\DOCUME~1\ADMINI~1\LOCALS~1\Temp/ccXJuB6S.s 			page 10


 514 0366 9105      		cpc r25,__zero_reg__
 515 0368 01F4      		brne .L45
 516 036a 8B81      		ldd r24,Y+3
 517 036c 9C81      		ldd r25,Y+4
 518 036e 8C0D      		add r24,r12
 519 0370 9D1D      		adc r25,r13
 520 0372 9C83      		std Y+4,r25
 521 0374 8B83      		std Y+3,r24
 522 0376 C701      		movw r24,r14
 523 0378 6B81      		ldd r22,Y+3
 524 037a 7C81      		ldd r23,Y+4
 525 037c 0E94 0000 		call PrintString
 526 0380 D601      		movw r26,r12
 527 0382 0D90      		ld __tmp_reg__,X+
 528 0384 0020      		tst __tmp_reg__
 529 0386 01F4      		brne .-6
 530 0388 1197      		sbiw r26,1
 531 038a AC19      		sub r26,r12
 532 038c BD09      		sbc r27,r13
 533 038e BC83      		std Y+4,r27
 534 0390 AB83      		std Y+3,r26
 535 0392 00C0      		rjmp .L32
 536               	.L45:
 537 0394 0E94 0000 		call isprint
 538 0398 892B      		or r24,r25
 539 039a 01F4      		brne .+2
 540 039c 00C0      		rjmp .L46
 541 039e F601      		movw r30,r12
 542 03a0 0190      		ld __tmp_reg__,Z+
 543 03a2 0020      		tst __tmp_reg__
 544 03a4 01F4      		brne .-6
 545 03a6 3197      		sbiw r30,1
 546 03a8 EC19      		sub r30,r12
 547 03aa FD09      		sbc r31,r13
 548 03ac E415      		cp r30,r4
 549 03ae F505      		cpc r31,r5
 550 03b0 00F4      		brsh .L46
 551 03b2 F101      		movw r30,r2
 552 03b4 9501      		movw r18,r10
 553 03b6 00C0      		rjmp .L47
 554               	.L48:
 555 03b8 8081      		ld r24,Z
 556 03ba 8183      		std Z+1,r24
 557 03bc 3197      		sbiw r30,1
 558               	.L47:
 559 03be 2150      		subi r18,lo8(-(-1))
 560 03c0 3040      		sbci r19,hi8(-(-1))
 561 03c2 8B81      		ldd r24,Y+3
 562 03c4 9C81      		ldd r25,Y+4
 563 03c6 8217      		cp r24,r18
 564 03c8 9307      		cpc r25,r19
 565 03ca 04F0      		brlt .L48
 566 03cc FC01      		movw r30,r24
 567 03ce EC0D      		add r30,r12
 568 03d0 FD1D      		adc r31,r13
 569 03d2 0083      		st Z,r16
 570 03d4 0196      		adiw r24,1
GAS LISTING C:\DOCUME~1\ADMINI~1\LOCALS~1\Temp/ccXJuB6S.s 			page 11


 571 03d6 9C83      		std Y+4,r25
 572 03d8 8B83      		std Y+3,r24
 573 03da D701      		movw r26,r14
 574 03dc 1A96      		adiw r26,10
 575 03de 8C91      		ld r24,X
 576 03e0 1A97      		sbiw r26,10
 577 03e2 80FF      		sbrs r24,0
 578 03e4 00C0      		rjmp .L49
 579 03e6 1496      		adiw r26,4
 580 03e8 ED91      		ld r30,X+
 581 03ea FC91      		ld r31,X
 582 03ec 1597      		sbiw r26,4+1
 583 03ee 1696      		adiw r26,6
 584 03f0 8D91      		ld r24,X+
 585 03f2 9C91      		ld r25,X
 586 03f4 1797      		sbiw r26,6+1
 587 03f6 B801      		movw r22,r16
 588 03f8 0995      		icall
 589               	.L49:
 590 03fa 6B81      		ldd r22,Y+3
 591 03fc 7C81      		ldd r23,Y+4
 592 03fe 6C0D      		add r22,r12
 593 0400 7D1D      		adc r23,r13
 594 0402 C701      		movw r24,r14
 595 0404 0E94 0000 		call PrintString
 596 0408 F601      		movw r30,r12
 597 040a 0190      		ld __tmp_reg__,Z+
 598 040c 0020      		tst __tmp_reg__
 599 040e 01F4      		brne .-6
 600 0410 3197      		sbiw r30,1
 601 0412 EC19      		sub r30,r12
 602 0414 FD09      		sbc r31,r13
 603 0416 8B81      		ldd r24,Y+3
 604 0418 9C81      		ldd r25,Y+4
 605 041a E81B      		sub r30,r24
 606 041c F90B      		sbc r31,r25
 607 041e C701      		movw r24,r14
 608 0420 68E0      		ldi r22,lo8(8)
 609 0422 70E0      		ldi r23,hi8(8)
 610 0424 AF01      		movw r20,r30
 611               	.L56:
 612 0426 0E94 0000 		call PrintCharacter
 613 042a 00C0      		rjmp .L32
 614               	.L46:
 615 042c D701      		movw r26,r14
 616 042e 1496      		adiw r26,4
 617 0430 ED91      		ld r30,X+
 618 0432 FC91      		ld r31,X
 619 0434 1597      		sbiw r26,4+1
 620 0436 1696      		adiw r26,6
 621 0438 8D91      		ld r24,X+
 622 043a 9C91      		ld r25,X
 623 043c 1797      		sbiw r26,6+1
 624 043e 67E0      		ldi r22,lo8(7)
 625 0440 70E0      		ldi r23,hi8(7)
 626 0442 0995      		icall
 627               	.L32:
GAS LISTING C:\DOCUME~1\ADMINI~1\LOCALS~1\Temp/ccXJuB6S.s 			page 12


 628 0444 6114      		cp r6,__zero_reg__
 629 0446 7104      		cpc r7,__zero_reg__
 630 0448 01F4      		brne .+2
 631 044a 00C0      		rjmp .L55
 632               	.L51:
 633 044c F701      		movw r30,r14
 634 044e 8285      		ldd r24,Z+10
 635 0450 82FF      		sbrs r24,2
 636 0452 00C0      		rjmp .L50
 637 0454 C701      		movw r24,r14
 638 0456 68E0      		ldi r22,lo8(8)
 639 0458 70E0      		ldi r23,hi8(8)
 640 045a 4B81      		ldd r20,Y+3
 641 045c 5C81      		ldd r21,Y+4
 642 045e 0E94 0000 		call PrintCharacter
 643 0462 D601      		movw r26,r12
 644 0464 0D90      		ld __tmp_reg__,X+
 645 0466 0020      		tst __tmp_reg__
 646 0468 01F4      		brne .-6
 647 046a 8D01      		movw r16,r26
 648 046c 0150      		subi r16,lo8(-(-1))
 649 046e 1040      		sbci r17,hi8(-(-1))
 650 0470 0C19      		sub r16,r12
 651 0472 1D09      		sbc r17,r13
 652 0474 F701      		movw r30,r14
 653 0476 8685      		ldd r24,Z+14
 654 0478 9785      		ldd r25,Z+15
 655 047a B401      		movw r22,r8
 656 047c A601      		movw r20,r12
 657 047e 9501      		movw r18,r10
 658 0480 0E94 0000 		call EditHistoryGet
 659 0484 D601      		movw r26,r12
 660 0486 0D90      		ld __tmp_reg__,X+
 661 0488 0020      		tst __tmp_reg__
 662 048a 01F4      		brne .-6
 663 048c 1197      		sbiw r26,1
 664 048e AC19      		sub r26,r12
 665 0490 BD09      		sbc r27,r13
 666 0492 BC83      		std Y+4,r27
 667 0494 AB83      		std Y+3,r26
 668 0496 C701      		movw r24,r14
 669 0498 B601      		movw r22,r12
 670 049a 0E94 0000 		call PrintString
 671 049e EB81      		ldd r30,Y+3
 672 04a0 FC81      		ldd r31,Y+4
 673 04a2 0E1B      		sub r16,r30
 674 04a4 1F0B      		sbc r17,r31
 675 04a6 C701      		movw r24,r14
 676 04a8 60E2      		ldi r22,lo8(32)
 677 04aa 70E0      		ldi r23,hi8(32)
 678 04ac A801      		movw r20,r16
 679 04ae 0E94 0000 		call PrintCharacter
 680 04b2 C701      		movw r24,r14
 681 04b4 68E0      		ldi r22,lo8(8)
 682 04b6 70E0      		ldi r23,hi8(8)
 683 04b8 A801      		movw r20,r16
 684 04ba 0E94 0000 		call PrintCharacter
GAS LISTING C:\DOCUME~1\ADMINI~1\LOCALS~1\Temp/ccXJuB6S.s 			page 13


 685 04be 6624      		clr r6
 686 04c0 7724      		clr r7
 687 04c2 00C0      		rjmp .L55
 688               	.L30:
 689 04c4 C701      		movw r24,r14
 690 04c6 60E0      		ldi r22,lo8(.LC0)
 691 04c8 70E0      		ldi r23,hi8(.LC0)
 692 04ca 0E94 0000 		call PrintString
 693 04ce D701      		movw r26,r14
 694 04d0 1E96      		adiw r26,14
 695 04d2 8D91      		ld r24,X+
 696 04d4 9C91      		ld r25,X
 697 04d6 1F97      		sbiw r26,14+1
 698 04d8 61E0      		ldi r22,lo8(1)
 699 04da 70E0      		ldi r23,hi8(1)
 700 04dc A601      		movw r20,r12
 701 04de 0E94 0000 		call EditHistoryInsert
 702 04e2 D601      		movw r26,r12
 703 04e4 0D90      		ld __tmp_reg__,X+
 704 04e6 0020      		tst __tmp_reg__
 705 04e8 01F4      		brne .-6
 706 04ea 1197      		sbiw r26,1
 707 04ec AC19      		sub r26,r12
 708 04ee BD09      		sbc r27,r13
 709               	.L29:
 710 04f0 CD01      		movw r24,r26
 711               	/* epilogue start */
 712 04f2 0F90      		pop __tmp_reg__
 713 04f4 0F90      		pop __tmp_reg__
 714 04f6 0F90      		pop __tmp_reg__
 715 04f8 0F90      		pop __tmp_reg__
 716 04fa CF91      		pop r28
 717 04fc DF91      		pop r29
 718 04fe 1F91      		pop r17
 719 0500 0F91      		pop r16
 720 0502 FF90      		pop r15
 721 0504 EF90      		pop r14
 722 0506 DF90      		pop r13
 723 0508 CF90      		pop r12
 724 050a BF90      		pop r11
 725 050c AF90      		pop r10
 726 050e 9F90      		pop r9
 727 0510 8F90      		pop r8
 728 0512 7F90      		pop r7
 729 0514 6F90      		pop r6
 730 0516 5F90      		pop r5
 731 0518 4F90      		pop r4
 732 051a 3F90      		pop r3
 733 051c 2F90      		pop r2
 734 051e 0895      		ret
 735               	.L36:
 736 0520 00E0      		ldi r16,lo8(0)
 737 0522 10E0      		ldi r17,hi8(0)
 738               	.L38:
 739 0524 4801      		movw r8,r16
 740 0526 00C0      		rjmp .L51
 741               		.size	EdLineRead, .-EdLineRead
GAS LISTING C:\DOCUME~1\ADMINI~1\LOCALS~1\Temp/ccXJuB6S.s 			page 14


 742               	.global	EdLineClose
 743               		.type	EdLineClose, @function
 744               	EdLineClose:
 745 0528 CF93      		push r28
 746 052a DF93      		push r29
 747               	/* prologue: function */
 748               	/* frame size = 0 */
 749 052c EC01      		movw r28,r24
 750 052e 0097      		sbiw r24,0
 751 0530 01F0      		breq .L60
 752 0532 8E85      		ldd r24,Y+14
 753 0534 9F85      		ldd r25,Y+15
 754 0536 0E94 0000 		call EditHistoryDestroy
 755 053a CE01      		movw r24,r28
 756 053c 0E94 0000 		call free
 757               	.L60:
 758               	/* epilogue start */
 759 0540 DF91      		pop r29
 760 0542 CF91      		pop r28
 761 0544 0895      		ret
 762               		.size	EdLineClose, .-EdLineClose
 763               	.global	EdLineOpen
 764               		.type	EdLineOpen, @function
 765               	EdLineOpen:
 766 0546 0F93      		push r16
 767 0548 1F93      		push r17
 768 054a CF93      		push r28
 769 054c DF93      		push r29
 770               	/* prologue: function */
 771               	/* frame size = 0 */
 772 054e 8C01      		movw r16,r24
 773 0550 81E0      		ldi r24,lo8(1)
 774 0552 90E0      		ldi r25,hi8(1)
 775 0554 60E1      		ldi r22,lo8(16)
 776 0556 70E0      		ldi r23,hi8(16)
 777 0558 0E94 0000 		call calloc
 778 055c EC01      		movw r28,r24
 779 055e 0097      		sbiw r24,0
 780 0560 01F0      		breq .L62
 781 0562 0A87      		std Y+10,r16
 782 0564 1B87      		std Y+11,r17
 783 0566 2091 0000 		lds r18,__iob
 784 056a 3091 0000 		lds r19,(__iob)+1
 785 056e 80E0      		ldi r24,lo8(gs(EdLineGetChar))
 786 0570 90E0      		ldi r25,hi8(gs(EdLineGetChar))
 787 0572 9983      		std Y+1,r25
 788 0574 8883      		st Y,r24
 789 0576 3B83      		std Y+3,r19
 790 0578 2A83      		std Y+2,r18
 791 057a 2091 0000 		lds r18,__iob+2
 792 057e 3091 0000 		lds r19,(__iob+2)+1
 793 0582 80E0      		ldi r24,lo8(gs(EdLinePutChar))
 794 0584 90E0      		ldi r25,hi8(gs(EdLinePutChar))
 795 0586 9D83      		std Y+5,r25
 796 0588 8C83      		std Y+4,r24
 797 058a 3F83      		std Y+7,r19
 798 058c 2E83      		std Y+6,r18
GAS LISTING C:\DOCUME~1\ADMINI~1\LOCALS~1\Temp/ccXJuB6S.s 			page 15


 799 058e 80E0      		ldi r24,lo8(gs(EdLineKeyMap))
 800 0590 90E0      		ldi r25,hi8(gs(EdLineKeyMap))
 801 0592 9987      		std Y+9,r25
 802 0594 8887      		std Y+8,r24
 803 0596 02FF      		sbrs r16,2
 804 0598 00C0      		rjmp .L62
 805 059a 80E1      		ldi r24,lo8(16)
 806 059c 90E0      		ldi r25,hi8(16)
 807 059e 0E94 0000 		call EditHistoryCreate
 808 05a2 9F87      		std Y+15,r25
 809 05a4 8E87      		std Y+14,r24
 810               	.L62:
 811 05a6 CE01      		movw r24,r28
 812               	/* epilogue start */
 813 05a8 DF91      		pop r29
 814 05aa CF91      		pop r28
 815 05ac 1F91      		pop r17
 816 05ae 0F91      		pop r16
 817 05b0 0895      		ret
 818               		.size	EdLineOpen, .-EdLineOpen
 819               		.type	EdLinePutChar, @function
 820               	EdLinePutChar:
 821               	/* prologue: function */
 822               	/* frame size = 0 */
 823 05b2 CB01      		movw r24,r22
 824 05b4 0E94 0000 		call putchar
 825               	/* epilogue start */
 826 05b8 0895      		ret
 827               		.size	EdLinePutChar, .-EdLinePutChar
 828               		.type	EdLineGetChar, @function
 829               	EdLineGetChar:
 830               	/* prologue: function */
 831               	/* frame size = 0 */
 832 05ba 0E94 0000 		call getchar
 833               	/* epilogue start */
 834 05be 0895      		ret
 835               		.size	EdLineGetChar, .-EdLineGetChar
 836               	.global __do_copy_data
GAS LISTING C:\DOCUME~1\ADMINI~1\LOCALS~1\Temp/ccXJuB6S.s 			page 16


DEFINED SYMBOLS
                            *ABS*:00000000 edline.c
C:\DOCUME~1\ADMINI~1\LOCALS~1\Temp/ccXJuB6S.s:2      *ABS*:0000003f __SREG__
C:\DOCUME~1\ADMINI~1\LOCALS~1\Temp/ccXJuB6S.s:3      *ABS*:0000003e __SP_H__
C:\DOCUME~1\ADMINI~1\LOCALS~1\Temp/ccXJuB6S.s:4      *ABS*:0000003d __SP_L__
C:\DOCUME~1\ADMINI~1\LOCALS~1\Temp/ccXJuB6S.s:5      *ABS*:00000034 __CCP__
C:\DOCUME~1\ADMINI~1\LOCALS~1\Temp/ccXJuB6S.s:6      *ABS*:00000000 __tmp_reg__
C:\DOCUME~1\ADMINI~1\LOCALS~1\Temp/ccXJuB6S.s:7      *ABS*:00000001 __zero_reg__
C:\DOCUME~1\ADMINI~1\LOCALS~1\Temp/ccXJuB6S.s:11     .text:00000000 EdLineRegisterInput
C:\DOCUME~1\ADMINI~1\LOCALS~1\Temp/ccXJuB6S.s:829    .text:000005ba EdLineGetChar
C:\DOCUME~1\ADMINI~1\LOCALS~1\Temp/ccXJuB6S.s:34     .text:0000001c EdLineRegisterOutput
C:\DOCUME~1\ADMINI~1\LOCALS~1\Temp/ccXJuB6S.s:820    .text:000005b2 EdLinePutChar
C:\DOCUME~1\ADMINI~1\LOCALS~1\Temp/ccXJuB6S.s:57     .text:00000038 EdLineKeyMap
C:\DOCUME~1\ADMINI~1\LOCALS~1\Temp/ccXJuB6S.s:92     .text:0000006a EdLineRegisterKeymap
C:\DOCUME~1\ADMINI~1\LOCALS~1\Temp/ccXJuB6S.s:110    .text:00000082 PrintString
C:\DOCUME~1\ADMINI~1\LOCALS~1\Temp/ccXJuB6S.s:149    .text:000000c0 PrintCharacter
C:\DOCUME~1\ADMINI~1\LOCALS~1\Temp/ccXJuB6S.s:194    .text:00000100 EdLineRead
C:\DOCUME~1\ADMINI~1\LOCALS~1\Temp/ccXJuB6S.s:744    .text:00000528 EdLineClose
C:\DOCUME~1\ADMINI~1\LOCALS~1\Temp/ccXJuB6S.s:765    .text:00000546 EdLineOpen

UNDEFINED SYMBOLS
EditHistorySet
EditHistoryGet
isprint
EditHistoryInsert
EditHistoryDestroy
free
calloc
__iob
EditHistoryCreate
putchar
getchar
__do_copy_data
