GAS LISTING C:\DOCUME~1\ADMINI~1\LOCALS~1\Temp/cccsESDv.s 			page 1


   1               		.file	"ih_analog_comp.c"
   2               	__SREG__ = 0x3f
   3               	__SP_H__ = 0x3e
   4               	__SP_L__ = 0x3d
   5               	__CCP__  = 0x34
   6               	__tmp_reg__ = 0
   7               	__zero_reg__ = 1
   8               		.text
   9               		.type	AvrAnalogCompIrqCtl, @function
  10               	AvrAnalogCompIrqCtl:
  11               	/* prologue: function */
  12               	/* frame size = 0 */
  13 0000 FB01      		movw r30,r22
  14 0002 48B1      		in r20,40-32
  15 0004 4870      		andi r20,lo8(8)
  16 0006 4398      		cbi 40-32,3
  17 0008 8031      		cpi r24,16
  18 000a 9105      		cpc r25,__zero_reg__
  19 000c 01F0      		breq .L5
  20 000e 8131      		cpi r24,17
  21 0010 9105      		cpc r25,__zero_reg__
  22 0012 04F4      		brge .L9
  23 0014 0097      		sbiw r24,0
  24 0016 01F0      		breq .L3
  25 0018 0197      		sbiw r24,1
  26 001a 01F4      		brne .L2
  27 001c 00C0      		rjmp .L4
  28               	.L9:
  29 001e 8231      		cpi r24,18
  30 0020 9105      		cpc r25,__zero_reg__
  31 0022 01F0      		breq .L7
  32 0024 8231      		cpi r24,18
  33 0026 9105      		cpc r25,__zero_reg__
  34 0028 04F0      		brlt .L17
  35 002a 8097      		sbiw r24,32
  36 002c 01F0      		breq .L18
  37               	.L2:
  38 002e 2FEF      		ldi r18,lo8(-1)
  39 0030 3FEF      		ldi r19,hi8(-1)
  40 0032 00C0      		rjmp .L11
  41               	.L3:
  42 0034 40E0      		ldi r20,lo8(0)
  43               	.L4:
  44 0036 80E1      		ldi r24,lo8(16)
  45 0038 86B9      		out 38-32,r24
  46 003a 00C0      		rjmp .L16
  47               	.L5:
  48 003c 449B      		sbis 40-32,4
  49 003e 00C0      		rjmp .L12
  50 0040 81E0      		ldi r24,lo8(1)
  51 0042 90E0      		ldi r25,hi8(1)
  52 0044 9183      		std Z+1,r25
  53 0046 8083      		st Z,r24
  54 0048 00C0      		rjmp .L13
  55               	.L12:
  56 004a 1182      		std Z+1,__zero_reg__
  57 004c 1082      		st Z,__zero_reg__
GAS LISTING C:\DOCUME~1\ADMINI~1\LOCALS~1\Temp/cccsESDv.s 			page 2


  58               	.L13:
  59 004e 4423      		tst r20
  60 0050 01F0      		breq .L7
  61 0052 8081      		ld r24,Z
  62 0054 9181      		ldd r25,Z+1
  63 0056 8068      		ori r24,lo8(128)
  64 0058 9183      		std Z+1,r25
  65 005a 8083      		st Z,r24
  66               	.L17:
  67 005c 20E0      		ldi r18,lo8(0)
  68 005e 30E0      		ldi r19,hi8(0)
  69 0060 00C0      		rjmp .L10
  70               	.L18:
  71 0062 1182      		std Z+1,__zero_reg__
  72 0064 1082      		st Z,__zero_reg__
  73               	.L16:
  74 0066 20E0      		ldi r18,lo8(0)
  75 0068 30E0      		ldi r19,hi8(0)
  76               	.L11:
  77 006a 4423      		tst r20
  78 006c 01F0      		breq .L14
  79               	.L10:
  80 006e 439A      		sbi 40-32,3
  81 0070 00C0      		rjmp .L14
  82               	.L7:
  83 0072 20E0      		ldi r18,lo8(0)
  84 0074 30E0      		ldi r19,hi8(0)
  85               	.L14:
  86 0076 C901      		movw r24,r18
  87               	/* epilogue start */
  88 0078 0895      		ret
  89               		.size	AvrAnalogCompIrqCtl, .-AvrAnalogCompIrqCtl
  90               	.global	__vector_23
  91               		.type	__vector_23, @function
  92               	__vector_23:
  93 007a 1F92      		push __zero_reg__
  94 007c 0F92      		push r0
  95 007e 0FB6      		in r0,__SREG__
  96 0080 0F92      		push r0
  97 0082 0BB6      		in r0,91-32
  98 0084 0F92      		push r0
  99 0086 1124      		clr __zero_reg__
 100 0088 2F93      		push r18
 101 008a 3F93      		push r19
 102 008c 4F93      		push r20
 103 008e 5F93      		push r21
 104 0090 6F93      		push r22
 105 0092 7F93      		push r23
 106 0094 8F93      		push r24
 107 0096 9F93      		push r25
 108 0098 AF93      		push r26
 109 009a BF93      		push r27
 110 009c EF93      		push r30
 111 009e FF93      		push r31
 112               	/* prologue: Signal */
 113               	/* frame size = 0 */
 114 00a0 80E0      		ldi r24,lo8(sig_COMPARATOR)
GAS LISTING C:\DOCUME~1\ADMINI~1\LOCALS~1\Temp/cccsESDv.s 			page 3


 115 00a2 90E0      		ldi r25,hi8(sig_COMPARATOR)
 116 00a4 0E94 0000 		call CallHandler
 117               	/* epilogue start */
 118 00a8 FF91      		pop r31
 119 00aa EF91      		pop r30
 120 00ac BF91      		pop r27
 121 00ae AF91      		pop r26
 122 00b0 9F91      		pop r25
 123 00b2 8F91      		pop r24
 124 00b4 7F91      		pop r23
 125 00b6 6F91      		pop r22
 126 00b8 5F91      		pop r21
 127 00ba 4F91      		pop r20
 128 00bc 3F91      		pop r19
 129 00be 2F91      		pop r18
 130 00c0 0F90      		pop r0
 131 00c2 0BBE      		out 91-32,r0
 132 00c4 0F90      		pop r0
 133 00c6 0FBE      		out __SREG__,r0
 134 00c8 0F90      		pop r0
 135 00ca 1F90      		pop __zero_reg__
 136 00cc 1895      		reti
 137               		.size	__vector_23, .-__vector_23
 138               	.global	sig_COMPARATOR
 139               		.data
 140               		.type	sig_COMPARATOR, @object
 141               		.size	sig_COMPARATOR, 6
 142               	sig_COMPARATOR:
 143 0000 0000      		.word	0
 144 0002 0000      		.word	0
 145 0004 0000      		.word	gs(AvrAnalogCompIrqCtl)
 146               	.global __do_copy_data
GAS LISTING C:\DOCUME~1\ADMINI~1\LOCALS~1\Temp/cccsESDv.s 			page 4


DEFINED SYMBOLS
                            *ABS*:00000000 ih_analog_comp.c
C:\DOCUME~1\ADMINI~1\LOCALS~1\Temp/cccsESDv.s:2      *ABS*:0000003f __SREG__
C:\DOCUME~1\ADMINI~1\LOCALS~1\Temp/cccsESDv.s:3      *ABS*:0000003e __SP_H__
C:\DOCUME~1\ADMINI~1\LOCALS~1\Temp/cccsESDv.s:4      *ABS*:0000003d __SP_L__
C:\DOCUME~1\ADMINI~1\LOCALS~1\Temp/cccsESDv.s:5      *ABS*:00000034 __CCP__
C:\DOCUME~1\ADMINI~1\LOCALS~1\Temp/cccsESDv.s:6      *ABS*:00000000 __tmp_reg__
C:\DOCUME~1\ADMINI~1\LOCALS~1\Temp/cccsESDv.s:7      *ABS*:00000001 __zero_reg__
C:\DOCUME~1\ADMINI~1\LOCALS~1\Temp/cccsESDv.s:10     .text:00000000 AvrAnalogCompIrqCtl
C:\DOCUME~1\ADMINI~1\LOCALS~1\Temp/cccsESDv.s:92     .text:0000007a __vector_23
C:\DOCUME~1\ADMINI~1\LOCALS~1\Temp/cccsESDv.s:142    .data:00000000 sig_COMPARATOR

UNDEFINED SYMBOLS
CallHandler
__do_copy_data
