GAS LISTING C:\DOCUME~1\ADMINI~1\LOCALS~1\Temp/ccUki0RQ.s 			page 1


   1               		.file	"ih_ee_ready.c"
   2               	__SREG__ = 0x3f
   3               	__SP_H__ = 0x3e
   4               	__SP_L__ = 0x3d
   5               	__CCP__  = 0x34
   6               	__tmp_reg__ = 0
   7               	__zero_reg__ = 1
   8               		.text
   9               		.type	AvrEepromRdyIrqCtl, @function
  10               	AvrEepromRdyIrqCtl:
  11               	/* prologue: function */
  12               	/* frame size = 0 */
  13 0000 FB01      		movw r30,r22
  14 0002 4CB3      		in r20,60-32
  15 0004 E398      		cbi 60-32,3
  16 0006 8131      		cpi r24,17
  17 0008 9105      		cpc r25,__zero_reg__
  18 000a 01F0      		breq .L4
  19 000c 8231      		cpi r24,18
  20 000e 9105      		cpc r25,__zero_reg__
  21 0010 04F4      		brge .L6
  22 0012 892B      		or r24,r25
  23 0014 01F0      		breq .L3
  24 0016 00C0      		rjmp .L2
  25               	.L6:
  26 0018 8231      		cpi r24,18
  27 001a 9105      		cpc r25,__zero_reg__
  28 001c 01F0      		breq .L3
  29 001e 8097      		sbiw r24,32
  30 0020 01F4      		brne .L2
  31 0022 00C0      		rjmp .L11
  32               	.L3:
  33 0024 20E0      		ldi r18,lo8(0)
  34 0026 30E0      		ldi r19,hi8(0)
  35 0028 00C0      		rjmp .L7
  36               	.L4:
  37 002a 20E0      		ldi r18,lo8(0)
  38 002c 30E0      		ldi r19,hi8(0)
  39 002e 00C0      		rjmp .L8
  40               	.L2:
  41 0030 2FEF      		ldi r18,lo8(-1)
  42 0032 3FEF      		ldi r19,hi8(-1)
  43 0034 00C0      		rjmp .L9
  44               	.L11:
  45 0036 1182      		std Z+1,__zero_reg__
  46 0038 1082      		st Z,__zero_reg__
  47 003a 20E0      		ldi r18,lo8(0)
  48 003c 30E0      		ldi r19,hi8(0)
  49               	.L9:
  50 003e 43FD      		sbrc r20,3
  51               	.L8:
  52 0040 E39A      		sbi 60-32,3
  53               	.L7:
  54 0042 C901      		movw r24,r18
  55               	/* epilogue start */
  56 0044 0895      		ret
  57               		.size	AvrEepromRdyIrqCtl, .-AvrEepromRdyIrqCtl
GAS LISTING C:\DOCUME~1\ADMINI~1\LOCALS~1\Temp/ccUki0RQ.s 			page 2


  58               	.global	__vector_22
  59               		.type	__vector_22, @function
  60               	__vector_22:
  61 0046 1F92      		push __zero_reg__
  62 0048 0F92      		push r0
  63 004a 0FB6      		in r0,__SREG__
  64 004c 0F92      		push r0
  65 004e 0BB6      		in r0,91-32
  66 0050 0F92      		push r0
  67 0052 1124      		clr __zero_reg__
  68 0054 2F93      		push r18
  69 0056 3F93      		push r19
  70 0058 4F93      		push r20
  71 005a 5F93      		push r21
  72 005c 6F93      		push r22
  73 005e 7F93      		push r23
  74 0060 8F93      		push r24
  75 0062 9F93      		push r25
  76 0064 AF93      		push r26
  77 0066 BF93      		push r27
  78 0068 EF93      		push r30
  79 006a FF93      		push r31
  80               	/* prologue: Signal */
  81               	/* frame size = 0 */
  82 006c 80E0      		ldi r24,lo8(sig_EEPROM_READY)
  83 006e 90E0      		ldi r25,hi8(sig_EEPROM_READY)
  84 0070 0E94 0000 		call CallHandler
  85               	/* epilogue start */
  86 0074 FF91      		pop r31
  87 0076 EF91      		pop r30
  88 0078 BF91      		pop r27
  89 007a AF91      		pop r26
  90 007c 9F91      		pop r25
  91 007e 8F91      		pop r24
  92 0080 7F91      		pop r23
  93 0082 6F91      		pop r22
  94 0084 5F91      		pop r21
  95 0086 4F91      		pop r20
  96 0088 3F91      		pop r19
  97 008a 2F91      		pop r18
  98 008c 0F90      		pop r0
  99 008e 0BBE      		out 91-32,r0
 100 0090 0F90      		pop r0
 101 0092 0FBE      		out __SREG__,r0
 102 0094 0F90      		pop r0
 103 0096 1F90      		pop __zero_reg__
 104 0098 1895      		reti
 105               		.size	__vector_22, .-__vector_22
 106               	.global	sig_EEPROM_READY
 107               		.data
 108               		.type	sig_EEPROM_READY, @object
 109               		.size	sig_EEPROM_READY, 6
 110               	sig_EEPROM_READY:
 111 0000 0000      		.word	0
 112 0002 0000      		.word	0
 113 0004 0000      		.word	gs(AvrEepromRdyIrqCtl)
 114               	.global __do_copy_data
GAS LISTING C:\DOCUME~1\ADMINI~1\LOCALS~1\Temp/ccUki0RQ.s 			page 3


GAS LISTING C:\DOCUME~1\ADMINI~1\LOCALS~1\Temp/ccUki0RQ.s 			page 4


DEFINED SYMBOLS
                            *ABS*:00000000 ih_ee_ready.c
C:\DOCUME~1\ADMINI~1\LOCALS~1\Temp/ccUki0RQ.s:2      *ABS*:0000003f __SREG__
C:\DOCUME~1\ADMINI~1\LOCALS~1\Temp/ccUki0RQ.s:3      *ABS*:0000003e __SP_H__
C:\DOCUME~1\ADMINI~1\LOCALS~1\Temp/ccUki0RQ.s:4      *ABS*:0000003d __SP_L__
C:\DOCUME~1\ADMINI~1\LOCALS~1\Temp/ccUki0RQ.s:5      *ABS*:00000034 __CCP__
C:\DOCUME~1\ADMINI~1\LOCALS~1\Temp/ccUki0RQ.s:6      *ABS*:00000000 __tmp_reg__
C:\DOCUME~1\ADMINI~1\LOCALS~1\Temp/ccUki0RQ.s:7      *ABS*:00000001 __zero_reg__
C:\DOCUME~1\ADMINI~1\LOCALS~1\Temp/ccUki0RQ.s:10     .text:00000000 AvrEepromRdyIrqCtl
C:\DOCUME~1\ADMINI~1\LOCALS~1\Temp/ccUki0RQ.s:60     .text:00000046 __vector_22
C:\DOCUME~1\ADMINI~1\LOCALS~1\Temp/ccUki0RQ.s:110    .data:00000000 sig_EEPROM_READY

UNDEFINED SYMBOLS
CallHandler
__do_copy_data
