GAS LISTING C:\DOCUME~1\ADMINI~1\LOCALS~1\Temp/ccZmSLoe.s 			page 1


   1               		.file	"ih_int2.c"
   2               	__SREG__ = 0x3f
   3               	__SP_H__ = 0x3e
   4               	__SP_L__ = 0x3d
   5               	__CCP__  = 0x34
   6               	__tmp_reg__ = 0
   7               	__zero_reg__ = 1
   8               		.text
   9               		.type	AvrInterrupt2Ctl, @function
  10               	AvrInterrupt2Ctl:
  11               	/* prologue: function */
  12               	/* frame size = 0 */
  13 0000 9C01      		movw r18,r24
  14 0002 FB01      		movw r30,r22
  15 0004 49B7      		in r20,89-32
  16 0006 4470      		andi r20,lo8(4)
  17 0008 89B7      		in r24,89-32
  18 000a 8B7F      		andi r24,lo8(-5)
  19 000c 89BF      		out 89-32,r24
  20 000e 2131      		cpi r18,17
  21 0010 3105      		cpc r19,__zero_reg__
  22 0012 01F0      		breq .L24
  23 0014 2231      		cpi r18,18
  24 0016 3105      		cpc r19,__zero_reg__
  25 0018 04F4      		brge .L11
  26 001a 2130      		cpi r18,1
  27 001c 3105      		cpc r19,__zero_reg__
  28 001e 01F0      		breq .L4
  29 0020 2031      		cpi r18,16
  30 0022 3105      		cpc r19,__zero_reg__
  31 0024 01F0      		breq .L5
  32 0026 232B      		or r18,r19
  33 0028 01F0      		breq .L3
  34 002a 00C0      		rjmp .L2
  35               	.L11:
  36 002c 2831      		cpi r18,24
  37 002e 3105      		cpc r19,__zero_reg__
  38 0030 01F0      		breq .L8
  39 0032 2931      		cpi r18,25
  40 0034 3105      		cpc r19,__zero_reg__
  41 0036 04F4      		brge .L12
  42 0038 2231      		cpi r18,18
  43 003a 3105      		cpc r19,__zero_reg__
  44 003c 01F0      		breq .+2
  45 003e 00C0      		rjmp .L2
  46 0040 00C0      		rjmp .L7
  47               	.L12:
  48 0042 2931      		cpi r18,25
  49 0044 3105      		cpc r19,__zero_reg__
  50 0046 01F0      		breq .L9
  51 0048 2032      		cpi r18,32
  52 004a 3105      		cpc r19,__zero_reg__
  53 004c 01F0      		breq .+2
  54 004e 00C0      		rjmp .L2
  55 0050 00C0      		rjmp .L28
  56               	.L3:
  57 0052 8091 6A00 		lds r24,106
GAS LISTING C:\DOCUME~1\ADMINI~1\LOCALS~1\Temp/ccZmSLoe.s 			page 2


  58 0056 8F7E      		andi r24,lo8(-17)
  59 0058 8093 6A00 		sts 106,r24
  60 005c 8091 6A00 		lds r24,106
  61 0060 8F7D      		andi r24,lo8(-33)
  62 0062 8093 6A00 		sts 106,r24
  63               	.L4:
  64 0066 84E0      		ldi r24,lo8(4)
  65 0068 88BF      		out 88-32,r24
  66 006a 00C0      		rjmp .L23
  67               	.L5:
  68 006c 08B6      		in __tmp_reg__,88-32
  69 006e 02FE      		sbrs __tmp_reg__,2
  70 0070 00C0      		rjmp .L15
  71 0072 81E0      		ldi r24,lo8(1)
  72 0074 90E0      		ldi r25,hi8(1)
  73 0076 9183      		std Z+1,r25
  74 0078 8083      		st Z,r24
  75 007a 00C0      		rjmp .L16
  76               	.L15:
  77 007c 1182      		std Z+1,__zero_reg__
  78 007e 1082      		st Z,__zero_reg__
  79               	.L16:
  80 0080 4423      		tst r20
  81 0082 01F4      		brne .+2
  82 0084 00C0      		rjmp .L7
  83 0086 8081      		ld r24,Z
  84 0088 9181      		ldd r25,Z+1
  85 008a 8068      		ori r24,lo8(128)
  86 008c 9183      		std Z+1,r25
  87 008e 8083      		st Z,r24
  88               	.L24:
  89 0090 20E0      		ldi r18,lo8(0)
  90 0092 30E0      		ldi r19,hi8(0)
  91 0094 00C0      		rjmp .L13
  92               	.L8:
  93 0096 8091 6A00 		lds r24,106
  94 009a 8073      		andi r24,lo8(48)
  95 009c 8032      		cpi r24,lo8(32)
  96 009e 01F4      		brne .L17
  97 00a0 85E0      		ldi r24,lo8(5)
  98 00a2 90E0      		ldi r25,hi8(5)
  99               	.L26:
 100 00a4 9183      		std Z+1,r25
 101 00a6 8083      		st Z,r24
 102               	.L23:
 103 00a8 20E0      		ldi r18,lo8(0)
 104 00aa 30E0      		ldi r19,hi8(0)
 105 00ac 00C0      		rjmp .L14
 106               	.L17:
 107 00ae 81E0      		ldi r24,lo8(1)
 108 00b0 90E0      		ldi r25,hi8(1)
 109 00b2 00C0      		rjmp .L26
 110               	.L9:
 111 00b4 6081      		ld r22,Z
 112 00b6 7181      		ldd r23,Z+1
 113 00b8 6130      		cpi r22,1
 114 00ba 7105      		cpc r23,__zero_reg__
GAS LISTING C:\DOCUME~1\ADMINI~1\LOCALS~1\Temp/ccZmSLoe.s 			page 3


 115 00bc 01F4      		brne .L18
 116 00be 8091 6A00 		lds r24,106
 117 00c2 8F7E      		andi r24,lo8(-17)
 118 00c4 8093 6A00 		sts 106,r24
 119 00c8 8091 6A00 		lds r24,106
 120 00cc 8F7D      		andi r24,lo8(-33)
 121 00ce 00C0      		rjmp .L25
 122               	.L18:
 123 00d0 6530      		cpi r22,5
 124 00d2 7105      		cpc r23,__zero_reg__
 125 00d4 01F4      		brne .L19
 126 00d6 8091 6A00 		lds r24,106
 127 00da 8F7E      		andi r24,lo8(-17)
 128 00dc 00C0      		rjmp .L27
 129               	.L19:
 130 00de 6630      		cpi r22,6
 131 00e0 7105      		cpc r23,__zero_reg__
 132 00e2 01F4      		brne .L2
 133 00e4 8091 6A00 		lds r24,106
 134 00e8 8061      		ori r24,lo8(16)
 135               	.L27:
 136 00ea 8093 6A00 		sts 106,r24
 137 00ee 8091 6A00 		lds r24,106
 138 00f2 8062      		ori r24,lo8(32)
 139               	.L25:
 140 00f4 8093 6A00 		sts 106,r24
 141 00f8 00C0      		rjmp .L23
 142               	.L28:
 143 00fa 82E0      		ldi r24,lo8(2)
 144 00fc 90E0      		ldi r25,hi8(2)
 145 00fe 00C0      		rjmp .L26
 146               	.L2:
 147 0100 2FEF      		ldi r18,lo8(-1)
 148 0102 3FEF      		ldi r19,hi8(-1)
 149               	.L14:
 150 0104 4423      		tst r20
 151 0106 01F0      		breq .L20
 152               	.L13:
 153 0108 89B7      		in r24,89-32
 154 010a 8460      		ori r24,lo8(4)
 155 010c 89BF      		out 89-32,r24
 156 010e 00C0      		rjmp .L20
 157               	.L7:
 158 0110 20E0      		ldi r18,lo8(0)
 159 0112 30E0      		ldi r19,hi8(0)
 160               	.L20:
 161 0114 C901      		movw r24,r18
 162               	/* epilogue start */
 163 0116 0895      		ret
 164               		.size	AvrInterrupt2Ctl, .-AvrInterrupt2Ctl
 165               	.global	__vector_3
 166               		.type	__vector_3, @function
 167               	__vector_3:
 168 0118 1F92      		push __zero_reg__
 169 011a 0F92      		push r0
 170 011c 0FB6      		in r0,__SREG__
 171 011e 0F92      		push r0
GAS LISTING C:\DOCUME~1\ADMINI~1\LOCALS~1\Temp/ccZmSLoe.s 			page 4


 172 0120 0BB6      		in r0,91-32
 173 0122 0F92      		push r0
 174 0124 1124      		clr __zero_reg__
 175 0126 2F93      		push r18
 176 0128 3F93      		push r19
 177 012a 4F93      		push r20
 178 012c 5F93      		push r21
 179 012e 6F93      		push r22
 180 0130 7F93      		push r23
 181 0132 8F93      		push r24
 182 0134 9F93      		push r25
 183 0136 AF93      		push r26
 184 0138 BF93      		push r27
 185 013a EF93      		push r30
 186 013c FF93      		push r31
 187               	/* prologue: Signal */
 188               	/* frame size = 0 */
 189 013e 80E0      		ldi r24,lo8(sig_INTERRUPT2)
 190 0140 90E0      		ldi r25,hi8(sig_INTERRUPT2)
 191 0142 0E94 0000 		call CallHandler
 192               	/* epilogue start */
 193 0146 FF91      		pop r31
 194 0148 EF91      		pop r30
 195 014a BF91      		pop r27
 196 014c AF91      		pop r26
 197 014e 9F91      		pop r25
 198 0150 8F91      		pop r24
 199 0152 7F91      		pop r23
 200 0154 6F91      		pop r22
 201 0156 5F91      		pop r21
 202 0158 4F91      		pop r20
 203 015a 3F91      		pop r19
 204 015c 2F91      		pop r18
 205 015e 0F90      		pop r0
 206 0160 0BBE      		out 91-32,r0
 207 0162 0F90      		pop r0
 208 0164 0FBE      		out __SREG__,r0
 209 0166 0F90      		pop r0
 210 0168 1F90      		pop __zero_reg__
 211 016a 1895      		reti
 212               		.size	__vector_3, .-__vector_3
 213               	.global	sig_INTERRUPT2
 214               		.data
 215               		.type	sig_INTERRUPT2, @object
 216               		.size	sig_INTERRUPT2, 6
 217               	sig_INTERRUPT2:
 218 0000 0000      		.word	0
 219 0002 0000      		.word	0
 220 0004 0000      		.word	gs(AvrInterrupt2Ctl)
 221               	.global __do_copy_data
GAS LISTING C:\DOCUME~1\ADMINI~1\LOCALS~1\Temp/ccZmSLoe.s 			page 5


DEFINED SYMBOLS
                            *ABS*:00000000 ih_int2.c
C:\DOCUME~1\ADMINI~1\LOCALS~1\Temp/ccZmSLoe.s:2      *ABS*:0000003f __SREG__
C:\DOCUME~1\ADMINI~1\LOCALS~1\Temp/ccZmSLoe.s:3      *ABS*:0000003e __SP_H__
C:\DOCUME~1\ADMINI~1\LOCALS~1\Temp/ccZmSLoe.s:4      *ABS*:0000003d __SP_L__
C:\DOCUME~1\ADMINI~1\LOCALS~1\Temp/ccZmSLoe.s:5      *ABS*:00000034 __CCP__
C:\DOCUME~1\ADMINI~1\LOCALS~1\Temp/ccZmSLoe.s:6      *ABS*:00000000 __tmp_reg__
C:\DOCUME~1\ADMINI~1\LOCALS~1\Temp/ccZmSLoe.s:7      *ABS*:00000001 __zero_reg__
C:\DOCUME~1\ADMINI~1\LOCALS~1\Temp/ccZmSLoe.s:10     .text:00000000 AvrInterrupt2Ctl
C:\DOCUME~1\ADMINI~1\LOCALS~1\Temp/ccZmSLoe.s:167    .text:00000118 __vector_3
C:\DOCUME~1\ADMINI~1\LOCALS~1\Temp/ccZmSLoe.s:217    .data:00000000 sig_INTERRUPT2

UNDEFINED SYMBOLS
CallHandler
__do_copy_data
