GAS LISTING C:\DOCUME~1\ADMINI~1\LOCALS~1\Temp/cc20U4C6.s 			page 1


   1               		.file	"ih_usart0_tx.c"
   2               	__SREG__ = 0x3f
   3               	__SP_H__ = 0x3e
   4               	__SP_L__ = 0x3d
   5               	__CCP__  = 0x34
   6               	__tmp_reg__ = 0
   7               	__zero_reg__ = 1
   8               		.text
   9               		.type	AvrUart0TxIrqCtl, @function
  10               	AvrUart0TxIrqCtl:
  11               	/* prologue: function */
  12               	/* frame size = 0 */
  13 0000 FB01      		movw r30,r22
  14 0002 4AB1      		in r20,42-32
  15 0004 4074      		andi r20,lo8(64)
  16 0006 5698      		cbi 42-32,6
  17 0008 8031      		cpi r24,16
  18 000a 9105      		cpc r25,__zero_reg__
  19 000c 01F0      		breq .L5
  20 000e 8131      		cpi r24,17
  21 0010 9105      		cpc r25,__zero_reg__
  22 0012 04F4      		brge .L9
  23 0014 0097      		sbiw r24,0
  24 0016 01F0      		breq .L3
  25 0018 0197      		sbiw r24,1
  26 001a 01F4      		brne .L2
  27 001c 00C0      		rjmp .L4
  28               	.L9:
  29 001e 8231      		cpi r24,18
  30 0020 9105      		cpc r25,__zero_reg__
  31 0022 01F0      		breq .L7
  32 0024 8231      		cpi r24,18
  33 0026 9105      		cpc r25,__zero_reg__
  34 0028 04F0      		brlt .L17
  35 002a 8097      		sbiw r24,32
  36 002c 01F0      		breq .L18
  37               	.L2:
  38 002e 2FEF      		ldi r18,lo8(-1)
  39 0030 3FEF      		ldi r19,hi8(-1)
  40 0032 00C0      		rjmp .L11
  41               	.L3:
  42 0034 40E0      		ldi r20,lo8(0)
  43               	.L4:
  44 0036 5E9A      		sbi 43-32,6
  45 0038 00C0      		rjmp .L16
  46               	.L5:
  47 003a 5E9B      		sbis 43-32,6
  48 003c 00C0      		rjmp .L12
  49 003e 81E0      		ldi r24,lo8(1)
  50 0040 90E0      		ldi r25,hi8(1)
  51 0042 9183      		std Z+1,r25
  52 0044 8083      		st Z,r24
  53 0046 00C0      		rjmp .L13
  54               	.L12:
  55 0048 1182      		std Z+1,__zero_reg__
  56 004a 1082      		st Z,__zero_reg__
  57               	.L13:
GAS LISTING C:\DOCUME~1\ADMINI~1\LOCALS~1\Temp/cc20U4C6.s 			page 2


  58 004c 4423      		tst r20
  59 004e 01F0      		breq .L7
  60 0050 8081      		ld r24,Z
  61 0052 9181      		ldd r25,Z+1
  62 0054 8068      		ori r24,lo8(128)
  63 0056 9183      		std Z+1,r25
  64 0058 8083      		st Z,r24
  65               	.L17:
  66 005a 20E0      		ldi r18,lo8(0)
  67 005c 30E0      		ldi r19,hi8(0)
  68 005e 00C0      		rjmp .L10
  69               	.L18:
  70 0060 80E1      		ldi r24,lo8(16)
  71 0062 90E0      		ldi r25,hi8(16)
  72 0064 9183      		std Z+1,r25
  73 0066 8083      		st Z,r24
  74               	.L16:
  75 0068 20E0      		ldi r18,lo8(0)
  76 006a 30E0      		ldi r19,hi8(0)
  77               	.L11:
  78 006c 4423      		tst r20
  79 006e 01F0      		breq .L14
  80               	.L10:
  81 0070 569A      		sbi 42-32,6
  82 0072 00C0      		rjmp .L14
  83               	.L7:
  84 0074 20E0      		ldi r18,lo8(0)
  85 0076 30E0      		ldi r19,hi8(0)
  86               	.L14:
  87 0078 C901      		movw r24,r18
  88               	/* epilogue start */
  89 007a 0895      		ret
  90               		.size	AvrUart0TxIrqCtl, .-AvrUart0TxIrqCtl
  91               	.global	__vector_20
  92               		.type	__vector_20, @function
  93               	__vector_20:
  94 007c 1F92      		push __zero_reg__
  95 007e 0F92      		push r0
  96 0080 0FB6      		in r0,__SREG__
  97 0082 0F92      		push r0
  98 0084 0BB6      		in r0,91-32
  99 0086 0F92      		push r0
 100 0088 1124      		clr __zero_reg__
 101 008a 2F93      		push r18
 102 008c 3F93      		push r19
 103 008e 4F93      		push r20
 104 0090 5F93      		push r21
 105 0092 6F93      		push r22
 106 0094 7F93      		push r23
 107 0096 8F93      		push r24
 108 0098 9F93      		push r25
 109 009a AF93      		push r26
 110 009c BF93      		push r27
 111 009e EF93      		push r30
 112 00a0 FF93      		push r31
 113               	/* prologue: Signal */
 114               	/* frame size = 0 */
GAS LISTING C:\DOCUME~1\ADMINI~1\LOCALS~1\Temp/cc20U4C6.s 			page 3


 115 00a2 80E0      		ldi r24,lo8(sig_UART0_TRANS)
 116 00a4 90E0      		ldi r25,hi8(sig_UART0_TRANS)
 117 00a6 0E94 0000 		call CallHandler
 118               	/* epilogue start */
 119 00aa FF91      		pop r31
 120 00ac EF91      		pop r30
 121 00ae BF91      		pop r27
 122 00b0 AF91      		pop r26
 123 00b2 9F91      		pop r25
 124 00b4 8F91      		pop r24
 125 00b6 7F91      		pop r23
 126 00b8 6F91      		pop r22
 127 00ba 5F91      		pop r21
 128 00bc 4F91      		pop r20
 129 00be 3F91      		pop r19
 130 00c0 2F91      		pop r18
 131 00c2 0F90      		pop r0
 132 00c4 0BBE      		out 91-32,r0
 133 00c6 0F90      		pop r0
 134 00c8 0FBE      		out __SREG__,r0
 135 00ca 0F90      		pop r0
 136 00cc 1F90      		pop __zero_reg__
 137 00ce 1895      		reti
 138               		.size	__vector_20, .-__vector_20
 139               	.global	sig_UART0_TRANS
 140               		.data
 141               		.type	sig_UART0_TRANS, @object
 142               		.size	sig_UART0_TRANS, 6
 143               	sig_UART0_TRANS:
 144 0000 0000      		.word	0
 145 0002 0000      		.word	0
 146 0004 0000      		.word	gs(AvrUart0TxIrqCtl)
 147               	.global __do_copy_data
GAS LISTING C:\DOCUME~1\ADMINI~1\LOCALS~1\Temp/cc20U4C6.s 			page 4


DEFINED SYMBOLS
                            *ABS*:00000000 ih_usart0_tx.c
C:\DOCUME~1\ADMINI~1\LOCALS~1\Temp/cc20U4C6.s:2      *ABS*:0000003f __SREG__
C:\DOCUME~1\ADMINI~1\LOCALS~1\Temp/cc20U4C6.s:3      *ABS*:0000003e __SP_H__
C:\DOCUME~1\ADMINI~1\LOCALS~1\Temp/cc20U4C6.s:4      *ABS*:0000003d __SP_L__
C:\DOCUME~1\ADMINI~1\LOCALS~1\Temp/cc20U4C6.s:5      *ABS*:00000034 __CCP__
C:\DOCUME~1\ADMINI~1\LOCALS~1\Temp/cc20U4C6.s:6      *ABS*:00000000 __tmp_reg__
C:\DOCUME~1\ADMINI~1\LOCALS~1\Temp/cc20U4C6.s:7      *ABS*:00000001 __zero_reg__
C:\DOCUME~1\ADMINI~1\LOCALS~1\Temp/cc20U4C6.s:10     .text:00000000 AvrUart0TxIrqCtl
C:\DOCUME~1\ADMINI~1\LOCALS~1\Temp/cc20U4C6.s:93     .text:0000007c __vector_20
C:\DOCUME~1\ADMINI~1\LOCALS~1\Temp/cc20U4C6.s:143    .data:00000000 sig_UART0_TRANS

UNDEFINED SYMBOLS
CallHandler
__do_copy_data
