GAS LISTING C:\DOCUME~1\ADMINI~1\LOCALS~1\Temp/ccBWOvRB.s 			page 1


   1               		.file	"ih_usart1_udre.c"
   2               	__SREG__ = 0x3f
   3               	__SP_H__ = 0x3e
   4               	__SP_L__ = 0x3d
   5               	__CCP__  = 0x34
   6               	__tmp_reg__ = 0
   7               	__zero_reg__ = 1
   8               		.text
   9               		.type	AvrUart1TxDataIrqCtl, @function
  10               	AvrUart1TxDataIrqCtl:
  11               	/* prologue: function */
  12               	/* frame size = 0 */
  13 0000 9C01      		movw r18,r24
  14 0002 FB01      		movw r30,r22
  15 0004 4091 9A00 		lds r20,154
  16 0008 4072      		andi r20,lo8(32)
  17 000a 8091 9A00 		lds r24,154
  18 000e 8F7D      		andi r24,lo8(-33)
  19 0010 8093 9A00 		sts 154,r24
  20 0014 2131      		cpi r18,17
  21 0016 3105      		cpc r19,__zero_reg__
  22 0018 01F0      		breq .L14
  23 001a 2231      		cpi r18,18
  24 001c 3105      		cpc r19,__zero_reg__
  25 001e 04F4      		brge .L7
  26 0020 2115      		cp r18,__zero_reg__
  27 0022 3105      		cpc r19,__zero_reg__
  28 0024 01F0      		breq .L3
  29 0026 2031      		cpi r18,16
  30 0028 3105      		cpc r19,__zero_reg__
  31 002a 01F4      		brne .L2
  32 002c 00C0      		rjmp .L15
  33               	.L7:
  34 002e 2231      		cpi r18,18
  35 0030 3105      		cpc r19,__zero_reg__
  36 0032 01F0      		breq .L3
  37 0034 2032      		cpi r18,32
  38 0036 3105      		cpc r19,__zero_reg__
  39 0038 01F0      		breq .L16
  40               	.L2:
  41 003a 2FEF      		ldi r18,lo8(-1)
  42 003c 3FEF      		ldi r19,hi8(-1)
  43 003e 00C0      		rjmp .L9
  44               	.L15:
  45 0040 8091 9B00 		lds r24,155
  46 0044 85FF      		sbrs r24,5
  47 0046 00C0      		rjmp .L10
  48 0048 81E0      		ldi r24,lo8(1)
  49 004a 90E0      		ldi r25,hi8(1)
  50 004c 9183      		std Z+1,r25
  51 004e 8083      		st Z,r24
  52 0050 00C0      		rjmp .L11
  53               	.L10:
  54 0052 1182      		std Z+1,__zero_reg__
  55 0054 1082      		st Z,__zero_reg__
  56               	.L11:
  57 0056 4423      		tst r20
GAS LISTING C:\DOCUME~1\ADMINI~1\LOCALS~1\Temp/ccBWOvRB.s 			page 2


  58 0058 01F0      		breq .L3
  59 005a 8081      		ld r24,Z
  60 005c 9181      		ldd r25,Z+1
  61 005e 8068      		ori r24,lo8(128)
  62 0060 9183      		std Z+1,r25
  63 0062 8083      		st Z,r24
  64               	.L14:
  65 0064 20E0      		ldi r18,lo8(0)
  66 0066 30E0      		ldi r19,hi8(0)
  67 0068 00C0      		rjmp .L8
  68               	.L16:
  69 006a 80E1      		ldi r24,lo8(16)
  70 006c 90E0      		ldi r25,hi8(16)
  71 006e 9183      		std Z+1,r25
  72 0070 8083      		st Z,r24
  73 0072 20E0      		ldi r18,lo8(0)
  74 0074 30E0      		ldi r19,hi8(0)
  75               	.L9:
  76 0076 4423      		tst r20
  77 0078 01F0      		breq .L12
  78               	.L8:
  79 007a 8091 9A00 		lds r24,154
  80 007e 8062      		ori r24,lo8(32)
  81 0080 8093 9A00 		sts 154,r24
  82 0084 00C0      		rjmp .L12
  83               	.L3:
  84 0086 20E0      		ldi r18,lo8(0)
  85 0088 30E0      		ldi r19,hi8(0)
  86               	.L12:
  87 008a C901      		movw r24,r18
  88               	/* epilogue start */
  89 008c 0895      		ret
  90               		.size	AvrUart1TxDataIrqCtl, .-AvrUart1TxDataIrqCtl
  91               	.global	__vector_31
  92               		.type	__vector_31, @function
  93               	__vector_31:
  94 008e 1F92      		push __zero_reg__
  95 0090 0F92      		push r0
  96 0092 0FB6      		in r0,__SREG__
  97 0094 0F92      		push r0
  98 0096 0BB6      		in r0,91-32
  99 0098 0F92      		push r0
 100 009a 1124      		clr __zero_reg__
 101 009c 2F93      		push r18
 102 009e 3F93      		push r19
 103 00a0 4F93      		push r20
 104 00a2 5F93      		push r21
 105 00a4 6F93      		push r22
 106 00a6 7F93      		push r23
 107 00a8 8F93      		push r24
 108 00aa 9F93      		push r25
 109 00ac AF93      		push r26
 110 00ae BF93      		push r27
 111 00b0 EF93      		push r30
 112 00b2 FF93      		push r31
 113               	/* prologue: Signal */
 114               	/* frame size = 0 */
GAS LISTING C:\DOCUME~1\ADMINI~1\LOCALS~1\Temp/ccBWOvRB.s 			page 3


 115 00b4 80E0      		ldi r24,lo8(sig_UART1_DATA)
 116 00b6 90E0      		ldi r25,hi8(sig_UART1_DATA)
 117 00b8 0E94 0000 		call CallHandler
 118               	/* epilogue start */
 119 00bc FF91      		pop r31
 120 00be EF91      		pop r30
 121 00c0 BF91      		pop r27
 122 00c2 AF91      		pop r26
 123 00c4 9F91      		pop r25
 124 00c6 8F91      		pop r24
 125 00c8 7F91      		pop r23
 126 00ca 6F91      		pop r22
 127 00cc 5F91      		pop r21
 128 00ce 4F91      		pop r20
 129 00d0 3F91      		pop r19
 130 00d2 2F91      		pop r18
 131 00d4 0F90      		pop r0
 132 00d6 0BBE      		out 91-32,r0
 133 00d8 0F90      		pop r0
 134 00da 0FBE      		out __SREG__,r0
 135 00dc 0F90      		pop r0
 136 00de 1F90      		pop __zero_reg__
 137 00e0 1895      		reti
 138               		.size	__vector_31, .-__vector_31
 139               	.global	sig_UART1_DATA
 140               		.data
 141               		.type	sig_UART1_DATA, @object
 142               		.size	sig_UART1_DATA, 6
 143               	sig_UART1_DATA:
 144 0000 0000      		.word	0
 145 0002 0000      		.word	0
 146 0004 0000      		.word	gs(AvrUart1TxDataIrqCtl)
 147               	.global __do_copy_data
GAS LISTING C:\DOCUME~1\ADMINI~1\LOCALS~1\Temp/ccBWOvRB.s 			page 4


DEFINED SYMBOLS
                            *ABS*:00000000 ih_usart1_udre.c
C:\DOCUME~1\ADMINI~1\LOCALS~1\Temp/ccBWOvRB.s:2      *ABS*:0000003f __SREG__
C:\DOCUME~1\ADMINI~1\LOCALS~1\Temp/ccBWOvRB.s:3      *ABS*:0000003e __SP_H__
C:\DOCUME~1\ADMINI~1\LOCALS~1\Temp/ccBWOvRB.s:4      *ABS*:0000003d __SP_L__
C:\DOCUME~1\ADMINI~1\LOCALS~1\Temp/ccBWOvRB.s:5      *ABS*:00000034 __CCP__
C:\DOCUME~1\ADMINI~1\LOCALS~1\Temp/ccBWOvRB.s:6      *ABS*:00000000 __tmp_reg__
C:\DOCUME~1\ADMINI~1\LOCALS~1\Temp/ccBWOvRB.s:7      *ABS*:00000001 __zero_reg__
C:\DOCUME~1\ADMINI~1\LOCALS~1\Temp/ccBWOvRB.s:10     .text:00000000 AvrUart1TxDataIrqCtl
C:\DOCUME~1\ADMINI~1\LOCALS~1\Temp/ccBWOvRB.s:93     .text:0000008e __vector_31
C:\DOCUME~1\ADMINI~1\LOCALS~1\Temp/ccBWOvRB.s:143    .data:00000000 sig_UART1_DATA

UNDEFINED SYMBOLS
CallHandler
__do_copy_data
