GAS LISTING C:\DOCUME~1\ADMINI~1\LOCALS~1\Temp/ccB0SLoe.s 			page 1


   1               		.file	"lanc111.c"
   2               	__SREG__ = 0x3f
   3               	__SP_H__ = 0x3e
   4               	__SP_L__ = 0x3d
   5               	__CCP__  = 0x34
   6               	__tmp_reg__ = 0
   7               	__zero_reg__ = 1
   8               		.text
   9               		.type	NicPhyRegSelect, @function
  10               	NicPhyRegSelect:
  11               	/* prologue: function */
  12               	/* frame size = 0 */
  13 0000 F82F      		mov r31,r24
  14 0002 83E0      		ldi r24,lo8(3)
  15 0004 8093 0EC0 		sts -16370,r24
  16 0008 8091 08C0 		lds r24,-16376
  17 000c 827F      		andi r24,lo8(-14)
  18 000e 482F      		mov r20,r24
  19 0010 4860      		ori r20,lo8(8)
  20 0012 90E0      		ldi r25,lo8(0)
  21 0014 E82F      		mov r30,r24
  22 0016 E960      		ori r30,lo8(9)
  23 0018 782F      		mov r23,r24
  24 001a 7D60      		ori r23,lo8(13)
  25               	.L2:
  26 001c E093 08C0 		sts -16376,r30
  27 0020 7093 08C0 		sts -16376,r23
  28 0024 9F5F      		subi r25,lo8(-(1))
  29 0026 9132      		cpi r25,lo8(33)
  30 0028 01F4      		brne .L2
  31 002a 4093 08C0 		sts -16376,r20
  32 002e 542F      		mov r21,r20
  33 0030 5460      		ori r21,lo8(4)
  34 0032 5093 08C0 		sts -16376,r21
  35 0036 E093 08C0 		sts -16376,r30
  36 003a 7093 08C0 		sts -16376,r23
  37 003e 6623      		tst r22
  38 0040 01F0      		breq .L3
  39 0042 4093 08C0 		sts -16376,r20
  40 0046 5093 08C0 		sts -16376,r21
  41 004a E093 08C0 		sts -16376,r30
  42 004e 7093 08C0 		sts -16376,r23
  43 0052 00C0      		rjmp .L13
  44               	.L3:
  45 0054 E093 08C0 		sts -16376,r30
  46 0058 7093 08C0 		sts -16376,r23
  47 005c 4093 08C0 		sts -16376,r20
  48 0060 5093 08C0 		sts -16376,r21
  49               	.L13:
  50 0064 80E0      		ldi r24,lo8(0)
  51               	.L9:
  52 0066 4093 08C0 		sts -16376,r20
  53 006a 5093 08C0 		sts -16376,r21
  54 006e 8F5F      		subi r24,lo8(-(1))
  55 0070 8530      		cpi r24,lo8(5)
  56 0072 01F4      		brne .L9
  57 0074 90E1      		ldi r25,lo8(16)
GAS LISTING C:\DOCUME~1\ADMINI~1\LOCALS~1\Temp/ccB0SLoe.s 			page 2


  58 0076 20E0      		ldi r18,lo8(0)
  59 0078 30E0      		ldi r19,hi8(0)
  60               	.L7:
  61 007a 892F      		mov r24,r25
  62 007c 8F23      		and r24,r31
  63 007e 01F0      		breq .L5
  64 0080 E093 08C0 		sts -16376,r30
  65 0084 7093 08C0 		sts -16376,r23
  66 0088 00C0      		rjmp .L6
  67               	.L5:
  68 008a 4093 08C0 		sts -16376,r20
  69 008e 5093 08C0 		sts -16376,r21
  70               	.L6:
  71 0092 9695      		lsr r25
  72 0094 2F5F      		subi r18,lo8(-(1))
  73 0096 3F4F      		sbci r19,hi8(-(1))
  74 0098 2530      		cpi r18,5
  75 009a 3105      		cpc r19,__zero_reg__
  76 009c 01F4      		brne .L7
  77 009e 4093 08C0 		sts -16376,r20
  78 00a2 842F      		mov r24,r20
  79               	/* epilogue start */
  80 00a4 0895      		ret
  81               		.size	NicPhyRegSelect, .-NicPhyRegSelect
  82               		.type	NicPhyRead, @function
  83               	NicPhyRead:
  84               	/* prologue: function */
  85               	/* frame size = 0 */
  86 00a6 60E0      		ldi r22,lo8(0)
  87 00a8 0E94 0000 		call NicPhyRegSelect
  88 00ac 582F      		mov r21,r24
  89 00ae 577F      		andi r21,lo8(-9)
  90 00b0 5093 08C0 		sts -16376,r21
  91 00b4 652F      		mov r22,r21
  92 00b6 6460      		ori r22,lo8(4)
  93 00b8 6093 08C0 		sts -16376,r22
  94 00bc 20E0      		ldi r18,lo8(0)
  95 00be 30E0      		ldi r19,hi8(0)
  96 00c0 40E0      		ldi r20,lo8(0)
  97               	.L15:
  98 00c2 5093 08C0 		sts -16376,r21
  99 00c6 6093 08C0 		sts -16376,r22
 100 00ca 220F      		lsl r18
 101 00cc 331F      		rol r19
 102 00ce 8091 08C0 		lds r24,-16376
 103 00d2 90E0      		ldi r25,lo8(0)
 104 00d4 9695      		lsr r25
 105 00d6 8795      		ror r24
 106 00d8 8170      		andi r24,lo8(1)
 107 00da 9070      		andi r25,hi8(1)
 108 00dc 282B      		or r18,r24
 109 00de 392B      		or r19,r25
 110 00e0 4F5F      		subi r20,lo8(-(1))
 111 00e2 4031      		cpi r20,lo8(16)
 112 00e4 01F4      		brne .L15
 113 00e6 5093 08C0 		sts -16376,r21
 114 00ea C901      		movw r24,r18
GAS LISTING C:\DOCUME~1\ADMINI~1\LOCALS~1\Temp/ccB0SLoe.s 			page 3


 115               	/* epilogue start */
 116 00ec 0895      		ret
 117               		.size	NicPhyRead, .-NicPhyRead
 118               		.type	NicPhyWrite, @function
 119               	NicPhyWrite:
 120 00ee CF93      		push r28
 121 00f0 DF93      		push r29
 122               	/* prologue: function */
 123               	/* frame size = 0 */
 124 00f2 EB01      		movw r28,r22
 125 00f4 61E0      		ldi r22,lo8(1)
 126 00f6 0E94 0000 		call NicPhyRegSelect
 127 00fa 482F      		mov r20,r24
 128 00fc F82F      		mov r31,r24
 129 00fe F160      		ori r31,lo8(1)
 130 0100 F093 08C0 		sts -16376,r31
 131 0104 E82F      		mov r30,r24
 132 0106 E560      		ori r30,lo8(5)
 133 0108 E093 08C0 		sts -16376,r30
 134 010c 8093 08C0 		sts -16376,r24
 135 0110 582F      		mov r21,r24
 136 0112 5460      		ori r21,lo8(4)
 137 0114 5093 08C0 		sts -16376,r21
 138 0118 60E0      		ldi r22,lo8(-32768)
 139 011a 70E8      		ldi r23,hi8(-32768)
 140 011c 20E0      		ldi r18,lo8(0)
 141 011e 30E0      		ldi r19,hi8(0)
 142               	.L21:
 143 0120 CB01      		movw r24,r22
 144 0122 8C23      		and r24,r28
 145 0124 9D23      		and r25,r29
 146 0126 892B      		or r24,r25
 147 0128 01F0      		breq .L19
 148 012a F093 08C0 		sts -16376,r31
 149 012e E093 08C0 		sts -16376,r30
 150 0132 00C0      		rjmp .L20
 151               	.L19:
 152 0134 4093 08C0 		sts -16376,r20
 153 0138 5093 08C0 		sts -16376,r21
 154               	.L20:
 155 013c 7695      		lsr r23
 156 013e 6795      		ror r22
 157 0140 2F5F      		subi r18,lo8(-(1))
 158 0142 3F4F      		sbci r19,hi8(-(1))
 159 0144 2031      		cpi r18,16
 160 0146 3105      		cpc r19,__zero_reg__
 161 0148 01F4      		brne .L21
 162 014a 477F      		andi r20,lo8(-9)
 163 014c 4093 08C0 		sts -16376,r20
 164               	/* epilogue start */
 165 0150 DF91      		pop r29
 166 0152 CF91      		pop r28
 167 0154 0895      		ret
 168               		.size	NicPhyWrite, .-NicPhyWrite
 169               		.type	NicInterrupt, @function
 170               	NicInterrupt:
 171 0156 CF93      		push r28
GAS LISTING C:\DOCUME~1\ADMINI~1\LOCALS~1\Temp/ccB0SLoe.s 			page 4


 172 0158 DF93      		push r29
 173               	/* prologue: function */
 174               	/* frame size = 0 */
 175 015a FC01      		movw r30,r24
 176 015c C189      		ldd r28,Z+17
 177 015e D289      		ldd r29,Z+18
 178 0160 8C85      		ldd r24,Y+12
 179 0162 9D85      		ldd r25,Y+13
 180 0164 AE85      		ldd r26,Y+14
 181 0166 BF85      		ldd r27,Y+15
 182 0168 0196      		adiw r24,1
 183 016a A11D      		adc r26,__zero_reg__
 184 016c B11D      		adc r27,__zero_reg__
 185 016e 8C87      		std Y+12,r24
 186 0170 9D87      		std Y+13,r25
 187 0172 AE87      		std Y+14,r26
 188 0174 BF87      		std Y+15,r27
 189 0176 92E0      		ldi r25,lo8(2)
 190 0178 9093 0EC0 		sts -16370,r25
 191 017c 2091 0DC0 		lds r18,-16371
 192 0180 1092 0DC0 		sts -16371,__zero_reg__
 193 0184 8091 0CC0 		lds r24,-16372
 194 0188 8223      		and r24,r18
 195 018a 382F      		mov r19,r24
 196 018c 82FF      		sbrs r24,2
 197 018e 00C0      		rjmp .L25
 198 0190 84E0      		ldi r24,lo8(4)
 199 0192 8093 0CC0 		sts -16372,r24
 200 0196 2B7F      		andi r18,lo8(-5)
 201 0198 00C0      		rjmp .L26
 202               	.L25:
 203 019a 81FF      		sbrs r24,1
 204 019c 00C0      		rjmp .L26
 205 019e 1092 0EC0 		sts -16370,__zero_reg__
 206 01a2 8091 00C0 		lds r24,-16384
 207 01a6 8160      		ori r24,lo8(1)
 208 01a8 8093 00C0 		sts -16384,r24
 209 01ac 8091 00C0 		lds r24,-16384
 210 01b0 1092 01C0 		sts -16383,__zero_reg__
 211 01b4 9093 0EC0 		sts -16370,r25
 212 01b8 9093 0CC0 		sts -16372,r25
 213 01bc 80EA      		ldi r24,lo8(-96)
 214 01be 8093 00C0 		sts -16384,r24
 215               	.L26:
 216 01c2 34FF      		sbrs r19,4
 217 01c4 00C0      		rjmp .L27
 218 01c6 80E1      		ldi r24,lo8(16)
 219 01c8 8093 0CC0 		sts -16372,r24
 220 01cc 8881      		ld r24,Y
 221 01ce 9981      		ldd r25,Y+1
 222 01d0 892B      		or r24,r25
 223 01d2 01F4      		brne .L28
 224 01d4 8FEF      		ldi r24,lo8(-1)
 225 01d6 9FEF      		ldi r25,hi8(-1)
 226 01d8 9983      		std Y+1,r25
 227 01da 8883      		st Y,r24
 228 01dc 00C0      		rjmp .L27
GAS LISTING C:\DOCUME~1\ADMINI~1\LOCALS~1\Temp/ccB0SLoe.s 			page 5


 229               	.L28:
 230 01de 8881      		ld r24,Y
 231 01e0 9981      		ldd r25,Y+1
 232 01e2 8F5F      		subi r24,lo8(-1)
 233 01e4 9F4F      		sbci r25,hi8(-1)
 234 01e6 01F0      		breq .L27
 235 01e8 E881      		ld r30,Y
 236 01ea F981      		ldd r31,Y+1
 237 01ec 8481      		ldd r24,Z+4
 238 01ee 9581      		ldd r25,Z+5
 239 01f0 0196      		adiw r24,1
 240 01f2 9583      		std Z+5,r25
 241 01f4 8483      		std Z+4,r24
 242               	.L27:
 243 01f6 36FF      		sbrs r19,6
 244 01f8 00C0      		rjmp .L29
 245 01fa 80E4      		ldi r24,lo8(64)
 246 01fc 8093 0CC0 		sts -16372,r24
 247 0200 8881      		ld r24,Y
 248 0202 9981      		ldd r25,Y+1
 249 0204 892B      		or r24,r25
 250 0206 01F4      		brne .L30
 251 0208 8FEF      		ldi r24,lo8(-1)
 252 020a 9FEF      		ldi r25,hi8(-1)
 253 020c 9983      		std Y+1,r25
 254 020e 8883      		st Y,r24
 255 0210 00C0      		rjmp .L29
 256               	.L30:
 257 0212 8881      		ld r24,Y
 258 0214 9981      		ldd r25,Y+1
 259 0216 8F5F      		subi r24,lo8(-1)
 260 0218 9F4F      		sbci r25,hi8(-1)
 261 021a 01F0      		breq .L29
 262 021c E881      		ld r30,Y
 263 021e F981      		ldd r31,Y+1
 264 0220 8481      		ldd r24,Z+4
 265 0222 9581      		ldd r25,Z+5
 266 0224 0196      		adiw r24,1
 267 0226 9583      		std Z+5,r25
 268 0228 8483      		std Z+4,r24
 269               	.L29:
 270 022a 30FF      		sbrs r19,0
 271 022c 00C0      		rjmp .L31
 272 022e 81E0      		ldi r24,lo8(1)
 273 0230 8093 0CC0 		sts -16372,r24
 274 0234 2E7F      		andi r18,lo8(-2)
 275 0236 8881      		ld r24,Y
 276 0238 9981      		ldd r25,Y+1
 277 023a 892B      		or r24,r25
 278 023c 01F4      		brne .L32
 279 023e 8FEF      		ldi r24,lo8(-1)
 280 0240 9FEF      		ldi r25,hi8(-1)
 281 0242 9983      		std Y+1,r25
 282 0244 8883      		st Y,r24
 283 0246 00C0      		rjmp .L31
 284               	.L32:
 285 0248 8881      		ld r24,Y
GAS LISTING C:\DOCUME~1\ADMINI~1\LOCALS~1\Temp/ccB0SLoe.s 			page 6


 286 024a 9981      		ldd r25,Y+1
 287 024c 8F5F      		subi r24,lo8(-1)
 288 024e 9F4F      		sbci r25,hi8(-1)
 289 0250 01F0      		breq .L31
 290 0252 E881      		ld r30,Y
 291 0254 F981      		ldd r31,Y+1
 292 0256 8481      		ldd r24,Z+4
 293 0258 9581      		ldd r25,Z+5
 294 025a 0196      		adiw r24,1
 295 025c 9583      		std Z+5,r25
 296 025e 8483      		std Z+4,r24
 297               	.L31:
 298 0260 33FF      		sbrs r19,3
 299 0262 00C0      		rjmp .L33
 300 0264 277F      		andi r18,lo8(-9)
 301 0266 E091 0000 		lds r30,maq
 302 026a F091 0000 		lds r31,(maq)+1
 303 026e 3097      		sbiw r30,0
 304 0270 01F4      		brne .L34
 305 0272 8FEF      		ldi r24,lo8(-1)
 306 0274 9FEF      		ldi r25,hi8(-1)
 307 0276 9093 0000 		sts (maq)+1,r25
 308 027a 8093 0000 		sts maq,r24
 309 027e 00C0      		rjmp .L33
 310               	.L34:
 311 0280 4FEF      		ldi r20,hi8(-1)
 312 0282 EF3F      		cpi r30,lo8(-1)
 313 0284 F407      		cpc r31,r20
 314 0286 01F0      		breq .L33
 315 0288 8481      		ldd r24,Z+4
 316 028a 9581      		ldd r25,Z+5
 317 028c 0196      		adiw r24,1
 318 028e 9583      		std Z+5,r25
 319 0290 8483      		std Z+4,r24
 320               	.L33:
 321 0292 2093 0DC0 		sts -16371,r18
 322               	/* epilogue start */
 323 0296 DF91      		pop r29
 324 0298 CF91      		pop r28
 325 029a 0895      		ret
 326               		.size	NicInterrupt, .-NicInterrupt
 327               		.type	NicWrite, @function
 328               	NicWrite:
 329               	/* prologue: function */
 330               	/* frame size = 0 */
 331 029c 582F      		mov r21,r24
 332 029e 6115      		cp r22,__zero_reg__
 333 02a0 7105      		cpc r23,__zero_reg__
 334 02a2 01F0      		breq .L39
 335 02a4 6150      		subi r22,lo8(-(-1))
 336 02a6 7040      		sbci r23,hi8(-(-1))
 337 02a8 472F      		mov r20,r23
 338 02aa 6F5F      		subi r22,lo8(-(1))
 339 02ac 7F4F      		sbci r23,hi8(-(1))
 340 02ae 9C01      		movw r18,r24
 341 02b0 F901      		movw r30,r18
 342 02b2 650F      		add r22,r21
GAS LISTING C:\DOCUME~1\ADMINI~1\LOCALS~1\Temp/ccB0SLoe.s 			page 7


 343               	.L42:
 344 02b4 8191      		ld r24,Z+
 345 02b6 8093 08C0 		sts -16376,r24
 346 02ba 6E17      		cp r22,r30
 347 02bc 01F4      		brne .L42
 348 02be 4423      		tst r20
 349 02c0 01F0      		breq .L39
 350 02c2 4150      		subi r20,lo8(-(-1))
 351 02c4 00C0      		rjmp .L42
 352               	.L39:
 353 02c6 0895      		ret
 354               		.size	NicWrite, .-NicWrite
 355               		.type	LancIOCtl, @function
 356               	LancIOCtl:
 357 02c8 CF92      		push r12
 358 02ca DF92      		push r13
 359 02cc EF92      		push r14
 360 02ce FF92      		push r15
 361 02d0 0F93      		push r16
 362 02d2 1F93      		push r17
 363 02d4 DF93      		push r29
 364 02d6 CF93      		push r28
 365 02d8 00D0      		rcall .
 366 02da 00D0      		rcall .
 367 02dc 00D0      		rcall .
 368 02de CDB7      		in r28,__SP_L__
 369 02e0 DEB7      		in r29,__SP_H__
 370               	/* prologue: function */
 371               	/* frame size = 6 */
 372 02e2 FC01      		movw r30,r24
 373 02e4 8A01      		movw r16,r20
 374 02e6 E784      		ldd r14,Z+15
 375 02e8 F088      		ldd r15,Z+16
 376 02ea C188      		ldd r12,Z+17
 377 02ec D288      		ldd r13,Z+18
 378 02ee 80E1      		ldi r24,hi8(4101)
 379 02f0 6530      		cpi r22,lo8(4101)
 380 02f2 7807      		cpc r23,r24
 381 02f4 01F0      		breq .L45
 382 02f6 6750      		subi r22,lo8(4103)
 383 02f8 7041      		sbci r23,hi8(4103)
 384 02fa 01F0      		breq .+2
 385 02fc 00C0      		rjmp .L44
 386 02fe 00C0      		rjmp .L58
 387               	.L45:
 388 0300 D701      		movw r26,r14
 389 0302 1596      		adiw r26,5
 390 0304 FA01      		movw r30,r20
 391 0306 86E0      		ldi r24,lo8(6)
 392               	.L47:
 393 0308 0190      		ld r0,Z+
 394 030a 0D92      		st X+,r0
 395 030c 8150      		subi r24,lo8(-(-1))
 396 030e 01F4      		brne .L47
 397 0310 00C0      		rjmp .L57
 398               	.L58:
 399 0312 81E0      		ldi r24,lo8(1)
GAS LISTING C:\DOCUME~1\ADMINI~1\LOCALS~1\Temp/ccB0SLoe.s 			page 8


 400 0314 8983      		std Y+1,r24
 401 0316 1A82      		std Y+2,__zero_reg__
 402 0318 8EE5      		ldi r24,lo8(94)
 403 031a 8B83      		std Y+3,r24
 404 031c FA01      		movw r30,r20
 405 031e 8181      		ldd r24,Z+1
 406 0320 8F77      		andi r24,lo8(127)
 407 0322 8C83      		std Y+4,r24
 408 0324 8281      		ldd r24,Z+2
 409 0326 8D83      		std Y+5,r24
 410 0328 8381      		ldd r24,Z+3
 411 032a 8E83      		std Y+6,r24
 412 032c 8CE0      		ldi r24,lo8(12)
 413 032e 90E0      		ldi r25,hi8(12)
 414 0330 0E94 0000 		call malloc
 415 0334 9C01      		movw r18,r24
 416 0336 0097      		sbiw r24,0
 417 0338 01F0      		breq .L44
 418 033a 87E0      		ldi r24,lo8(7)
 419 033c 90E0      		ldi r25,hi8(7)
 420 033e A0E0      		ldi r26,hlo8(7)
 421 0340 B0E0      		ldi r27,hhi8(7)
 422 0342 4FEF      		ldi r20,lo8(-1)
 423               	.L49:
 424 0344 F601      		movw r30,r12
 425 0346 E81B      		sub r30,r24
 426 0348 F90B      		sbc r31,r25
 427 034a 47A3      		std Z+39,r20
 428 034c 0197      		sbiw r24,1
 429 034e A109      		sbc r26,__zero_reg__
 430 0350 B109      		sbc r27,__zero_reg__
 431 0352 01F4      		brne .L49
 432 0354 D901      		movw r26,r18
 433 0356 1296      		adiw r26,2
 434 0358 FE01      		movw r30,r28
 435 035a 3196      		adiw r30,1
 436 035c 86E0      		ldi r24,lo8(6)
 437               	.L50:
 438 035e 0190      		ld r0,Z+
 439 0360 0D92      		st X+,r0
 440 0362 8150      		subi r24,lo8(-(-1))
 441 0364 01F4      		brne .L50
 442 0366 F801      		movw r30,r16
 443 0368 8081      		ld r24,Z
 444 036a 9181      		ldd r25,Z+1
 445 036c A281      		ldd r26,Z+2
 446 036e B381      		ldd r27,Z+3
 447 0370 F901      		movw r30,r18
 448 0372 8087      		std Z+8,r24
 449 0374 9187      		std Z+9,r25
 450 0376 A287      		std Z+10,r26
 451 0378 B387      		std Z+11,r27
 452 037a F701      		movw r30,r14
 453 037c 858D      		ldd r24,Z+29
 454 037e 968D      		ldd r25,Z+30
 455 0380 F901      		movw r30,r18
 456 0382 9183      		std Z+1,r25
GAS LISTING C:\DOCUME~1\ADMINI~1\LOCALS~1\Temp/ccB0SLoe.s 			page 9


 457 0384 8083      		st Z,r24
 458 0386 F701      		movw r30,r14
 459 0388 368F      		std Z+30,r19
 460 038a 258F      		std Z+29,r18
 461 038c 83E0      		ldi r24,lo8(3)
 462 038e 8093 0EC0 		sts -16370,r24
 463 0392 F601      		movw r30,r12
 464 0394 A0E0      		ldi r26,lo8(-16384)
 465 0396 B0EC      		ldi r27,hi8(-16384)
 466               	.L51:
 467 0398 80A1      		ldd r24,Z+32
 468 039a 8D93      		st X+,r24
 469 039c 3196      		adiw r30,1
 470 039e 80EC      		ldi r24,hi8(-16377)
 471 03a0 A730      		cpi r26,lo8(-16377)
 472 03a2 B807      		cpc r27,r24
 473 03a4 01F4      		brne .L51
 474               	.L57:
 475 03a6 20E0      		ldi r18,lo8(0)
 476 03a8 30E0      		ldi r19,hi8(0)
 477 03aa 00C0      		rjmp .L48
 478               	.L44:
 479 03ac 2FEF      		ldi r18,lo8(-1)
 480 03ae 3FEF      		ldi r19,hi8(-1)
 481               	.L48:
 482 03b0 C901      		movw r24,r18
 483               	/* epilogue start */
 484 03b2 2696      		adiw r28,6
 485 03b4 0FB6      		in __tmp_reg__,__SREG__
 486 03b6 F894      		cli
 487 03b8 DEBF      		out __SP_H__,r29
 488 03ba 0FBE      		out __SREG__,__tmp_reg__
 489 03bc CDBF      		out __SP_L__,r28
 490 03be CF91      		pop r28
 491 03c0 DF91      		pop r29
 492 03c2 1F91      		pop r17
 493 03c4 0F91      		pop r16
 494 03c6 FF90      		pop r15
 495 03c8 EF90      		pop r14
 496 03ca DF90      		pop r13
 497 03cc CF90      		pop r12
 498 03ce 0895      		ret
 499               		.size	LancIOCtl, .-LancIOCtl
 500               		.data
 501               	.LC0:
 502 0000 7278 6935 		.string	"rxi5"
 502      00
 503               		.text
 504               	.global	LancInit
 505               		.type	LancInit, @function
 506               	LancInit:
 507 03d0 CF93      		push r28
 508 03d2 DF93      		push r29
 509               	/* prologue: function */
 510               	/* frame size = 0 */
 511 03d4 EC01      		movw r28,r24
 512 03d6 89B7      		in r24,89-32
GAS LISTING C:\DOCUME~1\ADMINI~1\LOCALS~1\Temp/ccB0SLoe.s 			page 10


 513 03d8 8F7D      		andi r24,lo8(-33)
 514 03da 89BF      		out 89-32,r24
 515 03dc E989      		ldd r30,Y+17
 516 03de FA89      		ldd r31,Y+18
 517 03e0 88E2      		ldi r24,lo8(40)
 518 03e2 DF01      		movw r26,r30
 519 03e4 1D92      		st X+,__zero_reg__
 520 03e6 8A95      	        dec r24
 521 03e8 01F4      		brne .-6
 522 03ea 80E0      		ldi r24,lo8(sig_INTERRUPT5)
 523 03ec 90E0      		ldi r25,hi8(sig_INTERRUPT5)
 524 03ee 60E0      		ldi r22,lo8(gs(NicInterrupt))
 525 03f0 70E0      		ldi r23,hi8(gs(NicInterrupt))
 526 03f2 AE01      		movw r20,r28
 527 03f4 0E94 0000 		call NutRegisterIrqHandler
 528 03f8 892B      		or r24,r25
 529 03fa 01F0      		breq .L60
 530 03fc 2FEF      		ldi r18,lo8(-1)
 531 03fe 3FEF      		ldi r19,hi8(-1)
 532 0400 00C0      		rjmp .L61
 533               	.L60:
 534 0402 80E0      		ldi r24,lo8(.LC0)
 535 0404 90E0      		ldi r25,hi8(.LC0)
 536 0406 60E0      		ldi r22,lo8(gs(NicRxLanc))
 537 0408 70E0      		ldi r23,hi8(gs(NicRxLanc))
 538 040a AE01      		movw r20,r28
 539 040c 20E0      		ldi r18,lo8(256)
 540 040e 31E0      		ldi r19,hi8(256)
 541 0410 0E94 0000 		call NutThreadCreate
 542 0414 20E0      		ldi r18,lo8(0)
 543 0416 30E0      		ldi r19,hi8(0)
 544               	.L61:
 545 0418 C901      		movw r24,r18
 546               	/* epilogue start */
 547 041a DF91      		pop r29
 548 041c CF91      		pop r28
 549 041e 0895      		ret
 550               		.size	LancInit, .-LancInit
 551               		.type	NicMmuWait, @function
 552               	NicMmuWait:
 553 0420 CF93      		push r28
 554 0422 DF93      		push r29
 555               	/* prologue: function */
 556               	/* frame size = 0 */
 557 0424 EC01      		movw r28,r24
 558 0426 00C0      		rjmp .L64
 559               	.L66:
 560 0428 8091 00C0 		lds r24,-16384
 561 042c 80FF      		sbrs r24,0
 562 042e 00C0      		rjmp .L65
 563 0430 81E0      		ldi r24,lo8(1)
 564 0432 0E94 0000 		call NutDelay
 565               	.L64:
 566 0436 2197      		sbiw r28,1
 567 0438 8FEF      		ldi r24,hi8(-1)
 568 043a CF3F      		cpi r28,lo8(-1)
 569 043c D807      		cpc r29,r24
GAS LISTING C:\DOCUME~1\ADMINI~1\LOCALS~1\Temp/ccB0SLoe.s 			page 11


 570 043e 01F4      		brne .L66
 571               	.L65:
 572 0440 CD2B      		or r28,r29
 573 0442 01F4      		brne .L67
 574 0444 2FEF      		ldi r18,lo8(-1)
 575 0446 3FEF      		ldi r19,hi8(-1)
 576 0448 00C0      		rjmp .L68
 577               	.L67:
 578 044a 20E0      		ldi r18,lo8(0)
 579 044c 30E0      		ldi r19,hi8(0)
 580               	.L68:
 581 044e C901      		movw r24,r18
 582               	/* epilogue start */
 583 0450 DF91      		pop r29
 584 0452 CF91      		pop r28
 585 0454 0895      		ret
 586               		.size	NicMmuWait, .-NicMmuWait
 587               	.global	LancOutput
 588               		.type	LancOutput, @function
 589               	LancOutput:
 590 0456 BF92      		push r11
 591 0458 CF92      		push r12
 592 045a DF92      		push r13
 593 045c EF92      		push r14
 594 045e FF92      		push r15
 595 0460 0F93      		push r16
 596 0462 1F93      		push r17
 597 0464 CF93      		push r28
 598 0466 DF93      		push r29
 599               	/* prologue: function */
 600               	/* frame size = 0 */
 601 0468 EC01      		movw r28,r24
 602 046a 7B01      		movw r14,r22
 603 046c 4091 0000 		lds r20,mx_wait.2484
 604 0470 5091 0000 		lds r21,(mx_wait.2484)+1
 605 0474 6091 0000 		lds r22,(mx_wait.2484)+2
 606 0478 7091 0000 		lds r23,(mx_wait.2484)+3
 607 047c 80E0      		ldi r24,lo8(mutex)
 608 047e 90E0      		ldi r25,hi8(mutex)
 609 0480 0E94 0000 		call NutEventWait
 610 0484 892B      		or r24,r25
 611 0486 01F0      		breq .+2
 612 0488 00C0      		rjmp .L71
 613 048a C988      		ldd r12,Y+17
 614 048c BA88      		ldd r11,Y+18
 615 048e F701      		movw r30,r14
 616 0490 0585      		ldd r16,Z+13
 617 0492 1685      		ldd r17,Z+14
 618 0494 8185      		ldd r24,Z+9
 619 0496 9285      		ldd r25,Z+10
 620 0498 080F      		add r16,r24
 621 049a 191F      		adc r17,r25
 622 049c 8189      		ldd r24,Z+17
 623 049e 9289      		ldd r25,Z+18
 624 04a0 080F      		add r16,r24
 625 04a2 191F      		adc r17,r25
 626 04a4 F5E0      		ldi r31,hi8(1501)
GAS LISTING C:\DOCUME~1\ADMINI~1\LOCALS~1\Temp/ccB0SLoe.s 			page 12


 627 04a6 0D3D      		cpi r16,lo8(1501)
 628 04a8 1F07      		cpc r17,r31
 629 04aa 00F0      		brlo .+2
 630 04ac 00C0      		rjmp .L72
 631 04ae D090 0DC0 		lds r13,-16371
 632 04b2 1092 0DC0 		sts -16371,__zero_reg__
 633 04b6 82E0      		ldi r24,lo8(2)
 634 04b8 8093 0EC0 		sts -16370,r24
 635 04bc 80E2      		ldi r24,lo8(32)
 636 04be 8093 00C0 		sts -16384,r24
 637 04c2 84E6      		ldi r24,lo8(100)
 638 04c4 90E0      		ldi r25,hi8(100)
 639 04c6 0E94 0000 		call NicMmuWait
 640 04ca 892B      		or r24,r25
 641 04cc 01F0      		breq .+2
 642 04ce 00C0      		rjmp .L72
 643 04d0 88E0      		ldi r24,lo8(8)
 644 04d2 D82A      		or r13,r24
 645 04d4 D092 0DC0 		sts -16371,r13
 646 04d8 F701      		movw r30,r14
 647 04da C581      		ldd r28,Z+5
 648 04dc D681      		ldd r29,Z+6
 649 04de 2696      		adiw r28,6
 650 04e0 C00F      		add r28,r16
 651 04e2 D11F      		adc r29,r17
 652 04e4 C0FD      		sbrc r28,0
 653 04e6 00C0      		rjmp .L73
 654 04e8 00E0      		ldi r16,lo8(0)
 655 04ea 00C0      		rjmp .L84
 656               	.L73:
 657 04ec 2196      		adiw r28,1
 658 04ee 01E0      		ldi r16,lo8(1)
 659 04f0 00C0      		rjmp .L84
 660               	.L76:
 661 04f2 80E0      		ldi r24,lo8(maq)
 662 04f4 90E0      		ldi r25,hi8(maq)
 663 04f6 4DE7      		ldi r20,lo8(125)
 664 04f8 50E0      		ldi r21,hi8(125)
 665 04fa 60E0      		ldi r22,hlo8(125)
 666 04fc 70E0      		ldi r23,hhi8(125)
 667 04fe 0E94 0000 		call NutEventWait
 668 0502 892B      		or r24,r25
 669 0504 01F0      		breq .L83
 670 0506 D092 00C0 		sts -16384,r13
 671 050a 88EE      		ldi r24,lo8(1000)
 672 050c 93E0      		ldi r25,hi8(1000)
 673 050e 0E94 0000 		call NicMmuWait
 674 0512 1093 00C0 		sts -16384,r17
 675 0516 84E6      		ldi r24,lo8(100)
 676 0518 90E0      		ldi r25,hi8(100)
 677 051a 0E94 0000 		call NicMmuWait
 678 051e 892B      		or r24,r25
 679 0520 01F4      		brne .L75
 680 0522 8091 0CC0 		lds r24,-16372
 681 0526 83FD      		sbrc r24,3
 682 0528 00C0      		rjmp .L83
 683               	.L75:
GAS LISTING C:\DOCUME~1\ADMINI~1\LOCALS~1\Temp/ccB0SLoe.s 			page 13


 684 052a 80E0      		ldi r24,lo8(maq)
 685 052c 90E0      		ldi r25,hi8(maq)
 686 052e 4DE7      		ldi r20,lo8(125)
 687 0530 50E0      		ldi r21,hi8(125)
 688 0532 60E0      		ldi r22,hlo8(125)
 689 0534 70E0      		ldi r23,hhi8(125)
 690 0536 0E94 0000 		call NutEventWait
 691 053a 892B      		or r24,r25
 692 053c 01F0      		breq .L83
 693 053e 00C0      		rjmp .L72
 694               	.L84:
 695 0540 B0E4      		ldi r27,lo8(64)
 696 0542 DB2E      		mov r13,r27
 697 0544 10E2      		ldi r17,lo8(32)
 698               	.L83:
 699 0546 8091 0CC0 		lds r24,-16372
 700 054a 83FF      		sbrs r24,3
 701 054c 00C0      		rjmp .L76
 702 054e 1091 0DC0 		lds r17,-16371
 703 0552 1092 0DC0 		sts -16371,__zero_reg__
 704 0556 8091 03C0 		lds r24,-16381
 705 055a 8093 02C0 		sts -16382,r24
 706 055e 1092 06C0 		sts -16378,__zero_reg__
 707 0562 80E4      		ldi r24,lo8(64)
 708 0564 8093 07C0 		sts -16377,r24
 709 0568 1092 08C0 		sts -16376,__zero_reg__
 710 056c 1092 08C0 		sts -16376,__zero_reg__
 711 0570 C093 08C0 		sts -16376,r28
 712 0574 D093 09C0 		sts -16375,r29
 713 0578 F701      		movw r30,r14
 714 057a 6581      		ldd r22,Z+5
 715 057c 7681      		ldd r23,Z+6
 716 057e 8381      		ldd r24,Z+3
 717 0580 9481      		ldd r25,Z+4
 718 0582 0E94 0000 		call NicWrite
 719 0586 F701      		movw r30,r14
 720 0588 6185      		ldd r22,Z+9
 721 058a 7285      		ldd r23,Z+10
 722 058c 8781      		ldd r24,Z+7
 723 058e 9085      		ldd r25,Z+8
 724 0590 0E94 0000 		call NicWrite
 725 0594 F701      		movw r30,r14
 726 0596 6585      		ldd r22,Z+13
 727 0598 7685      		ldd r23,Z+14
 728 059a 8385      		ldd r24,Z+11
 729 059c 9485      		ldd r25,Z+12
 730 059e 0E94 0000 		call NicWrite
 731 05a2 F701      		movw r30,r14
 732 05a4 6189      		ldd r22,Z+17
 733 05a6 7289      		ldd r23,Z+18
 734 05a8 8785      		ldd r24,Z+15
 735 05aa 9089      		ldd r25,Z+16
 736 05ac 0E94 0000 		call NicWrite
 737 05b0 0023      		tst r16
 738 05b2 01F0      		breq .L77
 739 05b4 1092 08C0 		sts -16376,__zero_reg__
 740               	.L77:
GAS LISTING C:\DOCUME~1\ADMINI~1\LOCALS~1\Temp/ccB0SLoe.s 			page 14


 741 05b8 1092 08C0 		sts -16376,__zero_reg__
 742 05bc 1092 09C0 		sts -16375,__zero_reg__
 743 05c0 84E6      		ldi r24,lo8(100)
 744 05c2 90E0      		ldi r25,hi8(100)
 745 05c4 0E94 0000 		call NicMmuWait
 746 05c8 892B      		or r24,r25
 747 05ca 01F4      		brne .L72
 748 05cc EC2D      		mov r30,r12
 749 05ce FB2D      		mov r31,r11
 750 05d0 80EC      		ldi r24,lo8(-64)
 751 05d2 8093 00C0 		sts -16384,r24
 752 05d6 1660      		ori r17,lo8(6)
 753 05d8 1093 0DC0 		sts -16371,r17
 754 05dc 8085      		ldd r24,Z+8
 755 05de 9185      		ldd r25,Z+9
 756 05e0 A285      		ldd r26,Z+10
 757 05e2 B385      		ldd r27,Z+11
 758 05e4 0196      		adiw r24,1
 759 05e6 A11D      		adc r26,__zero_reg__
 760 05e8 B11D      		adc r27,__zero_reg__
 761 05ea 8087      		std Z+8,r24
 762 05ec 9187      		std Z+9,r25
 763 05ee A287      		std Z+10,r26
 764 05f0 B387      		std Z+11,r27
 765 05f2 88E8      		ldi r24,lo8(5000)
 766 05f4 93E1      		ldi r25,hi8(5000)
 767 05f6 A0E0      		ldi r26,hlo8(5000)
 768 05f8 B0E0      		ldi r27,hhi8(5000)
 769 05fa 8093 0000 		sts mx_wait.2484,r24
 770 05fe 9093 0000 		sts (mx_wait.2484)+1,r25
 771 0602 A093 0000 		sts (mx_wait.2484)+2,r26
 772 0606 B093 0000 		sts (mx_wait.2484)+3,r27
 773 060a C0E0      		ldi r28,lo8(0)
 774 060c D0E0      		ldi r29,hi8(0)
 775 060e 00C0      		rjmp .L78
 776               	.L72:
 777 0610 CFEF      		ldi r28,lo8(-1)
 778 0612 DFEF      		ldi r29,hi8(-1)
 779               	.L78:
 780 0614 80E0      		ldi r24,lo8(mutex)
 781 0616 90E0      		ldi r25,hi8(mutex)
 782 0618 0E94 0000 		call NutEventPost
 783 061c 00C0      		rjmp .L79
 784               	.L71:
 785 061e 84EF      		ldi r24,lo8(500)
 786 0620 91E0      		ldi r25,hi8(500)
 787 0622 A0E0      		ldi r26,hlo8(500)
 788 0624 B0E0      		ldi r27,hhi8(500)
 789 0626 8093 0000 		sts mx_wait.2484,r24
 790 062a 9093 0000 		sts (mx_wait.2484)+1,r25
 791 062e A093 0000 		sts (mx_wait.2484)+2,r26
 792 0632 B093 0000 		sts (mx_wait.2484)+3,r27
 793 0636 CFEF      		ldi r28,lo8(-1)
 794 0638 DFEF      		ldi r29,hi8(-1)
 795               	.L79:
 796 063a CE01      		movw r24,r28
 797               	/* epilogue start */
GAS LISTING C:\DOCUME~1\ADMINI~1\LOCALS~1\Temp/ccB0SLoe.s 			page 15


 798 063c DF91      		pop r29
 799 063e CF91      		pop r28
 800 0640 1F91      		pop r17
 801 0642 0F91      		pop r16
 802 0644 FF90      		pop r15
 803 0646 EF90      		pop r14
 804 0648 DF90      		pop r13
 805 064a CF90      		pop r12
 806 064c BF90      		pop r11
 807 064e 0895      		ret
 808               		.size	LancOutput, .-LancOutput
 809               	.global	NicRxLanc
 810               		.type	NicRxLanc, @function
 811               	NicRxLanc:
 812               	/* prologue: function */
 813               	/* frame size = 0 */
 814 0650 5C01      		movw r10,r24
 815 0652 DC01      		movw r26,r24
 816 0654 1F96      		adiw r26,15
 817 0656 CD90      		ld r12,X+
 818 0658 DC90      		ld r13,X
 819 065a 5097      		sbiw r26,15+1
 820 065c 5196      		adiw r26,17
 821 065e 6D90      		ld r6,X+
 822 0660 7C90      		ld r7,X
 823 0662 5297      		sbiw r26,17+1
 824 0664 00C0      		rjmp .L86
 825               	.L87:
 826 0666 6AE0      		ldi r22,lo8(10)
 827 0668 70E0      		ldi r23,hi8(10)
 828 066a 80E0      		ldi r24,hlo8(10)
 829 066c 90E0      		ldi r25,hhi8(10)
 830 066e 0E94 0000 		call NutSleep
 831               	.L86:
 832 0672 F601      		movw r30,r12
 833 0674 2581      		ldd r18,Z+5
 834 0676 8681      		ldd r24,Z+6
 835 0678 822B      		or r24,r18
 836 067a 9781      		ldd r25,Z+7
 837 067c 892B      		or r24,r25
 838 067e 9085      		ldd r25,Z+8
 839 0680 892B      		or r24,r25
 840 0682 9185      		ldd r25,Z+9
 841 0684 892B      		or r24,r25
 842 0686 9285      		ldd r25,Z+10
 843 0688 892B      		or r24,r25
 844 068a 01F0      		breq .L87
 845 068c 20FD      		sbrc r18,0
 846 068e 00C0      		rjmp .L87
 847 0690 A0E8      		ldi r26,lo8(-128)
 848 0692 FA2E      		mov r15,r26
 849 0694 11E0      		ldi r17,lo8(1)
 850 0696 08E0      		ldi r16,lo8(8)
 851 0698 F2E0      		ldi r31,lo8(2)
 852 069a 3F2E      		mov r3,r31
 853 069c E0E4      		ldi r30,lo8(64)
 854 069e 4E2E      		mov r4,r30
GAS LISTING C:\DOCUME~1\ADMINI~1\LOCALS~1\Temp/ccB0SLoe.s 			page 16


 855 06a0 73E0      		ldi r23,lo8(3)
 856 06a2 572E      		mov r5,r23
 857 06a4 67E0      		ldi r22,lo8(7)
 858 06a6 862E      		mov r8,r22
 859 06a8 51E8      		ldi r21,lo8(-127)
 860 06aa 952E      		mov r9,r21
 861 06ac 40E1      		ldi r20,lo8(16)
 862 06ae E42E      		mov r14,r20
 863               	.L113:
 864 06b0 1092 0DC0 		sts -16371,__zero_reg__
 865 06b4 1092 0EC0 		sts -16370,__zero_reg__
 866 06b8 1092 04C0 		sts -16380,__zero_reg__
 867 06bc F092 05C0 		sts -16379,r15
 868 06c0 1093 0EC0 		sts -16370,r17
 869 06c4 1092 00C0 		sts -16384,__zero_reg__
 870 06c8 F092 01C0 		sts -16383,r15
 871 06cc 8AE0      		ldi r24,lo8(10)
 872 06ce 0E94 0000 		call NutDelay
 873 06d2 1092 0EC0 		sts -16370,__zero_reg__
 874 06d6 1092 04C0 		sts -16380,__zero_reg__
 875 06da 1092 05C0 		sts -16379,__zero_reg__
 876 06de 1092 00C0 		sts -16384,__zero_reg__
 877 06e2 1092 01C0 		sts -16383,__zero_reg__
 878 06e6 1093 0EC0 		sts -16370,r17
 879 06ea 1092 0CC0 		sts -16372,__zero_reg__
 880 06ee 0093 0DC0 		sts -16371,r16
 881 06f2 3092 0EC0 		sts -16370,r3
 882 06f6 4092 00C0 		sts -16384,r4
 883 06fa 88EE      		ldi r24,lo8(1000)
 884 06fc 93E0      		ldi r25,hi8(1000)
 885 06fe 0E94 0000 		call NicMmuWait
 886 0702 892B      		or r24,r25
 887 0704 01F0      		breq .+2
 888 0706 00C0      		rjmp .L88
 889 0708 00C0      		rjmp .L114
 890               	.L91:
 891 070a 6FE3      		ldi r22,lo8(63)
 892 070c 70E0      		ldi r23,hi8(63)
 893 070e 80E0      		ldi r24,hlo8(63)
 894 0710 90E0      		ldi r25,hhi8(63)
 895 0712 0E94 0000 		call NutSleep
 896 0716 80E0      		ldi r24,lo8(0)
 897 0718 0E94 0000 		call NicPhyRead
 898 071c 97FF      		sbrs r25,7
 899 071e 00C0      		rjmp .L90
 900 0720 C430      		cpi r28,4
 901 0722 D105      		cpc r29,__zero_reg__
 902 0724 01F4      		brne .+2
 903 0726 00C0      		rjmp .L88
 904 0728 2196      		adiw r28,1
 905 072a 00C0      		rjmp .L91
 906               	.L90:
 907 072c 82E1      		ldi r24,lo8(18)
 908 072e 0E94 0000 		call NicPhyRead
 909 0732 83E1      		ldi r24,lo8(19)
 910 0734 60EC      		ldi r22,lo8(16320)
 911 0736 7FE3      		ldi r23,hi8(16320)
GAS LISTING C:\DOCUME~1\ADMINI~1\LOCALS~1\Temp/ccB0SLoe.s 			page 17


 912 0738 0E94 0000 		call NicPhyWrite
 913 073c 1092 0EC0 		sts -16370,__zero_reg__
 914 0740 E092 0AC0 		sts -16374,r14
 915 0744 0093 0BC0 		sts -16373,r16
 916 0748 84E0      		ldi r24,lo8(4)
 917 074a 61EE      		ldi r22,lo8(481)
 918 074c 71E0      		ldi r23,hi8(481)
 919 074e 0E94 0000 		call NicPhyWrite
 920 0752 6FE3      		ldi r22,lo8(63)
 921 0754 70E0      		ldi r23,hi8(63)
 922 0756 80E0      		ldi r24,hlo8(63)
 923 0758 90E0      		ldi r25,hhi8(63)
 924 075a 0E94 0000 		call NutSleep
 925 075e C0E0      		ldi r28,lo8(0)
 926 0760 D0E0      		ldi r29,hi8(0)
 927               	.L94:
 928 0762 CE01      		movw r24,r28
 929 0764 8F77      		andi r24,lo8(127)
 930 0766 9070      		andi r25,hi8(127)
 931 0768 892B      		or r24,r25
 932 076a 01F4      		brne .L92
 933 076c 80E0      		ldi r24,lo8(0)
 934 076e 60E0      		ldi r22,lo8(4608)
 935 0770 72E1      		ldi r23,hi8(4608)
 936 0772 0E94 0000 		call NicPhyWrite
 937 0776 6FE3      		ldi r22,lo8(63)
 938 0778 70E0      		ldi r23,hi8(63)
 939 077a 80E0      		ldi r24,hlo8(63)
 940 077c 90E0      		ldi r25,hhi8(63)
 941 077e 0E94 0000 		call NutSleep
 942               	.L92:
 943 0782 81E0      		ldi r24,lo8(1)
 944 0784 0E94 0000 		call NicPhyRead
 945 0788 85FD      		sbrc r24,5
 946 078a 00C0      		rjmp .L93
 947 078c 6FE3      		ldi r22,lo8(63)
 948 078e 70E0      		ldi r23,hi8(63)
 949 0790 80E0      		ldi r24,hlo8(63)
 950 0792 90E0      		ldi r25,hhi8(63)
 951 0794 0E94 0000 		call NutSleep
 952 0798 2196      		adiw r28,1
 953 079a F4E0      		ldi r31,hi8(1024)
 954 079c C030      		cpi r28,lo8(1024)
 955 079e DF07      		cpc r29,r31
 956 07a0 01F4      		brne .L94
 957 07a2 00C0      		rjmp .L88
 958               	.L95:
 959 07a4 1596      		adiw r26,5
 960 07a6 8C91      		ld r24,X
 961 07a8 1597      		sbiw r26,5
 962 07aa 8193      		st Z+,r24
 963 07ac 1196      		adiw r26,1
 964 07ae 20EC      		ldi r18,hi8(-16374)
 965 07b0 EA30      		cpi r30,lo8(-16374)
 966 07b2 F207      		cpc r31,r18
 967 07b4 01F4      		brne .L95
 968 07b6 83E0      		ldi r24,lo8(3)
GAS LISTING C:\DOCUME~1\ADMINI~1\LOCALS~1\Temp/ccB0SLoe.s 			page 18


 969 07b8 8093 0EC0 		sts -16370,r24
 970 07bc D301      		movw r26,r6
 971 07be E0E0      		ldi r30,lo8(-16384)
 972 07c0 F0EC      		ldi r31,hi8(-16384)
 973               	.L96:
 974 07c2 9096      		adiw r26,32
 975 07c4 8C91      		ld r24,X
 976 07c6 9097      		sbiw r26,32
 977 07c8 8193      		st Z+,r24
 978 07ca 1196      		adiw r26,1
 979 07cc 80EC      		ldi r24,hi8(-16377)
 980 07ce E730      		cpi r30,lo8(-16377)
 981 07d0 F807      		cpc r31,r24
 982 07d2 01F4      		brne .L96
 983 07d4 82E0      		ldi r24,lo8(2)
 984 07d6 8093 0EC0 		sts -16370,r24
 985 07da 81E5      		ldi r24,lo8(81)
 986 07dc 8093 0DC0 		sts -16371,r24
 987 07e0 8AB7      		in r24,90-32
 988 07e2 8460      		ori r24,lo8(4)
 989 07e4 8ABF      		out 90-32,r24
 990 07e6 8AB7      		in r24,90-32
 991 07e8 8860      		ori r24,lo8(8)
 992 07ea 8ABF      		out 90-32,r24
 993 07ec 89B7      		in r24,89-32
 994 07ee 8062      		ori r24,lo8(32)
 995 07f0 89BF      		out 89-32,r24
 996 07f2 80E0      		ldi r24,lo8(mutex)
 997 07f4 90E0      		ldi r25,hi8(mutex)
 998 07f6 0E94 0000 		call NutEventPost
 999 07fa 89E0      		ldi r24,lo8(9)
 1000 07fc 0E94 0000 		call NutThreadSetPriority
 1001 0800 32E0      		ldi r19,lo8(2)
 1002 0802 432E      		mov r4,r19
 1003 0804 20EE      		ldi r18,lo8(-32)
 1004 0806 522E      		mov r5,r18
 1005 0808 90E8      		ldi r25,lo8(-128)
 1006 080a 892E      		mov r8,r25
 1007 080c 00C0      		rjmp .L97
 1008               	.L88:
 1009 080e 68EE      		ldi r22,lo8(1000)
 1010 0810 73E0      		ldi r23,hi8(1000)
 1011 0812 80E0      		ldi r24,hlo8(1000)
 1012 0814 90E0      		ldi r25,hhi8(1000)
 1013 0816 0E94 0000 		call NutSleep
 1014 081a 00C0      		rjmp .L113
 1015               	.L97:
 1016 081c C301      		movw r24,r6
 1017 081e 40ED      		ldi r20,lo8(2000)
 1018 0820 57E0      		ldi r21,hi8(2000)
 1019 0822 60E0      		ldi r22,hlo8(2000)
 1020 0824 70E0      		ldi r23,hhi8(2000)
 1021 0826 0E94 0000 		call NutEventWait
 1022 082a 9090 0DC0 		lds r9,-16371
 1023 082e 1092 0DC0 		sts -16371,__zero_reg__
 1024 0832 00C0      		rjmp .L111
 1025               	.L105:
GAS LISTING C:\DOCUME~1\ADMINI~1\LOCALS~1\Temp/ccB0SLoe.s 			page 19


 1026 0834 AFEF      		ldi r26,hi8(-1)
 1027 0836 CF3F      		cpi r28,lo8(-1)
 1028 0838 DA07      		cpc r29,r26
 1029 083a 01F0      		breq .L111
 1030 083c F301      		movw r30,r6
 1031 083e 8481      		ldd r24,Z+4
 1032 0840 9581      		ldd r25,Z+5
 1033 0842 A681      		ldd r26,Z+6
 1034 0844 B781      		ldd r27,Z+7
 1035 0846 0196      		adiw r24,1
 1036 0848 A11D      		adc r26,__zero_reg__
 1037 084a B11D      		adc r27,__zero_reg__
 1038 084c 8483      		std Z+4,r24
 1039 084e 9583      		std Z+5,r25
 1040 0850 A683      		std Z+6,r26
 1041 0852 B783      		std Z+7,r27
 1042 0854 D601      		movw r26,r12
 1043 0856 5F96      		adiw r26,31
 1044 0858 ED91      		ld r30,X+
 1045 085a FC91      		ld r31,X
 1046 085c 9097      		sbiw r26,31+1
 1047 085e C501      		movw r24,r10
 1048 0860 BE01      		movw r22,r28
 1049 0862 0995      		icall
 1050               	.L111:
 1051 0864 4092 0EC0 		sts -16370,r4
 1052 0868 8091 04C0 		lds r24,-16380
 1053 086c 9091 05C0 		lds r25,(-16380)+1
 1054 0870 97FD      		sbrc r25,7
 1055 0872 00C0      		rjmp .L100
 1056 0874 1092 06C0 		sts -16378,__zero_reg__
 1057 0878 5092 07C0 		sts -16377,r5
 1058               	/* #APP */
 1059               	 ;  1062 "../../nut/arch/avr/dev/lanc111.c" 1
 1060 087c 0000      		nop
 1061               	 ;  0 "" 2
 1062               	 ;  1063 "../../nut/arch/avr/dev/lanc111.c" 1
 1063 087e 0000      		nop
 1064               	 ;  0 "" 2
 1065               	 ;  1064 "../../nut/arch/avr/dev/lanc111.c" 1
 1066 0880 0000      		nop
 1067               	 ;  0 "" 2
 1068               	 ;  1065 "../../nut/arch/avr/dev/lanc111.c" 1
 1069 0882 0000      		nop
 1070               	 ;  0 "" 2
 1071               	/* #NOAPP */
 1072 0884 8091 08C0 		lds r24,-16376
 1073 0888 9091 09C0 		lds r25,(-16376)+1
 1074 088c 0091 08C0 		lds r16,-16376
 1075 0890 1091 09C0 		lds r17,(-16376)+1
 1076 0894 8070      		andi r24,lo8(-21504)
 1077 0896 9C7A      		andi r25,hi8(-21504)
 1078 0898 892B      		or r24,r25
 1079 089a 01F4      		brne .L101
 1080 089c C801      		movw r24,r16
 1081 089e 8254      		subi r24,lo8(-(-66))
 1082 08a0 9040      		sbci r25,hi8(-(-66))
GAS LISTING C:\DOCUME~1\ADMINI~1\LOCALS~1\Temp/ccB0SLoe.s 			page 20


 1083 08a2 835B      		subi r24,lo8(1459)
 1084 08a4 9540      		sbci r25,hi8(1459)
 1085 08a6 00F4      		brsh .L101
 1086 08a8 8DEF      		ldi r24,lo8(-3)
 1087 08aa E82E      		mov r14,r24
 1088 08ac 8FEF      		ldi r24,hi8(-3)
 1089 08ae F82E      		mov r15,r24
 1090 08b0 E00E      		add r14,r16
 1091 08b2 F11E      		adc r15,r17
 1092 08b4 80E0      		ldi r24,lo8(0)
 1093 08b6 90E0      		ldi r25,hi8(0)
 1094 08b8 60E1      		ldi r22,lo8(16)
 1095 08ba A701      		movw r20,r14
 1096 08bc 0E94 0000 		call NutNetBufAlloc
 1097 08c0 EC01      		movw r28,r24
 1098 08c2 0097      		sbiw r24,0
 1099 08c4 01F0      		breq .L102
 1100 08c6 8B81      		ldd r24,Y+3
 1101 08c8 9C81      		ldd r25,Y+4
 1102 08ca EF28      		or r14,r15
 1103 08cc 01F0      		breq .L102
 1104 08ce FC01      		movw r30,r24
 1105 08d0 C801      		movw r24,r16
 1106 08d2 0497      		sbiw r24,4
 1107 08d4 292F      		mov r18,r25
 1108 08d6 982F      		mov r25,r24
 1109 08d8 00C0      		rjmp .L103
 1110               	.L104:
 1111 08da 9150      		subi r25,lo8(-(-1))
 1112               	.L103:
 1113 08dc 8091 08C0 		lds r24,-16376
 1114 08e0 8193      		st Z+,r24
 1115 08e2 9923      		tst r25
 1116 08e4 01F4      		brne .L104
 1117 08e6 2223      		tst r18
 1118 08e8 01F0      		breq .L102
 1119 08ea 2150      		subi r18,lo8(-(-1))
 1120 08ec 00C0      		rjmp .L104
 1121               	.L101:
 1122 08ee CFEF      		ldi r28,lo8(-1)
 1123 08f0 DFEF      		ldi r29,hi8(-1)
 1124               	.L102:
 1125 08f2 8092 00C0 		sts -16384,r8
 1126 08f6 2097      		sbiw r28,0
 1127 08f8 01F0      		breq .+2
 1128 08fa 00C0      		rjmp .L105
 1129               	.L100:
 1130 08fc E1E4      		ldi r30,lo8(65)
 1131 08fe 9E2A      		or r9,r30
 1132 0900 9092 0DC0 		sts -16371,r9
 1133 0904 00C0      		rjmp .L97
 1134               	.L114:
 1135 0906 5092 0EC0 		sts -16370,r5
 1136 090a 8092 0CC0 		sts -16372,r8
 1137 090e 1092 0EC0 		sts -16370,__zero_reg__
 1138 0912 1092 04C0 		sts -16380,__zero_reg__
 1139 0916 1093 05C0 		sts -16379,r17
GAS LISTING C:\DOCUME~1\ADMINI~1\LOCALS~1\Temp/ccB0SLoe.s 			page 21


 1140 091a 9092 00C0 		sts -16384,r9
 1141 091e 1092 01C0 		sts -16383,__zero_reg__
 1142 0922 80E0      		ldi r24,lo8(0)
 1143 0924 60E0      		ldi r22,lo8(-32768)
 1144 0926 70E8      		ldi r23,hi8(-32768)
 1145 0928 0E94 0000 		call NicPhyWrite
 1146 092c C0E0      		ldi r28,lo8(0)
 1147 092e D0E0      		ldi r29,hi8(0)
 1148 0930 00C0      		rjmp .L91
 1149               	.L93:
 1150 0932 81E0      		ldi r24,lo8(1)
 1151 0934 8093 0EC0 		sts -16370,r24
 1152 0938 D601      		movw r26,r12
 1153 093a E4E0      		ldi r30,lo8(-16380)
 1154 093c F0EC      		ldi r31,hi8(-16380)
 1155 093e 00C0      		rjmp .L95
 1156               		.size	NicRxLanc, .-NicRxLanc
 1157               	.global	devSmsc111
 1158               		.data
 1159               		.type	devSmsc111, @object
 1160               		.size	devSmsc111, 35
 1161               	devSmsc111:
 1162 0005 0000      		.word	0
 1163 0007 65        		.byte	101
 1164 0008 74        		.byte	116
 1165 0009 68        		.byte	104
 1166 000a 30        		.byte	48
 1167 000b 00        		.byte	0
 1168 000c 00        		.byte	0
 1169 000d 00        		.byte	0
 1170 000e 00        		.byte	0
 1171 000f 00        		.byte	0
 1172 0010 03        		.byte	3
 1173 0011 0000      		.word	0
 1174 0013 00        		.byte	0
 1175 0014 0000      		.word	ifn_eth0
 1176 0016 0000      		.word	dcb_eth0
 1177 0018 0000      		.word	gs(LancInit)
 1178 001a 0000      		.word	gs(LancIOCtl)
 1179 001c 0000      		.word	0
 1180 001e 0000      		.word	0
 1181 0020 0000      		.word	0
 1182 0022 0000      		.word	0
 1183 0024 0000      		.word	0
 1184 0026 0000      		.word	0
 1185               		.type	mx_wait.2484, @object
 1186               		.size	mx_wait.2484, 4
 1187               	mx_wait.2484:
 1188 0028 88        		.byte	-120
 1189 0029 13        		.byte	19
 1190 002a 00        		.byte	0
 1191 002b 00        		.byte	0
 1192               		.lcomm mutex,2
 1193               		.lcomm maq,2
 1194               		.type	ifn_eth0, @object
 1195               		.size	ifn_eth0, 39
 1196               	ifn_eth0:
GAS LISTING C:\DOCUME~1\ADMINI~1\LOCALS~1\Temp/ccB0SLoe.s 			page 22


 1197 002c 06        		.byte	6
 1198 002d 00        		.byte	0
 1199 002e 00        		.byte	0
 1200 002f 00        		.byte	0
 1201 0030 00        		.byte	0
 1202 0031 00        		.byte	0
 1203 0032 00        		.byte	0
 1204 0033 00        		.byte	0
 1205 0034 00        		.byte	0
 1206 0035 00        		.byte	0
 1207 0036 00        		.byte	0
 1208 0037 00        		.byte	0
 1209 0038 00        		.byte	0
 1210 0039 00        		.byte	0
 1211 003a 00        		.byte	0
 1212 003b 00        		.byte	0
 1213 003c 00        		.byte	0
 1214 003d 00        		.byte	0
 1215 003e 00        		.byte	0
 1216 003f 00        		.byte	0
 1217 0040 00        		.byte	0
 1218 0041 00        		.byte	0
 1219 0042 00        		.byte	0
 1220 0043 DC05      		.word	1500
 1221 0045 0000      		.word	0
 1222 0047 0000      		.word	0
 1223 0049 0000      		.word	0
 1224 004b 0000      		.word	gs(NutEtherInput)
 1225 004d 0000      		.word	gs(LancOutput)
 1226 004f 0000      		.word	gs(NutEtherOutput)
 1227 0051 0000      		.word	0
 1228               		.lcomm dcb_eth0,40
 1229               	.global __do_copy_data
 1230               	.global __do_clear_bss
GAS LISTING C:\DOCUME~1\ADMINI~1\LOCALS~1\Temp/ccB0SLoe.s 			page 23


DEFINED SYMBOLS
                            *ABS*:00000000 lanc111.c
C:\DOCUME~1\ADMINI~1\LOCALS~1\Temp/ccB0SLoe.s:2      *ABS*:0000003f __SREG__
C:\DOCUME~1\ADMINI~1\LOCALS~1\Temp/ccB0SLoe.s:3      *ABS*:0000003e __SP_H__
C:\DOCUME~1\ADMINI~1\LOCALS~1\Temp/ccB0SLoe.s:4      *ABS*:0000003d __SP_L__
C:\DOCUME~1\ADMINI~1\LOCALS~1\Temp/ccB0SLoe.s:5      *ABS*:00000034 __CCP__
C:\DOCUME~1\ADMINI~1\LOCALS~1\Temp/ccB0SLoe.s:6      *ABS*:00000000 __tmp_reg__
C:\DOCUME~1\ADMINI~1\LOCALS~1\Temp/ccB0SLoe.s:7      *ABS*:00000001 __zero_reg__
C:\DOCUME~1\ADMINI~1\LOCALS~1\Temp/ccB0SLoe.s:10     .text:00000000 NicPhyRegSelect
C:\DOCUME~1\ADMINI~1\LOCALS~1\Temp/ccB0SLoe.s:83     .text:000000a6 NicPhyRead
C:\DOCUME~1\ADMINI~1\LOCALS~1\Temp/ccB0SLoe.s:119    .text:000000ee NicPhyWrite
C:\DOCUME~1\ADMINI~1\LOCALS~1\Temp/ccB0SLoe.s:170    .text:00000156 NicInterrupt
C:\DOCUME~1\ADMINI~1\LOCALS~1\Temp/ccB0SLoe.s:1192   .bss:00000002 maq
C:\DOCUME~1\ADMINI~1\LOCALS~1\Temp/ccB0SLoe.s:328    .text:0000029c NicWrite
C:\DOCUME~1\ADMINI~1\LOCALS~1\Temp/ccB0SLoe.s:356    .text:000002c8 LancIOCtl
C:\DOCUME~1\ADMINI~1\LOCALS~1\Temp/ccB0SLoe.s:506    .text:000003d0 LancInit
C:\DOCUME~1\ADMINI~1\LOCALS~1\Temp/ccB0SLoe.s:811    .text:00000650 NicRxLanc
C:\DOCUME~1\ADMINI~1\LOCALS~1\Temp/ccB0SLoe.s:552    .text:00000420 NicMmuWait
C:\DOCUME~1\ADMINI~1\LOCALS~1\Temp/ccB0SLoe.s:589    .text:00000456 LancOutput
C:\DOCUME~1\ADMINI~1\LOCALS~1\Temp/ccB0SLoe.s:1187   .data:00000028 mx_wait.2484
                             .bss:00000000 mutex
C:\DOCUME~1\ADMINI~1\LOCALS~1\Temp/ccB0SLoe.s:1161   .data:00000005 devSmsc111
C:\DOCUME~1\ADMINI~1\LOCALS~1\Temp/ccB0SLoe.s:1196   .data:0000002c ifn_eth0
C:\DOCUME~1\ADMINI~1\LOCALS~1\Temp/ccB0SLoe.s:1193   .bss:00000004 dcb_eth0

UNDEFINED SYMBOLS
malloc
sig_INTERRUPT5
NutRegisterIrqHandler
NutThreadCreate
NutDelay
NutEventWait
NutEventPost
NutSleep
NutThreadSetPriority
NutNetBufAlloc
NutEtherInput
NutEtherOutput
__do_copy_data
__do_clear_bss
