GAS LISTING C:\DOCUME~1\ADMINI~1\LOCALS~1\Temp/ccUUYj36.s 			page 1


   1               		.file	"sja1000.c"
   2               	__SREG__ = 0x3f
   3               	__SP_H__ = 0x3e
   4               	__SP_L__ = 0x3d
   5               	__CCP__  = 0x34
   6               	__tmp_reg__ = 0
   7               	__zero_reg__ = 1
   8               		.text
   9               	.global	CANBufferGet
  10               		.type	CANBufferGet, @function
  11               	CANBufferGet:
  12 0000 CF92      		push r12
  13 0002 DF92      		push r13
  14 0004 EF92      		push r14
  15 0006 FF92      		push r15
  16 0008 0F93      		push r16
  17 000a 1F93      		push r17
  18 000c DF93      		push r29
  19 000e CF93      		push r28
  20 0010 CDB7      		in r28,__SP_L__
  21 0012 DEB7      		in r29,__SP_H__
  22 0014 2F97      		sbiw r28,15
  23 0016 0FB6      		in __tmp_reg__,__SREG__
  24 0018 F894      		cli
  25 001a DEBF      		out __SP_H__,r29
  26 001c 0FBE      		out __SREG__,__tmp_reg__
  27 001e CDBF      		out __SP_L__,r28
  28               	/* prologue: function */
  29               	/* frame size = 15 */
  30 0020 6C01      		movw r12,r24
  31 0022 7B01      		movw r14,r22
  32 0024 FB01      		movw r30,r22
  33 0026 8481      		ldd r24,Z+4
  34 0028 9581      		ldd r25,Z+5
  35 002a 892B      		or r24,r25
  36 002c 01F0      		breq .L1
  37 002e 0681      		ldd r16,Z+6
  38 0030 1781      		ldd r17,Z+7
  39 0032 C801      		movw r24,r16
  40 0034 24E0      		ldi r18,4
  41 0036 880F      	1:	lsl r24
  42 0038 991F      		rol r25
  43 003a 2A95      		dec r18
  44 003c 01F4      		brne 1b
  45 003e 801B      		sub r24,r16
  46 0040 910B      		sbc r25,r17
  47 0042 6081      		ld r22,Z
  48 0044 7181      		ldd r23,Z+1
  49 0046 680F      		add r22,r24
  50 0048 791F      		adc r23,r25
  51 004a C601      		movw r24,r12
  52 004c 4FE0      		ldi r20,lo8(15)
  53 004e 50E0      		ldi r21,hi8(15)
  54 0050 0E94 0000 		call memmove
  55 0054 C801      		movw r24,r16
  56 0056 0196      		adiw r24,1
  57 0058 F701      		movw r30,r14
GAS LISTING C:\DOCUME~1\ADMINI~1\LOCALS~1\Temp/ccUUYj36.s 			page 2


  58 005a 9783      		std Z+7,r25
  59 005c 8683      		std Z+6,r24
  60 005e 6281      		ldd r22,Z+2
  61 0060 7381      		ldd r23,Z+3
  62 0062 8617      		cp r24,r22
  63 0064 9707      		cpc r25,r23
  64 0066 00F0      		brlo .L3
  65 0068 0E94 0000 		call __udivmodhi4
  66 006c 9783      		std Z+7,r25
  67 006e 8683      		std Z+6,r24
  68               	.L3:
  69 0070 F701      		movw r30,r14
  70 0072 8481      		ldd r24,Z+4
  71 0074 9581      		ldd r25,Z+5
  72 0076 0197      		sbiw r24,1
  73 0078 9583      		std Z+5,r25
  74 007a 8483      		std Z+4,r24
  75               	.L1:
  76 007c C601      		movw r24,r12
  77               	/* epilogue start */
  78 007e 2F96      		adiw r28,15
  79 0080 0FB6      		in __tmp_reg__,__SREG__
  80 0082 F894      		cli
  81 0084 DEBF      		out __SP_H__,r29
  82 0086 0FBE      		out __SREG__,__tmp_reg__
  83 0088 CDBF      		out __SP_L__,r28
  84 008a CF91      		pop r28
  85 008c DF91      		pop r29
  86 008e 1F91      		pop r17
  87 0090 0F91      		pop r16
  88 0092 FF90      		pop r15
  89 0094 EF90      		pop r14
  90 0096 DF90      		pop r13
  91 0098 CF90      		pop r12
  92 009a 0895      		ret
  93               		.size	CANBufferGet, .-CANBufferGet
  94               	.global	CANBufferPut
  95               		.type	CANBufferPut, @function
  96               	CANBufferPut:
  97 009c 1F93      		push r17
  98 009e CF93      		push r28
  99 00a0 DF93      		push r29
 100               	/* prologue: function */
 101               	/* frame size = 0 */
 102 00a2 EC01      		movw r28,r24
 103 00a4 462F      		mov r20,r22
 104 00a6 172F      		mov r17,r23
 105 00a8 2C81      		ldd r18,Y+4
 106 00aa 3D81      		ldd r19,Y+5
 107 00ac 6A81      		ldd r22,Y+2
 108 00ae 7B81      		ldd r23,Y+3
 109 00b0 2617      		cp r18,r22
 110 00b2 3707      		cpc r19,r23
 111 00b4 00F4      		brsh .L8
 112 00b6 8E81      		ldd r24,Y+6
 113 00b8 9F81      		ldd r25,Y+7
 114 00ba 820F      		add r24,r18
GAS LISTING C:\DOCUME~1\ADMINI~1\LOCALS~1\Temp/ccUUYj36.s 			page 3


 115 00bc 931F      		adc r25,r19
 116 00be 0E94 0000 		call __udivmodhi4
 117 00c2 9C01      		movw r18,r24
 118 00c4 54E0      		ldi r21,4
 119 00c6 220F      	1:	lsl r18
 120 00c8 331F      		rol r19
 121 00ca 5A95      		dec r21
 122 00cc 01F4      		brne 1b
 123 00ce 281B      		sub r18,r24
 124 00d0 390B      		sbc r19,r25
 125 00d2 E881      		ld r30,Y
 126 00d4 F981      		ldd r31,Y+1
 127 00d6 E20F      		add r30,r18
 128 00d8 F31F      		adc r31,r19
 129 00da 242F      		mov r18,r20
 130 00dc 312F      		mov r19,r17
 131 00de C901      		movw r24,r18
 132 00e0 DC01      		movw r26,r24
 133 00e2 8FE0      		ldi r24,lo8(15)
 134               	.L7:
 135 00e4 0D90      		ld r0,X+
 136 00e6 0192      		st Z+,r0
 137 00e8 8150      		subi r24,lo8(-(-1))
 138 00ea 01F4      		brne .L7
 139 00ec 8C81      		ldd r24,Y+4
 140 00ee 9D81      		ldd r25,Y+5
 141 00f0 0196      		adiw r24,1
 142 00f2 9D83      		std Y+5,r25
 143 00f4 8C83      		std Y+4,r24
 144               	.L8:
 145               	/* epilogue start */
 146 00f6 DF91      		pop r29
 147 00f8 CF91      		pop r28
 148 00fa 1F91      		pop r17
 149 00fc 0895      		ret
 150               		.size	CANBufferPut, .-CANBufferPut
 151               	.global	CANBufferFree
 152               		.type	CANBufferFree, @function
 153               	CANBufferFree:
 154               	/* prologue: function */
 155               	/* frame size = 0 */
 156 00fe FC01      		movw r30,r24
 157 0100 2281      		ldd r18,Z+2
 158 0102 3381      		ldd r19,Z+3
 159 0104 8481      		ldd r24,Z+4
 160 0106 9581      		ldd r25,Z+5
 161 0108 281B      		sub r18,r24
 162 010a 390B      		sbc r19,r25
 163 010c C901      		movw r24,r18
 164               	/* epilogue start */
 165 010e 0895      		ret
 166               		.size	CANBufferFree, .-CANBufferFree
 167               	.global	SJARxAvail
 168               		.type	SJARxAvail, @function
 169               	SJARxAvail:
 170               	/* prologue: function */
 171               	/* frame size = 0 */
GAS LISTING C:\DOCUME~1\ADMINI~1\LOCALS~1\Temp/ccUUYj36.s 			page 4


 172 0110 8091 0000 		lds r24,CAN_RX_BUF+4
 173               	/* epilogue start */
 174 0114 0895      		ret
 175               		.size	SJARxAvail, .-SJARxAvail
 176               	.global	SJATxFree
 177               		.type	SJATxFree, @function
 178               	SJATxFree:
 179               	/* prologue: function */
 180               	/* frame size = 0 */
 181 0116 8091 0000 		lds r24,CAN_TX_BUF+2
 182 011a 9091 0000 		lds r25,CAN_TX_BUF+4
 183 011e 891B      		sub r24,r25
 184               	/* epilogue start */
 185 0120 0895      		ret
 186               		.size	SJATxFree, .-SJATxFree
 187               	.global	SJASetBaudrate
 188               		.type	SJASetBaudrate, @function
 189               	SJASetBaudrate:
 190               	/* prologue: function */
 191               	/* frame size = 0 */
 192 0122 DC01      		movw r26,r24
 193 0124 1F96      		adiw r26,15
 194 0126 ED91      		ld r30,X+
 195 0128 FC91      		ld r31,X
 196 012a 5097      		sbiw r26,15+1
 197 012c 4183      		std Z+1,r20
 198 012e 5283      		std Z+2,r21
 199 0130 6383      		std Z+3,r22
 200 0132 7483      		std Z+4,r23
 201 0134 00C0      		rjmp .L17
 202               	.L18:
 203 0136 E091 0000 		lds r30,sja_base
 204 013a F091 0000 		lds r31,(sja_base)+1
 205 013e A091 0000 		lds r26,sja_base
 206 0142 B091 0000 		lds r27,(sja_base)+1
 207 0146 8C91      		ld r24,X
 208 0148 8160      		ori r24,lo8(1)
 209 014a 8083      		st Z,r24
 210               	.L17:
 211 014c E091 0000 		lds r30,sja_base
 212 0150 F091 0000 		lds r31,(sja_base)+1
 213 0154 8081      		ld r24,Z
 214 0156 80FF      		sbrs r24,0
 215 0158 00C0      		rjmp .L18
 216 015a 4430      		cpi r20,lo8(4)
 217 015c 5105      		cpc r21,__zero_reg__
 218 015e 6105      		cpc r22,__zero_reg__
 219 0160 7105      		cpc r23,__zero_reg__
 220 0162 01F4      		brne .+2
 221 0164 00C0      		rjmp .L24
 222 0166 4530      		cpi r20,lo8(5)
 223 0168 5105      		cpc r21,__zero_reg__
 224 016a 6105      		cpc r22,__zero_reg__
 225 016c 7105      		cpc r23,__zero_reg__
 226 016e 00F4      		brsh .L29
 227 0170 4130      		cpi r20,lo8(1)
 228 0172 5105      		cpc r21,__zero_reg__
GAS LISTING C:\DOCUME~1\ADMINI~1\LOCALS~1\Temp/ccUUYj36.s 			page 5


 229 0174 6105      		cpc r22,__zero_reg__
 230 0176 7105      		cpc r23,__zero_reg__
 231 0178 01F0      		breq .L21
 232 017a 4130      		cpi r20,lo8(1)
 233 017c 5105      		cpc r21,__zero_reg__
 234 017e 6105      		cpc r22,__zero_reg__
 235 0180 7105      		cpc r23,__zero_reg__
 236 0182 00F0      		brlo .L20
 237 0184 4230      		cpi r20,lo8(2)
 238 0186 5105      		cpc r21,__zero_reg__
 239 0188 6105      		cpc r22,__zero_reg__
 240 018a 7105      		cpc r23,__zero_reg__
 241 018c 01F0      		breq .L22
 242 018e 4330      		cpi r20,lo8(3)
 243 0190 5105      		cpc r21,__zero_reg__
 244 0192 6105      		cpc r22,__zero_reg__
 245 0194 7105      		cpc r23,__zero_reg__
 246 0196 01F4      		brne .L19
 247 0198 00C0      		rjmp .L36
 248               	.L29:
 249 019a 4630      		cpi r20,lo8(6)
 250 019c 5105      		cpc r21,__zero_reg__
 251 019e 6105      		cpc r22,__zero_reg__
 252 01a0 7105      		cpc r23,__zero_reg__
 253 01a2 01F0      		breq .L26
 254 01a4 4630      		cpi r20,lo8(6)
 255 01a6 5105      		cpc r21,__zero_reg__
 256 01a8 6105      		cpc r22,__zero_reg__
 257 01aa 7105      		cpc r23,__zero_reg__
 258 01ac 00F0      		brlo .L25
 259 01ae 4730      		cpi r20,lo8(7)
 260 01b0 5105      		cpc r21,__zero_reg__
 261 01b2 6105      		cpc r22,__zero_reg__
 262 01b4 7105      		cpc r23,__zero_reg__
 263 01b6 01F0      		breq .L27
 264 01b8 4830      		cpi r20,lo8(8)
 265 01ba 5105      		cpc r21,__zero_reg__
 266 01bc 6105      		cpc r22,__zero_reg__
 267 01be 7105      		cpc r23,__zero_reg__
 268 01c0 01F0      		breq .L28
 269               	.L19:
 270 01c2 91E0      		ldi r25,lo8(1)
 271 01c4 00C0      		rjmp .L32
 272               	.L20:
 273 01c6 E091 0000 		lds r30,sja_base
 274 01ca F091 0000 		lds r31,(sja_base)+1
 275 01ce 81E7      		ldi r24,lo8(113)
 276 01d0 00C0      		rjmp .L35
 277               	.L21:
 278 01d2 E091 0000 		lds r30,sja_base
 279 01d6 F091 0000 		lds r31,(sja_base)+1
 280 01da 88E5      		ldi r24,lo8(88)
 281 01dc 00C0      		rjmp .L35
 282               	.L22:
 283 01de E091 0000 		lds r30,sja_base
 284 01e2 F091 0000 		lds r31,(sja_base)+1
 285 01e6 89E4      		ldi r24,lo8(73)
GAS LISTING C:\DOCUME~1\ADMINI~1\LOCALS~1\Temp/ccUUYj36.s 			page 6


 286 01e8 00C0      		rjmp .L35
 287               	.L36:
 288 01ea E091 0000 		lds r30,sja_base
 289 01ee F091 0000 		lds r31,(sja_base)+1
 290 01f2 84E4      		ldi r24,lo8(68)
 291 01f4 00C0      		rjmp .L35
 292               	.L24:
 293 01f6 E091 0000 		lds r30,sja_base
 294 01fa F091 0000 		lds r31,(sja_base)+1
 295 01fe 83E4      		ldi r24,lo8(67)
 296 0200 00C0      		rjmp .L35
 297               	.L25:
 298 0202 E091 0000 		lds r30,sja_base
 299 0206 F091 0000 		lds r31,(sja_base)+1
 300 020a 81E4      		ldi r24,lo8(65)
 301 020c 00C0      		rjmp .L35
 302               	.L26:
 303 020e E091 0000 		lds r30,sja_base
 304 0212 F091 0000 		lds r31,(sja_base)+1
 305 0216 80E4      		ldi r24,lo8(64)
 306               	.L35:
 307 0218 8683      		std Z+6,r24
 308 021a E091 0000 		lds r30,sja_base
 309 021e F091 0000 		lds r31,(sja_base)+1
 310 0222 8CE1      		ldi r24,lo8(28)
 311 0224 00C0      		rjmp .L34
 312               	.L27:
 313 0226 E091 0000 		lds r30,sja_base
 314 022a F091 0000 		lds r31,(sja_base)+1
 315 022e 80E4      		ldi r24,lo8(64)
 316 0230 8683      		std Z+6,r24
 317 0232 E091 0000 		lds r30,sja_base
 318 0236 F091 0000 		lds r31,(sja_base)+1
 319 023a 86E1      		ldi r24,lo8(22)
 320 023c 00C0      		rjmp .L34
 321               	.L28:
 322 023e E091 0000 		lds r30,sja_base
 323 0242 F091 0000 		lds r31,(sja_base)+1
 324 0246 80E4      		ldi r24,lo8(64)
 325 0248 8683      		std Z+6,r24
 326 024a E091 0000 		lds r30,sja_base
 327 024e F091 0000 		lds r31,(sja_base)+1
 328 0252 84E1      		ldi r24,lo8(20)
 329               	.L34:
 330 0254 8783      		std Z+7,r24
 331 0256 90E0      		ldi r25,lo8(0)
 332               	.L32:
 333 0258 E091 0000 		lds r30,sja_base
 334 025c F091 0000 		lds r31,(sja_base)+1
 335 0260 1082      		st Z,__zero_reg__
 336 0262 E091 0000 		lds r30,sja_base
 337 0266 F091 0000 		lds r31,(sja_base)+1
 338 026a 8081      		ld r24,Z
 339 026c 80FD      		sbrc r24,0
 340 026e 00C0      		rjmp .L32
 341 0270 892F      		mov r24,r25
 342               	/* epilogue start */
GAS LISTING C:\DOCUME~1\ADMINI~1\LOCALS~1\Temp/ccUUYj36.s 			page 7


 343 0272 0895      		ret
 344               		.size	SJASetBaudrate, .-SJASetBaudrate
 345               	.global	SJATxFrame
 346               		.type	SJATxFrame, @function
 347               	SJATxFrame:
 348 0274 CF93      		push r28
 349 0276 DF93      		push r29
 350               	/* prologue: function */
 351               	/* frame size = 0 */
 352 0278 EC01      		movw r28,r24
 353 027a 8D85      		ldd r24,Y+13
 354 027c 2881      		ld r18,Y
 355 027e 3981      		ldd r19,Y+1
 356 0280 4A81      		ldd r20,Y+2
 357 0282 5B81      		ldd r21,Y+3
 358 0284 9C81      		ldd r25,Y+4
 359 0286 6E85      		ldd r22,Y+14
 360 0288 8823      		tst r24
 361 028a 01F4      		brne .+2
 362 028c 00C0      		rjmp .L38
 363 028e 73E0      		ldi r23,3
 364 0290 220F      	1:	lsl r18
 365 0292 331F      		rol r19
 366 0294 441F      		rol r20
 367 0296 551F      		rol r21
 368 0298 7A95      		dec r23
 369 029a 01F4      		brne 1b
 370 029c E091 0000 		lds r30,sja_base
 371 02a0 F091 0000 		lds r31,(sja_base)+1
 372 02a4 6623      		tst r22
 373 02a6 01F4      		brne .L39
 374 02a8 80E0      		ldi r24,lo8(0)
 375 02aa 00C0      		rjmp .L40
 376               	.L39:
 377 02ac 80E4      		ldi r24,lo8(64)
 378               	.L40:
 379 02ae 9068      		ori r25,lo8(-128)
 380 02b0 892B      		or r24,r25
 381 02b2 808B      		std Z+16,r24
 382 02b4 E091 0000 		lds r30,sja_base
 383 02b8 F091 0000 		lds r31,(sja_base)+1
 384 02bc 852F      		mov r24,r21
 385 02be 9927      		clr r25
 386 02c0 AA27      		clr r26
 387 02c2 BB27      		clr r27
 388 02c4 818B      		std Z+17,r24
 389 02c6 E091 0000 		lds r30,sja_base
 390 02ca F091 0000 		lds r31,(sja_base)+1
 391 02ce CA01      		movw r24,r20
 392 02d0 AA27      		clr r26
 393 02d2 BB27      		clr r27
 394 02d4 828B      		std Z+18,r24
 395 02d6 E091 0000 		lds r30,sja_base
 396 02da F091 0000 		lds r31,(sja_base)+1
 397 02de BB27      		clr r27
 398 02e0 A52F      		mov r26,r21
 399 02e2 942F      		mov r25,r20
GAS LISTING C:\DOCUME~1\ADMINI~1\LOCALS~1\Temp/ccUUYj36.s 			page 8


 400 02e4 832F      		mov r24,r19
 401 02e6 838B      		std Z+19,r24
 402 02e8 E091 0000 		lds r30,sja_base
 403 02ec F091 0000 		lds r31,(sja_base)+1
 404 02f0 822F      		mov r24,r18
 405 02f2 887F      		andi r24,lo8(-8)
 406 02f4 848B      		std Z+20,r24
 407 02f6 E091 0000 		lds r30,sja_base
 408 02fa F091 0000 		lds r31,(sja_base)+1
 409 02fe 8D81      		ldd r24,Y+5
 410 0300 858B      		std Z+21,r24
 411 0302 E091 0000 		lds r30,sja_base
 412 0306 F091 0000 		lds r31,(sja_base)+1
 413 030a 8E81      		ldd r24,Y+6
 414 030c 868B      		std Z+22,r24
 415 030e E091 0000 		lds r30,sja_base
 416 0312 F091 0000 		lds r31,(sja_base)+1
 417 0316 8F81      		ldd r24,Y+7
 418 0318 878B      		std Z+23,r24
 419 031a E091 0000 		lds r30,sja_base
 420 031e F091 0000 		lds r31,(sja_base)+1
 421 0322 8885      		ldd r24,Y+8
 422 0324 808F      		std Z+24,r24
 423 0326 E091 0000 		lds r30,sja_base
 424 032a F091 0000 		lds r31,(sja_base)+1
 425 032e 8985      		ldd r24,Y+9
 426 0330 818F      		std Z+25,r24
 427 0332 E091 0000 		lds r30,sja_base
 428 0336 F091 0000 		lds r31,(sja_base)+1
 429 033a 8A85      		ldd r24,Y+10
 430 033c 828F      		std Z+26,r24
 431 033e E091 0000 		lds r30,sja_base
 432 0342 F091 0000 		lds r31,(sja_base)+1
 433 0346 8B85      		ldd r24,Y+11
 434 0348 838F      		std Z+27,r24
 435 034a E091 0000 		lds r30,sja_base
 436 034e F091 0000 		lds r31,(sja_base)+1
 437 0352 8C85      		ldd r24,Y+12
 438 0354 848F      		std Z+28,r24
 439 0356 00C0      		rjmp .L41
 440               	.L38:
 441 0358 E5E1      		ldi r30,21
 442 035a 220F      	1:	lsl r18
 443 035c 331F      		rol r19
 444 035e 441F      		rol r20
 445 0360 551F      		rol r21
 446 0362 EA95      		dec r30
 447 0364 01F4      		brne 1b
 448 0366 E091 0000 		lds r30,sja_base
 449 036a F091 0000 		lds r31,(sja_base)+1
 450 036e 6623      		tst r22
 451 0370 01F4      		brne .L42
 452 0372 80E0      		ldi r24,lo8(0)
 453 0374 00C0      		rjmp .L43
 454               	.L42:
 455 0376 80E4      		ldi r24,lo8(64)
 456               	.L43:
GAS LISTING C:\DOCUME~1\ADMINI~1\LOCALS~1\Temp/ccUUYj36.s 			page 9


 457 0378 892B      		or r24,r25
 458 037a 808B      		std Z+16,r24
 459 037c E091 0000 		lds r30,sja_base
 460 0380 F091 0000 		lds r31,(sja_base)+1
 461 0384 852F      		mov r24,r21
 462 0386 9927      		clr r25
 463 0388 AA27      		clr r26
 464 038a BB27      		clr r27
 465 038c 818B      		std Z+17,r24
 466 038e E091 0000 		lds r30,sja_base
 467 0392 F091 0000 		lds r31,(sja_base)+1
 468 0396 CA01      		movw r24,r20
 469 0398 AA27      		clr r26
 470 039a BB27      		clr r27
 471 039c 807E      		andi r24,lo8(-32)
 472 039e 828B      		std Z+18,r24
 473 03a0 E091 0000 		lds r30,sja_base
 474 03a4 F091 0000 		lds r31,(sja_base)+1
 475 03a8 8D81      		ldd r24,Y+5
 476 03aa 838B      		std Z+19,r24
 477 03ac E091 0000 		lds r30,sja_base
 478 03b0 F091 0000 		lds r31,(sja_base)+1
 479 03b4 8E81      		ldd r24,Y+6
 480 03b6 848B      		std Z+20,r24
 481 03b8 E091 0000 		lds r30,sja_base
 482 03bc F091 0000 		lds r31,(sja_base)+1
 483 03c0 8F81      		ldd r24,Y+7
 484 03c2 858B      		std Z+21,r24
 485 03c4 E091 0000 		lds r30,sja_base
 486 03c8 F091 0000 		lds r31,(sja_base)+1
 487 03cc 8885      		ldd r24,Y+8
 488 03ce 868B      		std Z+22,r24
 489 03d0 E091 0000 		lds r30,sja_base
 490 03d4 F091 0000 		lds r31,(sja_base)+1
 491 03d8 8985      		ldd r24,Y+9
 492 03da 878B      		std Z+23,r24
 493 03dc E091 0000 		lds r30,sja_base
 494 03e0 F091 0000 		lds r31,(sja_base)+1
 495 03e4 8A85      		ldd r24,Y+10
 496 03e6 808F      		std Z+24,r24
 497 03e8 E091 0000 		lds r30,sja_base
 498 03ec F091 0000 		lds r31,(sja_base)+1
 499 03f0 8B85      		ldd r24,Y+11
 500 03f2 818F      		std Z+25,r24
 501 03f4 E091 0000 		lds r30,sja_base
 502 03f8 F091 0000 		lds r31,(sja_base)+1
 503 03fc 8C85      		ldd r24,Y+12
 504 03fe 828F      		std Z+26,r24
 505               	.L41:
 506 0400 E091 0000 		lds r30,sja_base
 507 0404 F091 0000 		lds r31,(sja_base)+1
 508 0408 81E0      		ldi r24,lo8(1)
 509 040a 8183      		std Z+1,r24
 510               	/* epilogue start */
 511 040c DF91      		pop r29
 512 040e CF91      		pop r28
 513 0410 0895      		ret
GAS LISTING C:\DOCUME~1\ADMINI~1\LOCALS~1\Temp/ccUUYj36.s 			page 10


 514               		.size	SJATxFrame, .-SJATxFrame
 515               	.global	SJARxFrame
 516               		.type	SJARxFrame, @function
 517               	SJARxFrame:
 518 0412 AF92      		push r10
 519 0414 BF92      		push r11
 520 0416 CF92      		push r12
 521 0418 DF92      		push r13
 522 041a EF92      		push r14
 523 041c FF92      		push r15
 524 041e 0F93      		push r16
 525 0420 1F93      		push r17
 526 0422 CF93      		push r28
 527 0424 DF93      		push r29
 528               	/* prologue: function */
 529               	/* frame size = 0 */
 530 0426 EC01      		movw r28,r24
 531 0428 E091 0000 		lds r30,sja_base
 532 042c F091 0000 		lds r31,(sja_base)+1
 533 0430 9089      		ldd r25,Z+16
 534 0432 892F      		mov r24,r25
 535 0434 8F70      		andi r24,lo8(15)
 536 0436 8C83      		std Y+4,r24
 537 0438 1D86      		std Y+13,__zero_reg__
 538 043a 97FF      		sbrs r25,7
 539 043c 00C0      		rjmp .L46
 540 043e 81E0      		ldi r24,lo8(1)
 541 0440 8D87      		std Y+13,r24
 542               	.L46:
 543 0442 892F      		mov r24,r25
 544 0444 90E0      		ldi r25,lo8(0)
 545 0446 66E0      		ldi r22,6
 546 0448 9695      	1:	lsr r25
 547 044a 8795      		ror r24
 548 044c 6A95      		dec r22
 549 044e 01F4      		brne 1b
 550 0450 8170      		andi r24,lo8(1)
 551 0452 8E87      		std Y+14,r24
 552 0454 8D85      		ldd r24,Y+13
 553 0456 8823      		tst r24
 554 0458 01F4      		brne .+2
 555 045a 00C0      		rjmp .L47
 556 045c E091 0000 		lds r30,sja_base
 557 0460 F091 0000 		lds r31,(sja_base)+1
 558 0464 A188      		ldd r10,Z+17
 559 0466 E091 0000 		lds r30,sja_base
 560 046a F091 0000 		lds r31,(sja_base)+1
 561 046e 8289      		ldd r24,Z+18
 562 0470 E091 0000 		lds r30,sja_base
 563 0474 F091 0000 		lds r31,(sja_base)+1
 564 0478 E388      		ldd r14,Z+19
 565 047a E091 0000 		lds r30,sja_base
 566 047e F091 0000 		lds r31,(sja_base)+1
 567 0482 2489      		ldd r18,Z+20
 568 0484 90E0      		ldi r25,lo8(0)
 569 0486 A0E0      		ldi r26,lo8(0)
 570 0488 B0E0      		ldi r27,hi8(0)
GAS LISTING C:\DOCUME~1\ADMINI~1\LOCALS~1\Temp/ccUUYj36.s 			page 11


 571 048a DC01      		movw r26,r24
 572 048c 9927      		clr r25
 573 048e 8827      		clr r24
 574 0490 BB24      		clr r11
 575 0492 CC24      		clr r12
 576 0494 DD24      		clr r13
 577 0496 DA2C      		mov r13,r10
 578 0498 CC24      		clr r12
 579 049a BB24      		clr r11
 580 049c AA24      		clr r10
 581 049e 8A29      		or r24,r10
 582 04a0 9B29      		or r25,r11
 583 04a2 AC29      		or r26,r12
 584 04a4 BD29      		or r27,r13
 585 04a6 FF24      		clr r15
 586 04a8 00E0      		ldi r16,lo8(0)
 587 04aa 10E0      		ldi r17,hi8(0)
 588 04ac 102F      		mov r17,r16
 589 04ae 0F2D      		mov r16,r15
 590 04b0 FE2C      		mov r15,r14
 591 04b2 EE24      		clr r14
 592 04b4 8E29      		or r24,r14
 593 04b6 9F29      		or r25,r15
 594 04b8 A02B      		or r26,r16
 595 04ba B12B      		or r27,r17
 596 04bc 30E0      		ldi r19,lo8(0)
 597 04be 40E0      		ldi r20,lo8(0)
 598 04c0 50E0      		ldi r21,hi8(0)
 599 04c2 282B      		or r18,r24
 600 04c4 392B      		or r19,r25
 601 04c6 4A2B      		or r20,r26
 602 04c8 5B2B      		or r21,r27
 603 04ca 03E0      		ldi r16,3
 604 04cc 5695      	1:	lsr r21
 605 04ce 4795      		ror r20
 606 04d0 3795      		ror r19
 607 04d2 2795      		ror r18
 608 04d4 0A95      		dec r16
 609 04d6 01F4      		brne 1b
 610 04d8 2883      		st Y,r18
 611 04da 3983      		std Y+1,r19
 612 04dc 4A83      		std Y+2,r20
 613 04de 5B83      		std Y+3,r21
 614 04e0 E091 0000 		lds r30,sja_base
 615 04e4 F091 0000 		lds r31,(sja_base)+1
 616 04e8 8589      		ldd r24,Z+21
 617 04ea 8D83      		std Y+5,r24
 618 04ec E091 0000 		lds r30,sja_base
 619 04f0 F091 0000 		lds r31,(sja_base)+1
 620 04f4 8689      		ldd r24,Z+22
 621 04f6 8E83      		std Y+6,r24
 622 04f8 E091 0000 		lds r30,sja_base
 623 04fc F091 0000 		lds r31,(sja_base)+1
 624 0500 8789      		ldd r24,Z+23
 625 0502 8F83      		std Y+7,r24
 626 0504 E091 0000 		lds r30,sja_base
 627 0508 F091 0000 		lds r31,(sja_base)+1
GAS LISTING C:\DOCUME~1\ADMINI~1\LOCALS~1\Temp/ccUUYj36.s 			page 12


 628 050c 808D      		ldd r24,Z+24
 629 050e 8887      		std Y+8,r24
 630 0510 E091 0000 		lds r30,sja_base
 631 0514 F091 0000 		lds r31,(sja_base)+1
 632 0518 818D      		ldd r24,Z+25
 633 051a 8987      		std Y+9,r24
 634 051c E091 0000 		lds r30,sja_base
 635 0520 F091 0000 		lds r31,(sja_base)+1
 636 0524 828D      		ldd r24,Z+26
 637 0526 8A87      		std Y+10,r24
 638 0528 E091 0000 		lds r30,sja_base
 639 052c F091 0000 		lds r31,(sja_base)+1
 640 0530 838D      		ldd r24,Z+27
 641 0532 8B87      		std Y+11,r24
 642 0534 E091 0000 		lds r30,sja_base
 643 0538 F091 0000 		lds r31,(sja_base)+1
 644 053c 848D      		ldd r24,Z+28
 645 053e 00C0      		rjmp .L50
 646               	.L47:
 647 0540 E091 0000 		lds r30,sja_base
 648 0544 F091 0000 		lds r31,(sja_base)+1
 649 0548 2189      		ldd r18,Z+17
 650 054a E091 0000 		lds r30,sja_base
 651 054e F091 0000 		lds r31,(sja_base)+1
 652 0552 8289      		ldd r24,Z+18
 653 0554 90E0      		ldi r25,lo8(0)
 654 0556 A0E0      		ldi r26,lo8(0)
 655 0558 B0E0      		ldi r27,hi8(0)
 656 055a DC01      		movw r26,r24
 657 055c 9927      		clr r25
 658 055e 8827      		clr r24
 659 0560 30E0      		ldi r19,lo8(0)
 660 0562 40E0      		ldi r20,lo8(0)
 661 0564 50E0      		ldi r21,hi8(0)
 662 0566 522F      		mov r21,r18
 663 0568 4427      		clr r20
 664 056a 3327      		clr r19
 665 056c 2227      		clr r18
 666 056e 822B      		or r24,r18
 667 0570 932B      		or r25,r19
 668 0572 A42B      		or r26,r20
 669 0574 B52B      		or r27,r21
 670 0576 E5E1      		ldi r30,21
 671 0578 B695      	1:	lsr r27
 672 057a A795      		ror r26
 673 057c 9795      		ror r25
 674 057e 8795      		ror r24
 675 0580 EA95      		dec r30
 676 0582 01F4      		brne 1b
 677 0584 8883      		st Y,r24
 678 0586 9983      		std Y+1,r25
 679 0588 AA83      		std Y+2,r26
 680 058a BB83      		std Y+3,r27
 681 058c E091 0000 		lds r30,sja_base
 682 0590 F091 0000 		lds r31,(sja_base)+1
 683 0594 8389      		ldd r24,Z+19
 684 0596 8D83      		std Y+5,r24
GAS LISTING C:\DOCUME~1\ADMINI~1\LOCALS~1\Temp/ccUUYj36.s 			page 13


 685 0598 E091 0000 		lds r30,sja_base
 686 059c F091 0000 		lds r31,(sja_base)+1
 687 05a0 8489      		ldd r24,Z+20
 688 05a2 8E83      		std Y+6,r24
 689 05a4 E091 0000 		lds r30,sja_base
 690 05a8 F091 0000 		lds r31,(sja_base)+1
 691 05ac 8589      		ldd r24,Z+21
 692 05ae 8F83      		std Y+7,r24
 693 05b0 E091 0000 		lds r30,sja_base
 694 05b4 F091 0000 		lds r31,(sja_base)+1
 695 05b8 8689      		ldd r24,Z+22
 696 05ba 8887      		std Y+8,r24
 697 05bc E091 0000 		lds r30,sja_base
 698 05c0 F091 0000 		lds r31,(sja_base)+1
 699 05c4 8789      		ldd r24,Z+23
 700 05c6 8987      		std Y+9,r24
 701 05c8 E091 0000 		lds r30,sja_base
 702 05cc F091 0000 		lds r31,(sja_base)+1
 703 05d0 808D      		ldd r24,Z+24
 704 05d2 8A87      		std Y+10,r24
 705 05d4 E091 0000 		lds r30,sja_base
 706 05d8 F091 0000 		lds r31,(sja_base)+1
 707 05dc 818D      		ldd r24,Z+25
 708 05de 8B87      		std Y+11,r24
 709 05e0 E091 0000 		lds r30,sja_base
 710 05e4 F091 0000 		lds r31,(sja_base)+1
 711 05e8 828D      		ldd r24,Z+26
 712               	.L50:
 713 05ea 8C87      		std Y+12,r24
 714 05ec E091 0000 		lds r30,sja_base
 715 05f0 F091 0000 		lds r31,(sja_base)+1
 716 05f4 84E0      		ldi r24,lo8(4)
 717 05f6 8183      		std Z+1,r24
 718               	/* epilogue start */
 719 05f8 DF91      		pop r29
 720 05fa CF91      		pop r28
 721 05fc 1F91      		pop r17
 722 05fe 0F91      		pop r16
 723 0600 FF90      		pop r15
 724 0602 EF90      		pop r14
 725 0604 DF90      		pop r13
 726 0606 CF90      		pop r12
 727 0608 BF90      		pop r11
 728 060a AF90      		pop r10
 729 060c 0895      		ret
 730               		.size	SJARxFrame, .-SJARxFrame
 731               		.type	SJAInterrupt, @function
 732               	SJAInterrupt:
 733 060e EF92      		push r14
 734 0610 FF92      		push r15
 735 0612 0F93      		push r16
 736 0614 1F93      		push r17
 737 0616 DF93      		push r29
 738 0618 CF93      		push r28
 739 061a CDB7      		in r28,__SP_L__
 740 061c DEB7      		in r29,__SP_H__
 741 061e 6097      		sbiw r28,16
GAS LISTING C:\DOCUME~1\ADMINI~1\LOCALS~1\Temp/ccUUYj36.s 			page 14


 742 0620 0FB6      		in __tmp_reg__,__SREG__
 743 0622 F894      		cli
 744 0624 DEBF      		out __SP_H__,r29
 745 0626 0FBE      		out __SREG__,__tmp_reg__
 746 0628 CDBF      		out __SP_L__,r28
 747               	/* prologue: function */
 748               	/* frame size = 16 */
 749 062a E091 0000 		lds r30,sja_base
 750 062e F091 0000 		lds r31,(sja_base)+1
 751 0632 2381      		ldd r18,Z+3
 752 0634 2983      		std Y+1,r18
 753 0636 DC01      		movw r26,r24
 754 0638 5196      		adiw r26,17
 755 063a ED90      		ld r14,X+
 756 063c FC90      		ld r15,X
 757 063e 5297      		sbiw r26,17+1
 758 0640 F701      		movw r30,r14
 759 0642 8485      		ldd r24,Z+12
 760 0644 9585      		ldd r25,Z+13
 761 0646 A685      		ldd r26,Z+14
 762 0648 B785      		ldd r27,Z+15
 763 064a 0196      		adiw r24,1
 764 064c A11D      		adc r26,__zero_reg__
 765 064e B11D      		adc r27,__zero_reg__
 766 0650 8487      		std Z+12,r24
 767 0652 9587      		std Z+13,r25
 768 0654 A687      		std Z+14,r26
 769 0656 B787      		std Z+15,r27
 770 0658 8981      		ldd r24,Y+1
 771 065a 81FF      		sbrs r24,1
 772 065c 00C0      		rjmp .L52
 773 065e 8281      		ldd r24,Z+2
 774 0660 9381      		ldd r25,Z+3
 775 0662 892B      		or r24,r25
 776 0664 01F4      		brne .L53
 777 0666 8FEF      		ldi r24,lo8(-1)
 778 0668 9FEF      		ldi r25,hi8(-1)
 779 066a 9383      		std Z+3,r25
 780 066c 8283      		std Z+2,r24
 781 066e 00C0      		rjmp .L52
 782               	.L53:
 783 0670 D701      		movw r26,r14
 784 0672 1296      		adiw r26,2
 785 0674 8D91      		ld r24,X+
 786 0676 9C91      		ld r25,X
 787 0678 1397      		sbiw r26,2+1
 788 067a 8F5F      		subi r24,lo8(-1)
 789 067c 9F4F      		sbci r25,hi8(-1)
 790 067e 01F0      		breq .L52
 791 0680 D701      		movw r26,r14
 792 0682 1296      		adiw r26,2
 793 0684 ED91      		ld r30,X+
 794 0686 FC91      		ld r31,X
 795 0688 1397      		sbiw r26,2+1
 796 068a 8481      		ldd r24,Z+4
 797 068c 9581      		ldd r25,Z+5
 798 068e 0196      		adiw r24,1
GAS LISTING C:\DOCUME~1\ADMINI~1\LOCALS~1\Temp/ccUUYj36.s 			page 15


 799 0690 9583      		std Z+5,r25
 800 0692 8483      		std Z+4,r24
 801               	.L52:
 802 0694 8981      		ldd r24,Y+1
 803 0696 80FF      		sbrs r24,0
 804 0698 00C0      		rjmp .L54
 805 069a 2091 0000 		lds r18,CAN_RX_BUF+2
 806 069e 3091 0000 		lds r19,(CAN_RX_BUF+2)+1
 807 06a2 8091 0000 		lds r24,CAN_RX_BUF+4
 808 06a6 9091 0000 		lds r25,(CAN_RX_BUF+4)+1
 809 06aa 2817      		cp r18,r24
 810 06ac 3907      		cpc r19,r25
 811 06ae 01F4      		brne .+2
 812 06b0 00C0      		rjmp .L54
 813 06b2 8E01      		movw r16,r28
 814 06b4 0E5F      		subi r16,lo8(-(2))
 815 06b6 1F4F      		sbci r17,hi8(-(2))
 816 06b8 C801      		movw r24,r16
 817 06ba 0E94 0000 		call SJARxFrame
 818 06be 80E0      		ldi r24,lo8(CAN_RX_BUF)
 819 06c0 90E0      		ldi r25,hi8(CAN_RX_BUF)
 820 06c2 B801      		movw r22,r16
 821 06c4 0E94 0000 		call CANBufferPut
 822 06c8 2091 0000 		lds r18,CAN_RX_BUF+2
 823 06cc 3091 0000 		lds r19,(CAN_RX_BUF+2)+1
 824 06d0 8091 0000 		lds r24,CAN_RX_BUF+4
 825 06d4 9091 0000 		lds r25,(CAN_RX_BUF+4)+1
 826 06d8 2817      		cp r18,r24
 827 06da 3907      		cpc r19,r25
 828 06dc 01F4      		brne .L55
 829 06de E091 0000 		lds r30,sja_base
 830 06e2 F091 0000 		lds r31,(sja_base)+1
 831 06e6 8481      		ldd r24,Z+4
 832 06e8 8E7F      		andi r24,lo8(-2)
 833 06ea 8483      		std Z+4,r24
 834               	.L55:
 835 06ec F701      		movw r30,r14
 836 06ee 8081      		ld r24,Z
 837 06f0 9181      		ldd r25,Z+1
 838 06f2 892B      		or r24,r25
 839 06f4 01F4      		brne .L56
 840 06f6 8FEF      		ldi r24,lo8(-1)
 841 06f8 9FEF      		ldi r25,hi8(-1)
 842 06fa 9183      		std Z+1,r25
 843 06fc 8083      		st Z,r24
 844 06fe 00C0      		rjmp .L57
 845               	.L56:
 846 0700 D701      		movw r26,r14
 847 0702 8D91      		ld r24,X+
 848 0704 9C91      		ld r25,X
 849 0706 8F5F      		subi r24,lo8(-1)
 850 0708 9F4F      		sbci r25,hi8(-1)
 851 070a 01F0      		breq .L57
 852 070c D701      		movw r26,r14
 853 070e ED91      		ld r30,X+
 854 0710 FC91      		ld r31,X
 855 0712 8481      		ldd r24,Z+4
GAS LISTING C:\DOCUME~1\ADMINI~1\LOCALS~1\Temp/ccUUYj36.s 			page 16


 856 0714 9581      		ldd r25,Z+5
 857 0716 0196      		adiw r24,1
 858 0718 9583      		std Z+5,r25
 859 071a 8483      		std Z+4,r24
 860               	.L57:
 861 071c F701      		movw r30,r14
 862 071e 8481      		ldd r24,Z+4
 863 0720 9581      		ldd r25,Z+5
 864 0722 A681      		ldd r26,Z+6
 865 0724 B781      		ldd r27,Z+7
 866 0726 0196      		adiw r24,1
 867 0728 A11D      		adc r26,__zero_reg__
 868 072a B11D      		adc r27,__zero_reg__
 869 072c 8483      		std Z+4,r24
 870 072e 9583      		std Z+5,r25
 871 0730 A683      		std Z+6,r26
 872 0732 B783      		std Z+7,r27
 873               	.L54:
 874 0734 8981      		ldd r24,Y+1
 875 0736 82FF      		sbrs r24,2
 876 0738 00C0      		rjmp .L58
 877 073a F701      		movw r30,r14
 878 073c 8489      		ldd r24,Z+20
 879 073e 9589      		ldd r25,Z+21
 880 0740 A689      		ldd r26,Z+22
 881 0742 B789      		ldd r27,Z+23
 882 0744 0196      		adiw r24,1
 883 0746 A11D      		adc r26,__zero_reg__
 884 0748 B11D      		adc r27,__zero_reg__
 885 074a 848B      		std Z+20,r24
 886 074c 958B      		std Z+21,r25
 887 074e A68B      		std Z+22,r26
 888 0750 B78B      		std Z+23,r27
 889 0752 00C0      		rjmp .L60
 890               	.L58:
 891 0754 8981      		ldd r24,Y+1
 892 0756 83FF      		sbrs r24,3
 893 0758 00C0      		rjmp .L60
 894 075a F701      		movw r30,r14
 895 075c 8089      		ldd r24,Z+16
 896 075e 9189      		ldd r25,Z+17
 897 0760 A289      		ldd r26,Z+18
 898 0762 B389      		ldd r27,Z+19
 899 0764 0196      		adiw r24,1
 900 0766 A11D      		adc r26,__zero_reg__
 901 0768 B11D      		adc r27,__zero_reg__
 902 076a 808B      		std Z+16,r24
 903 076c 918B      		std Z+17,r25
 904 076e A28B      		std Z+18,r26
 905 0770 B38B      		std Z+19,r27
 906 0772 E091 0000 		lds r30,sja_base
 907 0776 F091 0000 		lds r31,(sja_base)+1
 908 077a 88E0      		ldi r24,lo8(8)
 909 077c 8183      		std Z+1,r24
 910               	.L60:
 911               	/* epilogue start */
 912 077e 6096      		adiw r28,16
GAS LISTING C:\DOCUME~1\ADMINI~1\LOCALS~1\Temp/ccUUYj36.s 			page 17


 913 0780 0FB6      		in __tmp_reg__,__SREG__
 914 0782 F894      		cli
 915 0784 DEBF      		out __SP_H__,r29
 916 0786 0FBE      		out __SREG__,__tmp_reg__
 917 0788 CDBF      		out __SP_L__,r28
 918 078a CF91      		pop r28
 919 078c DF91      		pop r29
 920 078e 1F91      		pop r17
 921 0790 0F91      		pop r16
 922 0792 FF90      		pop r15
 923 0794 EF90      		pop r14
 924 0796 0895      		ret
 925               		.size	SJAInterrupt, .-SJAInterrupt
 926               	.global	SJAInput
 927               		.type	SJAInput, @function
 928               	SJAInput:
 929 0798 AF92      		push r10
 930 079a BF92      		push r11
 931 079c CF92      		push r12
 932 079e DF92      		push r13
 933 07a0 EF92      		push r14
 934 07a2 FF92      		push r15
 935 07a4 0F93      		push r16
 936 07a6 1F93      		push r17
 937 07a8 DF93      		push r29
 938 07aa CF93      		push r28
 939 07ac CDB7      		in r28,__SP_L__
 940 07ae DEB7      		in r29,__SP_H__
 941 07b0 2F97      		sbiw r28,15
 942 07b2 0FB6      		in __tmp_reg__,__SREG__
 943 07b4 F894      		cli
 944 07b6 DEBF      		out __SP_H__,r29
 945 07b8 0FBE      		out __SREG__,__tmp_reg__
 946 07ba CDBF      		out __SP_L__,r28
 947               	/* prologue: function */
 948               	/* frame size = 15 */
 949 07bc 8C01      		movw r16,r24
 950 07be 5B01      		movw r10,r22
 951 07c0 DC01      		movw r26,r24
 952 07c2 5196      		adiw r26,17
 953 07c4 CC90      		ld r12,X
 954 07c6 5197      		sbiw r26,17
 955 07c8 5296      		adiw r26,18
 956 07ca DC90      		ld r13,X
 957 07cc 7E01      		movw r14,r28
 958 07ce 0894      		sec
 959 07d0 E11C      		adc r14,__zero_reg__
 960 07d2 F11C      		adc r15,__zero_reg__
 961               	.L67:
 962 07d4 8091 0000 		lds r24,CAN_RX_BUF+4
 963 07d8 9091 0000 		lds r25,(CAN_RX_BUF+4)+1
 964 07dc 892B      		or r24,r25
 965 07de 01F4      		brne .L62
 966 07e0 D801      		movw r26,r16
 967 07e2 1F96      		adiw r26,15
 968 07e4 ED91      		ld r30,X+
 969 07e6 FC91      		ld r31,X
GAS LISTING C:\DOCUME~1\ADMINI~1\LOCALS~1\Temp/ccUUYj36.s 			page 18


 970 07e8 5097      		sbiw r26,15+1
 971 07ea 4585      		ldd r20,Z+13
 972 07ec 5685      		ldd r21,Z+14
 973 07ee 6785      		ldd r22,Z+15
 974 07f0 7089      		ldd r23,Z+16
 975 07f2 C601      		movw r24,r12
 976 07f4 0E94 0000 		call NutEventWait
 977 07f8 892B      		or r24,r25
 978 07fa 01F0      		breq .L62
 979 07fc 81E0      		ldi r24,lo8(1)
 980 07fe 00C0      		rjmp .L63
 981               	.L62:
 982               	/* #APP */
 983               	 ;  323 "../../nut/arch/avr/dev/sja1000.c" 1
 984 0800 0FB6      		in  __tmp_reg__, __SREG__
 985 0802 F894      		cli
 986 0804 0F92      		push __tmp_reg__
 987               		
 988               	 ;  0 "" 2
 989               	/* #NOAPP */
 990 0806 8091 0000 		lds r24,CAN_RX_BUF+4
 991 080a 9091 0000 		lds r25,(CAN_RX_BUF+4)+1
 992 080e 892B      		or r24,r25
 993 0810 01F4      		brne .L64
 994 0812 80E0      		ldi r24,lo8(0)
 995 0814 00C0      		rjmp .L65
 996               	.L64:
 997 0816 C701      		movw r24,r14
 998 0818 60E0      		ldi r22,lo8(CAN_RX_BUF)
 999 081a 70E0      		ldi r23,hi8(CAN_RX_BUF)
 1000 081c 0E94 0000 		call CANBufferGet
 1001 0820 D501      		movw r26,r10
 1002 0822 F701      		movw r30,r14
 1003 0824 8FE0      		ldi r24,lo8(15)
 1004               	.L66:
 1005 0826 0190      		ld r0,Z+
 1006 0828 0D92      		st X+,r0
 1007 082a 8150      		subi r24,lo8(-(-1))
 1008 082c 01F4      		brne .L66
 1009 082e 81E0      		ldi r24,lo8(1)
 1010               	.L65:
 1011               	/* #APP */
 1012               	 ;  329 "../../nut/arch/avr/dev/sja1000.c" 1
 1013 0830 0F90      		pop __tmp_reg__
 1014 0832 0FBE      		out __SREG__, __tmp_reg__
 1015               		
 1016               	 ;  0 "" 2
 1017               	/* #NOAPP */
 1018 0834 8823      		tst r24
 1019 0836 01F0      		breq .L67
 1020 0838 E091 0000 		lds r30,sja_base
 1021 083c F091 0000 		lds r31,(sja_base)+1
 1022 0840 8481      		ldd r24,Z+4
 1023 0842 8160      		ori r24,lo8(1)
 1024 0844 8483      		std Z+4,r24
 1025 0846 80E0      		ldi r24,lo8(0)
 1026               	.L63:
GAS LISTING C:\DOCUME~1\ADMINI~1\LOCALS~1\Temp/ccUUYj36.s 			page 19


 1027               	/* epilogue start */
 1028 0848 2F96      		adiw r28,15
 1029 084a 0FB6      		in __tmp_reg__,__SREG__
 1030 084c F894      		cli
 1031 084e DEBF      		out __SP_H__,r29
 1032 0850 0FBE      		out __SREG__,__tmp_reg__
 1033 0852 CDBF      		out __SP_L__,r28
 1034 0854 CF91      		pop r28
 1035 0856 DF91      		pop r29
 1036 0858 1F91      		pop r17
 1037 085a 0F91      		pop r16
 1038 085c FF90      		pop r15
 1039 085e EF90      		pop r14
 1040 0860 DF90      		pop r13
 1041 0862 CF90      		pop r12
 1042 0864 BF90      		pop r11
 1043 0866 AF90      		pop r10
 1044 0868 0895      		ret
 1045               		.size	SJAInput, .-SJAInput
 1046               	.global	SJASetAccMask
 1047               		.type	SJASetAccMask, @function
 1048               	SJASetAccMask:
 1049 086a CF93      		push r28
 1050 086c DF93      		push r29
 1051               	/* prologue: function */
 1052               	/* frame size = 0 */
 1053 086e EB01      		movw r28,r22
 1054 0870 DC01      		movw r26,r24
 1055 0872 1F96      		adiw r26,15
 1056 0874 ED91      		ld r30,X+
 1057 0876 FC91      		ld r31,X
 1058 0878 5097      		sbiw r26,15+1
 1059 087a 8881      		ld r24,Y
 1060 087c 9981      		ldd r25,Y+1
 1061 087e AA81      		ldd r26,Y+2
 1062 0880 BB81      		ldd r27,Y+3
 1063 0882 8583      		std Z+5,r24
 1064 0884 9683      		std Z+6,r25
 1065 0886 A783      		std Z+7,r26
 1066 0888 B087      		std Z+8,r27
 1067 088a 00C0      		rjmp .L72
 1068               	.L73:
 1069 088c E091 0000 		lds r30,sja_base
 1070 0890 F091 0000 		lds r31,(sja_base)+1
 1071 0894 A091 0000 		lds r26,sja_base
 1072 0898 B091 0000 		lds r27,(sja_base)+1
 1073 089c 8C91      		ld r24,X
 1074 089e 8160      		ori r24,lo8(1)
 1075 08a0 8083      		st Z,r24
 1076               	.L72:
 1077 08a2 E091 0000 		lds r30,sja_base
 1078 08a6 F091 0000 		lds r31,(sja_base)+1
 1079 08aa 8081      		ld r24,Z
 1080 08ac 80FF      		sbrs r24,0
 1081 08ae 00C0      		rjmp .L73
 1082 08b0 E091 0000 		lds r30,sja_base
 1083 08b4 F091 0000 		lds r31,(sja_base)+1
GAS LISTING C:\DOCUME~1\ADMINI~1\LOCALS~1\Temp/ccUUYj36.s 			page 20


 1084 08b8 8881      		ld r24,Y
 1085 08ba 848B      		std Z+20,r24
 1086 08bc E091 0000 		lds r30,sja_base
 1087 08c0 F091 0000 		lds r31,(sja_base)+1
 1088 08c4 8981      		ldd r24,Y+1
 1089 08c6 858B      		std Z+21,r24
 1090 08c8 E091 0000 		lds r30,sja_base
 1091 08cc F091 0000 		lds r31,(sja_base)+1
 1092 08d0 8A81      		ldd r24,Y+2
 1093 08d2 868B      		std Z+22,r24
 1094 08d4 E091 0000 		lds r30,sja_base
 1095 08d8 F091 0000 		lds r31,(sja_base)+1
 1096 08dc 8B81      		ldd r24,Y+3
 1097 08de 878B      		std Z+23,r24
 1098 08e0 E091 0000 		lds r30,sja_base
 1099 08e4 F091 0000 		lds r31,(sja_base)+1
 1100 08e8 88E0      		ldi r24,lo8(8)
 1101 08ea 8083      		st Z,r24
 1102               	.L74:
 1103 08ec E091 0000 		lds r30,sja_base
 1104 08f0 F091 0000 		lds r31,(sja_base)+1
 1105 08f4 1082      		st Z,__zero_reg__
 1106 08f6 E091 0000 		lds r30,sja_base
 1107 08fa F091 0000 		lds r31,(sja_base)+1
 1108 08fe 8081      		ld r24,Z
 1109 0900 80FD      		sbrc r24,0
 1110 0902 00C0      		rjmp .L74
 1111               	/* epilogue start */
 1112 0904 DF91      		pop r29
 1113 0906 CF91      		pop r28
 1114 0908 0895      		ret
 1115               		.size	SJASetAccMask, .-SJASetAccMask
 1116               	.global	SJASetAccCode
 1117               		.type	SJASetAccCode, @function
 1118               	SJASetAccCode:
 1119 090a CF93      		push r28
 1120 090c DF93      		push r29
 1121               	/* prologue: function */
 1122               	/* frame size = 0 */
 1123 090e EB01      		movw r28,r22
 1124 0910 DC01      		movw r26,r24
 1125 0912 1F96      		adiw r26,15
 1126 0914 ED91      		ld r30,X+
 1127 0916 FC91      		ld r31,X
 1128 0918 5097      		sbiw r26,15+1
 1129 091a 8881      		ld r24,Y
 1130 091c 9981      		ldd r25,Y+1
 1131 091e AA81      		ldd r26,Y+2
 1132 0920 BB81      		ldd r27,Y+3
 1133 0922 8187      		std Z+9,r24
 1134 0924 9287      		std Z+10,r25
 1135 0926 A387      		std Z+11,r26
 1136 0928 B487      		std Z+12,r27
 1137 092a 00C0      		rjmp .L78
 1138               	.L79:
 1139 092c E091 0000 		lds r30,sja_base
 1140 0930 F091 0000 		lds r31,(sja_base)+1
GAS LISTING C:\DOCUME~1\ADMINI~1\LOCALS~1\Temp/ccUUYj36.s 			page 21


 1141 0934 A091 0000 		lds r26,sja_base
 1142 0938 B091 0000 		lds r27,(sja_base)+1
 1143 093c 8C91      		ld r24,X
 1144 093e 8160      		ori r24,lo8(1)
 1145 0940 8083      		st Z,r24
 1146               	.L78:
 1147 0942 E091 0000 		lds r30,sja_base
 1148 0946 F091 0000 		lds r31,(sja_base)+1
 1149 094a 8081      		ld r24,Z
 1150 094c 80FF      		sbrs r24,0
 1151 094e 00C0      		rjmp .L79
 1152 0950 E091 0000 		lds r30,sja_base
 1153 0954 F091 0000 		lds r31,(sja_base)+1
 1154 0958 8881      		ld r24,Y
 1155 095a 808B      		std Z+16,r24
 1156 095c E091 0000 		lds r30,sja_base
 1157 0960 F091 0000 		lds r31,(sja_base)+1
 1158 0964 8981      		ldd r24,Y+1
 1159 0966 818B      		std Z+17,r24
 1160 0968 E091 0000 		lds r30,sja_base
 1161 096c F091 0000 		lds r31,(sja_base)+1
 1162 0970 8A81      		ldd r24,Y+2
 1163 0972 828B      		std Z+18,r24
 1164 0974 E091 0000 		lds r30,sja_base
 1165 0978 F091 0000 		lds r31,(sja_base)+1
 1166 097c 8B81      		ldd r24,Y+3
 1167 097e 838B      		std Z+19,r24
 1168 0980 E091 0000 		lds r30,sja_base
 1169 0984 F091 0000 		lds r31,(sja_base)+1
 1170 0988 88E0      		ldi r24,lo8(8)
 1171 098a 8083      		st Z,r24
 1172               	.L80:
 1173 098c E091 0000 		lds r30,sja_base
 1174 0990 F091 0000 		lds r31,(sja_base)+1
 1175 0994 1082      		st Z,__zero_reg__
 1176 0996 E091 0000 		lds r30,sja_base
 1177 099a F091 0000 		lds r31,(sja_base)+1
 1178 099e 8081      		ld r24,Z
 1179 09a0 80FD      		sbrc r24,0
 1180 09a2 00C0      		rjmp .L80
 1181               	/* epilogue start */
 1182 09a4 DF91      		pop r29
 1183 09a6 CF91      		pop r28
 1184 09a8 0895      		ret
 1185               		.size	SJASetAccCode, .-SJASetAccCode
 1186               	.global	CANBufferPutMutex
 1187               		.type	CANBufferPutMutex, @function
 1188               	CANBufferPutMutex:
 1189 09aa 0F93      		push r16
 1190 09ac 1F93      		push r17
 1191 09ae CF93      		push r28
 1192 09b0 DF93      		push r29
 1193               	/* prologue: function */
 1194               	/* frame size = 0 */
 1195 09b2 EC01      		movw r28,r24
 1196 09b4 162F      		mov r17,r22
 1197 09b6 072F      		mov r16,r23
GAS LISTING C:\DOCUME~1\ADMINI~1\LOCALS~1\Temp/ccUUYj36.s 			page 22


 1198 09b8 0896      		adiw r24,8
 1199 09ba 0E94 0000 		call NutSemWait
 1200 09be 2C81      		ldd r18,Y+4
 1201 09c0 3D81      		ldd r19,Y+5
 1202 09c2 6A81      		ldd r22,Y+2
 1203 09c4 7B81      		ldd r23,Y+3
 1204 09c6 2617      		cp r18,r22
 1205 09c8 3707      		cpc r19,r23
 1206 09ca 00F4      		brsh .L84
 1207 09cc 8E81      		ldd r24,Y+6
 1208 09ce 9F81      		ldd r25,Y+7
 1209 09d0 820F      		add r24,r18
 1210 09d2 931F      		adc r25,r19
 1211 09d4 0E94 0000 		call __udivmodhi4
 1212 09d8 9C01      		movw r18,r24
 1213 09da 74E0      		ldi r23,4
 1214 09dc 220F      	1:	lsl r18
 1215 09de 331F      		rol r19
 1216 09e0 7A95      		dec r23
 1217 09e2 01F4      		brne 1b
 1218 09e4 281B      		sub r18,r24
 1219 09e6 390B      		sbc r19,r25
 1220 09e8 E881      		ld r30,Y
 1221 09ea F981      		ldd r31,Y+1
 1222 09ec E20F      		add r30,r18
 1223 09ee F31F      		adc r31,r19
 1224 09f0 212F      		mov r18,r17
 1225 09f2 302F      		mov r19,r16
 1226 09f4 C901      		movw r24,r18
 1227 09f6 DC01      		movw r26,r24
 1228 09f8 8FE0      		ldi r24,lo8(15)
 1229               	.L85:
 1230 09fa 0D90      		ld r0,X+
 1231 09fc 0192      		st Z+,r0
 1232 09fe 8150      		subi r24,lo8(-(-1))
 1233 0a00 01F4      		brne .L85
 1234 0a02 8C81      		ldd r24,Y+4
 1235 0a04 9D81      		ldd r25,Y+5
 1236 0a06 0196      		adiw r24,1
 1237 0a08 9D83      		std Y+5,r25
 1238 0a0a 8C83      		std Y+4,r24
 1239               	.L84:
 1240 0a0c CE01      		movw r24,r28
 1241 0a0e 0C96      		adiw r24,12
 1242 0a10 0E94 0000 		call NutSemPost
 1243               	/* epilogue start */
 1244 0a14 DF91      		pop r29
 1245 0a16 CF91      		pop r28
 1246 0a18 1F91      		pop r17
 1247 0a1a 0F91      		pop r16
 1248 0a1c 0895      		ret
 1249               		.size	CANBufferPutMutex, .-CANBufferPutMutex
 1250               	.global	SJAOutput
 1251               		.type	SJAOutput, @function
 1252               	SJAOutput:
 1253 0a1e 0F93      		push r16
 1254 0a20 1F93      		push r17
GAS LISTING C:\DOCUME~1\ADMINI~1\LOCALS~1\Temp/ccUUYj36.s 			page 23


 1255               	/* prologue: function */
 1256               	/* frame size = 0 */
 1257 0a22 FC01      		movw r30,r24
 1258 0a24 0189      		ldd r16,Z+17
 1259 0a26 1289      		ldd r17,Z+18
 1260 0a28 80E0      		ldi r24,lo8(CAN_TX_BUF)
 1261 0a2a 90E0      		ldi r25,hi8(CAN_TX_BUF)
 1262 0a2c 0E94 0000 		call CANBufferPutMutex
 1263 0a30 C801      		movw r24,r16
 1264 0a32 0296      		adiw r24,2
 1265 0a34 0E94 0000 		call NutEventPostAsync
 1266               	/* epilogue start */
 1267 0a38 1F91      		pop r17
 1268 0a3a 0F91      		pop r16
 1269 0a3c 0895      		ret
 1270               		.size	SJAOutput, .-SJAOutput
 1271               	.global	CANBufferGetMutex
 1272               		.type	CANBufferGetMutex, @function
 1273               	CANBufferGetMutex:
 1274 0a3e CF92      		push r12
 1275 0a40 DF92      		push r13
 1276 0a42 EF92      		push r14
 1277 0a44 FF92      		push r15
 1278 0a46 0F93      		push r16
 1279 0a48 1F93      		push r17
 1280 0a4a DF93      		push r29
 1281 0a4c CF93      		push r28
 1282 0a4e CDB7      		in r28,__SP_L__
 1283 0a50 DEB7      		in r29,__SP_H__
 1284 0a52 2F97      		sbiw r28,15
 1285 0a54 0FB6      		in __tmp_reg__,__SREG__
 1286 0a56 F894      		cli
 1287 0a58 DEBF      		out __SP_H__,r29
 1288 0a5a 0FBE      		out __SREG__,__tmp_reg__
 1289 0a5c CDBF      		out __SP_L__,r28
 1290               	/* prologue: function */
 1291               	/* frame size = 15 */
 1292 0a5e 6C01      		movw r12,r24
 1293 0a60 7B01      		movw r14,r22
 1294 0a62 CB01      		movw r24,r22
 1295 0a64 0C96      		adiw r24,12
 1296 0a66 0E94 0000 		call NutSemWait
 1297 0a6a F701      		movw r30,r14
 1298 0a6c 8481      		ldd r24,Z+4
 1299 0a6e 9581      		ldd r25,Z+5
 1300 0a70 892B      		or r24,r25
 1301 0a72 01F0      		breq .L91
 1302 0a74 0681      		ldd r16,Z+6
 1303 0a76 1781      		ldd r17,Z+7
 1304 0a78 C801      		movw r24,r16
 1305 0a7a A4E0      		ldi r26,4
 1306 0a7c 880F      	1:	lsl r24
 1307 0a7e 991F      		rol r25
 1308 0a80 AA95      		dec r26
 1309 0a82 01F4      		brne 1b
 1310 0a84 801B      		sub r24,r16
 1311 0a86 910B      		sbc r25,r17
GAS LISTING C:\DOCUME~1\ADMINI~1\LOCALS~1\Temp/ccUUYj36.s 			page 24


 1312 0a88 6081      		ld r22,Z
 1313 0a8a 7181      		ldd r23,Z+1
 1314 0a8c 680F      		add r22,r24
 1315 0a8e 791F      		adc r23,r25
 1316 0a90 C601      		movw r24,r12
 1317 0a92 4FE0      		ldi r20,lo8(15)
 1318 0a94 50E0      		ldi r21,hi8(15)
 1319 0a96 0E94 0000 		call memmove
 1320 0a9a C801      		movw r24,r16
 1321 0a9c 0196      		adiw r24,1
 1322 0a9e F701      		movw r30,r14
 1323 0aa0 9783      		std Z+7,r25
 1324 0aa2 8683      		std Z+6,r24
 1325 0aa4 6281      		ldd r22,Z+2
 1326 0aa6 7381      		ldd r23,Z+3
 1327 0aa8 8617      		cp r24,r22
 1328 0aaa 9707      		cpc r25,r23
 1329 0aac 00F0      		brlo .L92
 1330 0aae 0E94 0000 		call __udivmodhi4
 1331 0ab2 9783      		std Z+7,r25
 1332 0ab4 8683      		std Z+6,r24
 1333               	.L92:
 1334 0ab6 F701      		movw r30,r14
 1335 0ab8 8481      		ldd r24,Z+4
 1336 0aba 9581      		ldd r25,Z+5
 1337 0abc 0197      		sbiw r24,1
 1338 0abe 9583      		std Z+5,r25
 1339 0ac0 8483      		std Z+4,r24
 1340               	.L91:
 1341 0ac2 C701      		movw r24,r14
 1342 0ac4 0896      		adiw r24,8
 1343 0ac6 0E94 0000 		call NutSemPost
 1344 0aca C601      		movw r24,r12
 1345               	/* epilogue start */
 1346 0acc 2F96      		adiw r28,15
 1347 0ace 0FB6      		in __tmp_reg__,__SREG__
 1348 0ad0 F894      		cli
 1349 0ad2 DEBF      		out __SP_H__,r29
 1350 0ad4 0FBE      		out __SREG__,__tmp_reg__
 1351 0ad6 CDBF      		out __SP_L__,r28
 1352 0ad8 CF91      		pop r28
 1353 0ada DF91      		pop r29
 1354 0adc 1F91      		pop r17
 1355 0ade 0F91      		pop r16
 1356 0ae0 FF90      		pop r15
 1357 0ae2 EF90      		pop r14
 1358 0ae4 DF90      		pop r13
 1359 0ae6 CF90      		pop r12
 1360 0ae8 0895      		ret
 1361               		.size	CANBufferGetMutex, .-CANBufferGetMutex
 1362               	.global	CAN_Tx
 1363               		.type	CAN_Tx, @function
 1364               	CAN_Tx:
 1365 0aea DF93      		push r29
 1366 0aec CF93      		push r28
 1367 0aee CDB7      		in r28,__SP_L__
 1368 0af0 DEB7      		in r29,__SP_H__
GAS LISTING C:\DOCUME~1\ADMINI~1\LOCALS~1\Temp/ccUUYj36.s 			page 25


 1369 0af2 6E97      		sbiw r28,30
 1370 0af4 0FB6      		in __tmp_reg__,__SREG__
 1371 0af6 F894      		cli
 1372 0af8 DEBF      		out __SP_H__,r29
 1373 0afa 0FBE      		out __SREG__,__tmp_reg__
 1374 0afc CDBF      		out __SP_L__,r28
 1375               	/* prologue: function */
 1376               	/* frame size = 30 */
 1377 0afe FC01      		movw r30,r24
 1378 0b00 0189      		ldd r16,Z+17
 1379 0b02 1289      		ldd r17,Z+18
 1380 0b04 80E1      		ldi r24,lo8(16)
 1381 0b06 0E94 0000 		call NutThreadSetPriority
 1382 0b0a 82E0      		ldi r24,lo8(2)
 1383 0b0c E82E      		mov r14,r24
 1384 0b0e F12C      		mov r15,__zero_reg__
 1385 0b10 E00E      		add r14,r16
 1386 0b12 F11E      		adc r15,r17
 1387 0b14 B0E1      		ldi r27,lo8(16)
 1388 0b16 AB2E      		mov r10,r27
 1389 0b18 B12C      		mov r11,__zero_reg__
 1390 0b1a AC0E      		add r10,r28
 1391 0b1c BD1E      		adc r11,r29
 1392 0b1e 6E01      		movw r12,r28
 1393 0b20 0894      		sec
 1394 0b22 C11C      		adc r12,__zero_reg__
 1395 0b24 D11C      		adc r13,__zero_reg__
 1396               	.L98:
 1397 0b26 C701      		movw r24,r14
 1398 0b28 40E0      		ldi r20,lo8(0)
 1399 0b2a 50E0      		ldi r21,hi8(0)
 1400 0b2c 60E0      		ldi r22,hlo8(0)
 1401 0b2e 70E0      		ldi r23,hhi8(0)
 1402 0b30 0E94 0000 		call NutEventWait
 1403 0b34 00C0      		rjmp .L95
 1404               	.L101:
 1405 0b36 C501      		movw r24,r10
 1406 0b38 60E0      		ldi r22,lo8(CAN_TX_BUF)
 1407 0b3a 70E0      		ldi r23,hi8(CAN_TX_BUF)
 1408 0b3c 0E94 0000 		call CANBufferGetMutex
 1409 0b40 D601      		movw r26,r12
 1410 0b42 F501      		movw r30,r10
 1411 0b44 8FE0      		ldi r24,lo8(15)
 1412               	.L96:
 1413 0b46 0190      		ld r0,Z+
 1414 0b48 0D92      		st X+,r0
 1415 0b4a 8150      		subi r24,lo8(-(-1))
 1416 0b4c 01F4      		brne .L96
 1417 0b4e C601      		movw r24,r12
 1418 0b50 0E94 0000 		call SJATxFrame
 1419 0b54 F801      		movw r30,r16
 1420 0b56 8085      		ldd r24,Z+8
 1421 0b58 9185      		ldd r25,Z+9
 1422 0b5a A285      		ldd r26,Z+10
 1423 0b5c B385      		ldd r27,Z+11
 1424 0b5e 0196      		adiw r24,1
 1425 0b60 A11D      		adc r26,__zero_reg__
GAS LISTING C:\DOCUME~1\ADMINI~1\LOCALS~1\Temp/ccUUYj36.s 			page 26


 1426 0b62 B11D      		adc r27,__zero_reg__
 1427 0b64 8087      		std Z+8,r24
 1428 0b66 9187      		std Z+9,r25
 1429 0b68 A287      		std Z+10,r26
 1430 0b6a B387      		std Z+11,r27
 1431               	.L95:
 1432 0b6c E091 0000 		lds r30,sja_base
 1433 0b70 F091 0000 		lds r31,(sja_base)+1
 1434 0b74 8281      		ldd r24,Z+2
 1435 0b76 82FF      		sbrs r24,2
 1436 0b78 00C0      		rjmp .L98
 1437 0b7a 00C0      		rjmp .L101
 1438               		.size	CAN_Tx, .-CAN_Tx
 1439               	.global	CANBufferInit
 1440               		.type	CANBufferInit, @function
 1441               	CANBufferInit:
 1442 0b7c EF92      		push r14
 1443 0b7e FF92      		push r15
 1444 0b80 0F93      		push r16
 1445 0b82 1F93      		push r17
 1446               	/* prologue: function */
 1447               	/* frame size = 0 */
 1448 0b84 8C01      		movw r16,r24
 1449 0b86 7B01      		movw r14,r22
 1450 0b88 0C96      		adiw r24,12
 1451 0b8a 60E0      		ldi r22,lo8(0)
 1452 0b8c 70E0      		ldi r23,hi8(0)
 1453 0b8e 0E94 0000 		call NutSemInit
 1454 0b92 C801      		movw r24,r16
 1455 0b94 0896      		adiw r24,8
 1456 0b96 6FE3      		ldi r22,lo8(63)
 1457 0b98 70E0      		ldi r23,hi8(63)
 1458 0b9a 0E94 0000 		call NutSemInit
 1459 0b9e B701      		movw r22,r14
 1460 0ba0 94E0      		ldi r25,4
 1461 0ba2 660F      	1:	lsl r22
 1462 0ba4 771F      		rol r23
 1463 0ba6 9A95      		dec r25
 1464 0ba8 01F4      		brne 1b
 1465 0baa 6E19      		sub r22,r14
 1466 0bac 7F09      		sbc r23,r15
 1467 0bae 80E0      		ldi r24,lo8(heapFreeList)
 1468 0bb0 90E0      		ldi r25,hi8(heapFreeList)
 1469 0bb2 0E94 0000 		call NutHeapRootAlloc
 1470 0bb6 F801      		movw r30,r16
 1471 0bb8 9183      		std Z+1,r25
 1472 0bba 8083      		st Z,r24
 1473 0bbc F382      		std Z+3,r15
 1474 0bbe E282      		std Z+2,r14
 1475 0bc0 1782      		std Z+7,__zero_reg__
 1476 0bc2 1682      		std Z+6,__zero_reg__
 1477 0bc4 1582      		std Z+5,__zero_reg__
 1478 0bc6 1482      		std Z+4,__zero_reg__
 1479               	/* epilogue start */
 1480 0bc8 1F91      		pop r17
 1481 0bca 0F91      		pop r16
 1482 0bcc FF90      		pop r15
GAS LISTING C:\DOCUME~1\ADMINI~1\LOCALS~1\Temp/ccUUYj36.s 			page 27


 1483 0bce EF90      		pop r14
 1484 0bd0 0895      		ret
 1485               		.size	CANBufferInit, .-CANBufferInit
 1486               		.data
 1487               	.LC0:
 1488 0000 736A 6163 		.string	"sjacantx"
 1488      616E 7478 
 1488      00
 1489               		.text
 1490               	.global	SJAInit
 1491               		.type	SJAInit, @function
 1492               	SJAInit:
 1493 0bd2 EF92      		push r14
 1494 0bd4 FF92      		push r15
 1495 0bd6 0F93      		push r16
 1496 0bd8 1F93      		push r17
 1497 0bda DF93      		push r29
 1498 0bdc CF93      		push r28
 1499 0bde 0F92      		push __tmp_reg__
 1500 0be0 CDB7      		in r28,__SP_L__
 1501 0be2 DEB7      		in r29,__SP_H__
 1502               	/* prologue: function */
 1503               	/* frame size = 1 */
 1504 0be4 7C01      		movw r14,r24
 1505 0be6 DC01      		movw r26,r24
 1506 0be8 1C96      		adiw r26,12
 1507 0bea 8D91      		ld r24,X+
 1508 0bec 9C91      		ld r25,X
 1509 0bee 1D97      		sbiw r26,12+1
 1510 0bf0 9093 0000 		sts (sja_base)+1,r25
 1511 0bf4 8093 0000 		sts sja_base,r24
 1512 0bf8 8091 0000 		lds r24,sja_base
 1513 0bfc 9091 0000 		lds r25,(sja_base)+1
 1514 0c00 892B      		or r24,r25
 1515 0c02 01F4      		brne .L105
 1516 0c04 80E0      		ldi r24,lo8(-30720)
 1517 0c06 98E8      		ldi r25,hi8(-30720)
 1518 0c08 9093 0000 		sts (sja_base)+1,r25
 1519 0c0c 8093 0000 		sts sja_base,r24
 1520               	.L105:
 1521 0c10 F701      		movw r30,r14
 1522 0c12 0785      		ldd r16,Z+15
 1523 0c14 1089      		ldd r17,Z+16
 1524 0c16 D701      		movw r26,r14
 1525 0c18 5196      		adiw r26,17
 1526 0c1a EC91      		ld r30,X
 1527 0c1c 5197      		sbiw r26,17
 1528 0c1e 5296      		adiw r26,18
 1529 0c20 FC91      		ld r31,X
 1530 0c22 88E1      		ldi r24,lo8(24)
 1531 0c24 DF01      		movw r26,r30
 1532 0c26 1D92      		st X+,__zero_reg__
 1533 0c28 8A95      	        dec r24
 1534 0c2a 01F4      		brne .-6
 1535 0c2c 80E0      		ldi r24,lo8(CAN_RX_BUF)
 1536 0c2e 90E0      		ldi r25,hi8(CAN_RX_BUF)
 1537 0c30 60E4      		ldi r22,lo8(64)
GAS LISTING C:\DOCUME~1\ADMINI~1\LOCALS~1\Temp/ccUUYj36.s 			page 28


 1538 0c32 70E0      		ldi r23,hi8(64)
 1539 0c34 0E94 0000 		call CANBufferInit
 1540 0c38 80E0      		ldi r24,lo8(CAN_TX_BUF)
 1541 0c3a 90E0      		ldi r25,hi8(CAN_TX_BUF)
 1542 0c3c 60E4      		ldi r22,lo8(64)
 1543 0c3e 70E0      		ldi r23,hi8(64)
 1544 0c40 0E94 0000 		call CANBufferInit
 1545 0c44 00C0      		rjmp .L106
 1546               	.L107:
 1547 0c46 E091 0000 		lds r30,sja_base
 1548 0c4a F091 0000 		lds r31,(sja_base)+1
 1549 0c4e A091 0000 		lds r26,sja_base
 1550 0c52 B091 0000 		lds r27,(sja_base)+1
 1551 0c56 8C91      		ld r24,X
 1552 0c58 8160      		ori r24,lo8(1)
 1553 0c5a 8083      		st Z,r24
 1554               	.L106:
 1555 0c5c E091 0000 		lds r30,sja_base
 1556 0c60 F091 0000 		lds r31,(sja_base)+1
 1557 0c64 8081      		ld r24,Z
 1558 0c66 80FF      		sbrs r24,0
 1559 0c68 00C0      		rjmp .L107
 1560 0c6a E091 0000 		lds r30,sja_base
 1561 0c6e F091 0000 		lds r31,(sja_base)+1
 1562 0c72 88EC      		ldi r24,lo8(-56)
 1563 0c74 878F      		std Z+31,r24
 1564 0c76 E091 0000 		lds r30,sja_base
 1565 0c7a F091 0000 		lds r31,(sja_base)+1
 1566 0c7e 1482      		std Z+4,__zero_reg__
 1567 0c80 E091 0000 		lds r30,sja_base
 1568 0c84 F091 0000 		lds r31,(sja_base)+1
 1569 0c88 D801      		movw r26,r16
 1570 0c8a 1996      		adiw r26,9
 1571 0c8c 8C91      		ld r24,X
 1572 0c8e 1997      		sbiw r26,9
 1573 0c90 808B      		std Z+16,r24
 1574 0c92 E091 0000 		lds r30,sja_base
 1575 0c96 F091 0000 		lds r31,(sja_base)+1
 1576 0c9a 1A96      		adiw r26,10
 1577 0c9c 8C91      		ld r24,X
 1578 0c9e 1A97      		sbiw r26,10
 1579 0ca0 818B      		std Z+17,r24
 1580 0ca2 E091 0000 		lds r30,sja_base
 1581 0ca6 F091 0000 		lds r31,(sja_base)+1
 1582 0caa 1B96      		adiw r26,11
 1583 0cac 8C91      		ld r24,X
 1584 0cae 1B97      		sbiw r26,11
 1585 0cb0 828B      		std Z+18,r24
 1586 0cb2 E091 0000 		lds r30,sja_base
 1587 0cb6 F091 0000 		lds r31,(sja_base)+1
 1588 0cba 1C96      		adiw r26,12
 1589 0cbc 8C91      		ld r24,X
 1590 0cbe 1C97      		sbiw r26,12
 1591 0cc0 838B      		std Z+19,r24
 1592 0cc2 E091 0000 		lds r30,sja_base
 1593 0cc6 F091 0000 		lds r31,(sja_base)+1
 1594 0cca 1596      		adiw r26,5
GAS LISTING C:\DOCUME~1\ADMINI~1\LOCALS~1\Temp/ccUUYj36.s 			page 29


 1595 0ccc 8C91      		ld r24,X
 1596 0cce 1597      		sbiw r26,5
 1597 0cd0 848B      		std Z+20,r24
 1598 0cd2 E091 0000 		lds r30,sja_base
 1599 0cd6 F091 0000 		lds r31,(sja_base)+1
 1600 0cda 1696      		adiw r26,6
 1601 0cdc 8C91      		ld r24,X
 1602 0cde 1697      		sbiw r26,6
 1603 0ce0 858B      		std Z+21,r24
 1604 0ce2 E091 0000 		lds r30,sja_base
 1605 0ce6 F091 0000 		lds r31,(sja_base)+1
 1606 0cea 1796      		adiw r26,7
 1607 0cec 8C91      		ld r24,X
 1608 0cee 1797      		sbiw r26,7
 1609 0cf0 868B      		std Z+22,r24
 1610 0cf2 E091 0000 		lds r30,sja_base
 1611 0cf6 F091 0000 		lds r31,(sja_base)+1
 1612 0cfa 1896      		adiw r26,8
 1613 0cfc 8C91      		ld r24,X
 1614 0cfe 1897      		sbiw r26,8
 1615 0d00 878B      		std Z+23,r24
 1616 0d02 1196      		adiw r26,1
 1617 0d04 8D91      		ld r24,X+
 1618 0d06 9D91      		ld r25,X+
 1619 0d08 0D90      		ld __tmp_reg__,X+
 1620 0d0a BC91      		ld r27,X
 1621 0d0c A02D      		mov r26,__tmp_reg__
 1622 0d0e 8430      		cpi r24,lo8(4)
 1623 0d10 9105      		cpc r25,__zero_reg__
 1624 0d12 A105      		cpc r26,__zero_reg__
 1625 0d14 B105      		cpc r27,__zero_reg__
 1626 0d16 01F4      		brne .+2
 1627 0d18 00C0      		rjmp .L113
 1628 0d1a 8530      		cpi r24,lo8(5)
 1629 0d1c 9105      		cpc r25,__zero_reg__
 1630 0d1e A105      		cpc r26,__zero_reg__
 1631 0d20 B105      		cpc r27,__zero_reg__
 1632 0d22 00F4      		brsh .L118
 1633 0d24 8130      		cpi r24,lo8(1)
 1634 0d26 9105      		cpc r25,__zero_reg__
 1635 0d28 A105      		cpc r26,__zero_reg__
 1636 0d2a B105      		cpc r27,__zero_reg__
 1637 0d2c 01F0      		breq .L110
 1638 0d2e 8130      		cpi r24,lo8(1)
 1639 0d30 9105      		cpc r25,__zero_reg__
 1640 0d32 A105      		cpc r26,__zero_reg__
 1641 0d34 B105      		cpc r27,__zero_reg__
 1642 0d36 00F0      		brlo .L109
 1643 0d38 8230      		cpi r24,lo8(2)
 1644 0d3a 9105      		cpc r25,__zero_reg__
 1645 0d3c A105      		cpc r26,__zero_reg__
 1646 0d3e B105      		cpc r27,__zero_reg__
 1647 0d40 01F0      		breq .L111
 1648 0d42 0397      		sbiw r24,3
 1649 0d44 A105      		cpc r26,__zero_reg__
 1650 0d46 B105      		cpc r27,__zero_reg__
 1651 0d48 01F4      		brne .L108
GAS LISTING C:\DOCUME~1\ADMINI~1\LOCALS~1\Temp/ccUUYj36.s 			page 30


 1652 0d4a 00C0      		rjmp .L127
 1653               	.L118:
 1654 0d4c 8630      		cpi r24,lo8(6)
 1655 0d4e 9105      		cpc r25,__zero_reg__
 1656 0d50 A105      		cpc r26,__zero_reg__
 1657 0d52 B105      		cpc r27,__zero_reg__
 1658 0d54 01F0      		breq .L115
 1659 0d56 8630      		cpi r24,lo8(6)
 1660 0d58 9105      		cpc r25,__zero_reg__
 1661 0d5a A105      		cpc r26,__zero_reg__
 1662 0d5c B105      		cpc r27,__zero_reg__
 1663 0d5e 00F0      		brlo .L114
 1664 0d60 8730      		cpi r24,lo8(7)
 1665 0d62 9105      		cpc r25,__zero_reg__
 1666 0d64 A105      		cpc r26,__zero_reg__
 1667 0d66 B105      		cpc r27,__zero_reg__
 1668 0d68 01F0      		breq .L116
 1669 0d6a 0897      		sbiw r24,8
 1670 0d6c A105      		cpc r26,__zero_reg__
 1671 0d6e B105      		cpc r27,__zero_reg__
 1672 0d70 01F4      		brne .+2
 1673 0d72 00C0      		rjmp .L117
 1674               	.L108:
 1675 0d74 27E0      		ldi r18,lo8(7)
 1676 0d76 30E0      		ldi r19,hi8(7)
 1677 0d78 00C0      		rjmp .L119
 1678               	.L109:
 1679 0d7a E091 0000 		lds r30,sja_base
 1680 0d7e F091 0000 		lds r31,(sja_base)+1
 1681 0d82 81E7      		ldi r24,lo8(113)
 1682 0d84 00C0      		rjmp .L126
 1683               	.L110:
 1684 0d86 E091 0000 		lds r30,sja_base
 1685 0d8a F091 0000 		lds r31,(sja_base)+1
 1686 0d8e 88E5      		ldi r24,lo8(88)
 1687 0d90 00C0      		rjmp .L126
 1688               	.L111:
 1689 0d92 E091 0000 		lds r30,sja_base
 1690 0d96 F091 0000 		lds r31,(sja_base)+1
 1691 0d9a 89E4      		ldi r24,lo8(73)
 1692 0d9c 00C0      		rjmp .L126
 1693               	.L127:
 1694 0d9e E091 0000 		lds r30,sja_base
 1695 0da2 F091 0000 		lds r31,(sja_base)+1
 1696 0da6 84E4      		ldi r24,lo8(68)
 1697 0da8 00C0      		rjmp .L126
 1698               	.L113:
 1699 0daa E091 0000 		lds r30,sja_base
 1700 0dae F091 0000 		lds r31,(sja_base)+1
 1701 0db2 83E4      		ldi r24,lo8(67)
 1702 0db4 00C0      		rjmp .L126
 1703               	.L114:
 1704 0db6 E091 0000 		lds r30,sja_base
 1705 0dba F091 0000 		lds r31,(sja_base)+1
 1706 0dbe 81E4      		ldi r24,lo8(65)
 1707 0dc0 00C0      		rjmp .L126
 1708               	.L115:
GAS LISTING C:\DOCUME~1\ADMINI~1\LOCALS~1\Temp/ccUUYj36.s 			page 31


 1709 0dc2 E091 0000 		lds r30,sja_base
 1710 0dc6 F091 0000 		lds r31,(sja_base)+1
 1711 0dca 80E4      		ldi r24,lo8(64)
 1712               	.L126:
 1713 0dcc 8683      		std Z+6,r24
 1714 0dce E091 0000 		lds r30,sja_base
 1715 0dd2 F091 0000 		lds r31,(sja_base)+1
 1716 0dd6 8CE1      		ldi r24,lo8(28)
 1717 0dd8 00C0      		rjmp .L125
 1718               	.L116:
 1719 0dda E091 0000 		lds r30,sja_base
 1720 0dde F091 0000 		lds r31,(sja_base)+1
 1721 0de2 80E4      		ldi r24,lo8(64)
 1722 0de4 8683      		std Z+6,r24
 1723 0de6 E091 0000 		lds r30,sja_base
 1724 0dea F091 0000 		lds r31,(sja_base)+1
 1725 0dee 86E1      		ldi r24,lo8(22)
 1726 0df0 00C0      		rjmp .L125
 1727               	.L117:
 1728 0df2 E091 0000 		lds r30,sja_base
 1729 0df6 F091 0000 		lds r31,(sja_base)+1
 1730 0dfa 80E4      		ldi r24,lo8(64)
 1731 0dfc 8683      		std Z+6,r24
 1732 0dfe E091 0000 		lds r30,sja_base
 1733 0e02 F091 0000 		lds r31,(sja_base)+1
 1734 0e06 84E1      		ldi r24,lo8(20)
 1735               	.L125:
 1736 0e08 8783      		std Z+7,r24
 1737 0e0a E091 0000 		lds r30,sja_base
 1738 0e0e F091 0000 		lds r31,(sja_base)+1
 1739 0e12 8AE1      		ldi r24,lo8(26)
 1740 0e14 8087      		std Z+8,r24
 1741 0e16 E091 0000 		lds r30,sja_base
 1742 0e1a F091 0000 		lds r31,(sja_base)+1
 1743 0e1e 8FE0      		ldi r24,lo8(15)
 1744 0e20 8483      		std Z+4,r24
 1745 0e22 E091 0000 		lds r30,sja_base
 1746 0e26 F091 0000 		lds r31,(sja_base)+1
 1747 0e2a 88E0      		ldi r24,lo8(8)
 1748 0e2c 8083      		st Z,r24
 1749               	.L121:
 1750 0e2e E091 0000 		lds r30,sja_base
 1751 0e32 F091 0000 		lds r31,(sja_base)+1
 1752 0e36 1082      		st Z,__zero_reg__
 1753 0e38 E091 0000 		lds r30,sja_base
 1754 0e3c F091 0000 		lds r31,(sja_base)+1
 1755 0e40 8081      		ld r24,Z
 1756 0e42 80FD      		sbrc r24,0
 1757 0e44 00C0      		rjmp .L121
 1758               	/* #APP */
 1759               	 ;  747 "../../nut/arch/avr/dev/sja1000.c" 1
 1760 0e46 0FB6      		in  __tmp_reg__, __SREG__
 1761 0e48 F894      		cli
 1762 0e4a 0F92      		push __tmp_reg__
 1763               		
 1764               	 ;  0 "" 2
 1765               	/* #NOAPP */
GAS LISTING C:\DOCUME~1\ADMINI~1\LOCALS~1\Temp/ccUUYj36.s 			page 32


 1766 0e4c 80E0      		ldi r24,lo8(sig_INTERRUPT7)
 1767 0e4e 90E0      		ldi r25,hi8(sig_INTERRUPT7)
 1768 0e50 60E0      		ldi r22,lo8(gs(SJAInterrupt))
 1769 0e52 70E0      		ldi r23,hi8(gs(SJAInterrupt))
 1770 0e54 A701      		movw r20,r14
 1771 0e56 0E94 0000 		call NutRegisterIrqHandler
 1772 0e5a 892B      		or r24,r25
 1773 0e5c 01F0      		breq .L122
 1774               	/* #APP */
 1775               	 ;  750 "../../nut/arch/avr/dev/sja1000.c" 1
 1776 0e5e 0F90      		pop __tmp_reg__
 1777 0e60 0FBE      		out __SREG__, __tmp_reg__
 1778               		
 1779               	 ;  0 "" 2
 1780               	/* #NOAPP */
 1781 0e62 2FEF      		ldi r18,lo8(-1)
 1782 0e64 3FEF      		ldi r19,hi8(-1)
 1783 0e66 00C0      		rjmp .L119
 1784               	.L122:
 1785 0e68 89B7      		in r24,89-32
 1786 0e6a 8F77      		andi r24,lo8(127)
 1787 0e6c 89BF      		out 89-32,r24
 1788 0e6e 8AB7      		in r24,90-32
 1789 0e70 8F7B      		andi r24,lo8(-65)
 1790 0e72 8ABF      		out 90-32,r24
 1791 0e74 8AB7      		in r24,90-32
 1792 0e76 8F77      		andi r24,lo8(127)
 1793 0e78 8ABF      		out 90-32,r24
 1794 0e7a E091 0000 		lds r30,sja_base
 1795 0e7e F091 0000 		lds r31,(sja_base)+1
 1796 0e82 8381      		ldd r24,Z+3
 1797 0e84 8983      		std Y+1,r24
 1798 0e86 89B7      		in r24,89-32
 1799 0e88 8068      		ori r24,lo8(-128)
 1800 0e8a 89BF      		out 89-32,r24
 1801 0e8c 1F9A      		sbi 35-32,7
 1802 0e8e 80E0      		ldi r24,lo8(.LC0)
 1803 0e90 90E0      		ldi r25,hi8(.LC0)
 1804 0e92 60E0      		ldi r22,lo8(gs(CAN_Tx))
 1805 0e94 70E0      		ldi r23,hi8(gs(CAN_Tx))
 1806 0e96 A701      		movw r20,r14
 1807 0e98 20E0      		ldi r18,lo8(256)
 1808 0e9a 31E0      		ldi r19,hi8(256)
 1809 0e9c 0E94 0000 		call NutThreadCreate
 1810               	/* #APP */
 1811               	 ;  770 "../../nut/arch/avr/dev/sja1000.c" 1
 1812 0ea0 0F90      		pop __tmp_reg__
 1813 0ea2 0FBE      		out __SREG__, __tmp_reg__
 1814               		
 1815               	 ;  0 "" 2
 1816               	/* #NOAPP */
 1817 0ea4 20E0      		ldi r18,lo8(0)
 1818 0ea6 30E0      		ldi r19,hi8(0)
 1819               	.L119:
 1820 0ea8 C901      		movw r24,r18
 1821               	/* epilogue start */
 1822 0eaa 0F90      		pop __tmp_reg__
GAS LISTING C:\DOCUME~1\ADMINI~1\LOCALS~1\Temp/ccUUYj36.s 			page 33


 1823 0eac CF91      		pop r28
 1824 0eae DF91      		pop r29
 1825 0eb0 1F91      		pop r17
 1826 0eb2 0F91      		pop r16
 1827 0eb4 FF90      		pop r15
 1828 0eb6 EF90      		pop r14
 1829 0eb8 0895      		ret
 1830               		.size	SJAInit, .-SJAInit
 1831               	.global	sja_base
 1832               	.global	sja_base
 1833               		.section .bss
 1834               		.type	sja_base, @object
 1835               		.size	sja_base, 2
 1836               	sja_base:
 1837 0000 0000      		.skip 2,0
 1838               	.global	ifc_sja1000
 1839               		.data
 1840               		.type	ifc_sja1000, @object
 1841               		.size	ifc_sja1000, 31
 1842               	ifc_sja1000:
 1843 0009 02        		.byte	2
 1844 000a 06        		.byte	6
 1845 000b 00        		.byte	0
 1846 000c 00        		.byte	0
 1847 000d 00        		.byte	0
 1848 000e FF        		.byte	-1
 1849 000f FF        		.byte	-1
 1850 0010 FF        		.byte	-1
 1851 0011 FF        		.byte	-1
 1852 0012 00        		.byte	0
 1853 0013 00        		.byte	0
 1854 0014 00        		.byte	0
 1855 0015 00        		.byte	0
 1856 0016 00        		.byte	0
 1857 0017 00        		.byte	0
 1858 0018 00        		.byte	0
 1859 0019 00        		.byte	0
 1860 001a 0000      		.word	gs(SJARxAvail)
 1861 001c 0000      		.word	gs(SJATxFree)
 1862 001e 0000      		.word	gs(SJAInput)
 1863 0020 0000      		.word	gs(SJAOutput)
 1864 0022 0000      		.word	gs(SJASetAccCode)
 1865 0024 0000      		.word	gs(SJASetAccMask)
 1866 0026 0000      		.word	gs(SJASetBaudrate)
 1867               	.global	devSJA1000
 1868               		.type	devSJA1000, @object
 1869               		.size	devSJA1000, 35
 1870               	devSJA1000:
 1871 0028 0000      		.word	0
 1872 002a 73        		.byte	115
 1873 002b 6A        		.byte	106
 1874 002c 61        		.byte	97
 1875 002d 31        		.byte	49
 1876 002e 30        		.byte	48
 1877 002f 30        		.byte	48
 1878 0030 30        		.byte	48
 1879 0031 00        		.byte	0
GAS LISTING C:\DOCUME~1\ADMINI~1\LOCALS~1\Temp/ccUUYj36.s 			page 34


 1880 0032 00        		.byte	0
 1881 0033 06        		.byte	6
 1882 0034 0000      		.word	0
 1883 0036 00        		.byte	0
 1884 0037 0000      		.word	ifc_sja1000
 1885 0039 0000      		.word	dcb_sja1000
 1886 003b 0000      		.word	gs(SJAInit)
 1887 003d 0000      		.word	0
 1888 003f 0000      		.word	0
 1889 0041 0000      		.word	0
 1890 0043 0000      		.word	0
 1891 0045 0000      		.word	0
 1892 0047 0000      		.word	0
 1893 0049 0000      		.word	0
 1894               		.comm dcb_sja1000,24,1
 1895               		.comm CAN_RX_BUF,16,1
 1896               		.comm CAN_TX_BUF,16,1
 1897               	.global __do_copy_data
 1898               	.global __do_clear_bss
GAS LISTING C:\DOCUME~1\ADMINI~1\LOCALS~1\Temp/ccUUYj36.s 			page 35


DEFINED SYMBOLS
                            *ABS*:00000000 sja1000.c
C:\DOCUME~1\ADMINI~1\LOCALS~1\Temp/ccUUYj36.s:2      *ABS*:0000003f __SREG__
C:\DOCUME~1\ADMINI~1\LOCALS~1\Temp/ccUUYj36.s:3      *ABS*:0000003e __SP_H__
C:\DOCUME~1\ADMINI~1\LOCALS~1\Temp/ccUUYj36.s:4      *ABS*:0000003d __SP_L__
C:\DOCUME~1\ADMINI~1\LOCALS~1\Temp/ccUUYj36.s:5      *ABS*:00000034 __CCP__
C:\DOCUME~1\ADMINI~1\LOCALS~1\Temp/ccUUYj36.s:6      *ABS*:00000000 __tmp_reg__
C:\DOCUME~1\ADMINI~1\LOCALS~1\Temp/ccUUYj36.s:7      *ABS*:00000001 __zero_reg__
C:\DOCUME~1\ADMINI~1\LOCALS~1\Temp/ccUUYj36.s:11     .text:00000000 CANBufferGet
C:\DOCUME~1\ADMINI~1\LOCALS~1\Temp/ccUUYj36.s:96     .text:0000009c CANBufferPut
C:\DOCUME~1\ADMINI~1\LOCALS~1\Temp/ccUUYj36.s:153    .text:000000fe CANBufferFree
C:\DOCUME~1\ADMINI~1\LOCALS~1\Temp/ccUUYj36.s:169    .text:00000110 SJARxAvail
                            *COM*:00000010 CAN_RX_BUF
C:\DOCUME~1\ADMINI~1\LOCALS~1\Temp/ccUUYj36.s:178    .text:00000116 SJATxFree
                            *COM*:00000010 CAN_TX_BUF
C:\DOCUME~1\ADMINI~1\LOCALS~1\Temp/ccUUYj36.s:189    .text:00000122 SJASetBaudrate
C:\DOCUME~1\ADMINI~1\LOCALS~1\Temp/ccUUYj36.s:1836   .bss:00000000 sja_base
C:\DOCUME~1\ADMINI~1\LOCALS~1\Temp/ccUUYj36.s:347    .text:00000274 SJATxFrame
C:\DOCUME~1\ADMINI~1\LOCALS~1\Temp/ccUUYj36.s:517    .text:00000412 SJARxFrame
C:\DOCUME~1\ADMINI~1\LOCALS~1\Temp/ccUUYj36.s:732    .text:0000060e SJAInterrupt
C:\DOCUME~1\ADMINI~1\LOCALS~1\Temp/ccUUYj36.s:928    .text:00000798 SJAInput
C:\DOCUME~1\ADMINI~1\LOCALS~1\Temp/ccUUYj36.s:1048   .text:0000086a SJASetAccMask
C:\DOCUME~1\ADMINI~1\LOCALS~1\Temp/ccUUYj36.s:1118   .text:0000090a SJASetAccCode
C:\DOCUME~1\ADMINI~1\LOCALS~1\Temp/ccUUYj36.s:1188   .text:000009aa CANBufferPutMutex
C:\DOCUME~1\ADMINI~1\LOCALS~1\Temp/ccUUYj36.s:1252   .text:00000a1e SJAOutput
C:\DOCUME~1\ADMINI~1\LOCALS~1\Temp/ccUUYj36.s:1273   .text:00000a3e CANBufferGetMutex
C:\DOCUME~1\ADMINI~1\LOCALS~1\Temp/ccUUYj36.s:1364   .text:00000aea CAN_Tx
C:\DOCUME~1\ADMINI~1\LOCALS~1\Temp/ccUUYj36.s:1441   .text:00000b7c CANBufferInit
C:\DOCUME~1\ADMINI~1\LOCALS~1\Temp/ccUUYj36.s:1492   .text:00000bd2 SJAInit
C:\DOCUME~1\ADMINI~1\LOCALS~1\Temp/ccUUYj36.s:1842   .data:00000009 ifc_sja1000
C:\DOCUME~1\ADMINI~1\LOCALS~1\Temp/ccUUYj36.s:1870   .data:00000028 devSJA1000
                            *COM*:00000018 dcb_sja1000

UNDEFINED SYMBOLS
memmove
__udivmodhi4
NutEventWait
NutSemWait
NutSemPost
NutEventPostAsync
NutThreadSetPriority
NutSemInit
heapFreeList
NutHeapRootAlloc
sig_INTERRUPT7
NutRegisterIrqHandler
NutThreadCreate
__do_copy_data
__do_clear_bss
