GAS LISTING C:\DOCUME~1\ADMINI~1\LOCALS~1\Temp/cc6wVisj.s 			page 1


   1               		.file	"tlc16c550.c"
   2               	__SREG__ = 0x3f
   3               	__SP_H__ = 0x3e
   4               	__SP_L__ = 0x3d
   5               	__CCP__  = 0x34
   6               	__tmp_reg__ = 0
   7               	__zero_reg__ = 1
   8               		.text
   9               		.type	AceIrqHandler, @function
  10               	AceIrqHandler:
  11 0000 EF92      		push r14
  12 0002 FF92      		push r15
  13 0004 1F93      		push r17
  14 0006 DF93      		push r29
  15 0008 CF93      		push r28
  16 000a 0F92      		push __tmp_reg__
  17 000c CDB7      		in r28,__SP_L__
  18 000e DEB7      		in r29,__SP_H__
  19               	/* prologue: function */
  20               	/* frame size = 1 */
  21 0010 BC01      		movw r22,r24
  22 0012 EE24      		clr r14
  23 0014 EA94      		dec r14
  24 0016 FE2C      		mov r15,r14
  25               	.L17:
  26 0018 DB01      		movw r26,r22
  27 001a 1F96      		adiw r26,15
  28 001c 2D91      		ld r18,X+
  29 001e 3C91      		ld r19,X
  30 0020 5097      		sbiw r26,15+1
  31 0022 5196      		adiw r26,17
  32 0024 4D91      		ld r20,X+
  33 0026 5C91      		ld r21,X
  34 0028 5297      		sbiw r26,17+1
  35 002a 00C0      		rjmp .L24
  36               	.L16:
  37 002c 8981      		ldd r24,Y+1
  38 002e 90E0      		ldi r25,lo8(0)
  39 0030 8F73      		andi r24,lo8(-193)
  40 0032 8430      		cpi r24,4
  41 0034 9105      		cpc r25,__zero_reg__
  42 0036 01F0      		breq .L5
  43 0038 8C30      		cpi r24,12
  44 003a 9105      		cpc r25,__zero_reg__
  45 003c 01F0      		breq .L5
  46 003e 0297      		sbiw r24,2
  47 0040 01F0      		breq .+2
  48 0042 00C0      		rjmp .L3
  49 0044 00C0      		rjmp .L26
  50               	.L5:
  51 0046 FA01      		movw r30,r20
  52 0048 1289      		ldd r17,Z+18
  53 004a 1123      		tst r17
  54 004c 01F4      		brne .L23
  55 004e 11E0      		ldi r17,lo8(1)
  56 0050 00C0      		rjmp .L23
  57               	.L9:
GAS LISTING C:\DOCUME~1\ADMINI~1\LOCALS~1\Temp/cc6wVisj.s 			page 2


  58 0052 F901      		movw r30,r18
  59 0054 8681      		ldd r24,Z+6
  60 0056 E80F      		add r30,r24
  61 0058 F11D      		adc r31,__zero_reg__
  62 005a 8C91      		ld r24,X
  63 005c 8487      		std Z+12,r24
  64 005e D901      		movw r26,r18
  65 0060 1696      		adiw r26,6
  66 0062 9C91      		ld r25,X
  67 0064 1697      		sbiw r26,6
  68 0066 1796      		adiw r26,7
  69 0068 8C91      		ld r24,X
  70 006a 8917      		cp r24,r25
  71 006c 01F4      		brne .L7
  72 006e DA01      		movw r26,r20
  73 0070 1C96      		adiw r26,12
  74 0072 ED91      		ld r30,X+
  75 0074 FC91      		ld r31,X
  76 0076 1D97      		sbiw r26,12+1
  77 0078 3097      		sbiw r30,0
  78 007a 01F4      		brne .L8
  79 007c 1D96      		adiw r26,12+1
  80 007e FC92      		st X,r15
  81 0080 EE92      		st -X,r14
  82 0082 1C97      		sbiw r26,12
  83 0084 00C0      		rjmp .L7
  84               	.L8:
  85 0086 BFEF      		ldi r27,hi8(-1)
  86 0088 EF3F      		cpi r30,lo8(-1)
  87 008a FB07      		cpc r31,r27
  88 008c 01F0      		breq .L7
  89 008e 8481      		ldd r24,Z+4
  90 0090 9581      		ldd r25,Z+5
  91 0092 0196      		adiw r24,1
  92 0094 9583      		std Z+5,r25
  93 0096 8483      		std Z+4,r24
  94               	.L7:
  95 0098 F901      		movw r30,r18
  96 009a 8681      		ldd r24,Z+6
  97 009c 8F5F      		subi r24,lo8(-(1))
  98 009e 8683      		std Z+6,r24
  99 00a0 1150      		subi r17,lo8(-(-1))
 100               	.L23:
 101 00a2 FB01      		movw r30,r22
 102 00a4 A485      		ldd r26,Z+12
 103 00a6 B585      		ldd r27,Z+13
 104 00a8 1596      		adiw r26,5
 105 00aa 8C91      		ld r24,X
 106 00ac 1597      		sbiw r26,5
 107 00ae 80FF      		sbrs r24,0
 108 00b0 00C0      		rjmp .L24
 109 00b2 1123      		tst r17
 110 00b4 01F4      		brne .L9
 111 00b6 00C0      		rjmp .L24
 112               	.L26:
 113 00b8 8981      		ldd r24,Y+1
 114 00ba 807C      		andi r24,lo8(-64)
GAS LISTING C:\DOCUME~1\ADMINI~1\LOCALS~1\Temp/cc6wVisj.s 			page 3


 115 00bc 01F4      		brne .L10
 116 00be 81E0      		ldi r24,lo8(1)
 117 00c0 00C0      		rjmp .L11
 118               	.L10:
 119 00c2 80E1      		ldi r24,lo8(16)
 120               	.L11:
 121 00c4 DA01      		movw r26,r20
 122 00c6 5396      		adiw r26,19
 123 00c8 8C93      		st X,r24
 124 00ca F901      		movw r30,r18
 125 00cc 9085      		ldd r25,Z+8
 126 00ce 8185      		ldd r24,Z+9
 127 00d0 9817      		cp r25,r24
 128 00d2 01F4      		brne .L22
 129 00d4 00C0      		rjmp .L27
 130               	.L14:
 131 00d6 8150      		subi r24,lo8(-(-1))
 132 00d8 DA01      		movw r26,r20
 133 00da 5396      		adiw r26,19
 134 00dc 8C93      		st X,r24
 135 00de F901      		movw r30,r18
 136 00e0 8085      		ldd r24,Z+8
 137 00e2 FB01      		movw r30,r22
 138 00e4 A485      		ldd r26,Z+12
 139 00e6 B585      		ldd r27,Z+13
 140 00e8 F901      		movw r30,r18
 141 00ea E80F      		add r30,r24
 142 00ec F11D      		adc r31,__zero_reg__
 143 00ee E45F      		subi r30,lo8(-(268))
 144 00f0 FE4F      		sbci r31,hi8(-(268))
 145 00f2 8081      		ld r24,Z
 146 00f4 8C93      		st X,r24
 147 00f6 D901      		movw r26,r18
 148 00f8 1896      		adiw r26,8
 149 00fa 8C91      		ld r24,X
 150 00fc 1897      		sbiw r26,8
 151 00fe 8F5F      		subi r24,lo8(-(1))
 152 0100 1896      		adiw r26,8
 153 0102 8C93      		st X,r24
 154               	.L22:
 155 0104 F901      		movw r30,r18
 156 0106 9085      		ldd r25,Z+8
 157 0108 8185      		ldd r24,Z+9
 158 010a 9817      		cp r25,r24
 159 010c 01F0      		breq .L24
 160 010e DA01      		movw r26,r20
 161 0110 5396      		adiw r26,19
 162 0112 8C91      		ld r24,X
 163 0114 8823      		tst r24
 164 0116 01F4      		brne .L14
 165 0118 00C0      		rjmp .L24
 166               	.L27:
 167 011a F901      		movw r30,r18
 168 011c 1286      		std Z+10,__zero_reg__
 169 011e DA01      		movw r26,r20
 170 0120 1A96      		adiw r26,10
 171 0122 ED91      		ld r30,X+
GAS LISTING C:\DOCUME~1\ADMINI~1\LOCALS~1\Temp/cc6wVisj.s 			page 4


 172 0124 FC91      		ld r31,X
 173 0126 1B97      		sbiw r26,10+1
 174 0128 3097      		sbiw r30,0
 175 012a 01F4      		brne .L15
 176 012c 1B96      		adiw r26,10+1
 177 012e FC92      		st X,r15
 178 0130 EE92      		st -X,r14
 179 0132 1A97      		sbiw r26,10
 180 0134 00C0      		rjmp .L24
 181               	.L15:
 182 0136 BFEF      		ldi r27,hi8(-1)
 183 0138 EF3F      		cpi r30,lo8(-1)
 184 013a FB07      		cpc r31,r27
 185 013c 01F0      		breq .L24
 186 013e 8481      		ldd r24,Z+4
 187 0140 9581      		ldd r25,Z+5
 188 0142 0196      		adiw r24,1
 189 0144 9583      		std Z+5,r25
 190 0146 8483      		std Z+4,r24
 191               	.L24:
 192 0148 DB01      		movw r26,r22
 193 014a 1C96      		adiw r26,12
 194 014c ED91      		ld r30,X+
 195 014e FC91      		ld r31,X
 196 0150 1D97      		sbiw r26,12+1
 197 0152 E281      		ldd r30,Z+2
 198               	.L3:
 199 0154 E983      		std Y+1,r30
 200 0156 8981      		ldd r24,Y+1
 201 0158 8F73      		andi r24,lo8(63)
 202 015a 8130      		cpi r24,lo8(1)
 203 015c 01F0      		breq .+2
 204 015e 00C0      		rjmp .L16
 205 0160 FA01      		movw r30,r20
 206 0162 6081      		ld r22,Z
 207 0164 7181      		ldd r23,Z+1
 208 0166 6115      		cp r22,__zero_reg__
 209 0168 7105      		cpc r23,__zero_reg__
 210 016a 01F0      		breq .+2
 211 016c 00C0      		rjmp .L17
 212               	/* epilogue start */
 213 016e 0F90      		pop __tmp_reg__
 214 0170 CF91      		pop r28
 215 0172 DF91      		pop r29
 216 0174 1F91      		pop r17
 217 0176 FF90      		pop r15
 218 0178 EF90      		pop r14
 219 017a 0895      		ret
 220               		.size	AceIrqHandler, .-AceIrqHandler
 221               	.global	AceOutput
 222               		.type	AceOutput, @function
 223               	AceOutput:
 224 017c DF93      		push r29
 225 017e CF93      		push r28
 226 0180 0F92      		push __tmp_reg__
 227 0182 CDB7      		in r28,__SP_L__
 228 0184 DEB7      		in r29,__SP_H__
GAS LISTING C:\DOCUME~1\ADMINI~1\LOCALS~1\Temp/cc6wVisj.s 			page 5


 229               	/* prologue: function */
 230               	/* frame size = 1 */
 231 0186 9C01      		movw r18,r24
 232 0188 FC01      		movw r30,r24
 233 018a A785      		ldd r26,Z+15
 234 018c B089      		ldd r27,Z+16
 235 018e 4189      		ldd r20,Z+17
 236 0190 5289      		ldd r21,Z+18
 237 0192 1A96      		adiw r26,10
 238 0194 8C91      		ld r24,X
 239 0196 1A97      		sbiw r26,10
 240 0198 8823      		tst r24
 241 019a 01F4      		brne .L29
 242 019c 1896      		adiw r26,8
 243 019e 9C91      		ld r25,X
 244 01a0 1897      		sbiw r26,8
 245 01a2 1996      		adiw r26,9
 246 01a4 8C91      		ld r24,X
 247 01a6 1997      		sbiw r26,9
 248 01a8 9817      		cp r25,r24
 249 01aa 01F0      		breq .L29
 250 01ac FA01      		movw r30,r20
 251 01ae 81E0      		ldi r24,lo8(1)
 252 01b0 1A96      		adiw r26,10
 253 01b2 8C93      		st X,r24
 254 01b4 1A97      		sbiw r26,10
 255 01b6 8389      		ldd r24,Z+19
 256 01b8 8150      		subi r24,lo8(-(-1))
 257 01ba 838B      		std Z+19,r24
 258 01bc 1896      		adiw r26,8
 259 01be 8C91      		ld r24,X
 260 01c0 1897      		sbiw r26,8
 261 01c2 8983      		std Y+1,r24
 262 01c4 1896      		adiw r26,8
 263 01c6 8C91      		ld r24,X
 264 01c8 1897      		sbiw r26,8
 265 01ca 8F5F      		subi r24,lo8(-(1))
 266 01cc 1896      		adiw r26,8
 267 01ce 8C93      		st X,r24
 268 01d0 1897      		sbiw r26,8
 269 01d2 8981      		ldd r24,Y+1
 270 01d4 F901      		movw r30,r18
 271 01d6 2485      		ldd r18,Z+12
 272 01d8 3585      		ldd r19,Z+13
 273 01da A80F      		add r26,r24
 274 01dc B11D      		adc r27,__zero_reg__
 275 01de A45F      		subi r26,lo8(-(268))
 276 01e0 BE4F      		sbci r27,hi8(-(268))
 277 01e2 8C91      		ld r24,X
 278 01e4 F901      		movw r30,r18
 279 01e6 8083      		st Z,r24
 280               	.L29:
 281 01e8 80E0      		ldi r24,lo8(0)
 282 01ea 90E0      		ldi r25,hi8(0)
 283               	/* epilogue start */
 284 01ec 0F90      		pop __tmp_reg__
 285 01ee CF91      		pop r28
GAS LISTING C:\DOCUME~1\ADMINI~1\LOCALS~1\Temp/cc6wVisj.s 			page 6


 286 01f0 DF91      		pop r29
 287 01f2 0895      		ret
 288               		.size	AceOutput, .-AceOutput
 289               	.global	AceSize
 290               		.type	AceSize, @function
 291               	AceSize:
 292               	/* prologue: function */
 293               	/* frame size = 0 */
 294 01f4 DC01      		movw r26,r24
 295 01f6 1296      		adiw r26,2
 296 01f8 ED91      		ld r30,X+
 297 01fa FC91      		ld r31,X
 298 01fc 1397      		sbiw r26,2+1
 299 01fe 0784      		ldd __tmp_reg__,Z+15
 300 0200 F089      		ldd r31,Z+16
 301 0202 E02D      		mov r30,__tmp_reg__
 302 0204 6681      		ldd r22,Z+6
 303 0206 2781      		ldd r18,Z+7
 304 0208 621B      		sub r22,r18
 305 020a 70E0      		ldi r23,lo8(0)
 306 020c 80E0      		ldi r24,lo8(0)
 307 020e 90E0      		ldi r25,lo8(0)
 308               	/* epilogue start */
 309 0210 0895      		ret
 310               		.size	AceSize, .-AceSize
 311               	.global	AceClose
 312               		.type	AceClose, @function
 313               	AceClose:
 314               	/* prologue: function */
 315               	/* frame size = 0 */
 316 0212 BC01      		movw r22,r24
 317 0214 80E0      		ldi r24,lo8(heapFreeList)
 318 0216 90E0      		ldi r25,hi8(heapFreeList)
 319 0218 0E94 0000 		call NutHeapRootFree
 320 021c 80E0      		ldi r24,lo8(0)
 321 021e 90E0      		ldi r25,hi8(0)
 322               	/* epilogue start */
 323 0220 0895      		ret
 324               		.size	AceClose, .-AceClose
 325               	.global	AceOpen
 326               		.type	AceOpen, @function
 327               	AceOpen:
 328 0222 EF92      		push r14
 329 0224 FF92      		push r15
 330 0226 0F93      		push r16
 331 0228 1F93      		push r17
 332 022a CF93      		push r28
 333 022c DF93      		push r29
 334               	/* prologue: function */
 335               	/* frame size = 0 */
 336 022e 8C01      		movw r16,r24
 337 0230 7A01      		movw r14,r20
 338 0232 80E0      		ldi r24,lo8(heapFreeList)
 339 0234 90E0      		ldi r25,hi8(heapFreeList)
 340 0236 66E0      		ldi r22,lo8(6)
 341 0238 70E0      		ldi r23,hi8(6)
 342 023a 0E94 0000 		call NutHeapRootAlloc
GAS LISTING C:\DOCUME~1\ADMINI~1\LOCALS~1\Temp/cc6wVisj.s 			page 7


 343 023e FC01      		movw r30,r24
 344 0240 BC01      		movw r22,r24
 345 0242 0097      		sbiw r24,0
 346 0244 01F4      		brne .L36
 347 0246 6FEF      		ldi r22,lo8(-1)
 348 0248 7FEF      		ldi r23,hi8(-1)
 349 024a 00C0      		rjmp .L37
 350               	.L36:
 351 024c E801      		movw r28,r16
 352 024e A989      		ldd r26,Y+17
 353 0250 BA89      		ldd r27,Y+18
 354 0252 1E96      		adiw r26,14
 355 0254 2D91      		ld r18,X+
 356 0256 3D91      		ld r19,X+
 357 0258 4D91      		ld r20,X+
 358 025a 5C91      		ld r21,X
 359 025c 5197      		sbiw r26,14+3
 360 025e F7FE      		sbrs r15,7
 361 0260 00C0      		rjmp .L38
 362 0262 4D7F      		andi r20,hlo8(-131073)
 363 0264 00C0      		rjmp .L41
 364               	.L38:
 365 0266 4260      		ori r20,hlo8(131072)
 366               	.L41:
 367 0268 1E96      		adiw r26,14
 368 026a 2D93      		st X+,r18
 369 026c 3D93      		st X+,r19
 370 026e 4D93      		st X+,r20
 371 0270 5C93      		st X,r21
 372 0272 5197      		sbiw r26,14+3
 373 0274 1182      		std Z+1,__zero_reg__
 374 0276 1082      		st Z,__zero_reg__
 375 0278 1383      		std Z+3,r17
 376 027a 0283      		std Z+2,r16
 377 027c 1582      		std Z+5,__zero_reg__
 378 027e 1482      		std Z+4,__zero_reg__
 379               	.L37:
 380 0280 CB01      		movw r24,r22
 381               	/* epilogue start */
 382 0282 DF91      		pop r29
 383 0284 CF91      		pop r28
 384 0286 1F91      		pop r17
 385 0288 0F91      		pop r16
 386 028a FF90      		pop r15
 387 028c EF90      		pop r14
 388 028e 0895      		ret
 389               		.size	AceOpen, .-AceOpen
 390               		.type	AceDisable, @function
 391               	AceDisable:
 392               	/* prologue: function */
 393               	/* frame size = 0 */
 394 0290 FC01      		movw r30,r24
 395               	/* #APP */
 396               	 ;  435 "../../nut/arch/avr/dev/tlc16c550.c" 1
 397 0292 0FB6      		in  __tmp_reg__, __SREG__
 398 0294 F894      		cli
 399 0296 0F92      		push __tmp_reg__
GAS LISTING C:\DOCUME~1\ADMINI~1\LOCALS~1\Temp/cc6wVisj.s 			page 8


 400               		
 401               	 ;  0 "" 2
 402               	/* #NOAPP */
 403 0298 8181      		ldd r24,Z+1
 404 029a 8E7F      		andi r24,lo8(-2)
 405 029c 8183      		std Z+1,r24
 406               	/* #APP */
 407               	 ;  437 "../../nut/arch/avr/dev/tlc16c550.c" 1
 408 029e 0F90      		pop __tmp_reg__
 409 02a0 0FBE      		out __SREG__, __tmp_reg__
 410               		
 411               	 ;  0 "" 2
 412               	/* #NOAPP */
 413 02a2 8AE0      		ldi r24,lo8(10)
 414 02a4 0E94 0000 		call NutDelay
 415               	/* epilogue start */
 416 02a8 0895      		ret
 417               		.size	AceDisable, .-AceDisable
 418               	.global	AceIOCtl
 419               		.type	AceIOCtl, @function
 420               	AceIOCtl:
 421 02aa 6F92      		push r6
 422 02ac 7F92      		push r7
 423 02ae 9F92      		push r9
 424 02b0 AF92      		push r10
 425 02b2 BF92      		push r11
 426 02b4 CF92      		push r12
 427 02b6 DF92      		push r13
 428 02b8 EF92      		push r14
 429 02ba FF92      		push r15
 430 02bc 0F93      		push r16
 431 02be 1F93      		push r17
 432 02c0 CF93      		push r28
 433 02c2 DF93      		push r29
 434               	/* prologue: function */
 435               	/* frame size = 0 */
 436 02c4 5C01      		movw r10,r24
 437 02c6 6A01      		movw r12,r20
 438 02c8 DA01      		movw r26,r20
 439 02ca ED90      		ld r14,X+
 440 02cc FD90      		ld r15,X+
 441 02ce 0D91      		ld r16,X+
 442 02d0 1C91      		ld r17,X
 443 02d2 0097      		sbiw r24,0
 444 02d4 01F4      		brne .+2
 445 02d6 00C0      		rjmp .L45
 446 02d8 9E2C      		mov r9,r14
 447 02da FC01      		movw r30,r24
 448 02dc 6484      		ldd r6,Z+12
 449 02de 7584      		ldd r7,Z+13
 450 02e0 C189      		ldd r28,Z+17
 451 02e2 D289      		ldd r29,Z+18
 452 02e4 FB01      		movw r30,r22
 453 02e6 E150      		subi r30,lo8(-(-257))
 454 02e8 F140      		sbci r31,hi8(-(-257))
 455 02ea EB32      		cpi r30,43
 456 02ec F105      		cpc r31,__zero_reg__
GAS LISTING C:\DOCUME~1\ADMINI~1\LOCALS~1\Temp/cc6wVisj.s 			page 9


 457 02ee 00F0      		brlo .+2
 458 02f0 00C0      		rjmp .L45
 459 02f2 E050      		subi r30,lo8(-(gs(.L66)))
 460 02f4 F040      		sbci r31,hi8(-(gs(.L66)))
 461 02f6 EE0F      		lsl r30
 462 02f8 FF1F      		rol r31
 463 02fa 0590      		lpm __tmp_reg__,Z+
 464 02fc F491      		lpm r31,Z
 465 02fe E02D      		mov r30,__tmp_reg__
 466 0300 0994      		ijmp
 467               		.data
 468               		.section .progmem.gcc_sw_table, "a", @progbits
 469               		.p2align 1
 470               	.L66:
 471               		.data
 472               		.section .progmem.gcc_sw_table, "a", @progbits
 473               		.p2align 1
 474 0000 0000      		.word gs(.L46)
 475 0002 0000      		.word gs(.L47)
 476 0004 0000      		.word gs(.L48)
 477 0006 0000      		.word gs(.L49)
 478 0008 0000      		.word gs(.L50)
 479 000a 0000      		.word gs(.L51)
 480 000c 0000      		.word gs(.L52)
 481 000e 0000      		.word gs(.L53)
 482 0010 0000      		.word gs(.L45)
 483 0012 0000      		.word gs(.L54)
 484 0014 0000      		.word gs(.L55)
 485 0016 0000      		.word gs(.L56)
 486 0018 0000      		.word gs(.L57)
 487 001a 0000      		.word gs(.L58)
 488 001c 0000      		.word gs(.L59)
 489 001e 0000      		.word gs(.L60)
 490 0020 0000      		.word gs(.L61)
 491 0022 0000      		.word gs(.L61)
 492 0024 0000      		.word gs(.L62)
 493 0026 0000      		.word gs(.L63)
 494 0028 0000      		.word gs(.L45)
 495 002a 0000      		.word gs(.L45)
 496 002c 0000      		.word gs(.L45)
 497 002e 0000      		.word gs(.L45)
 498 0030 0000      		.word gs(.L45)
 499 0032 0000      		.word gs(.L45)
 500 0034 0000      		.word gs(.L45)
 501 0036 0000      		.word gs(.L45)
 502 0038 0000      		.word gs(.L45)
 503 003a 0000      		.word gs(.L45)
 504 003c 0000      		.word gs(.L45)
 505 003e 0000      		.word gs(.L45)
 506 0040 0000      		.word gs(.L45)
 507 0042 0000      		.word gs(.L45)
 508 0044 0000      		.word gs(.L45)
 509 0046 0000      		.word gs(.L45)
 510 0048 0000      		.word gs(.L45)
 511 004a 0000      		.word gs(.L45)
 512 004c 0000      		.word gs(.L45)
 513 004e 0000      		.word gs(.L45)
GAS LISTING C:\DOCUME~1\ADMINI~1\LOCALS~1\Temp/cc6wVisj.s 			page 10


 514 0050 0000      		.word gs(.L45)
 515 0052 0000      		.word gs(.L64)
 516 0054 0000      		.word gs(.L65)
 517               		.text
 518               	.L46:
 519 0302 C301      		movw r24,r6
 520 0304 0E94 0000 		call AceDisable
 521 0308 74E0      		ldi r23,4
 522 030a EE0C      	1:	lsl r14
 523 030c FF1C      		rol r15
 524 030e 001F      		rol r16
 525 0310 111F      		rol r17
 526 0312 7A95      		dec r23
 527 0314 01F4      		brne 1b
 528 0316 60E0      		ldi r22,lo8(14745600)
 529 0318 70E0      		ldi r23,hi8(14745600)
 530 031a 81EE      		ldi r24,hlo8(14745600)
 531 031c 90E0      		ldi r25,hhi8(14745600)
 532 031e A801      		movw r20,r16
 533 0320 9701      		movw r18,r14
 534 0322 0E94 0000 		call __udivmodsi4
 535 0326 D501      		movw r26,r10
 536 0328 1C96      		adiw r26,12
 537 032a ED91      		ld r30,X+
 538 032c FC91      		ld r31,X
 539 032e 1D97      		sbiw r26,12+1
 540 0330 8381      		ldd r24,Z+3
 541 0332 8068      		ori r24,lo8(-128)
 542 0334 8383      		std Z+3,r24
 543 0336 1C96      		adiw r26,12
 544 0338 ED91      		ld r30,X+
 545 033a FC91      		ld r31,X
 546 033c 1D97      		sbiw r26,12+1
 547 033e 2083      		st Z,r18
 548 0340 1C96      		adiw r26,12
 549 0342 ED91      		ld r30,X+
 550 0344 FC91      		ld r31,X
 551 0346 1D97      		sbiw r26,12+1
 552 0348 3183      		std Z+1,r19
 553 034a 1C96      		adiw r26,12
 554 034c ED91      		ld r30,X+
 555 034e FC91      		ld r31,X
 556 0350 1D97      		sbiw r26,12+1
 557 0352 8381      		ldd r24,Z+3
 558 0354 8F77      		andi r24,lo8(127)
 559 0356 00C0      		rjmp .L103
 560               	.L47:
 561 0358 D301      		movw r26,r6
 562 035a 1396      		adiw r26,3
 563 035c 8C91      		ld r24,X
 564 035e 1397      		sbiw r26,3
 565 0360 8068      		ori r24,lo8(-128)
 566 0362 1396      		adiw r26,3
 567 0364 8C93      		st X,r24
 568 0366 D501      		movw r26,r10
 569 0368 1C96      		adiw r26,12
 570 036a ED91      		ld r30,X+
GAS LISTING C:\DOCUME~1\ADMINI~1\LOCALS~1\Temp/cc6wVisj.s 			page 11


 571 036c FC91      		ld r31,X
 572 036e 1D97      		sbiw r26,12+1
 573 0370 8081      		ld r24,Z
 574 0372 90E0      		ldi r25,lo8(0)
 575 0374 3181      		ldd r19,Z+1
 576 0376 20E0      		ldi r18,lo8(0)
 577 0378 282B      		or r18,r24
 578 037a 392B      		or r19,r25
 579 037c 8381      		ldd r24,Z+3
 580 037e 8F77      		andi r24,lo8(127)
 581 0380 8383      		std Z+3,r24
 582 0382 40E0      		ldi r20,lo8(0)
 583 0384 50E0      		ldi r21,hi8(0)
 584 0386 64E0      		ldi r22,4
 585 0388 220F      	1:	lsl r18
 586 038a 331F      		rol r19
 587 038c 441F      		rol r20
 588 038e 551F      		rol r21
 589 0390 6A95      		dec r22
 590 0392 01F4      		brne 1b
 591 0394 60E0      		ldi r22,lo8(14745600)
 592 0396 70E0      		ldi r23,hi8(14745600)
 593 0398 81EE      		ldi r24,hlo8(14745600)
 594 039a 90E0      		ldi r25,hhi8(14745600)
 595 039c 0E94 0000 		call __udivmodsi4
 596 03a0 F601      		movw r30,r12
 597 03a2 2083      		st Z,r18
 598 03a4 3183      		std Z+1,r19
 599 03a6 4283      		std Z+2,r20
 600 03a8 5383      		std Z+3,r21
 601 03aa 00C0      		rjmp .L61
 602               	.L48:
 603 03ac C301      		movw r24,r6
 604 03ae 0E94 0000 		call AceDisable
 605 03b2 9E2D      		mov r25,r14
 606 03b4 9550      		subi r25,lo8(-(-5))
 607 03b6 9430      		cpi r25,lo8(4)
 608 03b8 00F0      		brlo .+2
 609 03ba 00C0      		rjmp .L100
 610 03bc D501      		movw r26,r10
 611 03be 1C96      		adiw r26,12
 612 03c0 ED91      		ld r30,X+
 613 03c2 FC91      		ld r31,X
 614 03c4 1D97      		sbiw r26,12+1
 615 03c6 8381      		ldd r24,Z+3
 616 03c8 9370      		andi r25,lo8(3)
 617 03ca 8C7F      		andi r24,lo8(-4)
 618 03cc 00C0      		rjmp .L104
 619               	.L49:
 620 03ce D301      		movw r26,r6
 621 03d0 1396      		adiw r26,3
 622 03d2 8C91      		ld r24,X
 623 03d4 90E0      		ldi r25,lo8(0)
 624 03d6 A0E0      		ldi r26,lo8(0)
 625 03d8 B0E0      		ldi r27,hi8(0)
 626 03da 8370      		andi r24,lo8(3)
 627 03dc 9070      		andi r25,hi8(3)
GAS LISTING C:\DOCUME~1\ADMINI~1\LOCALS~1\Temp/cc6wVisj.s 			page 12


 628 03de A070      		andi r26,hlo8(3)
 629 03e0 B070      		andi r27,hhi8(3)
 630 03e2 00C0      		rjmp .L99
 631               	.L50:
 632 03e4 C301      		movw r24,r6
 633 03e6 0E94 0000 		call AceDisable
 634 03ea F4E0      		ldi r31,lo8(4)
 635 03ec FE15      		cp r31,r14
 636 03ee 00F4      		brsh .+2
 637 03f0 00C0      		rjmp .L100
 638 03f2 82E0      		ldi r24,lo8(2)
 639 03f4 E816      		cp r14,r24
 640 03f6 01F0      		breq .L72
 641 03f8 A3E0      		ldi r26,lo8(3)
 642 03fa EA16      		cp r14,r26
 643 03fc 01F0      		breq .L71
 644 03fe B1E0      		ldi r27,lo8(1)
 645 0400 EB16      		cp r14,r27
 646 0402 01F4      		brne .L97
 647 0404 00C0      		rjmp .L71
 648               	.L72:
 649 0406 98E1      		ldi r25,lo8(24)
 650 0408 00C0      		rjmp .L73
 651               	.L71:
 652 040a 98E0      		ldi r25,lo8(8)
 653 040c 00C0      		rjmp .L73
 654               	.L97:
 655 040e 90E0      		ldi r25,lo8(0)
 656               	.L73:
 657 0410 D501      		movw r26,r10
 658 0412 1C96      		adiw r26,12
 659 0414 ED91      		ld r30,X+
 660 0416 FC91      		ld r31,X
 661 0418 1D97      		sbiw r26,12+1
 662 041a 8381      		ldd r24,Z+3
 663 041c 877C      		andi r24,lo8(-57)
 664               	.L104:
 665 041e 982B      		or r25,r24
 666 0420 9383      		std Z+3,r25
 667 0422 00C0      		rjmp .L100
 668               	.L51:
 669 0424 D301      		movw r26,r6
 670 0426 1396      		adiw r26,3
 671 0428 8C91      		ld r24,X
 672 042a 8873      		andi r24,lo8(56)
 673 042c 8830      		cpi r24,lo8(8)
 674 042e 01F0      		breq .L105
 675 0430 8930      		cpi r24,lo8(9)
 676 0432 00F4      		brsh .L78
 677 0434 8823      		tst r24
 678 0436 01F0      		breq .L74
 679 0438 00C0      		rjmp .L61
 680               	.L78:
 681 043a 8831      		cpi r24,lo8(24)
 682 043c 01F0      		breq .L82
 683 043e 8832      		cpi r24,lo8(40)
 684 0440 01F0      		breq .+2
GAS LISTING C:\DOCUME~1\ADMINI~1\LOCALS~1\Temp/cc6wVisj.s 			page 13


 685 0442 00C0      		rjmp .L61
 686 0444 00C0      		rjmp .L106
 687               	.L74:
 688 0446 FA01      		movw r30,r20
 689 0448 1082      		st Z,__zero_reg__
 690 044a 1182      		std Z+1,__zero_reg__
 691 044c 1282      		std Z+2,__zero_reg__
 692 044e 1382      		std Z+3,__zero_reg__
 693 0450 00C0      		rjmp .L61
 694               	.L106:
 695 0452 84E0      		ldi r24,lo8(4)
 696 0454 90E0      		ldi r25,hi8(4)
 697 0456 A0E0      		ldi r26,hlo8(4)
 698 0458 B0E0      		ldi r27,hhi8(4)
 699 045a 00C0      		rjmp .L99
 700               	.L52:
 701 045c C301      		movw r24,r6
 702 045e 0E94 0000 		call AceDisable
 703 0462 8E2D      		mov r24,r14
 704 0464 8150      		subi r24,lo8(-(-1))
 705 0466 8230      		cpi r24,lo8(2)
 706 0468 00F0      		brlo .+2
 707 046a 00C0      		rjmp .L100
 708 046c D501      		movw r26,r10
 709 046e 1C96      		adiw r26,12
 710 0470 ED91      		ld r30,X+
 711 0472 FC91      		ld r31,X
 712 0474 1D97      		sbiw r26,12+1
 713 0476 9381      		ldd r25,Z+3
 714 0478 B2E0      		ldi r27,lo8(2)
 715 047a EB16      		cp r14,r27
 716 047c 01F0      		breq .L80
 717 047e 80E0      		ldi r24,lo8(0)
 718 0480 00C0      		rjmp .L81
 719               	.L80:
 720 0482 84E0      		ldi r24,lo8(4)
 721               	.L81:
 722 0484 9B7F      		andi r25,lo8(-5)
 723 0486 892B      		or r24,r25
 724               	.L103:
 725 0488 8383      		std Z+3,r24
 726 048a 00C0      		rjmp .L100
 727               	.L53:
 728 048c D301      		movw r26,r6
 729 048e 1396      		adiw r26,3
 730 0490 8C91      		ld r24,X
 731 0492 82FD      		sbrc r24,2
 732 0494 00C0      		rjmp .L82
 733               	.L105:
 734 0496 81E0      		ldi r24,lo8(1)
 735 0498 90E0      		ldi r25,hi8(1)
 736 049a A0E0      		ldi r26,hlo8(1)
 737 049c B0E0      		ldi r27,hhi8(1)
 738 049e 00C0      		rjmp .L99
 739               	.L82:
 740 04a0 82E0      		ldi r24,lo8(2)
 741 04a2 90E0      		ldi r25,hi8(2)
GAS LISTING C:\DOCUME~1\ADMINI~1\LOCALS~1\Temp/cc6wVisj.s 			page 14


 742 04a4 A0E0      		ldi r26,hlo8(2)
 743 04a6 B0E0      		ldi r27,hhi8(2)
 744 04a8 00C0      		rjmp .L99
 745               	.L64:
 746 04aa C301      		movw r24,r6
 747 04ac 0E94 0000 		call AceDisable
 748 04b0 80E1      		ldi r24,lo8(16)
 749 04b2 8B8B      		std Y+19,r24
 750 04b4 F4E0      		ldi r31,lo8(4)
 751 04b6 EF16      		cp r14,r31
 752 04b8 01F0      		breq .L86
 753 04ba FE15      		cp r31,r14
 754 04bc 00F0      		brlo .L89
 755 04be 81E0      		ldi r24,lo8(1)
 756 04c0 E816      		cp r14,r24
 757 04c2 01F4      		brne .L84
 758 04c4 00C0      		rjmp .L107
 759               	.L89:
 760 04c6 A8E0      		ldi r26,lo8(8)
 761 04c8 EA16      		cp r14,r26
 762 04ca 01F0      		breq .L87
 763 04cc BEE0      		ldi r27,lo8(14)
 764 04ce EB16      		cp r14,r27
 765 04d0 01F4      		brne .L84
 766 04d2 00C0      		rjmp .L108
 767               	.L86:
 768 04d4 87E4      		ldi r24,lo8(71)
 769 04d6 00C0      		rjmp .L90
 770               	.L107:
 771 04d8 87E0      		ldi r24,lo8(7)
 772 04da 00C0      		rjmp .L90
 773               	.L87:
 774 04dc 87E8      		ldi r24,lo8(-121)
 775 04de 00C0      		rjmp .L90
 776               	.L108:
 777 04e0 87EC      		ldi r24,lo8(-57)
 778 04e2 00C0      		rjmp .L90
 779               	.L84:
 780 04e4 81E0      		ldi r24,lo8(1)
 781 04e6 8B8B      		std Y+19,r24
 782 04e8 9924      		clr r9
 783 04ea 80E0      		ldi r24,lo8(0)
 784               	.L90:
 785 04ec D501      		movw r26,r10
 786 04ee 1C96      		adiw r26,12
 787 04f0 ED91      		ld r30,X+
 788 04f2 FC91      		ld r31,X
 789 04f4 1D97      		sbiw r26,12+1
 790 04f6 8283      		std Z+2,r24
 791 04f8 1C96      		adiw r26,12
 792 04fa ED91      		ld r30,X+
 793 04fc FC91      		ld r31,X
 794 04fe 1D97      		sbiw r26,12+1
 795 0500 8283      		std Z+2,r24
 796 0502 9A8A      		std Y+18,r9
 797 0504 1F96      		adiw r26,15
 798 0506 ED91      		ld r30,X+
GAS LISTING C:\DOCUME~1\ADMINI~1\LOCALS~1\Temp/cc6wVisj.s 			page 15


 799 0508 FC91      		ld r31,X
 800 050a 5097      		sbiw r26,15+1
 801 050c 1286      		std Z+10,__zero_reg__
 802 050e 8185      		ldd r24,Z+9
 803 0510 8087      		std Z+8,r24
 804 0512 CE01      		movw r24,r28
 805 0514 0A96      		adiw r24,10
 806 0516 0E94 0000 		call NutEventPostAsync
 807               	.L100:
 808               	/* #APP */
 809               	 ;  420 "../../nut/arch/avr/dev/tlc16c550.c" 1
 810 051a 0FB6      		in  __tmp_reg__, __SREG__
 811 051c F894      		cli
 812 051e 0F92      		push __tmp_reg__
 813               		
 814               	 ;  0 "" 2
 815               	/* #NOAPP */
 816 0520 83E0      		ldi r24,lo8(3)
 817 0522 F301      		movw r30,r6
 818 0524 8183      		std Z+1,r24
 819               	/* #APP */
 820               	 ;  422 "../../nut/arch/avr/dev/tlc16c550.c" 1
 821 0526 0F90      		pop __tmp_reg__
 822 0528 0FBE      		out __SREG__, __tmp_reg__
 823               		
 824               	 ;  0 "" 2
 825               	/* #NOAPP */
 826 052a 00C0      		rjmp .L61
 827               	.L65:
 828 052c 8A89      		ldd r24,Y+18
 829 052e 90E0      		ldi r25,lo8(0)
 830 0530 A0E0      		ldi r26,lo8(0)
 831 0532 B0E0      		ldi r27,hi8(0)
 832 0534 00C0      		rjmp .L99
 833               	.L54:
 834 0536 DC01      		movw r26,r24
 835 0538 1F96      		adiw r26,15
 836 053a CD91      		ld r28,X+
 837 053c DC91      		ld r29,X
 838 053e 5097      		sbiw r26,15+1
 839 0540 FA01      		movw r30,r20
 840 0542 1082      		st Z,__zero_reg__
 841 0544 1182      		std Z+1,__zero_reg__
 842 0546 1282      		std Z+2,__zero_reg__
 843 0548 1382      		std Z+3,__zero_reg__
 844 054a 1C96      		adiw r26,12
 845 054c ED91      		ld r30,X+
 846 054e FC91      		ld r31,X
 847 0550 1D97      		sbiw r26,12+1
 848 0552 8581      		ldd r24,Z+5
 849 0554 282F      		mov r18,r24
 850 0556 83FF      		sbrs r24,3
 851 0558 00C0      		rjmp .L91
 852 055a 81E0      		ldi r24,lo8(1)
 853 055c 90E0      		ldi r25,hi8(1)
 854 055e A0E0      		ldi r26,hlo8(1)
 855 0560 B0E0      		ldi r27,hhi8(1)
GAS LISTING C:\DOCUME~1\ADMINI~1\LOCALS~1\Temp/cc6wVisj.s 			page 16


 856 0562 FA01      		movw r30,r20
 857 0564 8083      		st Z,r24
 858 0566 9183      		std Z+1,r25
 859 0568 A283      		std Z+2,r26
 860 056a B383      		std Z+3,r27
 861               	.L91:
 862 056c 21FF      		sbrs r18,1
 863 056e 00C0      		rjmp .L92
 864 0570 F601      		movw r30,r12
 865 0572 8081      		ld r24,Z
 866 0574 9181      		ldd r25,Z+1
 867 0576 A281      		ldd r26,Z+2
 868 0578 B381      		ldd r27,Z+3
 869 057a 8260      		ori r24,lo8(2)
 870 057c 8083      		st Z,r24
 871 057e 9183      		std Z+1,r25
 872 0580 A283      		std Z+2,r26
 873 0582 B383      		std Z+3,r27
 874               	.L92:
 875 0584 9885      		ldd r25,Y+8
 876 0586 8985      		ldd r24,Y+9
 877 0588 9817      		cp r25,r24
 878 058a 01F4      		brne .L93
 879 058c F601      		movw r30,r12
 880 058e 8081      		ld r24,Z
 881 0590 9181      		ldd r25,Z+1
 882 0592 A281      		ldd r26,Z+2
 883 0594 B381      		ldd r27,Z+3
 884 0596 8068      		ori r24,lo8(128)
 885 0598 8083      		st Z,r24
 886 059a 9183      		std Z+1,r25
 887 059c A283      		std Z+2,r26
 888 059e B383      		std Z+3,r27
 889               	.L93:
 890 05a0 9E81      		ldd r25,Y+6
 891 05a2 8F81      		ldd r24,Y+7
 892 05a4 8917      		cp r24,r25
 893 05a6 01F0      		breq .+2
 894 05a8 00C0      		rjmp .L61
 895 05aa F601      		movw r30,r12
 896 05ac 8081      		ld r24,Z
 897 05ae 9181      		ldd r25,Z+1
 898 05b0 A281      		ldd r26,Z+2
 899 05b2 B381      		ldd r27,Z+3
 900 05b4 8064      		ori r24,lo8(64)
 901 05b6 00C0      		rjmp .L102
 902               	.L55:
 903 05b8 EA82      		std Y+2,r14
 904 05ba FB82      		std Y+3,r15
 905 05bc 0C83      		std Y+4,r16
 906 05be 1D83      		std Y+5,r17
 907 05c0 00C0      		rjmp .L61
 908               	.L56:
 909 05c2 8A81      		ldd r24,Y+2
 910 05c4 9B81      		ldd r25,Y+3
 911 05c6 AC81      		ldd r26,Y+4
 912 05c8 BD81      		ldd r27,Y+5
GAS LISTING C:\DOCUME~1\ADMINI~1\LOCALS~1\Temp/cc6wVisj.s 			page 17


 913 05ca 00C0      		rjmp .L99
 914               	.L57:
 915 05cc EE82      		std Y+6,r14
 916 05ce FF82      		std Y+7,r15
 917 05d0 0887      		std Y+8,r16
 918 05d2 1987      		std Y+9,r17
 919 05d4 00C0      		rjmp .L61
 920               	.L58:
 921 05d6 8E81      		ldd r24,Y+6
 922 05d8 9F81      		ldd r25,Y+7
 923 05da A885      		ldd r26,Y+8
 924 05dc B985      		ldd r27,Y+9
 925 05de 00C0      		rjmp .L99
 926               	.L59:
 927 05e0 8E85      		ldd r24,Y+14
 928 05e2 9F85      		ldd r25,Y+15
 929 05e4 A889      		ldd r26,Y+16
 930 05e6 B989      		ldd r27,Y+17
 931 05e8 EE20      		tst r14
 932 05ea 01F0      		breq .L94
 933 05ec A160      		ori r26,hlo8(65536)
 934 05ee 00C0      		rjmp .L101
 935               	.L94:
 936 05f0 AE7F      		andi r26,hlo8(-65537)
 937 05f2 00C0      		rjmp .L101
 938               	.L60:
 939 05f4 8E85      		ldd r24,Y+14
 940 05f6 9F85      		ldd r25,Y+15
 941 05f8 A889      		ldd r26,Y+16
 942 05fa B989      		ldd r27,Y+17
 943 05fc CD01      		movw r24,r26
 944 05fe AA27      		clr r26
 945 0600 BB27      		clr r27
 946 0602 00C0      		rjmp .L98
 947               	.L62:
 948 0604 8E85      		ldd r24,Y+14
 949 0606 9F85      		ldd r25,Y+15
 950 0608 A889      		ldd r26,Y+16
 951 060a B989      		ldd r27,Y+17
 952 060c EE20      		tst r14
 953 060e 01F0      		breq .L95
 954 0610 A260      		ori r26,hlo8(131072)
 955 0612 00C0      		rjmp .L101
 956               	.L95:
 957 0614 AD7F      		andi r26,hlo8(-131073)
 958               	.L101:
 959 0616 8E87      		std Y+14,r24
 960 0618 9F87      		std Y+15,r25
 961 061a A88B      		std Y+16,r26
 962 061c B98B      		std Y+17,r27
 963 061e 00C0      		rjmp .L61
 964               	.L63:
 965 0620 8E85      		ldd r24,Y+14
 966 0622 9F85      		ldd r25,Y+15
 967 0624 A889      		ldd r26,Y+16
 968 0626 B989      		ldd r27,Y+17
 969 0628 21E1      		ldi r18,17
GAS LISTING C:\DOCUME~1\ADMINI~1\LOCALS~1\Temp/cc6wVisj.s 			page 18


 970 062a B695      	1:	lsr r27
 971 062c A795      		ror r26
 972 062e 9795      		ror r25
 973 0630 8795      		ror r24
 974 0632 2A95      		dec r18
 975 0634 01F4      		brne 1b
 976               	.L98:
 977 0636 8170      		andi r24,lo8(1)
 978 0638 9070      		andi r25,hi8(1)
 979 063a A070      		andi r26,hlo8(1)
 980 063c B070      		andi r27,hhi8(1)
 981               	.L99:
 982 063e F601      		movw r30,r12
 983               	.L102:
 984 0640 8083      		st Z,r24
 985 0642 9183      		std Z+1,r25
 986 0644 A283      		std Z+2,r26
 987 0646 B383      		std Z+3,r27
 988 0648 00C0      		rjmp .L61
 989               	.L45:
 990 064a 2FEF      		ldi r18,lo8(-1)
 991 064c 3FEF      		ldi r19,hi8(-1)
 992 064e 00C0      		rjmp .L67
 993               	.L61:
 994 0650 20E0      		ldi r18,lo8(0)
 995 0652 30E0      		ldi r19,hi8(0)
 996               	.L67:
 997 0654 C901      		movw r24,r18
 998               	/* epilogue start */
 999 0656 DF91      		pop r29
 1000 0658 CF91      		pop r28
 1001 065a 1F91      		pop r17
 1002 065c 0F91      		pop r16
 1003 065e FF90      		pop r15
 1004 0660 EF90      		pop r14
 1005 0662 DF90      		pop r13
 1006 0664 CF90      		pop r12
 1007 0666 BF90      		pop r11
 1008 0668 AF90      		pop r10
 1009 066a 9F90      		pop r9
 1010 066c 7F90      		pop r7
 1011 066e 6F90      		pop r6
 1012 0670 0895      		ret
 1013               		.size	AceIOCtl, .-AceIOCtl
 1014               	.global	AceInit
 1015               		.type	AceInit, @function
 1016               	AceInit:
 1017 0672 0F93      		push r16
 1018 0674 1F93      		push r17
 1019 0676 DF93      		push r29
 1020 0678 CF93      		push r28
 1021 067a CDB7      		in r28,__SP_L__
 1022 067c DEB7      		in r29,__SP_H__
 1023 067e 6097      		sbiw r28,16
 1024 0680 0FB6      		in __tmp_reg__,__SREG__
 1025 0682 F894      		cli
 1026 0684 DEBF      		out __SP_H__,r29
GAS LISTING C:\DOCUME~1\ADMINI~1\LOCALS~1\Temp/cc6wVisj.s 			page 19


 1027 0686 0FBE      		out __SREG__,__tmp_reg__
 1028 0688 CDBF      		out __SP_L__,r28
 1029               	/* prologue: function */
 1030               	/* frame size = 16 */
 1031 068a 8C01      		movw r16,r24
 1032 068c DC01      		movw r26,r24
 1033 068e 1B96      		adiw r26,11
 1034 0690 8C91      		ld r24,X
 1035 0692 1B97      		sbiw r26,11
 1036 0694 8230      		cpi r24,lo8(2)
 1037 0696 01F0      		breq .+2
 1038 0698 00C0      		rjmp .L110
 1039 069a 1F96      		adiw r26,15
 1040 069c ED91      		ld r30,X+
 1041 069e FC91      		ld r31,X
 1042 06a0 5097      		sbiw r26,15+1
 1043 06a2 81E0      		ldi r24,lo8(1)
 1044 06a4 90E0      		ldi r25,hi8(1)
 1045 06a6 A0E0      		ldi r26,hlo8(1)
 1046 06a8 B0E0      		ldi r27,hhi8(1)
 1047 06aa 8D87      		std Y+13,r24
 1048 06ac 9E87      		std Y+14,r25
 1049 06ae AF87      		std Y+15,r26
 1050 06b0 B88B      		std Y+16,r27
 1051 06b2 1986      		std Y+9,__zero_reg__
 1052 06b4 1A86      		std Y+10,__zero_reg__
 1053 06b6 1B86      		std Y+11,__zero_reg__
 1054 06b8 1C86      		std Y+12,__zero_reg__
 1055 06ba 88E0      		ldi r24,lo8(8)
 1056 06bc 90E0      		ldi r25,hi8(8)
 1057 06be A0E0      		ldi r26,hlo8(8)
 1058 06c0 B0E0      		ldi r27,hhi8(8)
 1059 06c2 8D83      		std Y+5,r24
 1060 06c4 9E83      		std Y+6,r25
 1061 06c6 AF83      		std Y+7,r26
 1062 06c8 B887      		std Y+8,r27
 1063 06ca 80E8      		ldi r24,lo8(9600)
 1064 06cc 95E2      		ldi r25,hi8(9600)
 1065 06ce A0E0      		ldi r26,hlo8(9600)
 1066 06d0 B0E0      		ldi r27,hhi8(9600)
 1067 06d2 8983      		std Y+1,r24
 1068 06d4 9A83      		std Y+2,r25
 1069 06d6 AB83      		std Y+3,r26
 1070 06d8 BC83      		std Y+4,r27
 1071 06da 8CE0      		ldi r24,lo8(524)
 1072 06dc 92E0      		ldi r25,hi8(524)
 1073 06de DF01      		movw r26,r30
 1074 06e0 9C01      		movw r18,r24
 1075 06e2 1D92      		st X+,__zero_reg__
 1076 06e4 2150      		subi r18,1
 1077 06e6 3040      		sbci r19,0
 1078 06e8 01F4      		brne .-8
 1079 06ea 80E0      		ldi r24,lo8(gs(AceInput))
 1080 06ec 90E0      		ldi r25,hi8(gs(AceInput))
 1081 06ee 9183      		std Z+1,r25
 1082 06f0 8083      		st Z,r24
 1083 06f2 80E0      		ldi r24,lo8(gs(AceOutput))
GAS LISTING C:\DOCUME~1\ADMINI~1\LOCALS~1\Temp/cc6wVisj.s 			page 20


 1084 06f4 90E0      		ldi r25,hi8(gs(AceOutput))
 1085 06f6 9383      		std Z+3,r25
 1086 06f8 8283      		std Z+2,r24
 1087 06fa 80E0      		ldi r24,lo8(gs(AceFlush))
 1088 06fc 90E0      		ldi r25,hi8(gs(AceFlush))
 1089 06fe 9583      		std Z+5,r25
 1090 0700 8483      		std Z+4,r24
 1091 0702 D801      		movw r26,r16
 1092 0704 5196      		adiw r26,17
 1093 0706 2D91      		ld r18,X+
 1094 0708 3C91      		ld r19,X
 1095 070a 5297      		sbiw r26,17+1
 1096 070c 84E1      		ldi r24,lo8(20)
 1097 070e F901      		movw r30,r18
 1098 0710 1192      		st Z+,__zero_reg__
 1099 0712 8A95      	        dec r24
 1100 0714 01F4      		brne .-6
 1101 0716 80E0      		ldi r24,lo8(1048576)
 1102 0718 90E0      		ldi r25,hi8(1048576)
 1103 071a A0E1      		ldi r26,hlo8(1048576)
 1104 071c B0E0      		ldi r27,hhi8(1048576)
 1105 071e F901      		movw r30,r18
 1106 0720 8687      		std Z+14,r24
 1107 0722 9787      		std Z+15,r25
 1108 0724 A08B      		std Z+16,r26
 1109 0726 B18B      		std Z+17,r27
 1110 0728 128A      		std Z+18,__zero_reg__
 1111 072a 81E0      		ldi r24,lo8(1)
 1112 072c 838B      		std Z+19,r24
 1113 072e 1182      		std Z+1,__zero_reg__
 1114 0730 1082      		st Z,__zero_reg__
 1115 0732 D801      		movw r26,r16
 1116 0734 1C96      		adiw r26,12
 1117 0736 8D91      		ld r24,X+
 1118 0738 9C91      		ld r25,X
 1119 073a 1D97      		sbiw r26,12+1
 1120 073c 892B      		or r24,r25
 1121 073e 01F4      		brne .+2
 1122 0740 00C0      		rjmp .L111
 1123 0742 1E96      		adiw r26,14
 1124 0744 8C91      		ld r24,X
 1125 0746 90E0      		ldi r25,lo8(0)
 1126 0748 FC01      		movw r30,r24
 1127 074a EE0F      		lsl r30
 1128 074c FF1F      		rol r31
 1129 074e E050      		subi r30,lo8(-(pIrqDev))
 1130 0750 F040      		sbci r31,hi8(-(pIrqDev))
 1131 0752 0190      		ld __tmp_reg__,Z+
 1132 0754 F081      		ld r31,Z
 1133 0756 E02D      		mov r30,__tmp_reg__
 1134 0758 3097      		sbiw r30,0
 1135 075a 01F0      		breq .L112
 1136 075c 0188      		ldd __tmp_reg__,Z+17
 1137 075e F289      		ldd r31,Z+18
 1138 0760 E02D      		mov r30,__tmp_reg__
 1139 0762 8081      		ld r24,Z
 1140 0764 9181      		ldd r25,Z+1
GAS LISTING C:\DOCUME~1\ADMINI~1\LOCALS~1\Temp/cc6wVisj.s 			page 21


 1141 0766 D901      		movw r26,r18
 1142 0768 8D93      		st X+,r24
 1143 076a 9C93      		st X,r25
 1144 076c 1183      		std Z+1,r17
 1145 076e 0083      		st Z,r16
 1146 0770 00C0      		rjmp .L111
 1147               	.L112:
 1148 0772 FC01      		movw r30,r24
 1149 0774 EE0F      		lsl r30
 1150 0776 FF1F      		rol r31
 1151 0778 EE0F      		lsl r30
 1152 077a FF1F      		rol r31
 1153 077c E80F      		add r30,r24
 1154 077e F91F      		adc r31,r25
 1155 0780 E050      		subi r30,lo8(-(atIrqDefs))
 1156 0782 F040      		sbci r31,hi8(-(atIrqDefs))
 1157               	/* #APP */
 1158               	 ;  806 "../../nut/arch/avr/dev/tlc16c550.c" 1
 1159 0784 8591      		lpm r24, Z+
 1160 0786 9491      		lpm r25, Z
 1161               		
 1162               	 ;  0 "" 2
 1163               	/* #NOAPP */
 1164 0788 60E0      		ldi r22,lo8(gs(AceIrqHandler))
 1165 078a 70E0      		ldi r23,hi8(gs(AceIrqHandler))
 1166 078c A801      		movw r20,r16
 1167 078e 0E94 0000 		call NutRegisterIrqHandler
 1168 0792 892B      		or r24,r25
 1169 0794 01F0      		breq .+2
 1170 0796 00C0      		rjmp .L110
 1171 0798 F801      		movw r30,r16
 1172 079a 8685      		ldd r24,Z+14
 1173 079c 90E0      		ldi r25,lo8(0)
 1174 079e 9C01      		movw r18,r24
 1175 07a0 220F      		lsl r18
 1176 07a2 331F      		rol r19
 1177 07a4 220F      		lsl r18
 1178 07a6 331F      		rol r19
 1179 07a8 280F      		add r18,r24
 1180 07aa 391F      		adc r19,r25
 1181 07ac C901      		movw r24,r18
 1182 07ae 8050      		subi r24,lo8(-(atIrqDefs+2))
 1183 07b0 9040      		sbci r25,hi8(-(atIrqDefs+2))
 1184 07b2 FC01      		movw r30,r24
 1185               	/* #APP */
 1186               	 ;  812 "../../nut/arch/avr/dev/tlc16c550.c" 1
 1187 07b4 A591      		lpm r26, Z+
 1188 07b6 B491      		lpm r27, Z
 1189               		
 1190               	 ;  0 "" 2
 1191               	/* #NOAPP */
 1192 07b8 2050      		subi r18,lo8(-(atIrqDefs+4))
 1193 07ba 3040      		sbci r19,hi8(-(atIrqDefs+4))
 1194 07bc F901      		movw r30,r18
 1195               	/* #APP */
 1196               	 ;  813 "../../nut/arch/avr/dev/tlc16c550.c" 1
 1197 07be 9491      		lpm r25, Z
GAS LISTING C:\DOCUME~1\ADMINI~1\LOCALS~1\Temp/cc6wVisj.s 			page 22


 1198               		
 1199               	 ;  0 "" 2
 1200               	/* #NOAPP */
 1201 07c0 8C91      		ld r24,X
 1202 07c2 892B      		or r24,r25
 1203 07c4 8C93      		st X,r24
 1204 07c6 D801      		movw r26,r16
 1205 07c8 1E96      		adiw r26,14
 1206 07ca EC91      		ld r30,X
 1207 07cc 1E97      		sbiw r26,14
 1208 07ce F0E0      		ldi r31,lo8(0)
 1209 07d0 EE0F      		lsl r30
 1210 07d2 FF1F      		rol r31
 1211 07d4 E050      		subi r30,lo8(-(pIrqDev))
 1212 07d6 F040      		sbci r31,hi8(-(pIrqDev))
 1213 07d8 1183      		std Z+1,r17
 1214 07da 0083      		st Z,r16
 1215 07dc 81E0      		ldi r24,lo8(1)
 1216 07de 90E0      		ldi r25,hi8(1)
 1217 07e0 1E96      		adiw r26,14
 1218 07e2 0C90      		ld r0,X
 1219 07e4 00C0      		rjmp 2f
 1220 07e6 880F      	1:	lsl r24
 1221 07e8 991F      		rol r25
 1222 07ea 0A94      	2:	dec r0
 1223 07ec 02F4      		brpl 1b
 1224 07ee 2091 0000 		lds r18,irqMask
 1225 07f2 282B      		or r18,r24
 1226 07f4 2093 0000 		sts irqMask,r18
 1227               	.L111:
 1228 07f8 C801      		movw r24,r16
 1229 07fa 61E0      		ldi r22,lo8(257)
 1230 07fc 71E0      		ldi r23,hi8(257)
 1231 07fe AE01      		movw r20,r28
 1232 0800 4F5F      		subi r20,lo8(-(1))
 1233 0802 5F4F      		sbci r21,hi8(-(1))
 1234 0804 0E94 0000 		call AceIOCtl
 1235 0808 C801      		movw r24,r16
 1236 080a 63E0      		ldi r22,lo8(259)
 1237 080c 71E0      		ldi r23,hi8(259)
 1238 080e AE01      		movw r20,r28
 1239 0810 4B5F      		subi r20,lo8(-(5))
 1240 0812 5F4F      		sbci r21,hi8(-(5))
 1241 0814 0E94 0000 		call AceIOCtl
 1242 0818 C801      		movw r24,r16
 1243 081a 65E0      		ldi r22,lo8(261)
 1244 081c 71E0      		ldi r23,hi8(261)
 1245 081e AE01      		movw r20,r28
 1246 0820 475F      		subi r20,lo8(-(9))
 1247 0822 5F4F      		sbci r21,hi8(-(9))
 1248 0824 0E94 0000 		call AceIOCtl
 1249 0828 C801      		movw r24,r16
 1250 082a 67E0      		ldi r22,lo8(263)
 1251 082c 71E0      		ldi r23,hi8(263)
 1252 082e AE01      		movw r20,r28
 1253 0830 435F      		subi r20,lo8(-(13))
 1254 0832 5F4F      		sbci r21,hi8(-(13))
GAS LISTING C:\DOCUME~1\ADMINI~1\LOCALS~1\Temp/cc6wVisj.s 			page 23


 1255 0834 0E94 0000 		call AceIOCtl
 1256 0838 29B7      		in r18,89-32
 1257 083a 81E0      		ldi r24,lo8(1)
 1258 083c 90E0      		ldi r25,hi8(1)
 1259 083e F801      		movw r30,r16
 1260 0840 0684      		ldd r0,Z+14
 1261 0842 00C0      		rjmp 2f
 1262 0844 880F      	1:	lsl r24
 1263 0846 991F      		rol r25
 1264 0848 0A94      	2:	dec r0
 1265 084a 02F4      		brpl 1b
 1266 084c 282B      		or r18,r24
 1267 084e 29BF      		out 89-32,r18
 1268               	/* #APP */
 1269               	 ;  420 "../../nut/arch/avr/dev/tlc16c550.c" 1
 1270 0850 0FB6      		in  __tmp_reg__, __SREG__
 1271 0852 F894      		cli
 1272 0854 0F92      		push __tmp_reg__
 1273               		
 1274               	 ;  0 "" 2
 1275               	/* #NOAPP */
 1276 0856 D801      		movw r26,r16
 1277 0858 1C96      		adiw r26,12
 1278 085a ED91      		ld r30,X+
 1279 085c FC91      		ld r31,X
 1280 085e 1D97      		sbiw r26,12+1
 1281 0860 83E0      		ldi r24,lo8(3)
 1282 0862 8183      		std Z+1,r24
 1283               	/* #APP */
 1284               	 ;  422 "../../nut/arch/avr/dev/tlc16c550.c" 1
 1285 0864 0F90      		pop __tmp_reg__
 1286 0866 0FBE      		out __SREG__, __tmp_reg__
 1287               		
 1288               	 ;  0 "" 2
 1289               	/* #NOAPP */
 1290 0868 20E0      		ldi r18,lo8(0)
 1291 086a 30E0      		ldi r19,hi8(0)
 1292 086c 00C0      		rjmp .L113
 1293               	.L110:
 1294 086e 2FEF      		ldi r18,lo8(-1)
 1295 0870 3FEF      		ldi r19,hi8(-1)
 1296               	.L113:
 1297 0872 C901      		movw r24,r18
 1298               	/* epilogue start */
 1299 0874 6096      		adiw r28,16
 1300 0876 0FB6      		in __tmp_reg__,__SREG__
 1301 0878 F894      		cli
 1302 087a DEBF      		out __SP_H__,r29
 1303 087c 0FBE      		out __SREG__,__tmp_reg__
 1304 087e CDBF      		out __SP_L__,r28
 1305 0880 CF91      		pop r28
 1306 0882 DF91      		pop r29
 1307 0884 1F91      		pop r17
 1308 0886 0F91      		pop r16
 1309 0888 0895      		ret
 1310               		.size	AceInit, .-AceInit
 1311               	.global	AceFlush
GAS LISTING C:\DOCUME~1\ADMINI~1\LOCALS~1\Temp/cc6wVisj.s 			page 24


 1312               		.type	AceFlush, @function
 1313               	AceFlush:
 1314 088a 0F93      		push r16
 1315 088c 1F93      		push r17
 1316 088e CF93      		push r28
 1317 0890 DF93      		push r29
 1318               	/* prologue: function */
 1319               	/* frame size = 0 */
 1320 0892 FC01      		movw r30,r24
 1321 0894 0785      		ldd r16,Z+15
 1322 0896 1089      		ldd r17,Z+16
 1323 0898 C189      		ldd r28,Z+17
 1324 089a D289      		ldd r29,Z+18
 1325 089c 0E94 0000 		call AceOutput
 1326 08a0 892B      		or r24,r25
 1327 08a2 01F0      		breq .L116
 1328 08a4 2FEF      		ldi r18,lo8(-1)
 1329 08a6 3FEF      		ldi r19,hi8(-1)
 1330 08a8 00C0      		rjmp .L117
 1331               	.L116:
 1332 08aa 2A96      		adiw r28,10
 1333 08ac 00C0      		rjmp .L118
 1334               	.L119:
 1335 08ae CE01      		movw r24,r28
 1336 08b0 44E6      		ldi r20,lo8(100)
 1337 08b2 50E0      		ldi r21,hi8(100)
 1338 08b4 60E0      		ldi r22,hlo8(100)
 1339 08b6 70E0      		ldi r23,hhi8(100)
 1340 08b8 0E94 0000 		call NutEventWaitNext
 1341               	.L118:
 1342 08bc F801      		movw r30,r16
 1343 08be 9085      		ldd r25,Z+8
 1344 08c0 8185      		ldd r24,Z+9
 1345 08c2 9817      		cp r25,r24
 1346 08c4 01F4      		brne .L119
 1347 08c6 20E0      		ldi r18,lo8(0)
 1348 08c8 30E0      		ldi r19,hi8(0)
 1349               	.L117:
 1350 08ca C901      		movw r24,r18
 1351               	/* epilogue start */
 1352 08cc DF91      		pop r29
 1353 08ce CF91      		pop r28
 1354 08d0 1F91      		pop r17
 1355 08d2 0F91      		pop r16
 1356 08d4 0895      		ret
 1357               		.size	AceFlush, .-AceFlush
 1358               	.global	AcePut
 1359               		.type	AcePut, @function
 1360               	AcePut:
 1361 08d6 2F92      		push r2
 1362 08d8 3F92      		push r3
 1363 08da 4F92      		push r4
 1364 08dc 5F92      		push r5
 1365 08de 6F92      		push r6
 1366 08e0 7F92      		push r7
 1367 08e2 8F92      		push r8
 1368 08e4 9F92      		push r9
GAS LISTING C:\DOCUME~1\ADMINI~1\LOCALS~1\Temp/cc6wVisj.s 			page 25


 1369 08e6 AF92      		push r10
 1370 08e8 BF92      		push r11
 1371 08ea CF92      		push r12
 1372 08ec DF92      		push r13
 1373 08ee EF92      		push r14
 1374 08f0 FF92      		push r15
 1375 08f2 0F93      		push r16
 1376 08f4 1F93      		push r17
 1377 08f6 DF93      		push r29
 1378 08f8 CF93      		push r28
 1379 08fa 00D0      		rcall .
 1380 08fc CDB7      		in r28,__SP_L__
 1381 08fe DEB7      		in r29,__SP_H__
 1382               	/* prologue: function */
 1383               	/* frame size = 2 */
 1384 0900 6C01      		movw r12,r24
 1385 0902 FB01      		movw r30,r22
 1386 0904 3A01      		movw r6,r20
 1387 0906 4901      		movw r8,r18
 1388 0908 DC01      		movw r26,r24
 1389 090a 1F96      		adiw r26,15
 1390 090c 0D91      		ld r16,X+
 1391 090e 1C91      		ld r17,X
 1392 0910 5097      		sbiw r26,15+1
 1393 0912 5196      		adiw r26,17
 1394 0914 AD90      		ld r10,X+
 1395 0916 BC90      		ld r11,X
 1396 0918 5297      		sbiw r26,17+1
 1397 091a D501      		movw r26,r10
 1398 091c 1E96      		adiw r26,14
 1399 091e 2D91      		ld r18,X+
 1400 0920 3D91      		ld r19,X+
 1401 0922 4D91      		ld r20,X+
 1402 0924 5C91      		ld r21,X
 1403 0926 5197      		sbiw r26,14+3
 1404 0928 6115      		cp r22,__zero_reg__
 1405 092a 7105      		cpc r23,__zero_reg__
 1406 092c 01F4      		brne .L122
 1407 092e 0E94 0000 		call AceFlush
 1408 0932 2C01      		movw r4,r24
 1409 0934 00C0      		rjmp .L123
 1410               	.L122:
 1411 0936 1901      		movw r2,r18
 1412 0938 2A01      		movw r4,r20
 1413 093a A5E1      		ldi r26,21
 1414 093c 5694      	1:	lsr r5
 1415 093e 4794      		ror r4
 1416 0940 3794      		ror r3
 1417 0942 2794      		ror r2
 1418 0944 AA95      		dec r26
 1419 0946 01F4      		brne 1b
 1420 0948 B22D      		mov r27,r2
 1421 094a B170      		andi r27,lo8(1)
 1422 094c BA83      		std Y+2,r27
 1423 094e 71E1      		ldi r23,17
 1424 0950 5695      	1:	lsr r21
 1425 0952 4795      		ror r20
GAS LISTING C:\DOCUME~1\ADMINI~1\LOCALS~1\Temp/cc6wVisj.s 			page 26


 1426 0954 3795      		ror r19
 1427 0956 2795      		ror r18
 1428 0958 7A95      		dec r23
 1429 095a 01F4      		brne 1b
 1430 095c 822F      		mov r24,r18
 1431 095e 8170      		andi r24,lo8(1)
 1432 0960 8983      		std Y+1,r24
 1433 0962 7F01      		movw r14,r30
 1434 0964 4424      		clr r4
 1435 0966 5524      		clr r5
 1436 0968 00C0      		rjmp .L124
 1437               	.L133:
 1438 096a D801      		movw r26,r16
 1439 096c 1896      		adiw r26,8
 1440 096e 9C91      		ld r25,X
 1441 0970 1897      		sbiw r26,8
 1442 0972 1996      		adiw r26,9
 1443 0974 8C91      		ld r24,X
 1444 0976 8F5F      		subi r24,lo8(-(1))
 1445 0978 8917      		cp r24,r25
 1446 097a 01F4      		brne .L125
 1447 097c C601      		movw r24,r12
 1448 097e 0E94 0000 		call AceFlush
 1449 0982 892B      		or r24,r25
 1450 0984 01F0      		breq .+2
 1451 0986 00C0      		rjmp .L126
 1452               	.L125:
 1453 0988 8114      		cp r8,__zero_reg__
 1454 098a 9104      		cpc r9,__zero_reg__
 1455 098c 01F0      		breq .L127
 1456 098e F701      		movw r30,r14
 1457               	/* #APP */
 1458               	 ;  945 "../../nut/arch/avr/dev/tlc16c550.c" 1
 1459 0990 9491      		lpm r25, Z
 1460               		
 1461               	 ;  0 "" 2
 1462               	/* #NOAPP */
 1463 0992 00C0      		rjmp .L128
 1464               	.L127:
 1465 0994 D701      		movw r26,r14
 1466 0996 9C91      		ld r25,X
 1467               	.L128:
 1468 0998 B981      		ldd r27,Y+1
 1469 099a B130      		cpi r27,lo8(1)
 1470 099c 01F4      		brne .L129
 1471 099e 9A30      		cpi r25,lo8(10)
 1472 09a0 01F4      		brne .L130
 1473 09a2 EA81      		ldd r30,Y+2
 1474 09a4 E130      		cpi r30,lo8(1)
 1475 09a6 01F4      		brne .L131
 1476 09a8 F2E0      		ldi r31,lo8(2)
 1477 09aa FA83      		std Y+2,r31
 1478 09ac F983      		std Y+1,r31
 1479 09ae 00C0      		rjmp .L136
 1480               	.L131:
 1481 09b0 82E0      		ldi r24,lo8(2)
 1482 09b2 8983      		std Y+1,r24
GAS LISTING C:\DOCUME~1\ADMINI~1\LOCALS~1\Temp/cc6wVisj.s 			page 27


 1483               	.L136:
 1484 09b4 9DE0      		ldi r25,lo8(13)
 1485 09b6 00C0      		rjmp .L132
 1486               	.L129:
 1487 09b8 A981      		ldd r26,Y+1
 1488 09ba A230      		cpi r26,lo8(2)
 1489 09bc 01F4      		brne .L130
 1490 09be B1E0      		ldi r27,lo8(1)
 1491 09c0 B983      		std Y+1,r27
 1492               	.L130:
 1493 09c2 0894      		sec
 1494 09c4 E11C      		adc r14,__zero_reg__
 1495 09c6 F11C      		adc r15,__zero_reg__
 1496 09c8 0894      		sec
 1497 09ca 411C      		adc r4,__zero_reg__
 1498 09cc 511C      		adc r5,__zero_reg__
 1499               	.L132:
 1500 09ce F801      		movw r30,r16
 1501 09d0 8185      		ldd r24,Z+9
 1502 09d2 E80F      		add r30,r24
 1503 09d4 F11D      		adc r31,__zero_reg__
 1504 09d6 E45F      		subi r30,lo8(-(268))
 1505 09d8 FE4F      		sbci r31,hi8(-(268))
 1506 09da 9083      		st Z,r25
 1507 09dc 8F5F      		subi r24,lo8(-(1))
 1508 09de D801      		movw r26,r16
 1509 09e0 1996      		adiw r26,9
 1510 09e2 8C93      		st X,r24
 1511               	.L124:
 1512 09e4 4614      		cp r4,r6
 1513 09e6 5704      		cpc r5,r7
 1514 09e8 04F4      		brge .+2
 1515 09ea 00C0      		rjmp .L133
 1516 09ec BA81      		ldd r27,Y+2
 1517 09ee B230      		cpi r27,lo8(2)
 1518 09f0 00F4      		brsh .L134
 1519 09f2 F501      		movw r30,r10
 1520 09f4 8685      		ldd r24,Z+14
 1521 09f6 9785      		ldd r25,Z+15
 1522 09f8 A089      		ldd r26,Z+16
 1523 09fa B189      		ldd r27,Z+17
 1524 09fc A4FF      		sbrs r26,4
 1525 09fe 00C0      		rjmp .L123
 1526               	.L134:
 1527 0a00 C601      		movw r24,r12
 1528 0a02 0E94 0000 		call AceFlush
 1529 0a06 892B      		or r24,r25
 1530 0a08 01F0      		breq .L123
 1531               	.L126:
 1532 0a0a 4424      		clr r4
 1533 0a0c 4A94      		dec r4
 1534 0a0e 542C      		mov r5,r4
 1535               	.L123:
 1536 0a10 C201      		movw r24,r4
 1537               	/* epilogue start */
 1538 0a12 0F90      		pop __tmp_reg__
 1539 0a14 0F90      		pop __tmp_reg__
GAS LISTING C:\DOCUME~1\ADMINI~1\LOCALS~1\Temp/cc6wVisj.s 			page 28


 1540 0a16 CF91      		pop r28
 1541 0a18 DF91      		pop r29
 1542 0a1a 1F91      		pop r17
 1543 0a1c 0F91      		pop r16
 1544 0a1e FF90      		pop r15
 1545 0a20 EF90      		pop r14
 1546 0a22 DF90      		pop r13
 1547 0a24 CF90      		pop r12
 1548 0a26 BF90      		pop r11
 1549 0a28 AF90      		pop r10
 1550 0a2a 9F90      		pop r9
 1551 0a2c 8F90      		pop r8
 1552 0a2e 7F90      		pop r7
 1553 0a30 6F90      		pop r6
 1554 0a32 5F90      		pop r5
 1555 0a34 4F90      		pop r4
 1556 0a36 3F90      		pop r3
 1557 0a38 2F90      		pop r2
 1558 0a3a 0895      		ret
 1559               		.size	AcePut, .-AcePut
 1560               	.global	AceWrite_P
 1561               		.type	AceWrite_P, @function
 1562               	AceWrite_P:
 1563               	/* prologue: function */
 1564               	/* frame size = 0 */
 1565 0a3c FC01      		movw r30,r24
 1566 0a3e 8281      		ldd r24,Z+2
 1567 0a40 9381      		ldd r25,Z+3
 1568 0a42 21E0      		ldi r18,lo8(1)
 1569 0a44 30E0      		ldi r19,hi8(1)
 1570 0a46 0E94 0000 		call AcePut
 1571               	/* epilogue start */
 1572 0a4a 0895      		ret
 1573               		.size	AceWrite_P, .-AceWrite_P
 1574               	.global	AceWrite
 1575               		.type	AceWrite, @function
 1576               	AceWrite:
 1577               	/* prologue: function */
 1578               	/* frame size = 0 */
 1579 0a4c FC01      		movw r30,r24
 1580 0a4e 8281      		ldd r24,Z+2
 1581 0a50 9381      		ldd r25,Z+3
 1582 0a52 20E0      		ldi r18,lo8(0)
 1583 0a54 30E0      		ldi r19,hi8(0)
 1584 0a56 0E94 0000 		call AcePut
 1585               	/* epilogue start */
 1586 0a5a 0895      		ret
 1587               		.size	AceWrite, .-AceWrite
 1588               	.global	AceInput
 1589               		.type	AceInput, @function
 1590               	AceInput:
 1591               	/* prologue: function */
 1592               	/* frame size = 0 */
 1593 0a5c FC01      		movw r30,r24
 1594 0a5e A785      		ldd r26,Z+15
 1595 0a60 B089      		ldd r27,Z+16
 1596 0a62 2189      		ldd r18,Z+17
GAS LISTING C:\DOCUME~1\ADMINI~1\LOCALS~1\Temp/cc6wVisj.s 			page 29


 1597 0a64 3289      		ldd r19,Z+18
 1598 0a66 1696      		adiw r26,6
 1599 0a68 9C91      		ld r25,X
 1600 0a6a 1697      		sbiw r26,6
 1601 0a6c 1796      		adiw r26,7
 1602 0a6e 8C91      		ld r24,X
 1603 0a70 8917      		cp r24,r25
 1604 0a72 01F0      		breq .L142
 1605 0a74 20E0      		ldi r18,lo8(0)
 1606 0a76 30E0      		ldi r19,hi8(0)
 1607 0a78 00C0      		rjmp .L143
 1608               	.L142:
 1609 0a7a F901      		movw r30,r18
 1610 0a7c 4281      		ldd r20,Z+2
 1611 0a7e 5381      		ldd r21,Z+3
 1612 0a80 6481      		ldd r22,Z+4
 1613 0a82 7581      		ldd r23,Z+5
 1614 0a84 CF01      		movw r24,r30
 1615 0a86 0C96      		adiw r24,12
 1616 0a88 0E94 0000 		call NutEventWaitNext
 1617 0a8c 9C01      		movw r18,r24
 1618               	.L143:
 1619 0a8e C901      		movw r24,r18
 1620               	/* epilogue start */
 1621 0a90 0895      		ret
 1622               		.size	AceInput, .-AceInput
 1623               	.global	AceRead
 1624               		.type	AceRead, @function
 1625               	AceRead:
 1626 0a92 5F92      		push r5
 1627 0a94 6F92      		push r6
 1628 0a96 7F92      		push r7
 1629 0a98 8F92      		push r8
 1630 0a9a 9F92      		push r9
 1631 0a9c AF92      		push r10
 1632 0a9e BF92      		push r11
 1633 0aa0 CF92      		push r12
 1634 0aa2 DF92      		push r13
 1635 0aa4 EF92      		push r14
 1636 0aa6 FF92      		push r15
 1637 0aa8 0F93      		push r16
 1638 0aaa 1F93      		push r17
 1639 0aac CF93      		push r28
 1640 0aae DF93      		push r29
 1641               	/* prologue: function */
 1642               	/* frame size = 0 */
 1643 0ab0 3A01      		movw r6,r20
 1644 0ab2 DC01      		movw r26,r24
 1645 0ab4 1296      		adiw r26,2
 1646 0ab6 8D90      		ld r8,X+
 1647 0ab8 9C90      		ld r9,X
 1648 0aba 1397      		sbiw r26,2+1
 1649 0abc F401      		movw r30,r8
 1650 0abe C785      		ldd r28,Z+15
 1651 0ac0 D089      		ldd r29,Z+16
 1652 0ac2 0188      		ldd __tmp_reg__,Z+17
 1653 0ac4 F289      		ldd r31,Z+18
GAS LISTING C:\DOCUME~1\ADMINI~1\LOCALS~1\Temp/cc6wVisj.s 			page 30


 1654 0ac6 E02D      		mov r30,__tmp_reg__
 1655 0ac8 C684      		ldd r12,Z+14
 1656 0aca D784      		ldd r13,Z+15
 1657 0acc E088      		ldd r14,Z+16
 1658 0ace F188      		ldd r15,Z+17
 1659 0ad0 80E0      		ldi r24,lo8(131072)
 1660 0ad2 90E0      		ldi r25,hi8(131072)
 1661 0ad4 A2E0      		ldi r26,hlo8(131072)
 1662 0ad6 B0E0      		ldi r27,hhi8(131072)
 1663 0ad8 C822      		and r12,r24
 1664 0ada D922      		and r13,r25
 1665 0adc EA22      		and r14,r26
 1666 0ade FB22      		and r15,r27
 1667 0ae0 6115      		cp r22,__zero_reg__
 1668 0ae2 7105      		cpc r23,__zero_reg__
 1669 0ae4 01F0      		breq .L146
 1670 0ae6 5B01      		movw r10,r22
 1671 0ae8 00E0      		ldi r16,lo8(0)
 1672 0aea 10E0      		ldi r17,hi8(0)
 1673 0aec BAE0      		ldi r27,lo8(10)
 1674 0aee 5B2E      		mov r5,r27
 1675 0af0 00C0      		rjmp .L161
 1676               	.L146:
 1677 0af2 8E81      		ldd r24,Y+6
 1678 0af4 8F83      		std Y+7,r24
 1679 0af6 00C0      		rjmp .L163
 1680               	.L155:
 1681 0af8 9E81      		ldd r25,Y+6
 1682 0afa 8F81      		ldd r24,Y+7
 1683 0afc 8917      		cp r24,r25
 1684 0afe 01F4      		brne .L150
 1685 0b00 00C0      		rjmp .L158
 1686               	.L151:
 1687 0b02 C401      		movw r24,r8
 1688 0b04 0E94 0000 		call AceInput
 1689 0b08 892B      		or r24,r25
 1690 0b0a 01F0      		breq .L158
 1691               	.L163:
 1692 0b0c 00E0      		ldi r16,lo8(0)
 1693 0b0e 10E0      		ldi r17,hi8(0)
 1694 0b10 00C0      		rjmp .L148
 1695               	.L158:
 1696 0b12 9E81      		ldd r25,Y+6
 1697 0b14 8F81      		ldd r24,Y+7
 1698 0b16 8917      		cp r24,r25
 1699 0b18 01F0      		breq .L151
 1700               	.L150:
 1701 0b1a 8F81      		ldd r24,Y+7
 1702 0b1c FE01      		movw r30,r28
 1703 0b1e E80F      		add r30,r24
 1704 0b20 F11D      		adc r31,__zero_reg__
 1705 0b22 9485      		ldd r25,Z+12
 1706 0b24 8F5F      		subi r24,lo8(-(1))
 1707 0b26 8F83      		std Y+7,r24
 1708 0b28 C114      		cp r12,__zero_reg__
 1709 0b2a D104      		cpc r13,__zero_reg__
 1710 0b2c E104      		cpc r14,__zero_reg__
GAS LISTING C:\DOCUME~1\ADMINI~1\LOCALS~1\Temp/cc6wVisj.s 			page 31


 1711 0b2e F104      		cpc r15,__zero_reg__
 1712 0b30 01F0      		breq .L152
 1713 0b32 9D30      		cpi r25,lo8(13)
 1714 0b34 01F0      		breq .L153
 1715 0b36 9A30      		cpi r25,lo8(10)
 1716 0b38 01F4      		brne .L152
 1717               	.L153:
 1718 0b3a 8B85      		ldd r24,Y+11
 1719 0b3c 8823      		tst r24
 1720 0b3e 01F0      		breq .L154
 1721 0b40 8917      		cp r24,r25
 1722 0b42 01F4      		brne .L161
 1723               	.L154:
 1724 0b44 9B87      		std Y+11,r25
 1725 0b46 D501      		movw r26,r10
 1726 0b48 5D92      		st X+,r5
 1727 0b4a 5D01      		movw r10,r26
 1728 0b4c 00C0      		rjmp .L162
 1729               	.L152:
 1730 0b4e 1B86      		std Y+11,__zero_reg__
 1731 0b50 F501      		movw r30,r10
 1732 0b52 9193      		st Z+,r25
 1733 0b54 5F01      		movw r10,r30
 1734               	.L162:
 1735 0b56 0F5F      		subi r16,lo8(-(1))
 1736 0b58 1F4F      		sbci r17,hi8(-(1))
 1737               	.L161:
 1738 0b5a 0615      		cp r16,r6
 1739 0b5c 1705      		cpc r17,r7
 1740 0b5e 04F0      		brlt .L155
 1741               	.L148:
 1742 0b60 C801      		movw r24,r16
 1743               	/* epilogue start */
 1744 0b62 DF91      		pop r29
 1745 0b64 CF91      		pop r28
 1746 0b66 1F91      		pop r17
 1747 0b68 0F91      		pop r16
 1748 0b6a FF90      		pop r15
 1749 0b6c EF90      		pop r14
 1750 0b6e DF90      		pop r13
 1751 0b70 CF90      		pop r12
 1752 0b72 BF90      		pop r11
 1753 0b74 AF90      		pop r10
 1754 0b76 9F90      		pop r9
 1755 0b78 8F90      		pop r8
 1756 0b7a 7F90      		pop r7
 1757 0b7c 6F90      		pop r6
 1758 0b7e 5F90      		pop r5
 1759 0b80 0895      		ret
 1760               		.size	AceRead, .-AceRead
 1761               		.lcomm pIrqDev,16
 1762               		.section	.progmem.data,"a",@progbits
 1763               		.type	atIrqDefs, @object
 1764               		.size	atIrqDefs, 40
 1765               	atIrqDefs:
 1766 0000 0000      		.word	sig_INTERRUPT0
 1767 0002 6A00      		.word	106
GAS LISTING C:\DOCUME~1\ADMINI~1\LOCALS~1\Temp/cc6wVisj.s 			page 32


 1768 0004 00        		.byte	0
 1769 0005 0000      		.word	sig_INTERRUPT1
 1770 0007 6A00      		.word	106
 1771 0009 00        		.byte	0
 1772 000a 0000      		.word	sig_INTERRUPT2
 1773 000c 6A00      		.word	106
 1774 000e 00        		.byte	0
 1775 000f 0000      		.word	sig_INTERRUPT3
 1776 0011 6A00      		.word	106
 1777 0013 00        		.byte	0
 1778 0014 0000      		.word	sig_INTERRUPT4
 1779 0016 5A00      		.word	90
 1780 0018 00        		.byte	0
 1781 0019 0000      		.word	sig_INTERRUPT5
 1782 001b 5A00      		.word	90
 1783 001d 00        		.byte	0
 1784 001e 0000      		.word	sig_INTERRUPT6
 1785 0020 5A00      		.word	90
 1786 0022 00        		.byte	0
 1787 0023 0000      		.word	sig_INTERRUPT7
 1788 0025 5A00      		.word	90
 1789 0027 00        		.byte	0
 1790               		.lcomm irqMask,1
 1791               	.global __do_copy_data
 1792               	.global __do_clear_bss
GAS LISTING C:\DOCUME~1\ADMINI~1\LOCALS~1\Temp/cc6wVisj.s 			page 33


DEFINED SYMBOLS
                            *ABS*:00000000 tlc16c550.c
C:\DOCUME~1\ADMINI~1\LOCALS~1\Temp/cc6wVisj.s:2      *ABS*:0000003f __SREG__
C:\DOCUME~1\ADMINI~1\LOCALS~1\Temp/cc6wVisj.s:3      *ABS*:0000003e __SP_H__
C:\DOCUME~1\ADMINI~1\LOCALS~1\Temp/cc6wVisj.s:4      *ABS*:0000003d __SP_L__
C:\DOCUME~1\ADMINI~1\LOCALS~1\Temp/cc6wVisj.s:5      *ABS*:00000034 __CCP__
C:\DOCUME~1\ADMINI~1\LOCALS~1\Temp/cc6wVisj.s:6      *ABS*:00000000 __tmp_reg__
C:\DOCUME~1\ADMINI~1\LOCALS~1\Temp/cc6wVisj.s:7      *ABS*:00000001 __zero_reg__
C:\DOCUME~1\ADMINI~1\LOCALS~1\Temp/cc6wVisj.s:10     .text:00000000 AceIrqHandler
C:\DOCUME~1\ADMINI~1\LOCALS~1\Temp/cc6wVisj.s:223    .text:0000017c AceOutput
C:\DOCUME~1\ADMINI~1\LOCALS~1\Temp/cc6wVisj.s:291    .text:000001f4 AceSize
C:\DOCUME~1\ADMINI~1\LOCALS~1\Temp/cc6wVisj.s:313    .text:00000212 AceClose
C:\DOCUME~1\ADMINI~1\LOCALS~1\Temp/cc6wVisj.s:327    .text:00000222 AceOpen
C:\DOCUME~1\ADMINI~1\LOCALS~1\Temp/cc6wVisj.s:391    .text:00000290 AceDisable
C:\DOCUME~1\ADMINI~1\LOCALS~1\Temp/cc6wVisj.s:420    .text:000002aa AceIOCtl
C:\DOCUME~1\ADMINI~1\LOCALS~1\Temp/cc6wVisj.s:1016   .text:00000672 AceInit
C:\DOCUME~1\ADMINI~1\LOCALS~1\Temp/cc6wVisj.s:1590   .text:00000a5c AceInput
C:\DOCUME~1\ADMINI~1\LOCALS~1\Temp/cc6wVisj.s:1313   .text:0000088a AceFlush
                             .bss:00000000 pIrqDev
C:\DOCUME~1\ADMINI~1\LOCALS~1\Temp/cc6wVisj.s:1765   .progmem.data:00000000 atIrqDefs
C:\DOCUME~1\ADMINI~1\LOCALS~1\Temp/cc6wVisj.s:1761   .bss:00000010 irqMask
C:\DOCUME~1\ADMINI~1\LOCALS~1\Temp/cc6wVisj.s:1360   .text:000008d6 AcePut
C:\DOCUME~1\ADMINI~1\LOCALS~1\Temp/cc6wVisj.s:1562   .text:00000a3c AceWrite_P
C:\DOCUME~1\ADMINI~1\LOCALS~1\Temp/cc6wVisj.s:1576   .text:00000a4c AceWrite
C:\DOCUME~1\ADMINI~1\LOCALS~1\Temp/cc6wVisj.s:1625   .text:00000a92 AceRead

UNDEFINED SYMBOLS
heapFreeList
NutHeapRootFree
NutHeapRootAlloc
NutDelay
__udivmodsi4
NutEventPostAsync
NutRegisterIrqHandler
NutEventWaitNext
sig_INTERRUPT0
sig_INTERRUPT1
sig_INTERRUPT2
sig_INTERRUPT3
sig_INTERRUPT4
sig_INTERRUPT5
sig_INTERRUPT6
sig_INTERRUPT7
__do_copy_data
__do_clear_bss
