GAS LISTING C:\DOCUME~1\ADMINI~1\LOCALS~1\Temp/ccsa7DOh.s 			page 1


   1               		.file	"uartavr.c"
   2               	__SREG__ = 0x3f
   3               	__SP_H__ = 0x3e
   4               	__SP_L__ = 0x3d
   5               	__CCP__  = 0x34
   6               	__tmp_reg__ = 0
   7               	__zero_reg__ = 1
   8               		.text
   9               		.type	TxComplete, @function
  10               	TxComplete:
  11               	/* prologue: function */
  12               	/* frame size = 0 */
  13 0000 FC01      		movw r30,r24
  14 0002 A785      		ldd r26,Z+15
  15 0004 B089      		ldd r27,Z+16
  16 0006 1896      		adiw r26,8
  17 0008 9C91      		ld r25,X
  18 000a 1897      		sbiw r26,8
  19 000c 1996      		adiw r26,9
  20 000e 8C91      		ld r24,X
  21 0010 1997      		sbiw r26,9
  22 0012 9817      		cp r25,r24
  23 0014 01F0      		breq .L2
  24 0016 8485      		ldd r24,Z+12
  25 0018 9585      		ldd r25,Z+13
  26 001a 892B      		or r24,r25
  27 001c 01F0      		breq .L3
  28 001e 1896      		adiw r26,8
  29 0020 8C91      		ld r24,X
  30 0022 1897      		sbiw r26,8
  31 0024 FD01      		movw r30,r26
  32 0026 E80F      		add r30,r24
  33 0028 F11D      		adc r31,__zero_reg__
  34 002a E45F      		subi r30,lo8(-(268))
  35 002c FE4F      		sbci r31,hi8(-(268))
  36 002e 8081      		ld r24,Z
  37 0030 8093 9C00 		sts 156,r24
  38 0034 00C0      		rjmp .L4
  39               	.L3:
  40 0036 1896      		adiw r26,8
  41 0038 8C91      		ld r24,X
  42 003a 1897      		sbiw r26,8
  43 003c FD01      		movw r30,r26
  44 003e E80F      		add r30,r24
  45 0040 F11D      		adc r31,__zero_reg__
  46 0042 E45F      		subi r30,lo8(-(268))
  47 0044 FE4F      		sbci r31,hi8(-(268))
  48 0046 8081      		ld r24,Z
  49 0048 8CB9      		out 44-32,r24
  50               	.L4:
  51 004a 1896      		adiw r26,8
  52 004c 8C91      		ld r24,X
  53 004e 1897      		sbiw r26,8
  54 0050 8F5F      		subi r24,lo8(-(1))
  55 0052 1896      		adiw r26,8
  56 0054 8C93      		st X,r24
  57 0056 0895      		ret
GAS LISTING C:\DOCUME~1\ADMINI~1\LOCALS~1\Temp/ccsa7DOh.s 			page 2


  58               	.L2:
  59 0058 1A96      		adiw r26,10
  60 005a 1C92      		st X,__zero_reg__
  61 005c A189      		ldd r26,Z+17
  62 005e B289      		ldd r27,Z+18
  63 0060 1896      		adiw r26,8
  64 0062 ED91      		ld r30,X+
  65 0064 FC91      		ld r31,X
  66 0066 1997      		sbiw r26,8+1
  67 0068 3097      		sbiw r30,0
  68 006a 01F4      		brne .L6
  69 006c 8FEF      		ldi r24,lo8(-1)
  70 006e 9FEF      		ldi r25,hi8(-1)
  71 0070 1996      		adiw r26,8+1
  72 0072 9C93      		st X,r25
  73 0074 8E93      		st -X,r24
  74 0076 1897      		sbiw r26,8
  75 0078 0895      		ret
  76               	.L6:
  77 007a 8FEF      		ldi r24,hi8(-1)
  78 007c EF3F      		cpi r30,lo8(-1)
  79 007e F807      		cpc r31,r24
  80 0080 01F0      		breq .L7
  81 0082 8481      		ldd r24,Z+4
  82 0084 9581      		ldd r25,Z+5
  83 0086 0196      		adiw r24,1
  84 0088 9583      		std Z+5,r25
  85 008a 8483      		std Z+4,r24
  86               	.L7:
  87 008c 0895      		ret
  88               		.size	TxComplete, .-TxComplete
  89               		.type	RxComplete, @function
  90               	RxComplete:
  91 008e CF93      		push r28
  92 0090 DF93      		push r29
  93               	/* prologue: function */
  94               	/* frame size = 0 */
  95 0092 DC01      		movw r26,r24
  96 0094 1F96      		adiw r26,15
  97 0096 CD91      		ld r28,X+
  98 0098 DC91      		ld r29,X
  99 009a 5097      		sbiw r26,15+1
 100 009c 1C96      		adiw r26,12
 101 009e 8D91      		ld r24,X+
 102 00a0 9C91      		ld r25,X
 103 00a2 1D97      		sbiw r26,12+1
 104 00a4 892B      		or r24,r25
 105 00a6 01F0      		breq .L9
 106 00a8 8E81      		ldd r24,Y+6
 107 00aa 9091 9C00 		lds r25,156
 108 00ae 00C0      		rjmp .L14
 109               	.L9:
 110 00b0 8E81      		ldd r24,Y+6
 111 00b2 9CB1      		in r25,44-32
 112               	.L14:
 113 00b4 FE01      		movw r30,r28
 114 00b6 E80F      		add r30,r24
GAS LISTING C:\DOCUME~1\ADMINI~1\LOCALS~1\Temp/ccsa7DOh.s 			page 3


 115 00b8 F11D      		adc r31,__zero_reg__
 116 00ba 9487      		std Z+12,r25
 117 00bc 9E81      		ldd r25,Y+6
 118 00be 8F81      		ldd r24,Y+7
 119 00c0 8917      		cp r24,r25
 120 00c2 01F4      		brne .L11
 121 00c4 5196      		adiw r26,17
 122 00c6 0D90      		ld __tmp_reg__,X+
 123 00c8 BC91      		ld r27,X
 124 00ca A02D      		mov r26,__tmp_reg__
 125 00cc 1A96      		adiw r26,10
 126 00ce ED91      		ld r30,X+
 127 00d0 FC91      		ld r31,X
 128 00d2 1B97      		sbiw r26,10+1
 129 00d4 3097      		sbiw r30,0
 130 00d6 01F4      		brne .L12
 131 00d8 8FEF      		ldi r24,lo8(-1)
 132 00da 9FEF      		ldi r25,hi8(-1)
 133 00dc 1B96      		adiw r26,10+1
 134 00de 9C93      		st X,r25
 135 00e0 8E93      		st -X,r24
 136 00e2 1A97      		sbiw r26,10
 137 00e4 00C0      		rjmp .L11
 138               	.L12:
 139 00e6 8FEF      		ldi r24,hi8(-1)
 140 00e8 EF3F      		cpi r30,lo8(-1)
 141 00ea F807      		cpc r31,r24
 142 00ec 01F0      		breq .L11
 143 00ee 8481      		ldd r24,Z+4
 144 00f0 9581      		ldd r25,Z+5
 145 00f2 0196      		adiw r24,1
 146 00f4 9583      		std Z+5,r25
 147 00f6 8483      		std Z+4,r24
 148               	.L11:
 149 00f8 8E81      		ldd r24,Y+6
 150 00fa 8F5F      		subi r24,lo8(-(1))
 151 00fc 8E83      		std Y+6,r24
 152               	/* epilogue start */
 153 00fe DF91      		pop r29
 154 0100 CF91      		pop r28
 155 0102 0895      		ret
 156               		.size	RxComplete, .-RxComplete
 157               	.global	UartAvrOutput
 158               		.type	UartAvrOutput, @function
 159               	UartAvrOutput:
 160               	/* prologue: function */
 161               	/* frame size = 0 */
 162 0104 FC01      		movw r30,r24
 163 0106 A785      		ldd r26,Z+15
 164 0108 B089      		ldd r27,Z+16
 165 010a 1A96      		adiw r26,10
 166 010c 8C91      		ld r24,X
 167 010e 1A97      		sbiw r26,10
 168 0110 8823      		tst r24
 169 0112 01F4      		brne .L16
 170 0114 1896      		adiw r26,8
 171 0116 9C91      		ld r25,X
GAS LISTING C:\DOCUME~1\ADMINI~1\LOCALS~1\Temp/ccsa7DOh.s 			page 4


 172 0118 1897      		sbiw r26,8
 173 011a 1996      		adiw r26,9
 174 011c 8C91      		ld r24,X
 175 011e 1997      		sbiw r26,9
 176 0120 9817      		cp r25,r24
 177 0122 01F0      		breq .L16
 178 0124 81E0      		ldi r24,lo8(1)
 179 0126 1A96      		adiw r26,10
 180 0128 8C93      		st X,r24
 181 012a 1A97      		sbiw r26,10
 182 012c 8485      		ldd r24,Z+12
 183 012e 9585      		ldd r25,Z+13
 184 0130 892B      		or r24,r25
 185 0132 01F0      		breq .L17
 186 0134 1896      		adiw r26,8
 187 0136 8C91      		ld r24,X
 188 0138 1897      		sbiw r26,8
 189 013a FD01      		movw r30,r26
 190 013c E80F      		add r30,r24
 191 013e F11D      		adc r31,__zero_reg__
 192 0140 E45F      		subi r30,lo8(-(268))
 193 0142 FE4F      		sbci r31,hi8(-(268))
 194 0144 8081      		ld r24,Z
 195 0146 8093 9C00 		sts 156,r24
 196 014a 00C0      		rjmp .L18
 197               	.L17:
 198 014c 1896      		adiw r26,8
 199 014e 8C91      		ld r24,X
 200 0150 1897      		sbiw r26,8
 201 0152 FD01      		movw r30,r26
 202 0154 E80F      		add r30,r24
 203 0156 F11D      		adc r31,__zero_reg__
 204 0158 E45F      		subi r30,lo8(-(268))
 205 015a FE4F      		sbci r31,hi8(-(268))
 206 015c 8081      		ld r24,Z
 207 015e 8CB9      		out 44-32,r24
 208               	.L18:
 209 0160 1896      		adiw r26,8
 210 0162 8C91      		ld r24,X
 211 0164 1897      		sbiw r26,8
 212 0166 8F5F      		subi r24,lo8(-(1))
 213 0168 1896      		adiw r26,8
 214 016a 8C93      		st X,r24
 215               	.L16:
 216 016c 80E0      		ldi r24,lo8(0)
 217 016e 90E0      		ldi r25,hi8(0)
 218               	/* epilogue start */
 219 0170 0895      		ret
 220               		.size	UartAvrOutput, .-UartAvrOutput
 221               	.global	UartAvrSize
 222               		.type	UartAvrSize, @function
 223               	UartAvrSize:
 224               	/* prologue: function */
 225               	/* frame size = 0 */
 226 0172 DC01      		movw r26,r24
 227 0174 1296      		adiw r26,2
 228 0176 ED91      		ld r30,X+
GAS LISTING C:\DOCUME~1\ADMINI~1\LOCALS~1\Temp/ccsa7DOh.s 			page 5


 229 0178 FC91      		ld r31,X
 230 017a 1397      		sbiw r26,2+1
 231 017c 0784      		ldd __tmp_reg__,Z+15
 232 017e F089      		ldd r31,Z+16
 233 0180 E02D      		mov r30,__tmp_reg__
 234 0182 6681      		ldd r22,Z+6
 235 0184 2781      		ldd r18,Z+7
 236 0186 621B      		sub r22,r18
 237 0188 70E0      		ldi r23,lo8(0)
 238 018a 80E0      		ldi r24,lo8(0)
 239 018c 90E0      		ldi r25,lo8(0)
 240               	/* epilogue start */
 241 018e 0895      		ret
 242               		.size	UartAvrSize, .-UartAvrSize
 243               	.global	UartAvrClose
 244               		.type	UartAvrClose, @function
 245               	UartAvrClose:
 246               	/* prologue: function */
 247               	/* frame size = 0 */
 248 0190 BC01      		movw r22,r24
 249 0192 80E0      		ldi r24,lo8(heapFreeList)
 250 0194 90E0      		ldi r25,hi8(heapFreeList)
 251 0196 0E94 0000 		call NutHeapRootFree
 252 019a 80E0      		ldi r24,lo8(0)
 253 019c 90E0      		ldi r25,hi8(0)
 254               	/* epilogue start */
 255 019e 0895      		ret
 256               		.size	UartAvrClose, .-UartAvrClose
 257               	.global	UartAvrOpen
 258               		.type	UartAvrOpen, @function
 259               	UartAvrOpen:
 260 01a0 EF92      		push r14
 261 01a2 FF92      		push r15
 262 01a4 0F93      		push r16
 263 01a6 1F93      		push r17
 264 01a8 CF93      		push r28
 265 01aa DF93      		push r29
 266               	/* prologue: function */
 267               	/* frame size = 0 */
 268 01ac 8C01      		movw r16,r24
 269 01ae 7A01      		movw r14,r20
 270 01b0 80E0      		ldi r24,lo8(heapFreeList)
 271 01b2 90E0      		ldi r25,hi8(heapFreeList)
 272 01b4 66E0      		ldi r22,lo8(6)
 273 01b6 70E0      		ldi r23,hi8(6)
 274 01b8 0E94 0000 		call NutHeapRootAlloc
 275 01bc FC01      		movw r30,r24
 276 01be BC01      		movw r22,r24
 277 01c0 0097      		sbiw r24,0
 278 01c2 01F4      		brne .L25
 279 01c4 6FEF      		ldi r22,lo8(-1)
 280 01c6 7FEF      		ldi r23,hi8(-1)
 281 01c8 00C0      		rjmp .L26
 282               	.L25:
 283 01ca E801      		movw r28,r16
 284 01cc A989      		ldd r26,Y+17
 285 01ce BA89      		ldd r27,Y+18
GAS LISTING C:\DOCUME~1\ADMINI~1\LOCALS~1\Temp/ccsa7DOh.s 			page 6


 286 01d0 1C96      		adiw r26,12
 287 01d2 2D91      		ld r18,X+
 288 01d4 3D91      		ld r19,X+
 289 01d6 4D91      		ld r20,X+
 290 01d8 5C91      		ld r21,X
 291 01da 1F97      		sbiw r26,12+3
 292 01dc F7FE      		sbrs r15,7
 293 01de 00C0      		rjmp .L27
 294 01e0 4D7F      		andi r20,hlo8(-131073)
 295 01e2 00C0      		rjmp .L30
 296               	.L27:
 297 01e4 4260      		ori r20,hlo8(131072)
 298               	.L30:
 299 01e6 1C96      		adiw r26,12
 300 01e8 2D93      		st X+,r18
 301 01ea 3D93      		st X+,r19
 302 01ec 4D93      		st X+,r20
 303 01ee 5C93      		st X,r21
 304 01f0 1F97      		sbiw r26,12+3
 305 01f2 1182      		std Z+1,__zero_reg__
 306 01f4 1082      		st Z,__zero_reg__
 307 01f6 1383      		std Z+3,r17
 308 01f8 0283      		std Z+2,r16
 309 01fa 1582      		std Z+5,__zero_reg__
 310 01fc 1482      		std Z+4,__zero_reg__
 311               	.L26:
 312 01fe CB01      		movw r24,r22
 313               	/* epilogue start */
 314 0200 DF91      		pop r29
 315 0202 CF91      		pop r28
 316 0204 1F91      		pop r17
 317 0206 0F91      		pop r16
 318 0208 FF90      		pop r15
 319 020a EF90      		pop r14
 320 020c 0895      		ret
 321               		.size	UartAvrOpen, .-UartAvrOpen
 322               		.type	UartAvrDisable, @function
 323               	UartAvrDisable:
 324 020e CF93      		push r28
 325 0210 DF93      		push r29
 326               	/* prologue: function */
 327               	/* frame size = 0 */
 328 0212 EC01      		movw r28,r24
 329               	/* #APP */
 330               	 ;  335 "../../nut/arch/avr/dev/uartavr.c" 1
 331 0214 0FB6      		in  __tmp_reg__, __SREG__
 332 0216 F894      		cli
 333 0218 0F92      		push __tmp_reg__
 334               		
 335               	 ;  0 "" 2
 336               	/* #NOAPP */
 337 021a 0097      		sbiw r24,0
 338 021c 01F0      		breq .L32
 339 021e 8091 9A00 		lds r24,154
 340 0222 8F73      		andi r24,lo8(63)
 341 0224 8093 9A00 		sts 154,r24
 342 0228 00C0      		rjmp .L33
GAS LISTING C:\DOCUME~1\ADMINI~1\LOCALS~1\Temp/ccsa7DOh.s 			page 7


 343               	.L32:
 344 022a 8AB1      		in r24,42-32
 345 022c 8F73      		andi r24,lo8(63)
 346 022e 8AB9      		out 42-32,r24
 347               	.L33:
 348               	/* #APP */
 349               	 ;  342 "../../nut/arch/avr/dev/uartavr.c" 1
 350 0230 0F90      		pop __tmp_reg__
 351 0232 0FBE      		out __SREG__, __tmp_reg__
 352               		
 353               	 ;  0 "" 2
 354               	/* #NOAPP */
 355 0234 8AE0      		ldi r24,lo8(10)
 356 0236 0E94 0000 		call NutDelay
 357 023a CD2B      		or r28,r29
 358 023c 01F0      		breq .L34
 359 023e 8091 9A00 		lds r24,154
 360 0242 877E      		andi r24,lo8(-25)
 361 0244 8093 9A00 		sts 154,r24
 362 0248 00C0      		rjmp .L36
 363               	.L34:
 364 024a 8AB1      		in r24,42-32
 365 024c 877E      		andi r24,lo8(-25)
 366 024e 8AB9      		out 42-32,r24
 367               	.L36:
 368               	/* epilogue start */
 369 0250 DF91      		pop r29
 370 0252 CF91      		pop r28
 371 0254 0895      		ret
 372               		.size	UartAvrDisable, .-UartAvrDisable
 373               	.global	UartAvrIOCtl
 374               		.type	UartAvrIOCtl, @function
 375               	UartAvrIOCtl:
 376 0256 8F92      		push r8
 377 0258 9F92      		push r9
 378 025a AF92      		push r10
 379 025c BF92      		push r11
 380 025e CF92      		push r12
 381 0260 DF92      		push r13
 382 0262 EF92      		push r14
 383 0264 FF92      		push r15
 384 0266 0F93      		push r16
 385 0268 1F93      		push r17
 386 026a CF93      		push r28
 387 026c DF93      		push r29
 388               	/* prologue: function */
 389               	/* frame size = 0 */
 390 026e DC01      		movw r26,r24
 391 0270 6A01      		movw r12,r20
 392 0272 EA01      		movw r28,r20
 393 0274 E880      		ld r14,Y
 394 0276 F980      		ldd r15,Y+1
 395 0278 0A81      		ldd r16,Y+2
 396 027a 1B81      		ldd r17,Y+3
 397 027c BE2C      		mov r11,r14
 398 027e 0097      		sbiw r24,0
 399 0280 01F4      		brne .L38
GAS LISTING C:\DOCUME~1\ADMINI~1\LOCALS~1\Temp/ccsa7DOh.s 			page 8


 400 0282 A0E0      		ldi r26,lo8(devUart0)
 401 0284 B0E0      		ldi r27,hi8(devUart0)
 402               	.L38:
 403 0286 1C96      		adiw r26,12
 404 0288 AC90      		ld r10,X
 405 028a 1C97      		sbiw r26,12
 406 028c 5196      		adiw r26,17
 407 028e CD91      		ld r28,X+
 408 0290 DC91      		ld r29,X
 409 0292 5297      		sbiw r26,17+1
 410 0294 CB01      		movw r24,r22
 411 0296 8150      		subi r24,lo8(-(-257))
 412 0298 9140      		sbci r25,hi8(-(-257))
 413 029a 8431      		cpi r24,20
 414 029c 9105      		cpc r25,__zero_reg__
 415 029e 00F4      		brsh .L39
 416 02a0 8050      		subi r24,lo8(-(gs(.L59)))
 417 02a2 9040      		sbci r25,hi8(-(gs(.L59)))
 418 02a4 FC01      		movw r30,r24
 419 02a6 EE0F      		lsl r30
 420 02a8 FF1F      		rol r31
 421 02aa 0590      		lpm __tmp_reg__,Z+
 422 02ac F491      		lpm r31,Z
 423 02ae E02D      		mov r30,__tmp_reg__
 424 02b0 0994      		ijmp
 425               		.data
 426               		.section .progmem.gcc_sw_table, "a", @progbits
 427               		.p2align 1
 428               	.L59:
 429               		.data
 430               		.section .progmem.gcc_sw_table, "a", @progbits
 431               		.p2align 1
 432 0000 0000      		.word gs(.L40)
 433 0002 0000      		.word gs(.L41)
 434 0004 0000      		.word gs(.L42)
 435 0006 0000      		.word gs(.L43)
 436 0008 0000      		.word gs(.L44)
 437 000a 0000      		.word gs(.L45)
 438 000c 0000      		.word gs(.L46)
 439 000e 0000      		.word gs(.L47)
 440 0010 0000      		.word gs(.L39)
 441 0012 0000      		.word gs(.L48)
 442 0014 0000      		.word gs(.L49)
 443 0016 0000      		.word gs(.L50)
 444 0018 0000      		.word gs(.L51)
 445 001a 0000      		.word gs(.L52)
 446 001c 0000      		.word gs(.L55)
 447 001e 0000      		.word gs(.L54)
 448 0020 0000      		.word gs(.L55)
 449 0022 0000      		.word gs(.L56)
 450 0024 0000      		.word gs(.L57)
 451 0026 0000      		.word gs(.L58)
 452               		.text
 453               	.L39:
 454 02b2 2FEF      		ldi r18,lo8(-1)
 455 02b4 3FEF      		ldi r19,hi8(-1)
 456 02b6 00C0      		rjmp .L60
GAS LISTING C:\DOCUME~1\ADMINI~1\LOCALS~1\Temp/ccsa7DOh.s 			page 9


 457               	.L40:
 458 02b8 8A2D      		mov r24,r10
 459 02ba 90E0      		ldi r25,lo8(0)
 460 02bc 0E94 0000 		call UartAvrDisable
 461 02c0 AA20      		tst r10
 462 02c2 01F0      		breq .L61
 463 02c4 8091 9B00 		lds r24,155
 464 02c8 81FF      		sbrs r24,1
 465 02ca 00C0      		rjmp .L64
 466 02cc 00C0      		rjmp .L106
 467               	.L61:
 468 02ce 599B      		sbis 43-32,1
 469 02d0 00C0      		rjmp .L64
 470               	.L106:
 471 02d2 92E0      		ldi r25,2
 472 02d4 EE0C      	1:	lsl r14
 473 02d6 FF1C      		rol r15
 474 02d8 001F      		rol r16
 475 02da 111F      		rol r17
 476 02dc 9A95      		dec r25
 477 02de 01F4      		brne 1b
 478 02e0 00C0      		rjmp .L63
 479               	.L64:
 480 02e2 83E0      		ldi r24,3
 481 02e4 EE0C      	1:	lsl r14
 482 02e6 FF1C      		rol r15
 483 02e8 001F      		rol r16
 484 02ea 111F      		rol r17
 485 02ec 8A95      		dec r24
 486 02ee 01F4      		brne 1b
 487               	.L63:
 488 02f0 0E94 0000 		call NutGetCpuClock
 489 02f4 A801      		movw r20,r16
 490 02f6 9701      		movw r18,r14
 491 02f8 0E94 0000 		call __udivmodsi4
 492 02fc 2F5F      		subi r18,lo8(-(1))
 493 02fe 3F4F      		sbci r19,hi8(-(1))
 494 0300 4F4F      		sbci r20,hlo8(-(1))
 495 0302 5F4F      		sbci r21,hhi8(-(1))
 496 0304 5695      		lsr r21
 497 0306 4795      		ror r20
 498 0308 3795      		ror r19
 499 030a 2795      		ror r18
 500 030c 2150      		subi r18,lo8(-(-1))
 501 030e 3040      		sbci r19,hi8(-(-1))
 502 0310 AA20      		tst r10
 503 0312 01F0      		breq .L65
 504 0314 2093 9900 		sts 153,r18
 505 0318 3093 9800 		sts 152,r19
 506 031c 00C0      		rjmp .L66
 507               	.L65:
 508 031e 29B9      		out 41-32,r18
 509 0320 3093 9000 		sts 144,r19
 510               	.L66:
 511               	/* #APP */
 512               	 ;  317 "../../nut/arch/avr/dev/uartavr.c" 1
 513 0324 0FB6      		in  __tmp_reg__, __SREG__
GAS LISTING C:\DOCUME~1\ADMINI~1\LOCALS~1\Temp/ccsa7DOh.s 			page 10


 514 0326 F894      		cli
 515 0328 0F92      		push __tmp_reg__
 516               		
 517               	 ;  0 "" 2
 518               	/* #NOAPP */
 519 032a AA20      		tst r10
 520 032c 01F0      		breq .L67
 521 032e 88ED      		ldi r24,lo8(-40)
 522 0330 8093 9A00 		sts 154,r24
 523 0334 00C0      		rjmp .L68
 524               	.L67:
 525 0336 88ED      		ldi r24,lo8(-40)
 526 0338 8AB9      		out 42-32,r24
 527               	.L68:
 528               	/* #APP */
 529               	 ;  324 "../../nut/arch/avr/dev/uartavr.c" 1
 530 033a 0F90      		pop __tmp_reg__
 531 033c 0FBE      		out __SREG__, __tmp_reg__
 532               		
 533               	 ;  0 "" 2
 534               	/* #NOAPP */
 535 033e 00C0      		rjmp .L56
 536               	.L41:
 537 0340 AA20      		tst r10
 538 0342 01F0      		breq .L69
 539 0344 8091 9B00 		lds r24,155
 540 0348 81FD      		sbrc r24,1
 541 034a 00C0      		rjmp .L70
 542 034c A0E1      		ldi r26,lo8(16)
 543 034e 8A2E      		mov r8,r26
 544 0350 912C      		mov r9,__zero_reg__
 545 0352 A12C      		mov r10,__zero_reg__
 546 0354 B12C      		mov r11,__zero_reg__
 547 0356 00C0      		rjmp .L71
 548               	.L70:
 549 0358 F8E0      		ldi r31,lo8(8)
 550 035a 8F2E      		mov r8,r31
 551 035c 912C      		mov r9,__zero_reg__
 552 035e A12C      		mov r10,__zero_reg__
 553 0360 B12C      		mov r11,__zero_reg__
 554               	.L71:
 555 0362 8091 9800 		lds r24,152
 556 0366 9091 9900 		lds r25,153
 557 036a 00C0      		rjmp .L107
 558               	.L69:
 559 036c 5999      		sbic 43-32,1
 560 036e 00C0      		rjmp .L73
 561 0370 E0E1      		ldi r30,lo8(16)
 562 0372 8E2E      		mov r8,r30
 563 0374 912C      		mov r9,__zero_reg__
 564 0376 A12C      		mov r10,__zero_reg__
 565 0378 B12C      		mov r11,__zero_reg__
 566 037a 00C0      		rjmp .L74
 567               	.L73:
 568 037c 78E0      		ldi r23,lo8(8)
 569 037e 872E      		mov r8,r23
 570 0380 912C      		mov r9,__zero_reg__
GAS LISTING C:\DOCUME~1\ADMINI~1\LOCALS~1\Temp/ccsa7DOh.s 			page 11


 571 0382 A12C      		mov r10,__zero_reg__
 572 0384 B12C      		mov r11,__zero_reg__
 573               	.L74:
 574 0386 8091 9000 		lds r24,144
 575 038a 99B1      		in r25,41-32
 576               	.L107:
 577 038c 382F      		mov r19,r24
 578 038e 20E0      		ldi r18,lo8(0)
 579 0390 C92F      		mov r28,r25
 580 0392 D0E0      		ldi r29,lo8(0)
 581 0394 C22B      		or r28,r18
 582 0396 D32B      		or r29,r19
 583 0398 0E94 0000 		call NutGetCpuClock
 584 039c 7B01      		movw r14,r22
 585 039e 8C01      		movw r16,r24
 586 03a0 2196      		adiw r28,1
 587 03a2 BE01      		movw r22,r28
 588 03a4 80E0      		ldi r24,lo8(0)
 589 03a6 90E0      		ldi r25,hi8(0)
 590 03a8 A501      		movw r20,r10
 591 03aa 9401      		movw r18,r8
 592 03ac 0E94 0000 		call __mulsi3
 593 03b0 9B01      		movw r18,r22
 594 03b2 AC01      		movw r20,r24
 595 03b4 C801      		movw r24,r16
 596 03b6 B701      		movw r22,r14
 597 03b8 0E94 0000 		call __udivmodsi4
 598 03bc E601      		movw r28,r12
 599 03be 2883      		st Y,r18
 600 03c0 3983      		std Y+1,r19
 601 03c2 4A83      		std Y+2,r20
 602 03c4 5B83      		std Y+3,r21
 603 03c6 00C0      		rjmp .L56
 604               	.L42:
 605 03c8 8A2D      		mov r24,r10
 606 03ca 90E0      		ldi r25,lo8(0)
 607 03cc 0E94 0000 		call UartAvrDisable
 608 03d0 8B2D      		mov r24,r11
 609 03d2 8550      		subi r24,lo8(-(-5))
 610 03d4 8430      		cpi r24,lo8(4)
 611 03d6 00F0      		brlo .+2
 612 03d8 00C0      		rjmp .L120
 613               	.L75:
 614 03da 982F      		mov r25,r24
 615 03dc 990F      		lsl r25
 616 03de AA20      		tst r10
 617 03e0 01F0      		breq .L77
 618 03e2 8091 9D00 		lds r24,157
 619 03e6 897F      		andi r24,lo8(-7)
 620 03e8 982B      		or r25,r24
 621 03ea 9093 9D00 		sts 157,r25
 622 03ee 8091 9A00 		lds r24,154
 623 03f2 8B7F      		andi r24,lo8(-5)
 624 03f4 8093 9A00 		sts 154,r24
 625 03f8 00C0      		rjmp .L109
 626               	.L77:
 627 03fa 8091 9500 		lds r24,149
GAS LISTING C:\DOCUME~1\ADMINI~1\LOCALS~1\Temp/ccsa7DOh.s 			page 12


 628 03fe 897F      		andi r24,lo8(-7)
 629 0400 982B      		or r25,r24
 630 0402 9093 9500 		sts 149,r25
 631 0406 5298      		cbi 42-32,2
 632 0408 00C0      		rjmp .L109
 633               	.L43:
 634 040a AA20      		tst r10
 635 040c 01F0      		breq .L80
 636 040e 8091 9D00 		lds r24,157
 637 0412 90E0      		ldi r25,lo8(0)
 638 0414 8670      		andi r24,lo8(6)
 639 0416 9070      		andi r25,hi8(6)
 640 0418 9595      		asr r25
 641 041a 8795      		ror r24
 642 041c 0596      		adiw r24,5
 643 041e 00C0      		rjmp .L117
 644               	.L80:
 645 0420 8091 9500 		lds r24,149
 646 0424 90E0      		ldi r25,lo8(0)
 647 0426 8670      		andi r24,lo8(6)
 648 0428 9070      		andi r25,hi8(6)
 649 042a 9595      		asr r25
 650 042c 8795      		ror r24
 651 042e 0596      		adiw r24,5
 652 0430 00C0      		rjmp .L111
 653               	.L44:
 654 0432 8A2D      		mov r24,r10
 655 0434 90E0      		ldi r25,lo8(0)
 656 0436 0E94 0000 		call UartAvrDisable
 657 043a E2E0      		ldi r30,lo8(2)
 658 043c EB15      		cp r30,r11
 659 043e 00F0      		brlo .L120
 660 0440 F1E0      		ldi r31,lo8(1)
 661 0442 BF16      		cp r11,r31
 662 0444 01F4      		brne .L82
 663 0446 43E0      		ldi r20,lo8(3)
 664 0448 B42E      		mov r11,r20
 665               	.L82:
 666 044a 9B2D      		mov r25,r11
 667 044c 9295      		swap r25
 668 044e 907F      		andi r25,lo8(-16)
 669 0450 AA20      		tst r10
 670 0452 01F0      		breq .L83
 671 0454 8091 9D00 		lds r24,157
 672 0458 8F7C      		andi r24,lo8(-49)
 673 045a 892B      		or r24,r25
 674 045c 8093 9D00 		sts 157,r24
 675 0460 00C0      		rjmp .L84
 676               	.L83:
 677 0462 8091 9500 		lds r24,149
 678 0466 8F7C      		andi r24,lo8(-49)
 679 0468 892B      		or r24,r25
 680 046a 8093 9500 		sts 149,r24
 681               	.L84:
 682 046e 9923      		tst r25
 683 0470 01F0      		breq .L109
 684 0472 00C0      		rjmp .L120
GAS LISTING C:\DOCUME~1\ADMINI~1\LOCALS~1\Temp/ccsa7DOh.s 			page 13


 685               	.L45:
 686 0474 AA20      		tst r10
 687 0476 01F0      		breq .L88
 688 0478 8091 9D00 		lds r24,157
 689 047c 00C0      		rjmp .L56
 690               	.L88:
 691 047e 8091 9500 		lds r24,149
 692 0482 00C0      		rjmp .L56
 693               	.L46:
 694 0484 8A2D      		mov r24,r10
 695 0486 90E0      		ldi r25,lo8(0)
 696 0488 0E94 0000 		call UartAvrDisable
 697 048c 8B2D      		mov r24,r11
 698 048e 8150      		subi r24,lo8(-(-1))
 699 0490 8230      		cpi r24,lo8(2)
 700 0492 00F0      		brlo .L89
 701               	.L120:
 702 0494 2FEF      		ldi r18,lo8(-1)
 703 0496 3FEF      		ldi r19,hi8(-1)
 704 0498 00C0      		rjmp .L90
 705               	.L89:
 706 049a 982F      		mov r25,r24
 707 049c 990F      		lsl r25
 708 049e 990F      		lsl r25
 709 04a0 990F      		lsl r25
 710 04a2 AA20      		tst r10
 711 04a4 01F0      		breq .L91
 712 04a6 8091 9D00 		lds r24,157
 713 04aa 877F      		andi r24,lo8(-9)
 714 04ac 982B      		or r25,r24
 715 04ae 9093 9D00 		sts 157,r25
 716 04b2 00C0      		rjmp .L109
 717               	.L91:
 718 04b4 8091 9500 		lds r24,149
 719 04b8 877F      		andi r24,lo8(-9)
 720 04ba 982B      		or r25,r24
 721 04bc 9093 9500 		sts 149,r25
 722               	.L109:
 723 04c0 20E0      		ldi r18,lo8(0)
 724 04c2 30E0      		ldi r19,hi8(0)
 725               	.L90:
 726               	/* #APP */
 727               	 ;  317 "../../nut/arch/avr/dev/uartavr.c" 1
 728 04c4 0FB6      		in  __tmp_reg__, __SREG__
 729 04c6 F894      		cli
 730 04c8 0F92      		push __tmp_reg__
 731               		
 732               	 ;  0 "" 2
 733               	/* #NOAPP */
 734 04ca AA20      		tst r10
 735 04cc 01F0      		breq .L92
 736 04ce 88ED      		ldi r24,lo8(-40)
 737 04d0 8093 9A00 		sts 154,r24
 738 04d4 00C0      		rjmp .L93
 739               	.L92:
 740 04d6 88ED      		ldi r24,lo8(-40)
 741 04d8 8AB9      		out 42-32,r24
GAS LISTING C:\DOCUME~1\ADMINI~1\LOCALS~1\Temp/ccsa7DOh.s 			page 14


 742               	.L93:
 743               	/* #APP */
 744               	 ;  324 "../../nut/arch/avr/dev/uartavr.c" 1
 745 04da 0F90      		pop __tmp_reg__
 746 04dc 0FBE      		out __SREG__, __tmp_reg__
 747               		
 748               	 ;  0 "" 2
 749               	/* #NOAPP */
 750 04de 00C0      		rjmp .L60
 751               	.L47:
 752 04e0 AA20      		tst r10
 753 04e2 01F0      		breq .L94
 754 04e4 8091 9D00 		lds r24,157
 755 04e8 90E0      		ldi r25,lo8(0)
 756 04ea 8870      		andi r24,lo8(8)
 757 04ec 9070      		andi r25,hi8(8)
 758 04ee 33E0      		ldi r19,3
 759 04f0 9595      	1:	asr r25
 760 04f2 8795      		ror r24
 761 04f4 3A95      		dec r19
 762 04f6 01F4      		brne 1b
 763 04f8 0196      		adiw r24,1
 764               	.L111:
 765 04fa AA27      		clr r26
 766 04fc 97FD      		sbrc r25,7
 767 04fe A095      		com r26
 768 0500 BA2F      		mov r27,r26
 769               	.L113:
 770 0502 E601      		movw r28,r12
 771 0504 8883      		st Y,r24
 772 0506 9983      		std Y+1,r25
 773 0508 AA83      		std Y+2,r26
 774 050a BB83      		std Y+3,r27
 775 050c 00C0      		rjmp .L56
 776               	.L94:
 777 050e 8091 9500 		lds r24,149
 778 0512 90E0      		ldi r25,lo8(0)
 779 0514 8870      		andi r24,lo8(8)
 780 0516 9070      		andi r25,hi8(8)
 781 0518 23E0      		ldi r18,3
 782 051a 9595      	1:	asr r25
 783 051c 8795      		ror r24
 784 051e 2A95      		dec r18
 785 0520 01F4      		brne 1b
 786 0522 0196      		adiw r24,1
 787               	.L117:
 788 0524 AA27      		clr r26
 789 0526 97FD      		sbrc r25,7
 790 0528 A095      		com r26
 791 052a BA2F      		mov r27,r26
 792 052c 00C0      		rjmp .L114
 793               	.L48:
 794 052e 1F96      		adiw r26,15
 795 0530 ED91      		ld r30,X+
 796 0532 FC91      		ld r31,X
 797 0534 5097      		sbiw r26,15+1
 798 0536 E601      		movw r28,r12
GAS LISTING C:\DOCUME~1\ADMINI~1\LOCALS~1\Temp/ccsa7DOh.s 			page 15


 799 0538 1882      		st Y,__zero_reg__
 800 053a 1982      		std Y+1,__zero_reg__
 801 053c 1A82      		std Y+2,__zero_reg__
 802 053e 1B82      		std Y+3,__zero_reg__
 803 0540 1C96      		adiw r26,12
 804 0542 8D91      		ld r24,X+
 805 0544 9C91      		ld r25,X
 806 0546 1D97      		sbiw r26,12+1
 807 0548 892B      		or r24,r25
 808 054a 01F0      		breq .L95
 809 054c 8091 9B00 		lds r24,155
 810 0550 00C0      		rjmp .L96
 811               	.L95:
 812 0552 8BB1      		in r24,43-32
 813               	.L96:
 814 0554 282F      		mov r18,r24
 815 0556 30E0      		ldi r19,lo8(0)
 816 0558 82FF      		sbrs r24,2
 817 055a 00C0      		rjmp .L97
 818 055c 81E0      		ldi r24,lo8(1)
 819 055e 90E0      		ldi r25,hi8(1)
 820 0560 A0E0      		ldi r26,hlo8(1)
 821 0562 B0E0      		ldi r27,hhi8(1)
 822 0564 E601      		movw r28,r12
 823 0566 8883      		st Y,r24
 824 0568 9983      		std Y+1,r25
 825 056a AA83      		std Y+2,r26
 826 056c BB83      		std Y+3,r27
 827               	.L97:
 828 056e 2370      		andi r18,lo8(3)
 829 0570 3070      		andi r19,hi8(3)
 830 0572 232B      		or r18,r19
 831 0574 01F0      		breq .L98
 832 0576 E601      		movw r28,r12
 833 0578 8881      		ld r24,Y
 834 057a 9981      		ldd r25,Y+1
 835 057c AA81      		ldd r26,Y+2
 836 057e BB81      		ldd r27,Y+3
 837 0580 8260      		ori r24,lo8(2)
 838 0582 8883      		st Y,r24
 839 0584 9983      		std Y+1,r25
 840 0586 AA83      		std Y+2,r26
 841 0588 BB83      		std Y+3,r27
 842               	.L98:
 843 058a 9085      		ldd r25,Z+8
 844 058c 8185      		ldd r24,Z+9
 845 058e 9817      		cp r25,r24
 846 0590 01F4      		brne .L99
 847 0592 E601      		movw r28,r12
 848 0594 8881      		ld r24,Y
 849 0596 9981      		ldd r25,Y+1
 850 0598 AA81      		ldd r26,Y+2
 851 059a BB81      		ldd r27,Y+3
 852 059c 8068      		ori r24,lo8(128)
 853 059e 8883      		st Y,r24
 854 05a0 9983      		std Y+1,r25
 855 05a2 AA83      		std Y+2,r26
GAS LISTING C:\DOCUME~1\ADMINI~1\LOCALS~1\Temp/ccsa7DOh.s 			page 16


 856 05a4 BB83      		std Y+3,r27
 857               	.L99:
 858 05a6 9681      		ldd r25,Z+6
 859 05a8 8781      		ldd r24,Z+7
 860 05aa 8917      		cp r24,r25
 861 05ac 01F0      		breq .+2
 862 05ae 00C0      		rjmp .L56
 863 05b0 F601      		movw r30,r12
 864 05b2 8081      		ld r24,Z
 865 05b4 9181      		ldd r25,Z+1
 866 05b6 A281      		ldd r26,Z+2
 867 05b8 B381      		ldd r27,Z+3
 868 05ba 8064      		ori r24,lo8(64)
 869 05bc 00C0      		rjmp .L113
 870               	.L49:
 871 05be E882      		st Y,r14
 872 05c0 F982      		std Y+1,r15
 873 05c2 0A83      		std Y+2,r16
 874 05c4 1B83      		std Y+3,r17
 875 05c6 00C0      		rjmp .L56
 876               	.L50:
 877 05c8 8881      		ld r24,Y
 878 05ca 9981      		ldd r25,Y+1
 879 05cc AA81      		ldd r26,Y+2
 880 05ce BB81      		ldd r27,Y+3
 881               	.L114:
 882 05d0 F601      		movw r30,r12
 883 05d2 8083      		st Z,r24
 884 05d4 9183      		std Z+1,r25
 885 05d6 A283      		std Z+2,r26
 886 05d8 B383      		std Z+3,r27
 887 05da 00C0      		rjmp .L56
 888               	.L51:
 889 05dc EC82      		std Y+4,r14
 890 05de FD82      		std Y+5,r15
 891 05e0 0E83      		std Y+6,r16
 892 05e2 1F83      		std Y+7,r17
 893 05e4 00C0      		rjmp .L56
 894               	.L52:
 895 05e6 8C81      		ldd r24,Y+4
 896 05e8 9D81      		ldd r25,Y+5
 897 05ea AE81      		ldd r26,Y+6
 898 05ec BF81      		ldd r27,Y+7
 899 05ee 00C0      		rjmp .L113
 900               	.L54:
 901 05f0 8C85      		ldd r24,Y+12
 902 05f2 9D85      		ldd r25,Y+13
 903 05f4 AE85      		ldd r26,Y+14
 904 05f6 BF85      		ldd r27,Y+15
 905 05f8 A0FF      		sbrs r26,0
 906 05fa 00C0      		rjmp .L104
 907 05fc 00C0      		rjmp .L118
 908               	.L55:
 909 05fe 2C85      		ldd r18,Y+12
 910 0600 3D85      		ldd r19,Y+13
 911 0602 4E85      		ldd r20,Y+14
 912 0604 5F85      		ldd r21,Y+15
GAS LISTING C:\DOCUME~1\ADMINI~1\LOCALS~1\Temp/ccsa7DOh.s 			page 17


 913 0606 BB20      		tst r11
 914 0608 01F0      		breq .L102
 915 060a 4160      		ori r20,hlo8(65536)
 916 060c 00C0      		rjmp .L112
 917               	.L102:
 918 060e 4E7F      		andi r20,hlo8(-65537)
 919 0610 00C0      		rjmp .L112
 920               	.L57:
 921 0612 2C85      		ldd r18,Y+12
 922 0614 3D85      		ldd r19,Y+13
 923 0616 4E85      		ldd r20,Y+14
 924 0618 5F85      		ldd r21,Y+15
 925 061a BB20      		tst r11
 926 061c 01F0      		breq .L103
 927 061e 4260      		ori r20,hlo8(131072)
 928 0620 00C0      		rjmp .L112
 929               	.L103:
 930 0622 4D7F      		andi r20,hlo8(-131073)
 931               	.L112:
 932 0624 2C87      		std Y+12,r18
 933 0626 3D87      		std Y+13,r19
 934 0628 4E87      		std Y+14,r20
 935 062a 5F87      		std Y+15,r21
 936 062c 00C0      		rjmp .L56
 937               	.L58:
 938 062e 8C85      		ldd r24,Y+12
 939 0630 9D85      		ldd r25,Y+13
 940 0632 AE85      		ldd r26,Y+14
 941 0634 BF85      		ldd r27,Y+15
 942 0636 A1FF      		sbrs r26,1
 943 0638 00C0      		rjmp .L104
 944               	.L118:
 945 063a 81E0      		ldi r24,lo8(1)
 946 063c 90E0      		ldi r25,hi8(1)
 947 063e A0E0      		ldi r26,hlo8(1)
 948 0640 B0E0      		ldi r27,hhi8(1)
 949 0642 00C0      		rjmp .L114
 950               	.L104:
 951 0644 E601      		movw r28,r12
 952 0646 1882      		st Y,__zero_reg__
 953 0648 1982      		std Y+1,__zero_reg__
 954 064a 1A82      		std Y+2,__zero_reg__
 955 064c 1B82      		std Y+3,__zero_reg__
 956               	.L56:
 957 064e 20E0      		ldi r18,lo8(0)
 958 0650 30E0      		ldi r19,hi8(0)
 959               	.L60:
 960 0652 C901      		movw r24,r18
 961               	/* epilogue start */
 962 0654 DF91      		pop r29
 963 0656 CF91      		pop r28
 964 0658 1F91      		pop r17
 965 065a 0F91      		pop r16
 966 065c FF90      		pop r15
 967 065e EF90      		pop r14
 968 0660 DF90      		pop r13
 969 0662 CF90      		pop r12
GAS LISTING C:\DOCUME~1\ADMINI~1\LOCALS~1\Temp/ccsa7DOh.s 			page 18


 970 0664 BF90      		pop r11
 971 0666 AF90      		pop r10
 972 0668 9F90      		pop r9
 973 066a 8F90      		pop r8
 974 066c 0895      		ret
 975               		.size	UartAvrIOCtl, .-UartAvrIOCtl
 976               	.global	UartAvrInit
 977               		.type	UartAvrInit, @function
 978               	UartAvrInit:
 979 066e 0F93      		push r16
 980 0670 1F93      		push r17
 981 0672 DF93      		push r29
 982 0674 CF93      		push r28
 983 0676 00D0      		rcall .
 984 0678 00D0      		rcall .
 985 067a CDB7      		in r28,__SP_L__
 986 067c DEB7      		in r29,__SP_H__
 987               	/* prologue: function */
 988               	/* frame size = 4 */
 989 067e 8C01      		movw r16,r24
 990 0680 DC01      		movw r26,r24
 991 0682 1B96      		adiw r26,11
 992 0684 8C91      		ld r24,X
 993 0686 1B97      		sbiw r26,11
 994 0688 8230      		cpi r24,lo8(2)
 995 068a 01F0      		breq .+2
 996 068c 00C0      		rjmp .L123
 997 068e 1E96      		adiw r26,14
 998 0690 8C91      		ld r24,X
 999 0692 1E97      		sbiw r26,14
 1000 0694 8823      		tst r24
 1001 0696 01F0      		breq .+2
 1002 0698 00C0      		rjmp .L123
 1003 069a 1C96      		adiw r26,12
 1004 069c 8D91      		ld r24,X+
 1005 069e 9C91      		ld r25,X
 1006 06a0 1D97      		sbiw r26,12+1
 1007 06a2 0297      		sbiw r24,2
 1008 06a4 00F0      		brlo .+2
 1009 06a6 00C0      		rjmp .L123
 1010 06a8 1F96      		adiw r26,15
 1011 06aa ED91      		ld r30,X+
 1012 06ac FC91      		ld r31,X
 1013 06ae 5097      		sbiw r26,15+1
 1014 06b0 80E8      		ldi r24,lo8(9600)
 1015 06b2 95E2      		ldi r25,hi8(9600)
 1016 06b4 A0E0      		ldi r26,hlo8(9600)
 1017 06b6 B0E0      		ldi r27,hhi8(9600)
 1018 06b8 8983      		std Y+1,r24
 1019 06ba 9A83      		std Y+2,r25
 1020 06bc AB83      		std Y+3,r26
 1021 06be BC83      		std Y+4,r27
 1022 06c0 8CE0      		ldi r24,lo8(524)
 1023 06c2 92E0      		ldi r25,hi8(524)
 1024 06c4 DF01      		movw r26,r30
 1025 06c6 9C01      		movw r18,r24
 1026 06c8 1D92      		st X+,__zero_reg__
GAS LISTING C:\DOCUME~1\ADMINI~1\LOCALS~1\Temp/ccsa7DOh.s 			page 19


 1027 06ca 2150      		subi r18,1
 1028 06cc 3040      		sbci r19,0
 1029 06ce 01F4      		brne .-8
 1030 06d0 80E0      		ldi r24,lo8(gs(UartAvrInput))
 1031 06d2 90E0      		ldi r25,hi8(gs(UartAvrInput))
 1032 06d4 9183      		std Z+1,r25
 1033 06d6 8083      		st Z,r24
 1034 06d8 80E0      		ldi r24,lo8(gs(UartAvrOutput))
 1035 06da 90E0      		ldi r25,hi8(gs(UartAvrOutput))
 1036 06dc 9383      		std Z+3,r25
 1037 06de 8283      		std Z+2,r24
 1038 06e0 80E0      		ldi r24,lo8(gs(UartAvrFlush))
 1039 06e2 90E0      		ldi r25,hi8(gs(UartAvrFlush))
 1040 06e4 9583      		std Z+5,r25
 1041 06e6 8483      		std Z+4,r24
 1042 06e8 D801      		movw r26,r16
 1043 06ea 5196      		adiw r26,17
 1044 06ec ED91      		ld r30,X+
 1045 06ee FC91      		ld r31,X
 1046 06f0 5297      		sbiw r26,17+1
 1047 06f2 80E1      		ldi r24,lo8(16)
 1048 06f4 DF01      		movw r26,r30
 1049 06f6 1D92      		st X+,__zero_reg__
 1050 06f8 8A95      	        dec r24
 1051 06fa 01F4      		brne .-6
 1052 06fc 80E0      		ldi r24,lo8(1048576)
 1053 06fe 90E0      		ldi r25,hi8(1048576)
 1054 0700 A0E1      		ldi r26,hlo8(1048576)
 1055 0702 B0E0      		ldi r27,hhi8(1048576)
 1056 0704 8487      		std Z+12,r24
 1057 0706 9587      		std Z+13,r25
 1058 0708 A687      		std Z+14,r26
 1059 070a B787      		std Z+15,r27
 1060 070c F801      		movw r30,r16
 1061 070e 8485      		ldd r24,Z+12
 1062 0710 9585      		ldd r25,Z+13
 1063 0712 892B      		or r24,r25
 1064 0714 01F0      		breq .L124
 1065 0716 80E0      		ldi r24,lo8(sig_UART1_RECV)
 1066 0718 90E0      		ldi r25,hi8(sig_UART1_RECV)
 1067 071a 60E0      		ldi r22,lo8(gs(RxComplete))
 1068 071c 70E0      		ldi r23,hi8(gs(RxComplete))
 1069 071e A801      		movw r20,r16
 1070 0720 0E94 0000 		call NutRegisterIrqHandler
 1071 0724 892B      		or r24,r25
 1072 0726 01F4      		brne .L123
 1073 0728 80E0      		ldi r24,lo8(sig_UART1_TRANS)
 1074 072a 90E0      		ldi r25,hi8(sig_UART1_TRANS)
 1075 072c 00C0      		rjmp .L128
 1076               	.L124:
 1077 072e 80E0      		ldi r24,lo8(sig_UART0_RECV)
 1078 0730 90E0      		ldi r25,hi8(sig_UART0_RECV)
 1079 0732 60E0      		ldi r22,lo8(gs(RxComplete))
 1080 0734 70E0      		ldi r23,hi8(gs(RxComplete))
 1081 0736 A801      		movw r20,r16
 1082 0738 0E94 0000 		call NutRegisterIrqHandler
 1083 073c 892B      		or r24,r25
GAS LISTING C:\DOCUME~1\ADMINI~1\LOCALS~1\Temp/ccsa7DOh.s 			page 20


 1084 073e 01F4      		brne .L123
 1085 0740 80E0      		ldi r24,lo8(sig_UART0_TRANS)
 1086 0742 90E0      		ldi r25,hi8(sig_UART0_TRANS)
 1087               	.L128:
 1088 0744 60E0      		ldi r22,lo8(gs(TxComplete))
 1089 0746 70E0      		ldi r23,hi8(gs(TxComplete))
 1090 0748 A801      		movw r20,r16
 1091 074a 0E94 0000 		call NutRegisterIrqHandler
 1092 074e 892B      		or r24,r25
 1093 0750 01F4      		brne .L123
 1094 0752 C801      		movw r24,r16
 1095 0754 61E0      		ldi r22,lo8(257)
 1096 0756 71E0      		ldi r23,hi8(257)
 1097 0758 AE01      		movw r20,r28
 1098 075a 4F5F      		subi r20,lo8(-(1))
 1099 075c 5F4F      		sbci r21,hi8(-(1))
 1100 075e 0E94 0000 		call UartAvrIOCtl
 1101 0762 20E0      		ldi r18,lo8(0)
 1102 0764 30E0      		ldi r19,hi8(0)
 1103 0766 00C0      		rjmp .L126
 1104               	.L123:
 1105 0768 2FEF      		ldi r18,lo8(-1)
 1106 076a 3FEF      		ldi r19,hi8(-1)
 1107               	.L126:
 1108 076c C901      		movw r24,r18
 1109               	/* epilogue start */
 1110 076e 0F90      		pop __tmp_reg__
 1111 0770 0F90      		pop __tmp_reg__
 1112 0772 0F90      		pop __tmp_reg__
 1113 0774 0F90      		pop __tmp_reg__
 1114 0776 CF91      		pop r28
 1115 0778 DF91      		pop r29
 1116 077a 1F91      		pop r17
 1117 077c 0F91      		pop r16
 1118 077e 0895      		ret
 1119               		.size	UartAvrInit, .-UartAvrInit
 1120               	.global	UartAvrFlush
 1121               		.type	UartAvrFlush, @function
 1122               	UartAvrFlush:
 1123 0780 0F93      		push r16
 1124 0782 1F93      		push r17
 1125 0784 CF93      		push r28
 1126 0786 DF93      		push r29
 1127               	/* prologue: function */
 1128               	/* frame size = 0 */
 1129 0788 FC01      		movw r30,r24
 1130 078a 0785      		ldd r16,Z+15
 1131 078c 1089      		ldd r17,Z+16
 1132 078e C189      		ldd r28,Z+17
 1133 0790 D289      		ldd r29,Z+18
 1134 0792 0E94 0000 		call UartAvrOutput
 1135 0796 892B      		or r24,r25
 1136 0798 01F0      		breq .L130
 1137 079a 2FEF      		ldi r18,lo8(-1)
 1138 079c 3FEF      		ldi r19,hi8(-1)
 1139 079e 00C0      		rjmp .L131
 1140               	.L130:
GAS LISTING C:\DOCUME~1\ADMINI~1\LOCALS~1\Temp/ccsa7DOh.s 			page 21


 1141               	/* #APP */
 1142               	 ;  274 "../../nut/arch/avr/dev/uartavr.c" 1
 1143 07a0 0FB6      		in  __tmp_reg__, __SREG__
 1144 07a2 F894      		cli
 1145 07a4 0F92      		push __tmp_reg__
 1146               		
 1147               	 ;  0 "" 2
 1148               	/* #NOAPP */
 1149 07a6 2896      		adiw r28,8
 1150 07a8 00C0      		rjmp .L132
 1151               	.L133:
 1152 07aa CE01      		movw r24,r28
 1153 07ac 44E6      		ldi r20,lo8(100)
 1154 07ae 50E0      		ldi r21,hi8(100)
 1155 07b0 60E0      		ldi r22,hlo8(100)
 1156 07b2 70E0      		ldi r23,hhi8(100)
 1157 07b4 0E94 0000 		call NutEventWait
 1158               	.L132:
 1159 07b8 F801      		movw r30,r16
 1160 07ba 9085      		ldd r25,Z+8
 1161 07bc 8185      		ldd r24,Z+9
 1162 07be 9817      		cp r25,r24
 1163 07c0 01F4      		brne .L133
 1164               	/* #APP */
 1165               	 ;  277 "../../nut/arch/avr/dev/uartavr.c" 1
 1166 07c2 0F90      		pop __tmp_reg__
 1167 07c4 0FBE      		out __SREG__, __tmp_reg__
 1168               		
 1169               	 ;  0 "" 2
 1170               	/* #NOAPP */
 1171 07c6 20E0      		ldi r18,lo8(0)
 1172 07c8 30E0      		ldi r19,hi8(0)
 1173               	.L131:
 1174 07ca C901      		movw r24,r18
 1175               	/* epilogue start */
 1176 07cc DF91      		pop r29
 1177 07ce CF91      		pop r28
 1178 07d0 1F91      		pop r17
 1179 07d2 0F91      		pop r16
 1180 07d4 0895      		ret
 1181               		.size	UartAvrFlush, .-UartAvrFlush
 1182               	.global	UartAvrPut
 1183               		.type	UartAvrPut, @function
 1184               	UartAvrPut:
 1185 07d6 2F92      		push r2
 1186 07d8 3F92      		push r3
 1187 07da 4F92      		push r4
 1188 07dc 5F92      		push r5
 1189 07de 6F92      		push r6
 1190 07e0 7F92      		push r7
 1191 07e2 8F92      		push r8
 1192 07e4 9F92      		push r9
 1193 07e6 AF92      		push r10
 1194 07e8 BF92      		push r11
 1195 07ea CF92      		push r12
 1196 07ec DF92      		push r13
 1197 07ee EF92      		push r14
GAS LISTING C:\DOCUME~1\ADMINI~1\LOCALS~1\Temp/ccsa7DOh.s 			page 22


 1198 07f0 FF92      		push r15
 1199 07f2 0F93      		push r16
 1200 07f4 1F93      		push r17
 1201 07f6 DF93      		push r29
 1202 07f8 CF93      		push r28
 1203 07fa 00D0      		rcall .
 1204 07fc CDB7      		in r28,__SP_L__
 1205 07fe DEB7      		in r29,__SP_H__
 1206               	/* prologue: function */
 1207               	/* frame size = 2 */
 1208 0800 6C01      		movw r12,r24
 1209 0802 FB01      		movw r30,r22
 1210 0804 3A01      		movw r6,r20
 1211 0806 4901      		movw r8,r18
 1212 0808 DC01      		movw r26,r24
 1213 080a 1F96      		adiw r26,15
 1214 080c 0D91      		ld r16,X+
 1215 080e 1C91      		ld r17,X
 1216 0810 5097      		sbiw r26,15+1
 1217 0812 5196      		adiw r26,17
 1218 0814 AD90      		ld r10,X+
 1219 0816 BC90      		ld r11,X
 1220 0818 5297      		sbiw r26,17+1
 1221 081a D501      		movw r26,r10
 1222 081c 1C96      		adiw r26,12
 1223 081e 2D91      		ld r18,X+
 1224 0820 3D91      		ld r19,X+
 1225 0822 4D91      		ld r20,X+
 1226 0824 5C91      		ld r21,X
 1227 0826 1F97      		sbiw r26,12+3
 1228 0828 6115      		cp r22,__zero_reg__
 1229 082a 7105      		cpc r23,__zero_reg__
 1230 082c 01F4      		brne .L136
 1231 082e 0E94 0000 		call UartAvrFlush
 1232 0832 2C01      		movw r4,r24
 1233 0834 00C0      		rjmp .L137
 1234               	.L136:
 1235 0836 1901      		movw r2,r18
 1236 0838 2A01      		movw r4,r20
 1237 083a 75E1      		ldi r23,21
 1238 083c 5694      	1:	lsr r5
 1239 083e 4794      		ror r4
 1240 0840 3794      		ror r3
 1241 0842 2794      		ror r2
 1242 0844 7A95      		dec r23
 1243 0846 01F4      		brne 1b
 1244 0848 B22D      		mov r27,r2
 1245 084a B170      		andi r27,lo8(1)
 1246 084c BA83      		std Y+2,r27
 1247 084e 61E1      		ldi r22,17
 1248 0850 5695      	1:	lsr r21
 1249 0852 4795      		ror r20
 1250 0854 3795      		ror r19
 1251 0856 2795      		ror r18
 1252 0858 6A95      		dec r22
 1253 085a 01F4      		brne 1b
 1254 085c 822F      		mov r24,r18
GAS LISTING C:\DOCUME~1\ADMINI~1\LOCALS~1\Temp/ccsa7DOh.s 			page 23


 1255 085e 8170      		andi r24,lo8(1)
 1256 0860 8983      		std Y+1,r24
 1257 0862 7F01      		movw r14,r30
 1258 0864 4424      		clr r4
 1259 0866 5524      		clr r5
 1260 0868 00C0      		rjmp .L138
 1261               	.L147:
 1262 086a D801      		movw r26,r16
 1263 086c 1896      		adiw r26,8
 1264 086e 9C91      		ld r25,X
 1265 0870 1897      		sbiw r26,8
 1266 0872 1996      		adiw r26,9
 1267 0874 8C91      		ld r24,X
 1268 0876 8F5F      		subi r24,lo8(-(1))
 1269 0878 8917      		cp r24,r25
 1270 087a 01F4      		brne .L139
 1271 087c C601      		movw r24,r12
 1272 087e 0E94 0000 		call UartAvrFlush
 1273 0882 892B      		or r24,r25
 1274 0884 01F0      		breq .+2
 1275 0886 00C0      		rjmp .L140
 1276               	.L139:
 1277 0888 8114      		cp r8,__zero_reg__
 1278 088a 9104      		cpc r9,__zero_reg__
 1279 088c 01F0      		breq .L141
 1280 088e F701      		movw r30,r14
 1281               	/* #APP */
 1282               	 ;  799 "../../nut/arch/avr/dev/uartavr.c" 1
 1283 0890 9491      		lpm r25, Z
 1284               		
 1285               	 ;  0 "" 2
 1286               	/* #NOAPP */
 1287 0892 00C0      		rjmp .L142
 1288               	.L141:
 1289 0894 D701      		movw r26,r14
 1290 0896 9C91      		ld r25,X
 1291               	.L142:
 1292 0898 B981      		ldd r27,Y+1
 1293 089a B130      		cpi r27,lo8(1)
 1294 089c 01F4      		brne .L143
 1295 089e 9A30      		cpi r25,lo8(10)
 1296 08a0 01F4      		brne .L144
 1297 08a2 EA81      		ldd r30,Y+2
 1298 08a4 E130      		cpi r30,lo8(1)
 1299 08a6 01F4      		brne .L145
 1300 08a8 F2E0      		ldi r31,lo8(2)
 1301 08aa FA83      		std Y+2,r31
 1302 08ac F983      		std Y+1,r31
 1303 08ae 00C0      		rjmp .L150
 1304               	.L145:
 1305 08b0 82E0      		ldi r24,lo8(2)
 1306 08b2 8983      		std Y+1,r24
 1307               	.L150:
 1308 08b4 9DE0      		ldi r25,lo8(13)
 1309 08b6 00C0      		rjmp .L146
 1310               	.L143:
 1311 08b8 A981      		ldd r26,Y+1
GAS LISTING C:\DOCUME~1\ADMINI~1\LOCALS~1\Temp/ccsa7DOh.s 			page 24


 1312 08ba A230      		cpi r26,lo8(2)
 1313 08bc 01F4      		brne .L144
 1314 08be B1E0      		ldi r27,lo8(1)
 1315 08c0 B983      		std Y+1,r27
 1316               	.L144:
 1317 08c2 0894      		sec
 1318 08c4 E11C      		adc r14,__zero_reg__
 1319 08c6 F11C      		adc r15,__zero_reg__
 1320 08c8 0894      		sec
 1321 08ca 411C      		adc r4,__zero_reg__
 1322 08cc 511C      		adc r5,__zero_reg__
 1323               	.L146:
 1324 08ce F801      		movw r30,r16
 1325 08d0 8185      		ldd r24,Z+9
 1326 08d2 E80F      		add r30,r24
 1327 08d4 F11D      		adc r31,__zero_reg__
 1328 08d6 E45F      		subi r30,lo8(-(268))
 1329 08d8 FE4F      		sbci r31,hi8(-(268))
 1330 08da 9083      		st Z,r25
 1331 08dc 8F5F      		subi r24,lo8(-(1))
 1332 08de D801      		movw r26,r16
 1333 08e0 1996      		adiw r26,9
 1334 08e2 8C93      		st X,r24
 1335               	.L138:
 1336 08e4 4614      		cp r4,r6
 1337 08e6 5704      		cpc r5,r7
 1338 08e8 04F4      		brge .+2
 1339 08ea 00C0      		rjmp .L147
 1340 08ec BA81      		ldd r27,Y+2
 1341 08ee B230      		cpi r27,lo8(2)
 1342 08f0 00F4      		brsh .L148
 1343 08f2 F501      		movw r30,r10
 1344 08f4 8485      		ldd r24,Z+12
 1345 08f6 9585      		ldd r25,Z+13
 1346 08f8 A685      		ldd r26,Z+14
 1347 08fa B785      		ldd r27,Z+15
 1348 08fc A4FF      		sbrs r26,4
 1349 08fe 00C0      		rjmp .L137
 1350               	.L148:
 1351 0900 C601      		movw r24,r12
 1352 0902 0E94 0000 		call UartAvrFlush
 1353 0906 892B      		or r24,r25
 1354 0908 01F0      		breq .L137
 1355               	.L140:
 1356 090a 4424      		clr r4
 1357 090c 4A94      		dec r4
 1358 090e 542C      		mov r5,r4
 1359               	.L137:
 1360 0910 C201      		movw r24,r4
 1361               	/* epilogue start */
 1362 0912 0F90      		pop __tmp_reg__
 1363 0914 0F90      		pop __tmp_reg__
 1364 0916 CF91      		pop r28
 1365 0918 DF91      		pop r29
 1366 091a 1F91      		pop r17
 1367 091c 0F91      		pop r16
 1368 091e FF90      		pop r15
GAS LISTING C:\DOCUME~1\ADMINI~1\LOCALS~1\Temp/ccsa7DOh.s 			page 25


 1369 0920 EF90      		pop r14
 1370 0922 DF90      		pop r13
 1371 0924 CF90      		pop r12
 1372 0926 BF90      		pop r11
 1373 0928 AF90      		pop r10
 1374 092a 9F90      		pop r9
 1375 092c 8F90      		pop r8
 1376 092e 7F90      		pop r7
 1377 0930 6F90      		pop r6
 1378 0932 5F90      		pop r5
 1379 0934 4F90      		pop r4
 1380 0936 3F90      		pop r3
 1381 0938 2F90      		pop r2
 1382 093a 0895      		ret
 1383               		.size	UartAvrPut, .-UartAvrPut
 1384               	.global	UartAvrWrite_P
 1385               		.type	UartAvrWrite_P, @function
 1386               	UartAvrWrite_P:
 1387               	/* prologue: function */
 1388               	/* frame size = 0 */
 1389 093c FC01      		movw r30,r24
 1390 093e 8281      		ldd r24,Z+2
 1391 0940 9381      		ldd r25,Z+3
 1392 0942 21E0      		ldi r18,lo8(1)
 1393 0944 30E0      		ldi r19,hi8(1)
 1394 0946 0E94 0000 		call UartAvrPut
 1395               	/* epilogue start */
 1396 094a 0895      		ret
 1397               		.size	UartAvrWrite_P, .-UartAvrWrite_P
 1398               	.global	UartAvrWrite
 1399               		.type	UartAvrWrite, @function
 1400               	UartAvrWrite:
 1401               	/* prologue: function */
 1402               	/* frame size = 0 */
 1403 094c FC01      		movw r30,r24
 1404 094e 8281      		ldd r24,Z+2
 1405 0950 9381      		ldd r25,Z+3
 1406 0952 20E0      		ldi r18,lo8(0)
 1407 0954 30E0      		ldi r19,hi8(0)
 1408 0956 0E94 0000 		call UartAvrPut
 1409               	/* epilogue start */
 1410 095a 0895      		ret
 1411               		.size	UartAvrWrite, .-UartAvrWrite
 1412               	.global	UartAvrInput
 1413               		.type	UartAvrInput, @function
 1414               	UartAvrInput:
 1415 095c EF92      		push r14
 1416 095e FF92      		push r15
 1417 0960 0F93      		push r16
 1418 0962 1F93      		push r17
 1419 0964 CF93      		push r28
 1420 0966 DF93      		push r29
 1421               	/* prologue: function */
 1422               	/* frame size = 0 */
 1423 0968 FC01      		movw r30,r24
 1424 096a C785      		ldd r28,Z+15
 1425 096c D089      		ldd r29,Z+16
GAS LISTING C:\DOCUME~1\ADMINI~1\LOCALS~1\Temp/ccsa7DOh.s 			page 26


 1426 096e 0189      		ldd r16,Z+17
 1427 0970 1289      		ldd r17,Z+18
 1428               	/* #APP */
 1429               	 ;  189 "../../nut/arch/avr/dev/uartavr.c" 1
 1430 0972 0FB6      		in  __tmp_reg__, __SREG__
 1431 0974 F894      		cli
 1432 0976 0F92      		push __tmp_reg__
 1433               		
 1434               	 ;  0 "" 2
 1435               	/* #NOAPP */
 1436 0978 9E81      		ldd r25,Y+6
 1437               	/* #APP */
 1438               	 ;  191 "../../nut/arch/avr/dev/uartavr.c" 1
 1439 097a 0F90      		pop __tmp_reg__
 1440 097c 0FBE      		out __SREG__, __tmp_reg__
 1441               		
 1442               	 ;  0 "" 2
 1443               	/* #NOAPP */
 1444 097e 8F81      		ldd r24,Y+7
 1445 0980 8917      		cp r24,r25
 1446 0982 01F0      		breq .L156
 1447 0984 20E0      		ldi r18,lo8(0)
 1448 0986 30E0      		ldi r19,hi8(0)
 1449 0988 00C0      		rjmp .L157
 1450               	.L156:
 1451 098a EAE0      		ldi r30,lo8(10)
 1452 098c EE2E      		mov r14,r30
 1453 098e F12C      		mov r15,__zero_reg__
 1454 0990 E00E      		add r14,r16
 1455 0992 F11E      		adc r15,r17
 1456               	.L158:
 1457 0994 F801      		movw r30,r16
 1458 0996 4081      		ld r20,Z
 1459 0998 5181      		ldd r21,Z+1
 1460 099a 6281      		ldd r22,Z+2
 1461 099c 7381      		ldd r23,Z+3
 1462 099e C701      		movw r24,r14
 1463 09a0 0E94 0000 		call NutEventWait
 1464 09a4 9C01      		movw r18,r24
 1465               	/* #APP */
 1466               	 ;  209 "../../nut/arch/avr/dev/uartavr.c" 1
 1467 09a6 0FB6      		in  __tmp_reg__, __SREG__
 1468 09a8 F894      		cli
 1469 09aa 0F92      		push __tmp_reg__
 1470               		
 1471               	 ;  0 "" 2
 1472               	/* #NOAPP */
 1473 09ac 9F81      		ldd r25,Y+7
 1474 09ae 8E81      		ldd r24,Y+6
 1475               	/* #APP */
 1476               	 ;  211 "../../nut/arch/avr/dev/uartavr.c" 1
 1477 09b0 0F90      		pop __tmp_reg__
 1478 09b2 0FBE      		out __SREG__, __tmp_reg__
 1479               		
 1480               	 ;  0 "" 2
 1481               	/* #NOAPP */
 1482 09b4 2115      		cp r18,__zero_reg__
GAS LISTING C:\DOCUME~1\ADMINI~1\LOCALS~1\Temp/ccsa7DOh.s 			page 27


 1483 09b6 3105      		cpc r19,__zero_reg__
 1484 09b8 01F4      		brne .L157
 1485 09ba 9817      		cp r25,r24
 1486 09bc 01F0      		breq .L158
 1487               	.L157:
 1488 09be C901      		movw r24,r18
 1489               	/* epilogue start */
 1490 09c0 DF91      		pop r29
 1491 09c2 CF91      		pop r28
 1492 09c4 1F91      		pop r17
 1493 09c6 0F91      		pop r16
 1494 09c8 FF90      		pop r15
 1495 09ca EF90      		pop r14
 1496 09cc 0895      		ret
 1497               		.size	UartAvrInput, .-UartAvrInput
 1498               	.global	UartAvrRead
 1499               		.type	UartAvrRead, @function
 1500               	UartAvrRead:
 1501 09ce 5F92      		push r5
 1502 09d0 6F92      		push r6
 1503 09d2 7F92      		push r7
 1504 09d4 8F92      		push r8
 1505 09d6 9F92      		push r9
 1506 09d8 AF92      		push r10
 1507 09da BF92      		push r11
 1508 09dc CF92      		push r12
 1509 09de DF92      		push r13
 1510 09e0 EF92      		push r14
 1511 09e2 FF92      		push r15
 1512 09e4 0F93      		push r16
 1513 09e6 1F93      		push r17
 1514 09e8 CF93      		push r28
 1515 09ea DF93      		push r29
 1516               	/* prologue: function */
 1517               	/* frame size = 0 */
 1518 09ec 3A01      		movw r6,r20
 1519 09ee DC01      		movw r26,r24
 1520 09f0 1296      		adiw r26,2
 1521 09f2 8D90      		ld r8,X+
 1522 09f4 9C90      		ld r9,X
 1523 09f6 1397      		sbiw r26,2+1
 1524 09f8 F401      		movw r30,r8
 1525 09fa C785      		ldd r28,Z+15
 1526 09fc D089      		ldd r29,Z+16
 1527 09fe 0188      		ldd __tmp_reg__,Z+17
 1528 0a00 F289      		ldd r31,Z+18
 1529 0a02 E02D      		mov r30,__tmp_reg__
 1530 0a04 C484      		ldd r12,Z+12
 1531 0a06 D584      		ldd r13,Z+13
 1532 0a08 E684      		ldd r14,Z+14
 1533 0a0a F784      		ldd r15,Z+15
 1534 0a0c 80E0      		ldi r24,lo8(131072)
 1535 0a0e 90E0      		ldi r25,hi8(131072)
 1536 0a10 A2E0      		ldi r26,hlo8(131072)
 1537 0a12 B0E0      		ldi r27,hhi8(131072)
 1538 0a14 C822      		and r12,r24
 1539 0a16 D922      		and r13,r25
GAS LISTING C:\DOCUME~1\ADMINI~1\LOCALS~1\Temp/ccsa7DOh.s 			page 28


 1540 0a18 EA22      		and r14,r26
 1541 0a1a FB22      		and r15,r27
 1542 0a1c 6115      		cp r22,__zero_reg__
 1543 0a1e 7105      		cpc r23,__zero_reg__
 1544 0a20 01F0      		breq .L162
 1545 0a22 5B01      		movw r10,r22
 1546 0a24 00E0      		ldi r16,lo8(0)
 1547 0a26 10E0      		ldi r17,hi8(0)
 1548 0a28 FAE0      		ldi r31,lo8(10)
 1549 0a2a 5F2E      		mov r5,r31
 1550 0a2c 00C0      		rjmp .L175
 1551               	.L162:
 1552 0a2e 8E81      		ldd r24,Y+6
 1553 0a30 8F83      		std Y+7,r24
 1554 0a32 00E0      		ldi r16,lo8(0)
 1555 0a34 10E0      		ldi r17,hi8(0)
 1556 0a36 00C0      		rjmp .L164
 1557               	.L171:
 1558 0a38 9E81      		ldd r25,Y+6
 1559 0a3a 8F81      		ldd r24,Y+7
 1560 0a3c 8917      		cp r24,r25
 1561 0a3e 01F4      		brne .L165
 1562 0a40 0115      		cp r16,__zero_reg__
 1563 0a42 1105      		cpc r17,__zero_reg__
 1564 0a44 01F0      		breq .L176
 1565 0a46 00C0      		rjmp .L164
 1566               	.L167:
 1567 0a48 C401      		movw r24,r8
 1568 0a4a 0E94 0000 		call UartAvrInput
 1569 0a4e 892B      		or r24,r25
 1570 0a50 01F4      		brne .L164
 1571               	.L176:
 1572 0a52 9E81      		ldd r25,Y+6
 1573 0a54 8F81      		ldd r24,Y+7
 1574 0a56 8917      		cp r24,r25
 1575 0a58 01F0      		breq .L167
 1576               	.L165:
 1577 0a5a 8F81      		ldd r24,Y+7
 1578 0a5c FE01      		movw r30,r28
 1579 0a5e E80F      		add r30,r24
 1580 0a60 F11D      		adc r31,__zero_reg__
 1581 0a62 9485      		ldd r25,Z+12
 1582 0a64 8F5F      		subi r24,lo8(-(1))
 1583 0a66 8F83      		std Y+7,r24
 1584 0a68 C114      		cp r12,__zero_reg__
 1585 0a6a D104      		cpc r13,__zero_reg__
 1586 0a6c E104      		cpc r14,__zero_reg__
 1587 0a6e F104      		cpc r15,__zero_reg__
 1588 0a70 01F0      		breq .L168
 1589 0a72 9D30      		cpi r25,lo8(13)
 1590 0a74 01F0      		breq .L169
 1591 0a76 9A30      		cpi r25,lo8(10)
 1592 0a78 01F4      		brne .L168
 1593               	.L169:
 1594 0a7a 8B85      		ldd r24,Y+11
 1595 0a7c 8823      		tst r24
 1596 0a7e 01F0      		breq .L170
GAS LISTING C:\DOCUME~1\ADMINI~1\LOCALS~1\Temp/ccsa7DOh.s 			page 29


 1597 0a80 8917      		cp r24,r25
 1598 0a82 01F4      		brne .L175
 1599               	.L170:
 1600 0a84 9B87      		std Y+11,r25
 1601 0a86 D501      		movw r26,r10
 1602 0a88 5D92      		st X+,r5
 1603 0a8a 5D01      		movw r10,r26
 1604 0a8c 00C0      		rjmp .L177
 1605               	.L168:
 1606 0a8e 1B86      		std Y+11,__zero_reg__
 1607 0a90 F501      		movw r30,r10
 1608 0a92 9193      		st Z+,r25
 1609 0a94 5F01      		movw r10,r30
 1610               	.L177:
 1611 0a96 0F5F      		subi r16,lo8(-(1))
 1612 0a98 1F4F      		sbci r17,hi8(-(1))
 1613               	.L175:
 1614 0a9a 0615      		cp r16,r6
 1615 0a9c 1705      		cpc r17,r7
 1616 0a9e 04F0      		brlt .L171
 1617               	.L164:
 1618 0aa0 C801      		movw r24,r16
 1619               	/* epilogue start */
 1620 0aa2 DF91      		pop r29
 1621 0aa4 CF91      		pop r28
 1622 0aa6 1F91      		pop r17
 1623 0aa8 0F91      		pop r16
 1624 0aaa FF90      		pop r15
 1625 0aac EF90      		pop r14
 1626 0aae DF90      		pop r13
 1627 0ab0 CF90      		pop r12
 1628 0ab2 BF90      		pop r11
 1629 0ab4 AF90      		pop r10
 1630 0ab6 9F90      		pop r9
 1631 0ab8 8F90      		pop r8
 1632 0aba 7F90      		pop r7
 1633 0abc 6F90      		pop r6
 1634 0abe 5F90      		pop r5
 1635 0ac0 0895      		ret
 1636               		.size	UartAvrRead, .-UartAvrRead
 1637               	.global __do_copy_data
GAS LISTING C:\DOCUME~1\ADMINI~1\LOCALS~1\Temp/ccsa7DOh.s 			page 30


DEFINED SYMBOLS
                            *ABS*:00000000 uartavr.c
C:\DOCUME~1\ADMINI~1\LOCALS~1\Temp/ccsa7DOh.s:2      *ABS*:0000003f __SREG__
C:\DOCUME~1\ADMINI~1\LOCALS~1\Temp/ccsa7DOh.s:3      *ABS*:0000003e __SP_H__
C:\DOCUME~1\ADMINI~1\LOCALS~1\Temp/ccsa7DOh.s:4      *ABS*:0000003d __SP_L__
C:\DOCUME~1\ADMINI~1\LOCALS~1\Temp/ccsa7DOh.s:5      *ABS*:00000034 __CCP__
C:\DOCUME~1\ADMINI~1\LOCALS~1\Temp/ccsa7DOh.s:6      *ABS*:00000000 __tmp_reg__
C:\DOCUME~1\ADMINI~1\LOCALS~1\Temp/ccsa7DOh.s:7      *ABS*:00000001 __zero_reg__
C:\DOCUME~1\ADMINI~1\LOCALS~1\Temp/ccsa7DOh.s:10     .text:00000000 TxComplete
C:\DOCUME~1\ADMINI~1\LOCALS~1\Temp/ccsa7DOh.s:90     .text:0000008e RxComplete
C:\DOCUME~1\ADMINI~1\LOCALS~1\Temp/ccsa7DOh.s:159    .text:00000104 UartAvrOutput
C:\DOCUME~1\ADMINI~1\LOCALS~1\Temp/ccsa7DOh.s:223    .text:00000172 UartAvrSize
C:\DOCUME~1\ADMINI~1\LOCALS~1\Temp/ccsa7DOh.s:245    .text:00000190 UartAvrClose
C:\DOCUME~1\ADMINI~1\LOCALS~1\Temp/ccsa7DOh.s:259    .text:000001a0 UartAvrOpen
C:\DOCUME~1\ADMINI~1\LOCALS~1\Temp/ccsa7DOh.s:323    .text:0000020e UartAvrDisable
C:\DOCUME~1\ADMINI~1\LOCALS~1\Temp/ccsa7DOh.s:375    .text:00000256 UartAvrIOCtl
C:\DOCUME~1\ADMINI~1\LOCALS~1\Temp/ccsa7DOh.s:978    .text:0000066e UartAvrInit
C:\DOCUME~1\ADMINI~1\LOCALS~1\Temp/ccsa7DOh.s:1414   .text:0000095c UartAvrInput
C:\DOCUME~1\ADMINI~1\LOCALS~1\Temp/ccsa7DOh.s:1122   .text:00000780 UartAvrFlush
C:\DOCUME~1\ADMINI~1\LOCALS~1\Temp/ccsa7DOh.s:1184   .text:000007d6 UartAvrPut
C:\DOCUME~1\ADMINI~1\LOCALS~1\Temp/ccsa7DOh.s:1386   .text:0000093c UartAvrWrite_P
C:\DOCUME~1\ADMINI~1\LOCALS~1\Temp/ccsa7DOh.s:1400   .text:0000094c UartAvrWrite
C:\DOCUME~1\ADMINI~1\LOCALS~1\Temp/ccsa7DOh.s:1500   .text:000009ce UartAvrRead

UNDEFINED SYMBOLS
heapFreeList
NutHeapRootFree
NutHeapRootAlloc
NutDelay
devUart0
NutGetCpuClock
__udivmodsi4
__mulsi3
sig_UART1_RECV
NutRegisterIrqHandler
sig_UART1_TRANS
sig_UART0_RECV
sig_UART0_TRANS
NutEventWait
__do_copy_data
