GAS LISTING C:\Temp/ccTEJrYC.s 			page 1


   1               		.file	"arpin.c"
   2               	__SREG__ = 0x3f
   3               	__SP_H__ = 0x3e
   4               	__SP_L__ = 0x3d
   5               	__CCP__  = 0x34
   6               	__tmp_reg__ = 0
   7               	__zero_reg__ = 1
   8               		.global __do_copy_data
   9               		.global __do_clear_bss
  10               		.text
  11               	.global	NutArpInput
  12               		.type	NutArpInput, @function
  13               	NutArpInput:
  14 0000 CF92      		push r12
  15 0002 DF92      		push r13
  16 0004 EF92      		push r14
  17 0006 FF92      		push r15
  18 0008 0F93      		push r16
  19 000a 1F93      		push r17
  20 000c CF93      		push r28
  21 000e DF93      		push r29
  22               	/* prologue: function */
  23               	/* frame size = 0 */
  24 0010 6C01      		movw r12,r24
  25 0012 8B01      		movw r16,r22
  26 0014 DB01      		movw r26,r22
  27 0016 1996      		adiw r26,9
  28 0018 8D91      		ld r24,X+
  29 001a 9C91      		ld r25,X
  30 001c 1A97      		sbiw r26,9+1
  31 001e 4C97      		sbiw r24,28
  32 0020 00F4      		brsh .+2
  33 0022 00C0      		rjmp .L7
  34               	.L2:
  35 0024 FB01      		movw r30,r22
  36 0026 C781      		ldd r28,Z+7
  37 0028 D085      		ldd r29,Z+8
  38 002a 8881      		ld r24,Y
  39 002c 9981      		ldd r25,Y+1
  40               	/* #APP */
  41               	 ;  295 "../../nut/include/sys/types.h" 1
  42 002e 082E      		mov __tmp_reg__, r24
  43 0030 892F      		mov r24, r25
  44 0032 902D      		mov r25, __tmp_reg__
  45               		
  46               	 ;  0 "" 2
  47               	/* #NOAPP */
  48 0034 0197      		sbiw r24,1
  49 0036 01F0      		breq .+2
  50 0038 00C0      		rjmp .L7
  51 003a 8A81      		ldd r24,Y+2
  52 003c 9B81      		ldd r25,Y+3
  53               	/* #APP */
  54               	 ;  295 "../../nut/include/sys/types.h" 1
  55 003e 082E      		mov __tmp_reg__, r24
  56 0040 892F      		mov r24, r25
  57 0042 902D      		mov r25, __tmp_reg__
GAS LISTING C:\Temp/ccTEJrYC.s 			page 2


  58               		
  59               	 ;  0 "" 2
  60               	/* #NOAPP */
  61 0044 8050      		subi r24,lo8(2048)
  62 0046 9840      		sbci r25,hi8(2048)
  63 0048 01F0      		breq .+2
  64 004a 00C0      		rjmp .L7
  65 004c 8C81      		ldd r24,Y+4
  66 004e 8630      		cpi r24,lo8(6)
  67 0050 01F0      		breq .+2
  68 0052 00C0      		rjmp .L7
  69 0054 8D81      		ldd r24,Y+5
  70 0056 8430      		cpi r24,lo8(4)
  71 0058 01F0      		breq .+2
  72 005a 00C0      		rjmp .L7
  73               	.L5:
  74 005c D601      		movw r26,r12
  75 005e 1F96      		adiw r26,15
  76 0060 ED91      		ld r30,X+
  77 0062 FC91      		ld r31,X
  78 0064 5097      		sbiw r26,15+1
  79 0066 288D      		ldd r18,Y+24
  80 0068 398D      		ldd r19,Y+25
  81 006a 4A8D      		ldd r20,Y+26
  82 006c 5B8D      		ldd r21,Y+27
  83 006e 8385      		ldd r24,Z+11
  84 0070 9485      		ldd r25,Z+12
  85 0072 A585      		ldd r26,Z+13
  86 0074 B685      		ldd r27,Z+14
  87 0076 2817      		cp r18,r24
  88 0078 3907      		cpc r19,r25
  89 007a 4A07      		cpc r20,r26
  90 007c 5B07      		cpc r21,r27
  91 007e 01F4      		brne .L7
  92               	.L6:
  93 0080 88E0      		ldi r24,lo8(8)
  94 0082 E82E      		mov r14,r24
  95 0084 F12C      		mov r15,__zero_reg__
  96 0086 EC0E      		add r14,r28
  97 0088 FD1E      		adc r15,r29
  98 008a 4E85      		ldd r20,Y+14
  99 008c 5F85      		ldd r21,Y+15
 100 008e 6889      		ldd r22,Y+16
 101 0090 7989      		ldd r23,Y+17
 102 0092 9701      		movw r18,r14
 103 0094 C601      		movw r24,r12
 104 0096 0E94 0000 		call NutArpCacheUpdate
 105 009a 8E81      		ldd r24,Y+6
 106 009c 9F81      		ldd r25,Y+7
 107               	/* #APP */
 108               	 ;  295 "../../nut/include/sys/types.h" 1
 109 009e 082E      		mov __tmp_reg__, r24
 110 00a0 892F      		mov r24, r25
 111 00a2 902D      		mov r25, __tmp_reg__
 112               		
 113               	 ;  0 "" 2
 114               	/* #NOAPP */
GAS LISTING C:\Temp/ccTEJrYC.s 			page 3


 115 00a4 0197      		sbiw r24,1
 116 00a6 01F4      		brne .L7
 117 00a8 4E85      		ldd r20,Y+14
 118 00aa 5F85      		ldd r21,Y+15
 119 00ac 6889      		ldd r22,Y+16
 120 00ae 7989      		ldd r23,Y+17
 121 00b0 9701      		movw r18,r14
 122 00b2 82E0      		ldi r24,lo8(2)
 123 00b4 90E0      		ldi r25,hi8(2)
 124 00b6 0E94 0000 		call NutArpAllocNetBuf
 125 00ba EC01      		movw r28,r24
 126 00bc 0097      		sbiw r24,0
 127 00be 01F0      		breq .L7
 128 00c0 BC01      		movw r22,r24
 129 00c2 C601      		movw r24,r12
 130 00c4 0E94 0000 		call NutArpOutput
 131 00c8 892B      		or r24,r25
 132 00ca 01F4      		brne .L7
 133 00cc CE01      		movw r24,r28
 134 00ce 0E94 0000 		call NutNetBufFree
 135               	.L7:
 136 00d2 C801      		movw r24,r16
 137 00d4 0E94 0000 		call NutNetBufFree
 138               	/* epilogue start */
 139 00d8 DF91      		pop r29
 140 00da CF91      		pop r28
 141 00dc 1F91      		pop r17
 142 00de 0F91      		pop r16
 143 00e0 FF90      		pop r15
 144 00e2 EF90      		pop r14
 145 00e4 DF90      		pop r13
 146 00e6 CF90      		pop r12
 147 00e8 0895      		ret
 148               		.size	NutArpInput, .-NutArpInput
GAS LISTING C:\Temp/ccTEJrYC.s 			page 4


DEFINED SYMBOLS
                            *ABS*:00000000 arpin.c
  C:\Temp/ccTEJrYC.s:2      *ABS*:0000003f __SREG__
  C:\Temp/ccTEJrYC.s:3      *ABS*:0000003e __SP_H__
  C:\Temp/ccTEJrYC.s:4      *ABS*:0000003d __SP_L__
  C:\Temp/ccTEJrYC.s:5      *ABS*:00000034 __CCP__
  C:\Temp/ccTEJrYC.s:6      *ABS*:00000000 __tmp_reg__
  C:\Temp/ccTEJrYC.s:7      *ABS*:00000001 __zero_reg__
  C:\Temp/ccTEJrYC.s:13     .text:00000000 NutArpInput

UNDEFINED SYMBOLS
__do_copy_data
__do_clear_bss
NutArpCacheUpdate
NutArpAllocNetBuf
NutArpOutput
NutNetBufFree
