GAS LISTING C:\Temp/ccPIRzhk.s 			page 1


   1               		.file	"inet.c"
   2               	__SREG__ = 0x3f
   3               	__SP_H__ = 0x3e
   4               	__SP_L__ = 0x3d
   5               	__CCP__  = 0x34
   6               	__tmp_reg__ = 0
   7               	__zero_reg__ = 1
   8               		.global __do_copy_data
   9               		.global __do_clear_bss
  10               		.text
  11               	.global	inet_addr
  12               		.type	inet_addr, @function
  13               	inet_addr:
  14 0000 DF93      		push r29
  15 0002 CF93      		push r28
  16 0004 00D0      		rcall .
  17 0006 00D0      		rcall .
  18 0008 CDB7      		in r28,__SP_L__
  19 000a DEB7      		in r29,__SP_H__
  20               	/* prologue: function */
  21               	/* frame size = 4 */
  22 000c FC01      		movw r30,r24
  23 000e 1982      		std Y+1,__zero_reg__
  24 0010 1A82      		std Y+2,__zero_reg__
  25 0012 1B82      		std Y+3,__zero_reg__
  26 0014 1C82      		std Y+4,__zero_reg__
  27 0016 DE01      		movw r26,r28
  28 0018 1196      		adiw r26,1
  29 001a 40E0      		ldi r20,lo8(0)
  30               	.L7:
  31 001c 8081      		ld r24,Z
  32 001e 8053      		subi r24,lo8(-(-48))
  33 0020 8A30      		cpi r24,lo8(10)
  34 0022 00F4      		brsh .L2
  35 0024 20E0      		ldi r18,lo8(0)
  36 0026 30E0      		ldi r19,hi8(0)
  37               	.L4:
  38 0028 C901      		movw r24,r18
  39 002a 63E0      		ldi r22,3
  40 002c 880F      	1:	lsl r24
  41 002e 991F      		rol r25
  42 0030 6A95      		dec r22
  43 0032 01F4      		brne 1b
  44 0034 220F      		lsl r18
  45 0036 331F      		rol r19
  46 0038 820F      		add r24,r18
  47 003a 931F      		adc r25,r19
  48 003c 2191      		ld r18,Z+
  49 003e 3327      		clr r19
  50 0040 27FD      		sbrc r18,7
  51 0042 3095      		com r19
  52 0044 2053      		subi r18,lo8(-(-48))
  53 0046 3040      		sbci r19,hi8(-(-48))
  54 0048 280F      		add r18,r24
  55 004a 391F      		adc r19,r25
  56 004c 8081      		ld r24,Z
  57 004e 8033      		cpi r24,lo8(48)
GAS LISTING C:\Temp/ccPIRzhk.s 			page 2


  58 0050 04F0      		brlt .L3
  59 0052 8A33      		cpi r24,lo8(58)
  60 0054 04F4      		brge .L3
  61 0056 2F3F      		cpi r18,255
  62 0058 3105      		cpc r19,__zero_reg__
  63 005a 01F0      		breq .L4
  64 005c 00F0      		brlo .L4
  65 005e 00C0      		rjmp .L2
  66               	.L3:
  67 0060 2F3F      		cpi r18,255
  68 0062 3105      		cpc r19,__zero_reg__
  69 0064 01F0      		breq .+2
  70 0066 00F4      		brsh .L2
  71 0068 4F5F      		subi r20,lo8(-(1))
  72 006a 2C93      		st X,r18
  73 006c 8081      		ld r24,Z
  74 006e 8E32      		cpi r24,lo8(46)
  75 0070 01F0      		breq .L5
  76 0072 4430      		cpi r20,lo8(4)
  77 0074 01F4      		brne .L2
  78 0076 2981      		ldd r18,Y+1
  79 0078 3A81      		ldd r19,Y+2
  80 007a 4B81      		ldd r20,Y+3
  81 007c 5C81      		ldd r21,Y+4
  82 007e 00C0      		rjmp .L6
  83               	.L5:
  84 0080 4430      		cpi r20,lo8(4)
  85 0082 01F0      		breq .L2
  86 0084 1196      		adiw r26,1
  87 0086 3196      		adiw r30,1
  88 0088 00C0      		rjmp .L7
  89               	.L2:
  90 008a 2FEF      		ldi r18,lo8(-1)
  91 008c 3FEF      		ldi r19,hi8(-1)
  92 008e 4FEF      		ldi r20,hlo8(-1)
  93 0090 5FEF      		ldi r21,hhi8(-1)
  94               	.L6:
  95 0092 B901      		movw r22,r18
  96 0094 CA01      		movw r24,r20
  97               	/* epilogue start */
  98 0096 0F90      		pop __tmp_reg__
  99 0098 0F90      		pop __tmp_reg__
 100 009a 0F90      		pop __tmp_reg__
 101 009c 0F90      		pop __tmp_reg__
 102 009e CF91      		pop r28
 103 00a0 DF91      		pop r29
 104 00a2 0895      		ret
 105               		.size	inet_addr, .-inet_addr
 106               	.global	inet_ntoa
 107               		.type	inet_ntoa, @function
 108               	inet_ntoa:
 109 00a4 AF92      		push r10
 110 00a6 BF92      		push r11
 111 00a8 CF92      		push r12
 112 00aa DF92      		push r13
 113 00ac EF92      		push r14
 114 00ae FF92      		push r15
GAS LISTING C:\Temp/ccPIRzhk.s 			page 3


 115 00b0 0F93      		push r16
 116 00b2 1F93      		push r17
 117 00b4 DF93      		push r29
 118 00b6 CF93      		push r28
 119 00b8 CDB7      		in r28,__SP_L__
 120 00ba DEB7      		in r29,__SP_H__
 121 00bc 2797      		sbiw r28,7
 122 00be 0FB6      		in __tmp_reg__,__SREG__
 123 00c0 F894      		cli
 124 00c2 DEBF      		out __SP_H__,r29
 125 00c4 0FBE      		out __SREG__,__tmp_reg__
 126 00c6 CDBF      		out __SP_L__,r28
 127               	/* prologue: function */
 128               	/* frame size = 7 */
 129 00c8 6C83      		std Y+4,r22
 130 00ca 7D83      		std Y+5,r23
 131 00cc 8E83      		std Y+6,r24
 132 00ce 9F83      		std Y+7,r25
 133 00d0 E4E0      		ldi r30,lo8(4)
 134 00d2 EE2E      		mov r14,r30
 135 00d4 F12C      		mov r15,__zero_reg__
 136 00d6 EC0E      		add r14,r28
 137 00d8 FD1E      		adc r15,r29
 138 00da 00E0      		ldi r16,lo8(str.1551)
 139 00dc 10E0      		ldi r17,hi8(str.1551)
 140 00de 6E01      		movw r12,r28
 141 00e0 0894      		sec
 142 00e2 C11C      		adc r12,__zero_reg__
 143 00e4 D11C      		adc r13,__zero_reg__
 144 00e6 5EE2      		ldi r21,lo8(46)
 145 00e8 77E0      		ldi r23,lo8(7)
 146 00ea A72E      		mov r10,r23
 147 00ec B12C      		mov r11,__zero_reg__
 148 00ee AC0E      		add r10,r28
 149 00f0 BD1E      		adc r11,r29
 150               	.L15:
 151 00f2 D701      		movw r26,r14
 152 00f4 4C91      		ld r20,X
 153 00f6 30E0      		ldi r19,lo8(0)
 154               	.L11:
 155 00f8 842F      		mov r24,r20
 156 00fa 6AE0      		ldi r22,lo8(10)
 157 00fc 0E94 0000 		call __udivmodqi4
 158 0100 292F      		mov r18,r25
 159 0102 842F      		mov r24,r20
 160 0104 0E94 0000 		call __udivmodqi4
 161 0108 482F      		mov r20,r24
 162 010a F601      		movw r30,r12
 163 010c E30F      		add r30,r19
 164 010e F11D      		adc r31,__zero_reg__
 165 0110 205D      		subi r18,lo8(-(48))
 166 0112 2083      		st Z,r18
 167 0114 3F5F      		subi r19,lo8(-(1))
 168 0116 8823      		tst r24
 169 0118 01F4      		brne .L11
 170 011a 932F      		mov r25,r19
 171 011c F701      		movw r30,r14
GAS LISTING C:\Temp/ccPIRzhk.s 			page 4


 172 011e 1082      		st Z,__zero_reg__
 173 0120 D801      		movw r26,r16
 174 0122 00C0      		rjmp .L12
 175               	.L13:
 176 0124 3150      		subi r19,lo8(-(-1))
 177 0126 F601      		movw r30,r12
 178 0128 E30F      		add r30,r19
 179 012a F11D      		adc r31,__zero_reg__
 180 012c 8081      		ld r24,Z
 181 012e 8D93      		st X+,r24
 182               	.L12:
 183 0130 3323      		tst r19
 184 0132 01F4      		brne .L13
 185 0134 F801      		movw r30,r16
 186 0136 E90F      		add r30,r25
 187 0138 F11D      		adc r31,__zero_reg__
 188 013a DF01      		movw r26,r30
 189 013c 5D93      		st X+,r21
 190 013e 8D01      		movw r16,r26
 191 0140 EA14      		cp r14,r10
 192 0142 FB04      		cpc r15,r11
 193 0144 01F0      		breq .L14
 194 0146 0894      		sec
 195 0148 E11C      		adc r14,__zero_reg__
 196 014a F11C      		adc r15,__zero_reg__
 197 014c 00C0      		rjmp .L15
 198               	.L14:
 199 014e 1082      		st Z,__zero_reg__
 200 0150 80E0      		ldi r24,lo8(str.1551)
 201 0152 90E0      		ldi r25,hi8(str.1551)
 202               	/* epilogue start */
 203 0154 2796      		adiw r28,7
 204 0156 0FB6      		in __tmp_reg__,__SREG__
 205 0158 F894      		cli
 206 015a DEBF      		out __SP_H__,r29
 207 015c 0FBE      		out __SREG__,__tmp_reg__
 208 015e CDBF      		out __SP_L__,r28
 209 0160 CF91      		pop r28
 210 0162 DF91      		pop r29
 211 0164 1F91      		pop r17
 212 0166 0F91      		pop r16
 213 0168 FF90      		pop r15
 214 016a EF90      		pop r14
 215 016c DF90      		pop r13
 216 016e CF90      		pop r12
 217 0170 BF90      		pop r11
 218 0172 AF90      		pop r10
 219 0174 0895      		ret
 220               		.size	inet_ntoa, .-inet_ntoa
 221               		.lcomm str.1551,16
GAS LISTING C:\Temp/ccPIRzhk.s 			page 5


DEFINED SYMBOLS
                            *ABS*:00000000 inet.c
  C:\Temp/ccPIRzhk.s:2      *ABS*:0000003f __SREG__
  C:\Temp/ccPIRzhk.s:3      *ABS*:0000003e __SP_H__
  C:\Temp/ccPIRzhk.s:4      *ABS*:0000003d __SP_L__
  C:\Temp/ccPIRzhk.s:5      *ABS*:00000034 __CCP__
  C:\Temp/ccPIRzhk.s:6      *ABS*:00000000 __tmp_reg__
  C:\Temp/ccPIRzhk.s:7      *ABS*:00000001 __zero_reg__
  C:\Temp/ccPIRzhk.s:13     .text:00000000 inet_addr
  C:\Temp/ccPIRzhk.s:108    .text:000000a4 inet_ntoa
                             .bss:00000000 str.1551

UNDEFINED SYMBOLS
__do_copy_data
__do_clear_bss
__udivmodqi4
