GAS LISTING C:\Temp/ccBOJrYC.s 			page 1


   1               		.file	"netdebug.c"
   2               	__SREG__ = 0x3f
   3               	__SP_H__ = 0x3e
   4               	__SP_L__ = 0x3d
   5               	__CCP__  = 0x34
   6               	__tmp_reg__ = 0
   7               	__zero_reg__ = 1
   8               		.global __do_copy_data
   9               		.global __do_clear_bss
  10               		.text
  11               	.global	NutTraceTcp
  12               		.type	NutTraceTcp, @function
  13               	NutTraceTcp:
  14               	/* prologue: function */
  15               	/* frame size = 0 */
  16 0000 0097      		sbiw r24,0
  17 0002 01F0      		breq .L2
  18 0004 9093 0000 		sts (__tcp_trs)+1,r25
  19 0008 8093 0000 		sts __tcp_trs,r24
  20               	.L2:
  21 000c 8091 0000 		lds r24,__tcp_trs
  22 0010 9091 0000 		lds r25,(__tcp_trs)+1
  23 0014 892B      		or r24,r25
  24 0016 01F0      		breq .L3
  25 0018 6093 0000 		sts __tcp_trf,r22
  26 001c 0895      		ret
  27               	.L3:
  28 001e 1092 0000 		sts __tcp_trf,__zero_reg__
  29 0022 0895      		ret
  30               		.size	NutTraceTcp, .-NutTraceTcp
  31               		.data
  32               	.LC0:
  33 0000 4C49 5354 		.string	"LISTEN"
  33      454E 00
  34               	.LC1:
  35 0007 5359 4E53 		.string	"SYNSENT"
  35      454E 5400 
  36               	.LC2:
  37 000f 5359 4E52 		.string	"SYNRCVD"
  37      4356 4400 
  38               	.LC3:
  39 0017 4553 5441 		.string	"ESTABL"
  39      424C 00
  40               	.LC4:
  41 001e 4649 4E57 		.string	"FINWAIT1"
  41      4149 5431 
  41      00
  42               	.LC5:
  43 0027 4649 4E57 		.string	"FINWAIT2"
  43      4149 5432 
  43      00
  44               	.LC6:
  45 0030 434C 4F53 		.string	"CLOSEWAIT"
  45      4557 4149 
  45      5400 
  46               	.LC7:
  47 003a 434C 4F53 		.string	"CLOSING"
GAS LISTING C:\Temp/ccBOJrYC.s 			page 2


  47      494E 4700 
  48               	.LC8:
  49 0042 4C41 5354 		.string	"LASTACK"
  49      4143 4B00 
  50               	.LC9:
  51 004a 5449 4D45 		.string	"TIMEWAIT"
  51      5741 4954 
  51      00
  52               	.LC10:
  53 0053 434C 4F53 		.string	"CLOSED"
  53      4544 00
  54               	.LC11:
  55 005a 3F55 4E4B 		.string	"?UNK?"
  55      3F00 
  56               		.text
  57               	.global	NutDumpSockState
  58               		.type	NutDumpSockState, @function
  59               	NutDumpSockState:
  60 0024 EF92      		push r14
  61 0026 FF92      		push r15
  62 0028 1F93      		push r17
  63 002a CF93      		push r28
  64 002c DF93      		push r29
  65               	/* prologue: function */
  66               	/* frame size = 0 */
  67 002e EC01      		movw r28,r24
  68 0030 162F      		mov r17,r22
  69 0032 7901      		movw r14,r18
  70 0034 4115      		cp r20,__zero_reg__
  71 0036 5105      		cpc r21,__zero_reg__
  72 0038 01F0      		breq .L7
  73 003a BC01      		movw r22,r24
  74 003c CA01      		movw r24,r20
  75 003e 0E94 0000 		call fputs
  76               	.L7:
  77 0042 1530      		cpi r17,lo8(5)
  78 0044 01F0      		breq .L14
  79 0046 1630      		cpi r17,lo8(6)
  80 0048 00F4      		brsh .L20
  81 004a 1230      		cpi r17,lo8(2)
  82 004c 01F0      		breq .L11
  83 004e 1330      		cpi r17,lo8(3)
  84 0050 00F4      		brsh .L21
  85 0052 1123      		tst r17
  86 0054 01F4      		brne .+2
  87 0056 00C0      		rjmp .L9
  88 0058 1130      		cpi r17,lo8(1)
  89 005a 01F0      		breq .+2
  90 005c 00C0      		rjmp .L8
  91 005e 00C0      		rjmp .L27
  92               	.L21:
  93 0060 1330      		cpi r17,lo8(3)
  94 0062 01F0      		breq .L12
  95 0064 1430      		cpi r17,lo8(4)
  96 0066 01F4      		brne .L8
  97 0068 00C0      		rjmp .L28
  98               	.L20:
GAS LISTING C:\Temp/ccBOJrYC.s 			page 3


  99 006a 1830      		cpi r17,lo8(8)
 100 006c 01F0      		breq .L17
 101 006e 1930      		cpi r17,lo8(9)
 102 0070 00F4      		brsh .L22
 103 0072 1630      		cpi r17,lo8(6)
 104 0074 01F0      		breq .L15
 105 0076 1730      		cpi r17,lo8(7)
 106 0078 01F4      		brne .L8
 107 007a 00C0      		rjmp .L29
 108               	.L22:
 109 007c 1930      		cpi r17,lo8(9)
 110 007e 01F0      		breq .L18
 111 0080 1A30      		cpi r17,lo8(10)
 112 0082 01F4      		brne .L8
 113 0084 00C0      		rjmp .L30
 114               	.L27:
 115 0086 BE01      		movw r22,r28
 116 0088 80E0      		ldi r24,lo8(.LC0)
 117 008a 90E0      		ldi r25,hi8(.LC0)
 118 008c 00C0      		rjmp .L26
 119               	.L11:
 120 008e BE01      		movw r22,r28
 121 0090 80E0      		ldi r24,lo8(.LC1)
 122 0092 90E0      		ldi r25,hi8(.LC1)
 123 0094 00C0      		rjmp .L26
 124               	.L12:
 125 0096 BE01      		movw r22,r28
 126 0098 80E0      		ldi r24,lo8(.LC2)
 127 009a 90E0      		ldi r25,hi8(.LC2)
 128 009c 00C0      		rjmp .L26
 129               	.L28:
 130 009e BE01      		movw r22,r28
 131 00a0 80E0      		ldi r24,lo8(.LC3)
 132 00a2 90E0      		ldi r25,hi8(.LC3)
 133 00a4 00C0      		rjmp .L26
 134               	.L15:
 135 00a6 BE01      		movw r22,r28
 136 00a8 80E0      		ldi r24,lo8(.LC4)
 137 00aa 90E0      		ldi r25,hi8(.LC4)
 138 00ac 00C0      		rjmp .L26
 139               	.L18:
 140 00ae BE01      		movw r22,r28
 141 00b0 80E0      		ldi r24,lo8(.LC5)
 142 00b2 90E0      		ldi r25,hi8(.LC5)
 143 00b4 00C0      		rjmp .L26
 144               	.L14:
 145 00b6 BE01      		movw r22,r28
 146 00b8 80E0      		ldi r24,lo8(.LC6)
 147 00ba 90E0      		ldi r25,hi8(.LC6)
 148 00bc 00C0      		rjmp .L26
 149               	.L29:
 150 00be BE01      		movw r22,r28
 151 00c0 80E0      		ldi r24,lo8(.LC7)
 152 00c2 90E0      		ldi r25,hi8(.LC7)
 153 00c4 00C0      		rjmp .L26
 154               	.L17:
 155 00c6 BE01      		movw r22,r28
GAS LISTING C:\Temp/ccBOJrYC.s 			page 4


 156 00c8 80E0      		ldi r24,lo8(.LC8)
 157 00ca 90E0      		ldi r25,hi8(.LC8)
 158 00cc 00C0      		rjmp .L26
 159               	.L30:
 160 00ce BE01      		movw r22,r28
 161 00d0 80E0      		ldi r24,lo8(.LC9)
 162 00d2 90E0      		ldi r25,hi8(.LC9)
 163 00d4 00C0      		rjmp .L26
 164               	.L9:
 165 00d6 BE01      		movw r22,r28
 166 00d8 80E0      		ldi r24,lo8(.LC10)
 167 00da 90E0      		ldi r25,hi8(.LC10)
 168 00dc 00C0      		rjmp .L26
 169               	.L8:
 170 00de BE01      		movw r22,r28
 171 00e0 80E0      		ldi r24,lo8(.LC11)
 172 00e2 90E0      		ldi r25,hi8(.LC11)
 173               	.L26:
 174 00e4 0E94 0000 		call fputs
 175 00e8 E114      		cp r14,__zero_reg__
 176 00ea F104      		cpc r15,__zero_reg__
 177 00ec 01F0      		breq .L25
 178 00ee BE01      		movw r22,r28
 179 00f0 C701      		movw r24,r14
 180 00f2 0E94 0000 		call fputs
 181               	.L25:
 182               	/* epilogue start */
 183 00f6 DF91      		pop r29
 184 00f8 CF91      		pop r28
 185 00fa 1F91      		pop r17
 186 00fc FF90      		pop r15
 187 00fe EF90      		pop r14
 188 0100 0895      		ret
 189               		.size	NutDumpSockState, .-NutDumpSockState
 190               		.data
 191               	.LC12:
 192 0060 0D0A 536F 		.ascii	"\r\nSoc"
 192      63
 193 0065 6B65 7420 		.string	"ket     Typ Local                  Remote                 State\n"
 193      2020 2020 
 193      5479 7020 
 193      4C6F 6361 
 193      6C20 2020 
 194               	.LC13:
 195 00a6 2531 3573 		.string	"%15s:%-6u "
 195      3A25 2D36 
 195      7520 00
 196               	.LC14:
 197 00b1 0D0A 00   		.string	"\r\n"
 198               		.text
 199               	.global	NutDumpSocketList
 200               		.type	NutDumpSocketList, @function
 201               	NutDumpSocketList:
 202 0102 AF92      		push r10
 203 0104 BF92      		push r11
 204 0106 CF92      		push r12
 205 0108 DF92      		push r13
GAS LISTING C:\Temp/ccBOJrYC.s 			page 5


 206 010a EF92      		push r14
 207 010c FF92      		push r15
 208 010e 0F93      		push r16
 209 0110 1F93      		push r17
 210 0112 CF93      		push r28
 211 0114 DF93      		push r29
 212               	/* prologue: function */
 213               	/* frame size = 0 */
 214 0116 7C01      		movw r14,r24
 215 0118 BC01      		movw r22,r24
 216 011a 80E0      		ldi r24,lo8(.LC12)
 217 011c 90E0      		ldi r25,hi8(.LC12)
 218 011e 0E94 0000 		call fputs
 219 0122 C091 0000 		lds r28,tcpSocketList
 220 0126 D091 0000 		lds r29,(tcpSocketList)+1
 221 012a 90E0      		ldi r25,lo8(fmt1.2224)
 222 012c A92E      		mov r10,r25
 223 012e 90E0      		ldi r25,hi8(fmt1.2224)
 224 0130 B92E      		mov r11,r25
 225 0132 80E0      		ldi r24,lo8(.LC13)
 226 0134 C82E      		mov r12,r24
 227 0136 80E0      		ldi r24,hi8(.LC13)
 228 0138 D82E      		mov r13,r24
 229 013a 00C0      		rjmp .L32
 230               	.L33:
 231 013c 088D      		ldd r16,Y+24
 232 013e 198D      		ldd r17,Y+25
 233               	/* #APP */
 234               	 ;  295 "../../nut/include/sys/types.h" 1
 235 0140 002E      		mov __tmp_reg__, r16
 236 0142 012F      		mov r16, r17
 237 0144 102D      		mov r17, __tmp_reg__
 238               		
 239               	 ;  0 "" 2
 240               	/* #NOAPP */
 241 0146 6C89      		ldd r22,Y+20
 242 0148 7D89      		ldd r23,Y+21
 243 014a 8E89      		ldd r24,Y+22
 244 014c 9F89      		ldd r25,Y+23
 245 014e 0E94 0000 		call inet_ntoa
 246 0152 1F93      		push r17
 247 0154 0F93      		push r16
 248 0156 9F93      		push r25
 249 0158 8F93      		push r24
 250 015a DF93      		push r29
 251 015c CF93      		push r28
 252 015e BF92      		push r11
 253 0160 AF92      		push r10
 254 0162 FF92      		push r15
 255 0164 EF92      		push r14
 256 0166 0E94 0000 		call fprintf_P
 257 016a 0E8D      		ldd r16,Y+30
 258 016c 1F8D      		ldd r17,Y+31
 259               	/* #APP */
 260               	 ;  295 "../../nut/include/sys/types.h" 1
 261 016e 002E      		mov __tmp_reg__, r16
 262 0170 012F      		mov r16, r17
GAS LISTING C:\Temp/ccBOJrYC.s 			page 6


 263 0172 102D      		mov r17, __tmp_reg__
 264               		
 265               	 ;  0 "" 2
 266               	/* #NOAPP */
 267 0174 6A8D      		ldd r22,Y+26
 268 0176 7B8D      		ldd r23,Y+27
 269 0178 8C8D      		ldd r24,Y+28
 270 017a 9D8D      		ldd r25,Y+29
 271 017c 0E94 0000 		call inet_ntoa
 272 0180 1F93      		push r17
 273 0182 0F93      		push r16
 274 0184 9F93      		push r25
 275 0186 8F93      		push r24
 276 0188 DF92      		push r13
 277 018a CF92      		push r12
 278 018c FF92      		push r15
 279 018e EF92      		push r14
 280 0190 0E94 0000 		call fprintf
 281 0194 6B89      		ldd r22,Y+19
 282 0196 20E0      		ldi r18,lo8(.LC14)
 283 0198 30E0      		ldi r19,hi8(.LC14)
 284 019a 40E0      		ldi r20,lo8(0)
 285 019c 50E0      		ldi r21,hi8(0)
 286 019e C701      		movw r24,r14
 287 01a0 0E94 0000 		call NutDumpSockState
 288 01a4 0990      		ld __tmp_reg__,Y+
 289 01a6 D881      		ld r29,Y
 290 01a8 C02D      		mov r28,__tmp_reg__
 291 01aa 8DB7      		in r24,__SP_L__
 292 01ac 9EB7      		in r25,__SP_H__
 293 01ae 4296      		adiw r24,18
 294 01b0 0FB6      		in __tmp_reg__,__SREG__
 295 01b2 F894      		cli
 296 01b4 9EBF      		out __SP_H__,r25
 297 01b6 0FBE      		out __SREG__,__tmp_reg__
 298 01b8 8DBF      		out __SP_L__,r24
 299               	.L32:
 300 01ba 2097      		sbiw r28,0
 301 01bc 01F0      		breq .+2
 302 01be 00C0      		rjmp .L33
 303 01c0 C091 0000 		lds r28,udpSocketList
 304 01c4 D091 0000 		lds r29,(udpSocketList)+1
 305 01c8 00E0      		ldi r16,lo8(fmt2.2225)
 306 01ca 10E0      		ldi r17,hi8(fmt2.2225)
 307 01cc 00C0      		rjmp .L34
 308               	.L35:
 309 01ce 8A81      		ldd r24,Y+2
 310 01d0 9B81      		ldd r25,Y+3
 311               	/* #APP */
 312               	 ;  295 "../../nut/include/sys/types.h" 1
 313 01d2 082E      		mov __tmp_reg__, r24
 314 01d4 892F      		mov r24, r25
 315 01d6 902D      		mov r25, __tmp_reg__
 316               		
 317               	 ;  0 "" 2
 318               	/* #NOAPP */
 319 01d8 9F93      		push r25
GAS LISTING C:\Temp/ccBOJrYC.s 			page 7


 320 01da 8F93      		push r24
 321 01dc DF93      		push r29
 322 01de CF93      		push r28
 323 01e0 1F93      		push r17
 324 01e2 0F93      		push r16
 325 01e4 FF92      		push r15
 326 01e6 EF92      		push r14
 327 01e8 0E94 0000 		call fprintf_P
 328 01ec 0990      		ld __tmp_reg__,Y+
 329 01ee D881      		ld r29,Y
 330 01f0 C02D      		mov r28,__tmp_reg__
 331 01f2 8DB7      		in r24,__SP_L__
 332 01f4 9EB7      		in r25,__SP_H__
 333 01f6 0896      		adiw r24,8
 334 01f8 0FB6      		in __tmp_reg__,__SREG__
 335 01fa F894      		cli
 336 01fc 9EBF      		out __SP_H__,r25
 337 01fe 0FBE      		out __SREG__,__tmp_reg__
 338 0200 8DBF      		out __SP_L__,r24
 339               	.L34:
 340 0202 2097      		sbiw r28,0
 341 0204 01F4      		brne .L35
 342               	/* epilogue start */
 343 0206 DF91      		pop r29
 344 0208 CF91      		pop r28
 345 020a 1F91      		pop r17
 346 020c 0F91      		pop r16
 347 020e FF90      		pop r15
 348 0210 EF90      		pop r14
 349 0212 DF90      		pop r13
 350 0214 CF90      		pop r12
 351 0216 BF90      		pop r11
 352 0218 AF90      		pop r10
 353 021a 0895      		ret
 354               		.size	NutDumpSocketList, .-NutDumpSocketList
 355               		.data
 356               	.LC15:
 357 00b4 2D41 434B 		.string	"-ACK(%lx)"
 357      2825 6C78 
 357      2900 
 358               	.LC16:
 359 00be 2D46 494E 		.string	"-FIN"
 359      00
 360               	.LC17:
 361 00c3 2D53 594E 		.string	"-SYN"
 361      00
 362               	.LC18:
 363 00c8 2D52 5354 		.string	"-RST"
 363      00
 364               	.LC19:
 365 00cd 2D50 5348 		.string	"-PSH"
 365      00
 366               	.LC20:
 367 00d2 2D55 5247 		.string	"-URG"
 367      00
 368               		.text
 369               	.global	NutDumpTcpHeader
GAS LISTING C:\Temp/ccBOJrYC.s 			page 8


 370               		.type	NutDumpTcpHeader, @function
 371               	NutDumpTcpHeader:
 372 021c 0F93      		push r16
 373 021e 1F93      		push r17
 374 0220 CF93      		push r28
 375 0222 DF93      		push r29
 376               	/* prologue: function */
 377               	/* frame size = 0 */
 378 0224 8C01      		movw r16,r24
 379 0226 F901      		movw r30,r18
 380 0228 C385      		ldd r28,Z+11
 381 022a D485      		ldd r29,Z+12
 382 022c 8C81      		ldd r24,Y+4
 383 022e 9D81      		ldd r25,Y+5
 384 0230 AE81      		ldd r26,Y+6
 385 0232 BF81      		ldd r27,Y+7
 386               	/* #APP */
 387               	 ;  305 "../../nut/include/sys/types.h" 1
 388 0234 082E      		mov __tmp_reg__, r24
 389 0236 8B2F      		mov r24, r27
 390 0238 B02D      		mov r27, __tmp_reg__
 391 023a 092E      		mov __tmp_reg__, r25
 392 023c 9A2F      		mov r25, r26
 393 023e A02D      		mov r26, __tmp_reg__
 394               		
 395               	 ;  0 "" 2
 396               	/* #NOAPP */
 397 0240 BF93      		push r27
 398 0242 AF93      		push r26
 399 0244 9F93      		push r25
 400 0246 8F93      		push r24
 401 0248 8189      		ldd r24,Z+17
 402 024a 9289      		ldd r25,Z+18
 403 024c 9F93      		push r25
 404 024e 8F93      		push r24
 405 0250 5F93      		push r21
 406 0252 4F93      		push r20
 407 0254 7F93      		push r23
 408 0256 6F93      		push r22
 409 0258 80E0      		ldi r24,lo8(fmt.2181)
 410 025a 90E0      		ldi r25,hi8(fmt.2181)
 411 025c 9F93      		push r25
 412 025e 8F93      		push r24
 413 0260 1F93      		push r17
 414 0262 0F93      		push r16
 415 0264 0E94 0000 		call fprintf_P
 416 0268 8D85      		ldd r24,Y+13
 417 026a 2DB7      		in r18,__SP_L__
 418 026c 3EB7      		in r19,__SP_H__
 419 026e 225F      		subi r18,lo8(-(14))
 420 0270 3F4F      		sbci r19,hi8(-(14))
 421 0272 0FB6      		in __tmp_reg__,__SREG__
 422 0274 F894      		cli
 423 0276 3EBF      		out __SP_H__,r19
 424 0278 0FBE      		out __SREG__,__tmp_reg__
 425 027a 2DBF      		out __SP_L__,r18
 426 027c 84FF      		sbrs r24,4
GAS LISTING C:\Temp/ccBOJrYC.s 			page 9


 427 027e 00C0      		rjmp .L38
 428 0280 8885      		ldd r24,Y+8
 429 0282 9985      		ldd r25,Y+9
 430 0284 AA85      		ldd r26,Y+10
 431 0286 BB85      		ldd r27,Y+11
 432               	/* #APP */
 433               	 ;  305 "../../nut/include/sys/types.h" 1
 434 0288 082E      		mov __tmp_reg__, r24
 435 028a 8B2F      		mov r24, r27
 436 028c B02D      		mov r27, __tmp_reg__
 437 028e 092E      		mov __tmp_reg__, r25
 438 0290 9A2F      		mov r25, r26
 439 0292 A02D      		mov r26, __tmp_reg__
 440               		
 441               	 ;  0 "" 2
 442               	/* #NOAPP */
 443 0294 BF93      		push r27
 444 0296 AF93      		push r26
 445 0298 9F93      		push r25
 446 029a 8F93      		push r24
 447 029c 80E0      		ldi r24,lo8(.LC15)
 448 029e 90E0      		ldi r25,hi8(.LC15)
 449 02a0 9F93      		push r25
 450 02a2 8F93      		push r24
 451 02a4 1F93      		push r17
 452 02a6 0F93      		push r16
 453 02a8 0E94 0000 		call fprintf
 454 02ac 8DB7      		in r24,__SP_L__
 455 02ae 9EB7      		in r25,__SP_H__
 456 02b0 0896      		adiw r24,8
 457 02b2 0FB6      		in __tmp_reg__,__SREG__
 458 02b4 F894      		cli
 459 02b6 9EBF      		out __SP_H__,r25
 460 02b8 0FBE      		out __SREG__,__tmp_reg__
 461 02ba 8DBF      		out __SP_L__,r24
 462               	.L38:
 463 02bc 8D85      		ldd r24,Y+13
 464 02be 80FF      		sbrs r24,0
 465 02c0 00C0      		rjmp .L39
 466 02c2 B801      		movw r22,r16
 467 02c4 80E0      		ldi r24,lo8(.LC16)
 468 02c6 90E0      		ldi r25,hi8(.LC16)
 469 02c8 0E94 0000 		call fputs
 470               	.L39:
 471 02cc 8D85      		ldd r24,Y+13
 472 02ce 81FF      		sbrs r24,1
 473 02d0 00C0      		rjmp .L40
 474 02d2 B801      		movw r22,r16
 475 02d4 80E0      		ldi r24,lo8(.LC17)
 476 02d6 90E0      		ldi r25,hi8(.LC17)
 477 02d8 0E94 0000 		call fputs
 478               	.L40:
 479 02dc 8D85      		ldd r24,Y+13
 480 02de 82FF      		sbrs r24,2
 481 02e0 00C0      		rjmp .L41
 482 02e2 B801      		movw r22,r16
 483 02e4 80E0      		ldi r24,lo8(.LC18)
GAS LISTING C:\Temp/ccBOJrYC.s 			page 10


 484 02e6 90E0      		ldi r25,hi8(.LC18)
 485 02e8 0E94 0000 		call fputs
 486               	.L41:
 487 02ec 8D85      		ldd r24,Y+13
 488 02ee 83FF      		sbrs r24,3
 489 02f0 00C0      		rjmp .L42
 490 02f2 B801      		movw r22,r16
 491 02f4 80E0      		ldi r24,lo8(.LC19)
 492 02f6 90E0      		ldi r25,hi8(.LC19)
 493 02f8 0E94 0000 		call fputs
 494               	.L42:
 495 02fc 8D85      		ldd r24,Y+13
 496 02fe 85FF      		sbrs r24,5
 497 0300 00C0      		rjmp .L43
 498 0302 B801      		movw r22,r16
 499 0304 80E0      		ldi r24,lo8(.LC20)
 500 0306 90E0      		ldi r25,hi8(.LC20)
 501 0308 0E94 0000 		call fputs
 502               	.L43:
 503 030c B801      		movw r22,r16
 504 030e 8AE0      		ldi r24,lo8(10)
 505 0310 90E0      		ldi r25,hi8(10)
 506 0312 0E94 0000 		call fputc
 507               	/* epilogue start */
 508 0316 DF91      		pop r29
 509 0318 CF91      		pop r28
 510 031a 1F91      		pop r17
 511 031c 0F91      		pop r16
 512 031e 0895      		ret
 513               		.size	NutDumpTcpHeader, .-NutDumpTcpHeader
 514               		.section	.progmem.data,"a",@progbits
 515               		.type	fmt2.2225, @object
 516               		.size	fmt2.2225, 15
 517               	fmt2.2225:
 518 0000 2531 3070 		.string	"%10p UDP %6u\r\n"
 518      2055 4450 
 518      2025 3675 
 518      0D0A 00
 519               		.type	fmt1.2224, @object
 520               		.size	fmt1.2224, 20
 521               	fmt1.2224:
 522 000f 2531 3070 		.string	"%10p TCP %15s:%-6u "
 522      2054 4350 
 522      2025 3135 
 522      733A 252D 
 522      3675 2000 
 523               		.type	fmt.2181, @object
 524               		.size	fmt.2181, 18
 525               	fmt.2181:
 526 0023 2573 2570 		.string	"%s%p[%u]-SEQ(%lx)"
 526      5B25 755D 
 526      2D53 4551 
 526      2825 6C78 
 526      2900 
 527               		.comm __tcp_trs,2,1
 528               		.comm __tcp_trf,1,1
GAS LISTING C:\Temp/ccBOJrYC.s 			page 11


DEFINED SYMBOLS
                            *ABS*:00000000 netdebug.c
  C:\Temp/ccBOJrYC.s:2      *ABS*:0000003f __SREG__
  C:\Temp/ccBOJrYC.s:3      *ABS*:0000003e __SP_H__
  C:\Temp/ccBOJrYC.s:4      *ABS*:0000003d __SP_L__
  C:\Temp/ccBOJrYC.s:5      *ABS*:00000034 __CCP__
  C:\Temp/ccBOJrYC.s:6      *ABS*:00000000 __tmp_reg__
  C:\Temp/ccBOJrYC.s:7      *ABS*:00000001 __zero_reg__
  C:\Temp/ccBOJrYC.s:13     .text:00000000 NutTraceTcp
                            *COM*:00000002 __tcp_trs
                            *COM*:00000001 __tcp_trf
  C:\Temp/ccBOJrYC.s:59     .text:00000024 NutDumpSockState
  C:\Temp/ccBOJrYC.s:201    .text:00000102 NutDumpSocketList
  C:\Temp/ccBOJrYC.s:521    .progmem.data:0000000f fmt1.2224
  C:\Temp/ccBOJrYC.s:517    .progmem.data:00000000 fmt2.2225
  C:\Temp/ccBOJrYC.s:371    .text:0000021c NutDumpTcpHeader
  C:\Temp/ccBOJrYC.s:525    .progmem.data:00000023 fmt.2181

UNDEFINED SYMBOLS
__do_copy_data
__do_clear_bss
fputs
tcpSocketList
inet_ntoa
fprintf_P
fprintf
udpSocketList
fputc
