GAS LISTING C:\Temp/cc3Xi5bg.s 			page 1


   1               		.file	"pppin.c"
   2               	__SREG__ = 0x3f
   3               	__SP_H__ = 0x3e
   4               	__SP_L__ = 0x3d
   5               	__CCP__  = 0x34
   6               	__tmp_reg__ = 0
   7               	__zero_reg__ = 1
   8               		.global __do_copy_data
   9               		.global __do_clear_bss
  10               		.text
  11               	.global	NutPppInput
  12               		.type	NutPppInput, @function
  13               	NutPppInput:
  14 0000 CF93      		push r28
  15 0002 DF93      		push r29
  16               	/* prologue: function */
  17               	/* frame size = 0 */
  18 0004 EC01      		movw r28,r24
  19 0006 DB01      		movw r26,r22
  20 0008 1396      		adiw r26,3
  21 000a ED91      		ld r30,X+
  22 000c FC91      		ld r31,X
  23 000e 1497      		sbiw r26,3+1
  24 0010 4989      		ldd r20,Y+17
  25 0012 5A89      		ldd r21,Y+18
  26 0014 9081      		ld r25,Z
  27 0016 9F3F      		cpi r25,lo8(-1)
  28 0018 01F0      		breq .L2
  29 001a 90FF      		sbrs r25,0
  30 001c 00C0      		rjmp .L3
  31 001e 892F      		mov r24,r25
  32 0020 90E0      		ldi r25,lo8(0)
  33 0022 BC01      		movw r22,r24
  34 0024 21E0      		ldi r18,lo8(1)
  35 0026 00C0      		rjmp .L4
  36               	.L3:
  37 0028 8181      		ldd r24,Z+1
  38 002a 682F      		mov r22,r24
  39 002c 7727      		clr r23
  40 002e 67FD      		sbrc r22,7
  41 0030 7095      		com r23
  42 0032 892F      		mov r24,r25
  43 0034 9927      		clr r25
  44 0036 87FD      		sbrc r24,7
  45 0038 9095      		com r25
  46 003a 982F      		mov r25,r24
  47 003c 8827      		clr r24
  48 003e 682B      		or r22,r24
  49 0040 792B      		or r23,r25
  50               	/* #APP */
  51               	 ;  295 "../../nut/include/sys/types.h" 1
  52 0042 062E      		mov __tmp_reg__, r22
  53 0044 672F      		mov r22, r23
  54 0046 702D      		mov r23, __tmp_reg__
  55               		
  56               	 ;  0 "" 2
  57               	/* #NOAPP */
GAS LISTING C:\Temp/cc3Xi5bg.s 			page 2


  58 0048 22E0      		ldi r18,lo8(2)
  59               	.L4:
  60 004a 30E0      		ldi r19,lo8(0)
  61 004c E20F      		add r30,r18
  62 004e F31F      		adc r31,r19
  63 0050 1896      		adiw r26,7+1
  64 0052 FC93      		st X,r31
  65 0054 EE93      		st -X,r30
  66 0056 1797      		sbiw r26,7
  67 0058 1596      		adiw r26,5
  68 005a 8D91      		ld r24,X+
  69 005c 9C91      		ld r25,X
  70 005e 1697      		sbiw r26,5+1
  71 0060 821B      		sub r24,r18
  72 0062 930B      		sbc r25,r19
  73 0064 1A96      		adiw r26,9+1
  74 0066 9C93      		st X,r25
  75 0068 8E93      		st -X,r24
  76 006a 1997      		sbiw r26,9
  77 006c 1696      		adiw r26,5+1
  78 006e 3C93      		st X,r19
  79 0070 2E93      		st -X,r18
  80 0072 1597      		sbiw r26,5
  81 0074 00C0      		rjmp .L5
  82               	.L2:
  83 0076 3496      		adiw r30,4
  84 0078 1896      		adiw r26,7+1
  85 007a FC93      		st X,r31
  86 007c EE93      		st -X,r30
  87 007e 1797      		sbiw r26,7
  88 0080 3497      		sbiw r30,4
  89 0082 1596      		adiw r26,5
  90 0084 8D91      		ld r24,X+
  91 0086 9C91      		ld r25,X
  92 0088 1697      		sbiw r26,5+1
  93 008a 0497      		sbiw r24,4
  94 008c 1A96      		adiw r26,9+1
  95 008e 9C93      		st X,r25
  96 0090 8E93      		st -X,r24
  97 0092 1997      		sbiw r26,9
  98 0094 84E0      		ldi r24,lo8(4)
  99 0096 90E0      		ldi r25,hi8(4)
 100 0098 1696      		adiw r26,5+1
 101 009a 9C93      		st X,r25
 102 009c 8E93      		st -X,r24
 103 009e 1597      		sbiw r26,5
 104 00a0 6281      		ldd r22,Z+2
 105 00a2 7381      		ldd r23,Z+3
 106               	/* #APP */
 107               	 ;  295 "../../nut/include/sys/types.h" 1
 108 00a4 062E      		mov __tmp_reg__, r22
 109 00a6 672F      		mov r22, r23
 110 00a8 702D      		mov r23, __tmp_reg__
 111               		
 112               	 ;  0 "" 2
 113               	/* #NOAPP */
 114               	.L5:
GAS LISTING C:\Temp/cc3Xi5bg.s 			page 3


 115 00aa 80EC      		ldi r24,hi8(-16351)
 116 00ac 6132      		cpi r22,lo8(-16351)
 117 00ae 7807      		cpc r23,r24
 118 00b0 01F0      		breq .L6
 119 00b2 FA01      		movw r30,r20
 120 00b4 8281      		ldd r24,Z+2
 121 00b6 8930      		cpi r24,lo8(9)
 122 00b8 01F4      		brne .L15
 123               	.L6:
 124 00ba FA01      		movw r30,r20
 125 00bc 86AD      		ldd r24,Z+62
 126 00be 8430      		cpi r24,lo8(4)
 127 00c0 01F0      		breq .L8
 128 00c2 F0EC      		ldi r31,hi8(-16351)
 129 00c4 6132      		cpi r22,lo8(-16351)
 130 00c6 7F07      		cpc r23,r31
 131 00c8 01F0      		breq .L9
 132 00ca 80EC      		ldi r24,hi8(-16347)
 133 00cc 6532      		cpi r22,lo8(-16347)
 134 00ce 7807      		cpc r23,r24
 135 00d0 01F0      		breq .L10
 136 00d2 E0EC      		ldi r30,hi8(-16349)
 137 00d4 6332      		cpi r22,lo8(-16349)
 138 00d6 7E07      		cpc r23,r30
 139 00d8 01F0      		breq .L11
 140 00da F2EC      		ldi r31,hi8(-15837)
 141 00dc 6332      		cpi r22,lo8(-15837)
 142 00de 7F07      		cpc r23,r31
 143 00e0 01F0      		breq .L10
 144 00e2 00C0      		rjmp .L15
 145               	.L8:
 146 00e4 80E8      		ldi r24,hi8(-32735)
 147 00e6 6132      		cpi r22,lo8(-32735)
 148 00e8 7807      		cpc r23,r24
 149 00ea 01F0      		breq .L13
 150 00ec E0E8      		ldi r30,hi8(-32734)
 151 00ee 6232      		cpi r22,lo8(-32734)
 152 00f0 7E07      		cpc r23,r30
 153 00f2 00F4      		brsh .L14
 154 00f4 6132      		cpi r22,33
 155 00f6 7105      		cpc r23,__zero_reg__
 156 00f8 01F4      		brne .L10
 157 00fa 00C0      		rjmp .L18
 158               	.L14:
 159 00fc F0EC      		ldi r31,hi8(-16351)
 160 00fe 6132      		cpi r22,lo8(-16351)
 161 0100 7F07      		cpc r23,r31
 162 0102 01F0      		breq .L9
 163 0104 80EC      		ldi r24,hi8(-16349)
 164 0106 6332      		cpi r22,lo8(-16349)
 165 0108 7807      		cpc r23,r24
 166 010a 01F4      		brne .L10
 167 010c 00C0      		rjmp .L11
 168               	.L18:
 169 010e FA01      		movw r30,r20
 170 0110 84AD      		ldd r24,Z+60
 171 0112 8930      		cpi r24,lo8(9)
GAS LISTING C:\Temp/cc3Xi5bg.s 			page 4


 172 0114 01F4      		brne .L15
 173 0116 BD01      		movw r22,r26
 174 0118 CE01      		movw r24,r28
 175 011a 0E94 0000 		call NutIpInput
 176 011e 00C0      		rjmp .L16
 177               	.L15:
 178 0120 CD01      		movw r24,r26
 179 0122 0E94 0000 		call NutNetBufFree
 180 0126 00C0      		rjmp .L16
 181               	.L9:
 182 0128 BD01      		movw r22,r26
 183 012a CE01      		movw r24,r28
 184 012c 0E94 0000 		call NutLcpInput
 185 0130 00C0      		rjmp .L16
 186               	.L13:
 187 0132 BD01      		movw r22,r26
 188 0134 CE01      		movw r24,r28
 189 0136 0E94 0000 		call NutIpcpInput
 190 013a 00C0      		rjmp .L16
 191               	.L11:
 192 013c BD01      		movw r22,r26
 193 013e CE01      		movw r24,r28
 194 0140 0E94 0000 		call NutPapInput
 195 0144 00C0      		rjmp .L16
 196               	.L10:
 197 0146 AD01      		movw r20,r26
 198 0148 CE01      		movw r24,r28
 199 014a 0E94 0000 		call LcpTxProtRej
 200               	.L16:
 201               	/* epilogue start */
 202 014e DF91      		pop r29
 203 0150 CF91      		pop r28
 204 0152 0895      		ret
 205               		.size	NutPppInput, .-NutPppInput
GAS LISTING C:\Temp/cc3Xi5bg.s 			page 5


DEFINED SYMBOLS
                            *ABS*:00000000 pppin.c
  C:\Temp/cc3Xi5bg.s:2      *ABS*:0000003f __SREG__
  C:\Temp/cc3Xi5bg.s:3      *ABS*:0000003e __SP_H__
  C:\Temp/cc3Xi5bg.s:4      *ABS*:0000003d __SP_L__
  C:\Temp/cc3Xi5bg.s:5      *ABS*:00000034 __CCP__
  C:\Temp/cc3Xi5bg.s:6      *ABS*:00000000 __tmp_reg__
  C:\Temp/cc3Xi5bg.s:7      *ABS*:00000001 __zero_reg__
  C:\Temp/cc3Xi5bg.s:13     .text:00000000 NutPppInput

UNDEFINED SYMBOLS
__do_copy_data
__do_clear_bss
NutIpInput
NutNetBufFree
NutLcpInput
NutIpcpInput
NutPapInput
LcpTxProtRej
