GAS LISTING C:\Temp/ccYmSdAl.s 			page 1


   1               		.file	"pppsm.c"
   2               	__SREG__ = 0x3f
   3               	__SP_H__ = 0x3e
   4               	__SP_L__ = 0x3d
   5               	__CCP__  = 0x34
   6               	__tmp_reg__ = 0
   7               	__zero_reg__ = 1
   8               		.global __do_copy_data
   9               		.global __do_clear_bss
  10               		.text
  11               	.global	IpcpLowerDown
  12               		.type	IpcpLowerDown, @function
  13               	IpcpLowerDown:
  14               	/* prologue: function */
  15               	/* frame size = 0 */
  16 0000 DC01      		movw r26,r24
  17 0002 5196      		adiw r26,17
  18 0004 ED91      		ld r30,X+
  19 0006 FC91      		ld r31,X
  20 0008 5297      		sbiw r26,17+1
  21 000a 84AD      		ldd r24,Z+60
  22 000c 8430      		cpi r24,lo8(4)
  23 000e 01F0      		breq .L5
  24 0010 8530      		cpi r24,lo8(5)
  25 0012 00F4      		brsh .L8
  26 0014 8230      		cpi r24,lo8(2)
  27 0016 01F0      		breq .L3
  28 0018 8330      		cpi r24,lo8(3)
  29 001a 01F4      		brne .L9
  30 001c 00C0      		rjmp .L6
  31               	.L8:
  32 001e 8930      		cpi r24,lo8(9)
  33 0020 00F0      		brlo .L6
  34 0022 8930      		cpi r24,lo8(9)
  35 0024 01F4      		brne .L9
  36 0026 00C0      		rjmp .L10
  37               	.L3:
  38 0028 14AE      		std Z+60,__zero_reg__
  39 002a FF96      		adiw r30,63
  40 002c 40E0      		ldi r20,lo8(0)
  41 002e 50E0      		ldi r21,hi8(0)
  42 0030 67E1      		ldi r22,lo8(279)
  43 0032 71E0      		ldi r23,hi8(279)
  44 0034 8081      		ld r24,Z
  45 0036 9181      		ldd r25,Z+1
  46 0038 0E94 0000 		call _ioctl
  47 003c 0895      		ret
  48               	.L5:
  49 003e 14AE      		std Z+60,__zero_reg__
  50 0040 0895      		ret
  51               	.L6:
  52 0042 81E0      		ldi r24,lo8(1)
  53 0044 84AF      		std Z+60,r24
  54 0046 0895      		ret
  55               	.L10:
  56 0048 81E0      		ldi r24,lo8(1)
  57 004a 84AF      		std Z+60,r24
GAS LISTING C:\Temp/ccYmSdAl.s 			page 2


  58 004c CF01      		movw r24,r30
  59 004e 0E94 0000 		call NutEventPost
  60               	.L9:
  61 0052 0895      		ret
  62               		.size	IpcpLowerDown, .-IpcpLowerDown
  63               	.global	LcpLowerDown
  64               		.type	LcpLowerDown, @function
  65               	LcpLowerDown:
  66 0054 CF93      		push r28
  67 0056 DF93      		push r29
  68               	/* prologue: function */
  69               	/* frame size = 0 */
  70 0058 FC01      		movw r30,r24
  71 005a C189      		ldd r28,Z+17
  72 005c D289      		ldd r29,Z+18
  73 005e 8A81      		ldd r24,Y+2
  74 0060 8430      		cpi r24,lo8(4)
  75 0062 01F0      		breq .L15
  76 0064 8530      		cpi r24,lo8(5)
  77 0066 00F4      		brsh .L18
  78 0068 8230      		cpi r24,lo8(2)
  79 006a 01F0      		breq .L15
  80 006c 8330      		cpi r24,lo8(3)
  81 006e 01F4      		brne .L19
  82 0070 00C0      		rjmp .L20
  83               	.L18:
  84 0072 8930      		cpi r24,lo8(9)
  85 0074 00F0      		brlo .L20
  86 0076 8930      		cpi r24,lo8(9)
  87 0078 01F4      		brne .L19
  88 007a 00C0      		rjmp .L21
  89               	.L15:
  90 007c 1A82      		std Y+2,__zero_reg__
  91 007e 00C0      		rjmp .L19
  92               	.L21:
  93 0080 CF01      		movw r24,r30
  94 0082 0E94 0000 		call IpcpLowerDown
  95               	.L20:
  96 0086 81E0      		ldi r24,lo8(1)
  97 0088 8A83      		std Y+2,r24
  98               	.L19:
  99               	/* epilogue start */
 100 008a DF91      		pop r29
 101 008c CF91      		pop r28
 102 008e 0895      		ret
 103               		.size	LcpLowerDown, .-LcpLowerDown
 104               	.global	IpcpLowerUp
 105               		.type	IpcpLowerUp, @function
 106               	IpcpLowerUp:
 107 0090 CF93      		push r28
 108 0092 DF93      		push r29
 109               	/* prologue: function */
 110               	/* frame size = 0 */
 111 0094 FC01      		movw r30,r24
 112 0096 C189      		ldd r28,Z+17
 113 0098 D289      		ldd r29,Z+18
 114 009a 8CAD      		ldd r24,Y+60
GAS LISTING C:\Temp/ccYmSdAl.s 			page 3


 115 009c 8823      		tst r24
 116 009e 01F0      		breq .L24
 117 00a0 8130      		cpi r24,lo8(1)
 118 00a2 01F4      		brne .L26
 119 00a4 00C0      		rjmp .L28
 120               	.L24:
 121 00a6 82E0      		ldi r24,lo8(2)
 122 00a8 00C0      		rjmp .L27
 123               	.L28:
 124 00aa 6B81      		ldd r22,Y+3
 125 00ac 6F5F      		subi r22,lo8(-(1))
 126 00ae 6B83      		std Y+3,r22
 127 00b0 CF01      		movw r24,r30
 128 00b2 0E94 0000 		call IpcpTxConfReq
 129 00b6 86E0      		ldi r24,lo8(6)
 130               	.L27:
 131 00b8 8CAF      		std Y+60,r24
 132               	.L26:
 133               	/* epilogue start */
 134 00ba DF91      		pop r29
 135 00bc CF91      		pop r28
 136 00be 0895      		ret
 137               		.size	IpcpLowerUp, .-IpcpLowerUp
 138               	.global	IpcpClose
 139               		.type	IpcpClose, @function
 140               	IpcpClose:
 141 00c0 CF93      		push r28
 142 00c2 DF93      		push r29
 143               	/* prologue: function */
 144               	/* frame size = 0 */
 145 00c4 FC01      		movw r30,r24
 146 00c6 C189      		ldd r28,Z+17
 147 00c8 D289      		ldd r29,Z+18
 148 00ca 8CAD      		ldd r24,Y+60
 149 00cc 8530      		cpi r24,lo8(5)
 150 00ce 01F0      		breq .L33
 151 00d0 8630      		cpi r24,lo8(6)
 152 00d2 00F4      		brsh .L35
 153 00d4 8130      		cpi r24,lo8(1)
 154 00d6 01F0      		breq .L31
 155 00d8 8330      		cpi r24,lo8(3)
 156 00da 01F4      		brne .L36
 157 00dc 00C0      		rjmp .L39
 158               	.L35:
 159 00de 8A30      		cpi r24,lo8(10)
 160 00e0 00F4      		brsh .L36
 161 00e2 00C0      		rjmp .L40
 162               	.L31:
 163 00e4 1CAE      		std Y+60,__zero_reg__
 164 00e6 00C0      		rjmp .L36
 165               	.L39:
 166 00e8 82E0      		ldi r24,lo8(2)
 167 00ea 00C0      		rjmp .L38
 168               	.L33:
 169 00ec 84E0      		ldi r24,lo8(4)
 170               	.L38:
 171 00ee 8CAF      		std Y+60,r24
GAS LISTING C:\Temp/ccYmSdAl.s 			page 4


 172 00f0 00C0      		rjmp .L36
 173               	.L40:
 174 00f2 20E0      		ldi r18,lo8(0)
 175 00f4 30E0      		ldi r19,hi8(0)
 176 00f6 4B81      		ldd r20,Y+3
 177 00f8 65E0      		ldi r22,lo8(5)
 178 00fa CF01      		movw r24,r30
 179 00fc 0E94 0000 		call NutIpcpOutput
 180 0100 84E0      		ldi r24,lo8(4)
 181 0102 8CAF      		std Y+60,r24
 182 0104 CE01      		movw r24,r28
 183 0106 0E94 0000 		call NutEventPost
 184               	.L36:
 185               	/* epilogue start */
 186 010a DF91      		pop r29
 187 010c CF91      		pop r28
 188 010e 0895      		ret
 189               		.size	IpcpClose, .-IpcpClose
 190               	.global	LcpLowerUp
 191               		.type	LcpLowerUp, @function
 192               	LcpLowerUp:
 193 0110 CF93      		push r28
 194 0112 DF93      		push r29
 195               	/* prologue: function */
 196               	/* frame size = 0 */
 197 0114 FC01      		movw r30,r24
 198 0116 C189      		ldd r28,Z+17
 199 0118 D289      		ldd r29,Z+18
 200 011a 8A81      		ldd r24,Y+2
 201 011c 8823      		tst r24
 202 011e 01F0      		breq .L43
 203 0120 8130      		cpi r24,lo8(1)
 204 0122 01F4      		brne .L45
 205 0124 00C0      		rjmp .L47
 206               	.L43:
 207 0126 82E0      		ldi r24,lo8(2)
 208 0128 00C0      		rjmp .L46
 209               	.L47:
 210 012a 6B81      		ldd r22,Y+3
 211 012c 6F5F      		subi r22,lo8(-(1))
 212 012e 6B83      		std Y+3,r22
 213 0130 40E0      		ldi r20,lo8(0)
 214 0132 CF01      		movw r24,r30
 215 0134 0E94 0000 		call LcpTxConfReq
 216 0138 86E0      		ldi r24,lo8(6)
 217               	.L46:
 218 013a 8A83      		std Y+2,r24
 219               	.L45:
 220               	/* epilogue start */
 221 013c DF91      		pop r29
 222 013e CF91      		pop r28
 223 0140 0895      		ret
 224               		.size	LcpLowerUp, .-LcpLowerUp
 225               	.global	LcpOpen
 226               		.type	LcpOpen, @function
 227               	LcpOpen:
 228 0142 CF93      		push r28
GAS LISTING C:\Temp/ccYmSdAl.s 			page 5


 229 0144 DF93      		push r29
 230               	/* prologue: function */
 231               	/* frame size = 0 */
 232 0146 FC01      		movw r30,r24
 233 0148 C189      		ldd r28,Z+17
 234 014a D289      		ldd r29,Z+18
 235 014c 8A81      		ldd r24,Y+2
 236 014e 8230      		cpi r24,lo8(2)
 237 0150 01F0      		breq .L51
 238 0152 8430      		cpi r24,lo8(4)
 239 0154 01F0      		breq .L52
 240 0156 8823      		tst r24
 241 0158 01F4      		brne .L53
 242 015a 81E0      		ldi r24,lo8(1)
 243 015c 00C0      		rjmp .L54
 244               	.L51:
 245 015e 6B81      		ldd r22,Y+3
 246 0160 6F5F      		subi r22,lo8(-(1))
 247 0162 6B83      		std Y+3,r22
 248 0164 40E0      		ldi r20,lo8(0)
 249 0166 CF01      		movw r24,r30
 250 0168 0E94 0000 		call LcpTxConfReq
 251 016c 86E0      		ldi r24,lo8(6)
 252 016e 00C0      		rjmp .L54
 253               	.L52:
 254 0170 85E0      		ldi r24,lo8(5)
 255               	.L54:
 256 0172 8A83      		std Y+2,r24
 257               	.L53:
 258               	/* epilogue start */
 259 0174 DF91      		pop r29
 260 0176 CF91      		pop r28
 261 0178 0895      		ret
 262               		.size	LcpOpen, .-LcpOpen
 263               	.global	IpcpOpen
 264               		.type	IpcpOpen, @function
 265               	IpcpOpen:
 266 017a CF93      		push r28
 267 017c DF93      		push r29
 268               	/* prologue: function */
 269               	/* frame size = 0 */
 270 017e FC01      		movw r30,r24
 271 0180 C189      		ldd r28,Z+17
 272 0182 D289      		ldd r29,Z+18
 273 0184 8CAD      		ldd r24,Y+60
 274 0186 8230      		cpi r24,lo8(2)
 275 0188 01F0      		breq .L58
 276 018a 8430      		cpi r24,lo8(4)
 277 018c 01F0      		breq .L59
 278 018e 8823      		tst r24
 279 0190 01F4      		brne .L60
 280 0192 81E0      		ldi r24,lo8(1)
 281 0194 8CAF      		std Y+60,r24
 282 0196 CF01      		movw r24,r30
 283 0198 0E94 0000 		call LcpOpen
 284 019c 00C0      		rjmp .L60
 285               	.L58:
GAS LISTING C:\Temp/ccYmSdAl.s 			page 6


 286 019e 6B81      		ldd r22,Y+3
 287 01a0 6F5F      		subi r22,lo8(-(1))
 288 01a2 6B83      		std Y+3,r22
 289 01a4 CF01      		movw r24,r30
 290 01a6 0E94 0000 		call IpcpTxConfReq
 291 01aa 86E0      		ldi r24,lo8(6)
 292 01ac 00C0      		rjmp .L61
 293               	.L59:
 294 01ae 85E0      		ldi r24,lo8(5)
 295               	.L61:
 296 01b0 8CAF      		std Y+60,r24
 297               	.L60:
 298               	/* epilogue start */
 299 01b2 DF91      		pop r29
 300 01b4 CF91      		pop r28
 301 01b6 0895      		ret
 302               		.size	IpcpOpen, .-IpcpOpen
 303               	.global	LcpClose
 304               		.type	LcpClose, @function
 305               	LcpClose:
 306 01b8 0F93      		push r16
 307 01ba 1F93      		push r17
 308 01bc CF93      		push r28
 309 01be DF93      		push r29
 310               	/* prologue: function */
 311               	/* frame size = 0 */
 312 01c0 8C01      		movw r16,r24
 313 01c2 FC01      		movw r30,r24
 314 01c4 C189      		ldd r28,Z+17
 315 01c6 D289      		ldd r29,Z+18
 316 01c8 8A81      		ldd r24,Y+2
 317 01ca 8530      		cpi r24,lo8(5)
 318 01cc 01F0      		breq .L66
 319 01ce 8630      		cpi r24,lo8(6)
 320 01d0 00F4      		brsh .L68
 321 01d2 8130      		cpi r24,lo8(1)
 322 01d4 01F0      		breq .L64
 323 01d6 8330      		cpi r24,lo8(3)
 324 01d8 01F4      		brne .L69
 325 01da 00C0      		rjmp .L72
 326               	.L68:
 327 01dc 8A30      		cpi r24,lo8(10)
 328 01de 00F4      		brsh .L69
 329 01e0 00C0      		rjmp .L73
 330               	.L64:
 331 01e2 1A82      		std Y+2,__zero_reg__
 332 01e4 00C0      		rjmp .L69
 333               	.L72:
 334 01e6 82E0      		ldi r24,lo8(2)
 335 01e8 00C0      		rjmp .L71
 336               	.L66:
 337 01ea 84E0      		ldi r24,lo8(4)
 338               	.L71:
 339 01ec 8A83      		std Y+2,r24
 340 01ee 00C0      		rjmp .L69
 341               	.L73:
 342 01f0 84E0      		ldi r24,lo8(4)
GAS LISTING C:\Temp/ccYmSdAl.s 			page 7


 343 01f2 8A83      		std Y+2,r24
 344 01f4 C801      		movw r24,r16
 345 01f6 0E94 0000 		call IpcpLowerDown
 346 01fa 20E0      		ldi r18,lo8(0)
 347 01fc 30E0      		ldi r19,hi8(0)
 348 01fe 4B81      		ldd r20,Y+3
 349 0200 65E0      		ldi r22,lo8(5)
 350 0202 C801      		movw r24,r16
 351 0204 0E94 0000 		call NutLcpOutput
 352               	.L69:
 353               	/* epilogue start */
 354 0208 DF91      		pop r29
 355 020a CF91      		pop r28
 356 020c 1F91      		pop r17
 357 020e 0F91      		pop r16
 358 0210 0895      		ret
 359               		.size	LcpClose, .-LcpClose
 360               		.data
 361               	.LC0:
 362 0000 7070 7073 		.string	"pppsm"
 362      6D00 
 363               		.text
 364               	.global	NutPppInitStateMachine
 365               		.type	NutPppInitStateMachine, @function
 366               	NutPppInitStateMachine:
 367               	/* prologue: function */
 368               	/* frame size = 0 */
 369 0212 AC01      		movw r20,r24
 370 0214 8091 0000 		lds r24,pppThread
 371 0218 9091 0000 		lds r25,(pppThread)+1
 372 021c 892B      		or r24,r25
 373 021e 01F4      		brne .L75
 374 0220 20E0      		ldi r18,lo8(512)
 375 0222 32E0      		ldi r19,hi8(512)
 376 0224 60E0      		ldi r22,lo8(gs(NutPppSm))
 377 0226 70E0      		ldi r23,hi8(gs(NutPppSm))
 378 0228 80E0      		ldi r24,lo8(.LC0)
 379 022a 90E0      		ldi r25,hi8(.LC0)
 380 022c 0E94 0000 		call NutThreadCreate
 381 0230 9093 0000 		sts (pppThread)+1,r25
 382 0234 8093 0000 		sts pppThread,r24
 383 0238 892B      		or r24,r25
 384 023a 01F4      		brne .L75
 385 023c 2FEF      		ldi r18,lo8(-1)
 386 023e 3FEF      		ldi r19,hi8(-1)
 387 0240 00C0      		rjmp .L76
 388               	.L75:
 389 0242 20E0      		ldi r18,lo8(0)
 390 0244 30E0      		ldi r19,hi8(0)
 391               	.L76:
 392 0246 C901      		movw r24,r18
 393               	/* epilogue start */
 394 0248 0895      		ret
 395               		.size	NutPppInitStateMachine, .-NutPppInitStateMachine
 396               	.global	NutPppSm
 397               		.type	NutPppSm, @function
 398               	NutPppSm:
GAS LISTING C:\Temp/ccYmSdAl.s 			page 8


 399               	/* prologue: function */
 400               	/* frame size = 0 */
 401 024a 7C01      		movw r14,r24
 402 024c FC01      		movw r30,r24
 403 024e C189      		ldd r28,Z+17
 404 0250 D289      		ldd r29,Z+18
 405 0252 03E0      		ldi r16,lo8(3)
 406               	.L105:
 407 0254 68E8      		ldi r22,lo8(5000)
 408 0256 73E1      		ldi r23,hi8(5000)
 409 0258 80E0      		ldi r24,hlo8(5000)
 410 025a 90E0      		ldi r25,hhi8(5000)
 411 025c 0E94 0000 		call NutSleep
 412 0260 8091 0000 		lds r24,new_magic
 413 0264 9091 0000 		lds r25,(new_magic)+1
 414 0268 A091 0000 		lds r26,(new_magic)+2
 415 026c B091 0000 		lds r27,(new_magic)+3
 416 0270 0196      		adiw r24,1
 417 0272 A11D      		adc r26,__zero_reg__
 418 0274 B11D      		adc r27,__zero_reg__
 419 0276 8093 0000 		sts new_magic,r24
 420 027a 9093 0000 		sts (new_magic)+1,r25
 421 027e A093 0000 		sts (new_magic)+2,r26
 422 0282 B093 0000 		sts (new_magic)+3,r27
 423 0286 19AD      		ldd r17,Y+57
 424 0288 8A81      		ldd r24,Y+2
 425 028a 8630      		cpi r24,lo8(6)
 426 028c 01F0      		breq .L82
 427 028e 8730      		cpi r24,lo8(7)
 428 0290 00F4      		brsh .L83
 429 0292 8430      		cpi r24,lo8(4)
 430 0294 00F0      		brlo .L80
 431 0296 00C0      		rjmp .L108
 432               	.L83:
 433 0298 8830      		cpi r24,lo8(8)
 434 029a 01F4      		brne .L80
 435 029c 00C0      		rjmp .L82
 436               	.L108:
 437 029e 1930      		cpi r17,lo8(9)
 438 02a0 00F4      		brsh .L84
 439 02a2 1123      		tst r17
 440 02a4 01F0      		breq .L89
 441 02a6 20E0      		ldi r18,lo8(0)
 442 02a8 30E0      		ldi r19,hi8(0)
 443 02aa 4B81      		ldd r20,Y+3
 444 02ac 65E0      		ldi r22,lo8(5)
 445 02ae C701      		movw r24,r14
 446 02b0 0E94 0000 		call NutLcpOutput
 447 02b4 00C0      		rjmp .L89
 448               	.L84:
 449 02b6 8430      		cpi r24,lo8(4)
 450 02b8 01F0      		breq .L86
 451 02ba 83E0      		ldi r24,lo8(3)
 452 02bc 00C0      		rjmp .L87
 453               	.L86:
 454 02be 82E0      		ldi r24,lo8(2)
 455               	.L87:
GAS LISTING C:\Temp/ccYmSdAl.s 			page 9


 456 02c0 8A83      		std Y+2,r24
 457 02c2 00C0      		rjmp .L80
 458               	.L82:
 459 02c4 1930      		cpi r17,lo8(9)
 460 02c6 00F4      		brsh .L88
 461 02c8 1123      		tst r17
 462 02ca 01F0      		breq .L89
 463 02cc 40E0      		ldi r20,lo8(0)
 464 02ce 6B81      		ldd r22,Y+3
 465 02d0 C701      		movw r24,r14
 466 02d2 0E94 0000 		call LcpTxConfReq
 467               	.L89:
 468 02d6 1F5F      		subi r17,lo8(-(1))
 469 02d8 19AF      		std Y+57,r17
 470 02da 1150      		subi r17,lo8(-(-1))
 471 02dc 00C0      		rjmp .L80
 472               	.L88:
 473 02de 0A83      		std Y+2,r16
 474               	.L80:
 475 02e0 8EAD      		ldd r24,Y+62
 476 02e2 8330      		cpi r24,lo8(3)
 477 02e4 01F4      		brne .L90
 478 02e6 1930      		cpi r17,lo8(9)
 479 02e8 00F4      		brsh .L91
 480 02ea 1123      		tst r17
 481 02ec 01F0      		breq .L92
 482 02ee 6B81      		ldd r22,Y+3
 483 02f0 C701      		movw r24,r14
 484 02f2 0E94 0000 		call PapTxAuthReq
 485               	.L92:
 486 02f6 1F5F      		subi r17,lo8(-(1))
 487 02f8 19AF      		std Y+57,r17
 488 02fa 1150      		subi r17,lo8(-(-1))
 489 02fc 00C0      		rjmp .L90
 490               	.L91:
 491 02fe 8A83      		std Y+2,r24
 492               	.L90:
 493 0300 8CAD      		ldd r24,Y+60
 494 0302 8630      		cpi r24,lo8(6)
 495 0304 01F0      		breq .L94
 496 0306 8730      		cpi r24,lo8(7)
 497 0308 00F4      		brsh .L95
 498 030a 8430      		cpi r24,lo8(4)
 499 030c 00F4      		brsh .+2
 500 030e 00C0      		rjmp .L105
 501 0310 00C0      		rjmp .L109
 502               	.L95:
 503 0312 8830      		cpi r24,lo8(8)
 504 0314 01F0      		breq .+2
 505 0316 00C0      		rjmp .L105
 506 0318 00C0      		rjmp .L94
 507               	.L109:
 508 031a 1930      		cpi r17,lo8(9)
 509 031c 00F4      		brsh .L96
 510 031e 1123      		tst r17
 511 0320 01F0      		breq .L101
 512 0322 20E0      		ldi r18,lo8(0)
GAS LISTING C:\Temp/ccYmSdAl.s 			page 10


 513 0324 30E0      		ldi r19,hi8(0)
 514 0326 4B81      		ldd r20,Y+3
 515 0328 65E0      		ldi r22,lo8(5)
 516 032a C701      		movw r24,r14
 517 032c 0E94 0000 		call NutIpcpOutput
 518 0330 00C0      		rjmp .L101
 519               	.L96:
 520 0332 8430      		cpi r24,lo8(4)
 521 0334 01F0      		breq .L98
 522 0336 83E0      		ldi r24,lo8(3)
 523 0338 00C0      		rjmp .L99
 524               	.L98:
 525 033a 82E0      		ldi r24,lo8(2)
 526               	.L99:
 527 033c 8CAF      		std Y+60,r24
 528 033e 00C0      		rjmp .L105
 529               	.L94:
 530 0340 1930      		cpi r17,lo8(9)
 531 0342 00F4      		brsh .L100
 532 0344 1123      		tst r17
 533 0346 01F0      		breq .L101
 534 0348 6B81      		ldd r22,Y+3
 535 034a C701      		movw r24,r14
 536 034c 0E94 0000 		call IpcpTxConfReq
 537               	.L101:
 538 0350 1F5F      		subi r17,lo8(-(1))
 539 0352 19AF      		std Y+57,r17
 540 0354 00C0      		rjmp .L105
 541               	.L100:
 542 0356 0CAF      		std Y+60,r16
 543 0358 00C0      		rjmp .L105
 544               		.size	NutPppSm, .-NutPppSm
 545               	.global	new_magic
 546               		.data
 547               		.type	new_magic, @object
 548               		.size	new_magic, 4
 549               	new_magic:
 550 0006 78        		.byte	120
 551 0007 56        		.byte	86
 552 0008 34        		.byte	52
 553 0009 12        		.byte	18
 554               		.lcomm pppThread,2
GAS LISTING C:\Temp/ccYmSdAl.s 			page 11


DEFINED SYMBOLS
                            *ABS*:00000000 pppsm.c
  C:\Temp/ccYmSdAl.s:2      *ABS*:0000003f __SREG__
  C:\Temp/ccYmSdAl.s:3      *ABS*:0000003e __SP_H__
  C:\Temp/ccYmSdAl.s:4      *ABS*:0000003d __SP_L__
  C:\Temp/ccYmSdAl.s:5      *ABS*:00000034 __CCP__
  C:\Temp/ccYmSdAl.s:6      *ABS*:00000000 __tmp_reg__
  C:\Temp/ccYmSdAl.s:7      *ABS*:00000001 __zero_reg__
  C:\Temp/ccYmSdAl.s:13     .text:00000000 IpcpLowerDown
  C:\Temp/ccYmSdAl.s:65     .text:00000054 LcpLowerDown
  C:\Temp/ccYmSdAl.s:106    .text:00000090 IpcpLowerUp
  C:\Temp/ccYmSdAl.s:140    .text:000000c0 IpcpClose
  C:\Temp/ccYmSdAl.s:192    .text:00000110 LcpLowerUp
  C:\Temp/ccYmSdAl.s:227    .text:00000142 LcpOpen
  C:\Temp/ccYmSdAl.s:265    .text:0000017a IpcpOpen
  C:\Temp/ccYmSdAl.s:305    .text:000001b8 LcpClose
  C:\Temp/ccYmSdAl.s:366    .text:00000212 NutPppInitStateMachine
                             .bss:00000000 pppThread
  C:\Temp/ccYmSdAl.s:398    .text:0000024a NutPppSm
  C:\Temp/ccYmSdAl.s:549    .data:00000006 new_magic

UNDEFINED SYMBOLS
__do_copy_data
__do_clear_bss
_ioctl
NutEventPost
IpcpTxConfReq
NutIpcpOutput
LcpTxConfReq
NutLcpOutput
NutThreadCreate
NutSleep
PapTxAuthReq
