GAS LISTING C:\DOCUME~1\ADMINI~1\LOCALS~1\Temp/ccRaS25R.s 			page 1


   1               		.file	"tell.c"
   2               	__SREG__ = 0x3f
   3               	__SP_H__ = 0x3e
   4               	__SP_L__ = 0x3d
   5               	__CCP__  = 0x34
   6               	__tmp_reg__ = 0
   7               	__zero_reg__ = 1
   8               		.text
   9               	.global	_tell
  10               		.type	_tell, @function
  11               	_tell:
  12 0000 0F93      		push r16
  13 0002 1F93      		push r17
  14 0004 DF93      		push r29
  15 0006 CF93      		push r28
  16 0008 CDB7      		in r28,__SP_L__
  17 000a DEB7      		in r29,__SP_H__
  18 000c 2A97      		sbiw r28,10
  19 000e 0FB6      		in __tmp_reg__,__SREG__
  20 0010 F894      		cli
  21 0012 DEBF      		out __SP_H__,r29
  22 0014 0FBE      		out __SREG__,__tmp_reg__
  23 0016 CDBF      		out __SP_L__,r28
  24               	/* prologue: function */
  25               	/* frame size = 10 */
  26 0018 DC01      		movw r26,r24
  27 001a 1296      		adiw r26,2
  28 001c 2D91      		ld r18,X+
  29 001e 3C91      		ld r19,X
  30 0020 1397      		sbiw r26,2+1
  31 0022 2115      		cp r18,__zero_reg__
  32 0024 3105      		cpc r19,__zero_reg__
  33 0026 01F0      		breq .L2
  34 0028 F901      		movw r30,r18
  35 002a 0589      		ldd r16,Z+21
  36 002c 1689      		ldd r17,Z+22
  37 002e 81E0      		ldi r24,lo8(1)
  38 0030 90E0      		ldi r25,hi8(1)
  39 0032 9A87      		std Y+10,r25
  40 0034 8987      		std Y+9,r24
  41 0036 CE01      		movw r24,r28
  42 0038 0196      		adiw r24,1
  43 003a 9887      		std Y+8,r25
  44 003c 8F83      		std Y+7,r24
  45 003e BE83      		std Y+6,r27
  46 0040 AD83      		std Y+5,r26
  47 0042 1982      		std Y+1,__zero_reg__
  48 0044 1A82      		std Y+2,__zero_reg__
  49 0046 1B82      		std Y+3,__zero_reg__
  50 0048 1C82      		std Y+4,__zero_reg__
  51 004a C901      		movw r24,r18
  52 004c 63E2      		ldi r22,lo8(4387)
  53 004e 71E1      		ldi r23,hi8(4387)
  54 0050 AE01      		movw r20,r28
  55 0052 4B5F      		subi r20,lo8(-(5))
  56 0054 5F4F      		sbci r21,hi8(-(5))
  57 0056 F801      		movw r30,r16
GAS LISTING C:\DOCUME~1\ADMINI~1\LOCALS~1\Temp/ccRaS25R.s 			page 2


  58 0058 0995      		icall
  59 005a 892B      		or r24,r25
  60 005c 01F0      		breq .L2
  61 005e 2981      		ldd r18,Y+1
  62 0060 3A81      		ldd r19,Y+2
  63 0062 4B81      		ldd r20,Y+3
  64 0064 5C81      		ldd r21,Y+4
  65 0066 00C0      		rjmp .L4
  66               	.L2:
  67 0068 86E1      		ldi r24,lo8(22)
  68 006a 90E0      		ldi r25,hi8(22)
  69 006c 9093 0000 		sts (errno)+1,r25
  70 0070 8093 0000 		sts errno,r24
  71 0074 2FEF      		ldi r18,lo8(-1)
  72 0076 3FEF      		ldi r19,hi8(-1)
  73 0078 4FEF      		ldi r20,hlo8(-1)
  74 007a 5FEF      		ldi r21,hhi8(-1)
  75               	.L4:
  76 007c B901      		movw r22,r18
  77 007e CA01      		movw r24,r20
  78               	/* epilogue start */
  79 0080 2A96      		adiw r28,10
  80 0082 0FB6      		in __tmp_reg__,__SREG__
  81 0084 F894      		cli
  82 0086 DEBF      		out __SP_H__,r29
  83 0088 0FBE      		out __SREG__,__tmp_reg__
  84 008a CDBF      		out __SP_L__,r28
  85 008c CF91      		pop r28
  86 008e DF91      		pop r29
  87 0090 1F91      		pop r17
  88 0092 0F91      		pop r16
  89 0094 0895      		ret
  90               		.size	_tell, .-_tell
GAS LISTING C:\DOCUME~1\ADMINI~1\LOCALS~1\Temp/ccRaS25R.s 			page 3


DEFINED SYMBOLS
                            *ABS*:00000000 tell.c
C:\DOCUME~1\ADMINI~1\LOCALS~1\Temp/ccRaS25R.s:2      *ABS*:0000003f __SREG__
C:\DOCUME~1\ADMINI~1\LOCALS~1\Temp/ccRaS25R.s:3      *ABS*:0000003e __SP_H__
C:\DOCUME~1\ADMINI~1\LOCALS~1\Temp/ccRaS25R.s:4      *ABS*:0000003d __SP_L__
C:\DOCUME~1\ADMINI~1\LOCALS~1\Temp/ccRaS25R.s:5      *ABS*:00000034 __CCP__
C:\DOCUME~1\ADMINI~1\LOCALS~1\Temp/ccRaS25R.s:6      *ABS*:00000000 __tmp_reg__
C:\DOCUME~1\ADMINI~1\LOCALS~1\Temp/ccRaS25R.s:7      *ABS*:00000001 __zero_reg__
C:\DOCUME~1\ADMINI~1\LOCALS~1\Temp/ccRaS25R.s:11     .text:00000000 _tell

UNDEFINED SYMBOLS
errno
