GAS LISTING C:\DOCUME~1\ADMINI~1\LOCALS~1\Temp/ccbcBlAq.s 			page 1


   1               		.file	"avrtarget.c"
   2               	__SREG__ = 0x3f
   3               	__SP_H__ = 0x3e
   4               	__SP_L__ = 0x3d
   5               	__CCP__  = 0x34
   6               	__tmp_reg__ = 0
   7               	__zero_reg__ = 1
   8               		.text
   9               	.global	AvrTargetCmd
  10               		.type	AvrTargetCmd, @function
  11               	AvrTargetCmd:
  12 0000 AF92      		push r10
  13 0002 BF92      		push r11
  14 0004 CF92      		push r12
  15 0006 DF92      		push r13
  16 0008 0F93      		push r16
  17 000a DF93      		push r29
  18 000c CF93      		push r28
  19 000e 00D0      		rcall .
  20 0010 00D0      		rcall .
  21 0012 CDB7      		in r28,__SP_L__
  22 0014 DEB7      		in r29,__SP_H__
  23               	/* prologue: function */
  24               	/* frame size = 4 */
  25 0016 5B01      		movw r10,r22
  26 0018 6C01      		movw r12,r24
  27 001a 20E0      		ldi r18,lo8(0)
  28 001c 30E0      		ldi r19,hi8(0)
  29 001e 40E0      		ldi r20,hlo8(0)
  30 0020 50E0      		ldi r21,hhi8(0)
  31 0022 00E0      		ldi r16,lo8(0)
  32               	.L2:
  33 0024 B42F      		mov r27,r20
  34 0026 A32F      		mov r26,r19
  35 0028 922F      		mov r25,r18
  36 002a 8827      		clr r24
  37 002c 8983      		std Y+1,r24
  38 002e 9A83      		std Y+2,r25
  39 0030 AB83      		std Y+3,r26
  40 0032 BC83      		std Y+4,r27
  41 0034 8D2D      		mov r24,r13
  42 0036 9927      		clr r25
  43 0038 AA27      		clr r26
  44 003a BB27      		clr r27
  45 003c 0E94 0000 		call Sppi0Byte
  46 0040 282F      		mov r18,r24
  47 0042 30E0      		ldi r19,lo8(0)
  48 0044 40E0      		ldi r20,lo8(0)
  49 0046 50E0      		ldi r21,hi8(0)
  50 0048 8981      		ldd r24,Y+1
  51 004a 9A81      		ldd r25,Y+2
  52 004c AB81      		ldd r26,Y+3
  53 004e BC81      		ldd r27,Y+4
  54 0050 282B      		or r18,r24
  55 0052 392B      		or r19,r25
  56 0054 4A2B      		or r20,r26
  57 0056 5B2B      		or r21,r27
GAS LISTING C:\DOCUME~1\ADMINI~1\LOCALS~1\Temp/ccbcBlAq.s 			page 2


  58 0058 DC2C      		mov r13,r12
  59 005a CB2C      		mov r12,r11
  60 005c BA2C      		mov r11,r10
  61 005e AA24      		clr r10
  62 0060 0F5F      		subi r16,lo8(-(1))
  63 0062 0430      		cpi r16,lo8(4)
  64 0064 01F4      		brne .L2
  65 0066 B901      		movw r22,r18
  66 0068 CA01      		movw r24,r20
  67               	/* epilogue start */
  68 006a 0F90      		pop __tmp_reg__
  69 006c 0F90      		pop __tmp_reg__
  70 006e 0F90      		pop __tmp_reg__
  71 0070 0F90      		pop __tmp_reg__
  72 0072 CF91      		pop r28
  73 0074 DF91      		pop r29
  74 0076 0F91      		pop r16
  75 0078 DF90      		pop r13
  76 007a CF90      		pop r12
  77 007c BF90      		pop r11
  78 007e AF90      		pop r10
  79 0080 0895      		ret
  80               		.size	AvrTargetCmd, .-AvrTargetCmd
  81               	.global	AvrTargetPageVerify
  82               		.type	AvrTargetPageVerify, @function
  83               	AvrTargetPageVerify:
  84 0082 9F92      		push r9
  85 0084 AF92      		push r10
  86 0086 BF92      		push r11
  87 0088 CF92      		push r12
  88 008a DF92      		push r13
  89 008c EF92      		push r14
  90 008e FF92      		push r15
  91 0090 0F93      		push r16
  92 0092 1F93      		push r17
  93 0094 CF93      		push r28
  94 0096 DF93      		push r29
  95               	/* prologue: function */
  96               	/* frame size = 0 */
  97 0098 5B01      		movw r10,r22
  98 009a 6C01      		movw r12,r24
  99 009c EA01      		movw r28,r20
 100 009e E6E0      		ldi r30,6
 101 00a0 AA0C      	1:	lsl r10
 102 00a2 BB1C      		rol r11
 103 00a4 CC1C      		rol r12
 104 00a6 DD1C      		rol r13
 105 00a8 EA95      		dec r30
 106 00aa 01F4      		brne 1b
 107 00ac 9924      		clr r9
 108               	.L9:
 109 00ae 1C2D      		mov r17,r12
 110 00b0 0B2D      		mov r16,r11
 111 00b2 FA2C      		mov r15,r10
 112 00b4 EE24      		clr r14
 113 00b6 C801      		movw r24,r16
 114 00b8 B701      		movw r22,r14
GAS LISTING C:\DOCUME~1\ADMINI~1\LOCALS~1\Temp/ccbcBlAq.s 			page 3


 115 00ba 9062      		ori r25,hhi8(536870912)
 116 00bc 0E94 0000 		call AvrTargetCmd
 117 00c0 8881      		ld r24,Y
 118 00c2 8617      		cp r24,r22
 119 00c4 01F4      		brne .L6
 120 00c6 80E0      		ldi r24,lo8(671088640)
 121 00c8 90E0      		ldi r25,hi8(671088640)
 122 00ca A0E0      		ldi r26,hlo8(671088640)
 123 00cc B8E2      		ldi r27,hhi8(671088640)
 124 00ce E82A      		or r14,r24
 125 00d0 F92A      		or r15,r25
 126 00d2 0A2B      		or r16,r26
 127 00d4 1B2B      		or r17,r27
 128 00d6 C801      		movw r24,r16
 129 00d8 B701      		movw r22,r14
 130 00da 0E94 0000 		call AvrTargetCmd
 131 00de 8981      		ldd r24,Y+1
 132 00e0 8617      		cp r24,r22
 133 00e2 01F4      		brne .L6
 134 00e4 9394      		inc r9
 135 00e6 90E4      		ldi r25,lo8(64)
 136 00e8 9916      		cp r9,r25
 137 00ea 01F4      		brne .L7
 138 00ec 20E0      		ldi r18,lo8(0)
 139 00ee 30E0      		ldi r19,hi8(0)
 140 00f0 00C0      		rjmp .L8
 141               	.L7:
 142 00f2 2296      		adiw r28,2
 143 00f4 0894      		sec
 144 00f6 A11C      		adc r10,__zero_reg__
 145 00f8 B11C      		adc r11,__zero_reg__
 146 00fa C11C      		adc r12,__zero_reg__
 147 00fc D11C      		adc r13,__zero_reg__
 148 00fe 00C0      		rjmp .L9
 149               	.L6:
 150 0100 2FEF      		ldi r18,lo8(-1)
 151 0102 3FEF      		ldi r19,hi8(-1)
 152               	.L8:
 153 0104 C901      		movw r24,r18
 154               	/* epilogue start */
 155 0106 DF91      		pop r29
 156 0108 CF91      		pop r28
 157 010a 1F91      		pop r17
 158 010c 0F91      		pop r16
 159 010e FF90      		pop r15
 160 0110 EF90      		pop r14
 161 0112 DF90      		pop r13
 162 0114 CF90      		pop r12
 163 0116 BF90      		pop r11
 164 0118 AF90      		pop r10
 165 011a 9F90      		pop r9
 166 011c 0895      		ret
 167               		.size	AvrTargetPageVerify, .-AvrTargetPageVerify
 168               	.global	AvrTargetPageLoad
 169               		.type	AvrTargetPageLoad, @function
 170               	AvrTargetPageLoad:
 171 011e 9F92      		push r9
GAS LISTING C:\DOCUME~1\ADMINI~1\LOCALS~1\Temp/ccbcBlAq.s 			page 4


 172 0120 AF92      		push r10
 173 0122 BF92      		push r11
 174 0124 CF92      		push r12
 175 0126 DF92      		push r13
 176 0128 EF92      		push r14
 177 012a FF92      		push r15
 178 012c 0F93      		push r16
 179 012e 1F93      		push r17
 180 0130 CF93      		push r28
 181 0132 DF93      		push r29
 182               	/* prologue: function */
 183               	/* frame size = 0 */
 184 0134 5B01      		movw r10,r22
 185 0136 6C01      		movw r12,r24
 186 0138 EA01      		movw r28,r20
 187 013a A6E0      		ldi r26,6
 188 013c AA0C      	1:	lsl r10
 189 013e BB1C      		rol r11
 190 0140 CC1C      		rol r12
 191 0142 DD1C      		rol r13
 192 0144 AA95      		dec r26
 193 0146 01F4      		brne 1b
 194 0148 9924      		clr r9
 195               	.L12:
 196 014a 1C2D      		mov r17,r12
 197 014c 0B2D      		mov r16,r11
 198 014e FA2C      		mov r15,r10
 199 0150 EE24      		clr r14
 200 0152 6881      		ld r22,Y
 201 0154 70E0      		ldi r23,lo8(0)
 202 0156 80E0      		ldi r24,lo8(0)
 203 0158 90E0      		ldi r25,hi8(0)
 204 015a 9064      		ori r25,hhi8(1073741824)
 205 015c 6E29      		or r22,r14
 206 015e 7F29      		or r23,r15
 207 0160 802B      		or r24,r16
 208 0162 912B      		or r25,r17
 209 0164 0E94 0000 		call AvrTargetCmd
 210 0168 6981      		ldd r22,Y+1
 211 016a 70E0      		ldi r23,lo8(0)
 212 016c 80E0      		ldi r24,lo8(0)
 213 016e 90E0      		ldi r25,hi8(0)
 214 0170 9864      		ori r25,hhi8(1207959552)
 215 0172 6E29      		or r22,r14
 216 0174 7F29      		or r23,r15
 217 0176 802B      		or r24,r16
 218 0178 912B      		or r25,r17
 219 017a 0E94 0000 		call AvrTargetCmd
 220 017e 2296      		adiw r28,2
 221 0180 0894      		sec
 222 0182 A11C      		adc r10,__zero_reg__
 223 0184 B11C      		adc r11,__zero_reg__
 224 0186 C11C      		adc r12,__zero_reg__
 225 0188 D11C      		adc r13,__zero_reg__
 226 018a 9394      		inc r9
 227 018c 80E4      		ldi r24,lo8(64)
 228 018e 9816      		cp r9,r24
GAS LISTING C:\DOCUME~1\ADMINI~1\LOCALS~1\Temp/ccbcBlAq.s 			page 5


 229 0190 01F4      		brne .L12
 230               	/* epilogue start */
 231 0192 DF91      		pop r29
 232 0194 CF91      		pop r28
 233 0196 1F91      		pop r17
 234 0198 0F91      		pop r16
 235 019a FF90      		pop r15
 236 019c EF90      		pop r14
 237 019e DF90      		pop r13
 238 01a0 CF90      		pop r12
 239 01a2 BF90      		pop r11
 240 01a4 AF90      		pop r10
 241 01a6 9F90      		pop r9
 242 01a8 0895      		ret
 243               		.size	AvrTargetPageLoad, .-AvrTargetPageLoad
 244               	.global	AvrTargetPollReady
 245               		.type	AvrTargetPollReady, @function
 246               	AvrTargetPollReady:
 247 01aa CF93      		push r28
 248 01ac DF93      		push r29
 249               	/* prologue: function */
 250               	/* frame size = 0 */
 251 01ae EC01      		movw r28,r24
 252 01b0 00C0      		rjmp .L16
 253               	.L19:
 254 01b2 2097      		sbiw r28,0
 255 01b4 01F4      		brne .L17
 256 01b6 2FEF      		ldi r18,lo8(-1)
 257 01b8 3FEF      		ldi r19,hi8(-1)
 258 01ba 00C0      		rjmp .L18
 259               	.L17:
 260 01bc 2197      		sbiw r28,1
 261 01be 61E0      		ldi r22,lo8(1)
 262 01c0 70E0      		ldi r23,hi8(1)
 263 01c2 80E0      		ldi r24,hlo8(1)
 264 01c4 90E0      		ldi r25,hhi8(1)
 265 01c6 0E94 0000 		call NutSleep
 266 01ca 82E0      		ldi r24,lo8(2)
 267 01cc 0E94 0000 		call Sppi0NegSelectDevice
 268               	.L16:
 269 01d0 60E0      		ldi r22,lo8(-268435456)
 270 01d2 70E0      		ldi r23,hi8(-268435456)
 271 01d4 80E0      		ldi r24,hlo8(-268435456)
 272 01d6 90EF      		ldi r25,hhi8(-268435456)
 273 01d8 0E94 0000 		call AvrTargetCmd
 274 01dc 6170      		andi r22,lo8(1)
 275 01de 7070      		andi r23,hi8(1)
 276 01e0 672B      		or r22,r23
 277 01e2 01F4      		brne .L19
 278 01e4 20E0      		ldi r18,lo8(0)
 279 01e6 30E0      		ldi r19,hi8(0)
 280               	.L18:
 281 01e8 C901      		movw r24,r18
 282               	/* epilogue start */
 283 01ea DF91      		pop r29
 284 01ec CF91      		pop r28
 285 01ee 0895      		ret
GAS LISTING C:\DOCUME~1\ADMINI~1\LOCALS~1\Temp/ccbcBlAq.s 			page 6


 286               		.size	AvrTargetPollReady, .-AvrTargetPollReady
 287               	.global	AvrTargetPageWrite
 288               		.type	AvrTargetPageWrite, @function
 289               	AvrTargetPageWrite:
 290               	/* prologue: function */
 291               	/* frame size = 0 */
 292 01f0 BEE0      		ldi r27,14
 293 01f2 660F      	1:	lsl r22
 294 01f4 771F      		rol r23
 295 01f6 881F      		rol r24
 296 01f8 991F      		rol r25
 297 01fa BA95      		dec r27
 298 01fc 01F4      		brne 1b
 299 01fe 9C64      		ori r25,hhi8(1275068416)
 300 0200 0E94 0000 		call AvrTargetCmd
 301 0204 8AE0      		ldi r24,lo8(10)
 302 0206 90E0      		ldi r25,hi8(10)
 303 0208 0E94 0000 		call AvrTargetPollReady
 304               	/* epilogue start */
 305 020c 0895      		ret
 306               		.size	AvrTargetPageWrite, .-AvrTargetPageWrite
 307               	.global	AvrTargetChipErase
 308               		.type	AvrTargetChipErase, @function
 309               	AvrTargetChipErase:
 310               	/* prologue: function */
 311               	/* frame size = 0 */
 312 020e 60E0      		ldi r22,lo8(-1400897536)
 313 0210 70E0      		ldi r23,hi8(-1400897536)
 314 0212 80E8      		ldi r24,hlo8(-1400897536)
 315 0214 9CEA      		ldi r25,hhi8(-1400897536)
 316 0216 0E94 0000 		call AvrTargetCmd
 317 021a 88EC      		ldi r24,lo8(200)
 318 021c 90E0      		ldi r25,hi8(200)
 319 021e 0E94 0000 		call AvrTargetPollReady
 320               	/* epilogue start */
 321 0222 0895      		ret
 322               		.size	AvrTargetChipErase, .-AvrTargetChipErase
 323               	.global	AvrTargetFusesWriteSafe
 324               		.type	AvrTargetFusesWriteSafe, @function
 325               	AvrTargetFusesWriteSafe:
 326 0224 EF92      		push r14
 327 0226 FF92      		push r15
 328 0228 0F93      		push r16
 329 022a 1F93      		push r17
 330               	/* prologue: function */
 331               	/* frame size = 0 */
 332 022c 7B01      		movw r14,r22
 333 022e 8C01      		movw r16,r24
 334 0230 82E6      		ldi r24,lo8(16285794)
 335 0232 90E8      		ldi r25,hi8(16285794)
 336 0234 A8EF      		ldi r26,hlo8(16285794)
 337 0236 B0E0      		ldi r27,hhi8(16285794)
 338 0238 E82A      		or r14,r24
 339 023a F92A      		or r15,r25
 340 023c 0A2B      		or r16,r26
 341 023e 1B2B      		or r17,r27
 342 0240 82EE      		ldi r24,lo8(-8222)
GAS LISTING C:\DOCUME~1\ADMINI~1\LOCALS~1\Temp/ccbcBlAq.s 			page 7


 343 0242 9FED      		ldi r25,hi8(-8222)
 344 0244 AFEF      		ldi r26,hlo8(-8222)
 345 0246 BFEF      		ldi r27,hhi8(-8222)
 346 0248 E822      		and r14,r24
 347 024a F922      		and r15,r25
 348 024c 0A23      		and r16,r26
 349 024e 1B23      		and r17,r27
 350 0250 6E2D      		mov r22,r14
 351 0252 70E0      		ldi r23,lo8(0)
 352 0254 80E0      		ldi r24,lo8(0)
 353 0256 90E0      		ldi r25,hi8(0)
 354 0258 806A      		ori r24,hlo8(-1398800384)
 355 025a 9C6A      		ori r25,hhi8(-1398800384)
 356 025c 0E94 0000 		call AvrTargetCmd
 357 0260 9927      		clr r25
 358 0262 812F      		mov r24,r17
 359 0264 702F      		mov r23,r16
 360 0266 6F2D      		mov r22,r15
 361 0268 70E0      		ldi r23,lo8(0)
 362 026a 80E0      		ldi r24,lo8(0)
 363 026c 90E0      		ldi r25,hi8(0)
 364 026e 886A      		ori r24,hlo8(-1398276096)
 365 0270 9C6A      		ori r25,hhi8(-1398276096)
 366 0272 0E94 0000 		call AvrTargetCmd
 367 0276 B801      		movw r22,r16
 368 0278 8827      		clr r24
 369 027a 9927      		clr r25
 370 027c 70E0      		ldi r23,lo8(0)
 371 027e 80E0      		ldi r24,lo8(0)
 372 0280 90E0      		ldi r25,hi8(0)
 373 0282 846A      		ori r24,hlo8(-1398538240)
 374 0284 9C6A      		ori r25,hhi8(-1398538240)
 375 0286 0E94 0000 		call AvrTargetCmd
 376 028a B701      		movw r22,r14
 377 028c C801      		movw r24,r16
 378               	/* epilogue start */
 379 028e 1F91      		pop r17
 380 0290 0F91      		pop r16
 381 0292 FF90      		pop r15
 382 0294 EF90      		pop r14
 383 0296 0895      		ret
 384               		.size	AvrTargetFusesWriteSafe, .-AvrTargetFusesWriteSafe
 385               	.global	AvrTargetFusesRead
 386               		.type	AvrTargetFusesRead, @function
 387               	AvrTargetFusesRead:
 388 0298 EF92      		push r14
 389 029a FF92      		push r15
 390 029c 0F93      		push r16
 391 029e 1F93      		push r17
 392               	/* prologue: function */
 393               	/* frame size = 0 */
 394 02a0 60E0      		ldi r22,lo8(1342701568)
 395 02a2 70E0      		ldi r23,hi8(1342701568)
 396 02a4 88E0      		ldi r24,hlo8(1342701568)
 397 02a6 90E5      		ldi r25,hhi8(1342701568)
 398 02a8 0E94 0000 		call AvrTargetCmd
 399 02ac E62E      		mov r14,r22
GAS LISTING C:\DOCUME~1\ADMINI~1\LOCALS~1\Temp/ccbcBlAq.s 			page 8


 400 02ae FF24      		clr r15
 401 02b0 00E0      		ldi r16,lo8(0)
 402 02b2 10E0      		ldi r17,hi8(0)
 403 02b4 102F      		mov r17,r16
 404 02b6 0F2D      		mov r16,r15
 405 02b8 FE2C      		mov r15,r14
 406 02ba EE24      		clr r14
 407 02bc 60E0      		ldi r22,lo8(1476919296)
 408 02be 70E0      		ldi r23,hi8(1476919296)
 409 02c0 88E0      		ldi r24,hlo8(1476919296)
 410 02c2 98E5      		ldi r25,hhi8(1476919296)
 411 02c4 0E94 0000 		call AvrTargetCmd
 412 02c8 70E0      		ldi r23,lo8(0)
 413 02ca 80E0      		ldi r24,lo8(0)
 414 02cc 90E0      		ldi r25,hi8(0)
 415 02ce E62A      		or r14,r22
 416 02d0 F72A      		or r15,r23
 417 02d2 082B      		or r16,r24
 418 02d4 192B      		or r17,r25
 419 02d6 102F      		mov r17,r16
 420 02d8 0F2D      		mov r16,r15
 421 02da FE2C      		mov r15,r14
 422 02dc EE24      		clr r14
 423 02de 60E0      		ldi r22,lo8(1342177280)
 424 02e0 70E0      		ldi r23,hi8(1342177280)
 425 02e2 80E0      		ldi r24,hlo8(1342177280)
 426 02e4 90E5      		ldi r25,hhi8(1342177280)
 427 02e6 0E94 0000 		call AvrTargetCmd
 428 02ea 262F      		mov r18,r22
 429 02ec 30E0      		ldi r19,lo8(0)
 430 02ee 40E0      		ldi r20,lo8(0)
 431 02f0 50E0      		ldi r21,hi8(0)
 432 02f2 2E29      		or r18,r14
 433 02f4 3F29      		or r19,r15
 434 02f6 402B      		or r20,r16
 435 02f8 512B      		or r21,r17
 436 02fa B901      		movw r22,r18
 437 02fc CA01      		movw r24,r20
 438               	/* epilogue start */
 439 02fe 1F91      		pop r17
 440 0300 0F91      		pop r16
 441 0302 FF90      		pop r15
 442 0304 EF90      		pop r14
 443 0306 0895      		ret
 444               		.size	AvrTargetFusesRead, .-AvrTargetFusesRead
 445               	.global	AvrTargetSignature
 446               		.type	AvrTargetSignature, @function
 447               	AvrTargetSignature:
 448 0308 AF92      		push r10
 449 030a BF92      		push r11
 450 030c CF92      		push r12
 451 030e DF92      		push r13
 452 0310 EF92      		push r14
 453 0312 FF92      		push r15
 454 0314 0F93      		push r16
 455 0316 1F93      		push r17
 456               	/* prologue: function */
GAS LISTING C:\DOCUME~1\ADMINI~1\LOCALS~1\Temp/ccbcBlAq.s 			page 9


 457               	/* frame size = 0 */
 458 0318 20E0      		ldi r18,lo8(0)
 459 031a 30E0      		ldi r19,hi8(0)
 460 031c 40E0      		ldi r20,hlo8(0)
 461 031e 50E0      		ldi r21,hhi8(0)
 462 0320 AA24      		clr r10
 463 0322 BB24      		clr r11
 464 0324 6501      		movw r12,r10
 465               	.L30:
 466 0326 EE24      		clr r14
 467 0328 F22E      		mov r15,r18
 468 032a 032F      		mov r16,r19
 469 032c 142F      		mov r17,r20
 470 032e 9C2D      		mov r25,r12
 471 0330 8B2D      		mov r24,r11
 472 0332 7A2D      		mov r23,r10
 473 0334 6627      		clr r22
 474 0336 9063      		ori r25,hhi8(805306368)
 475 0338 0E94 0000 		call AvrTargetCmd
 476 033c 262F      		mov r18,r22
 477 033e 30E0      		ldi r19,lo8(0)
 478 0340 40E0      		ldi r20,lo8(0)
 479 0342 50E0      		ldi r21,hi8(0)
 480 0344 2E29      		or r18,r14
 481 0346 3F29      		or r19,r15
 482 0348 402B      		or r20,r16
 483 034a 512B      		or r21,r17
 484 034c 0894      		sec
 485 034e A11C      		adc r10,__zero_reg__
 486 0350 B11C      		adc r11,__zero_reg__
 487 0352 C11C      		adc r12,__zero_reg__
 488 0354 D11C      		adc r13,__zero_reg__
 489 0356 83E0      		ldi r24,lo8(3)
 490 0358 A816      		cp r10,r24
 491 035a B104      		cpc r11,__zero_reg__
 492 035c C104      		cpc r12,__zero_reg__
 493 035e D104      		cpc r13,__zero_reg__
 494 0360 01F4      		brne .L30
 495 0362 B901      		movw r22,r18
 496 0364 CA01      		movw r24,r20
 497               	/* epilogue start */
 498 0366 1F91      		pop r17
 499 0368 0F91      		pop r16
 500 036a FF90      		pop r15
 501 036c EF90      		pop r14
 502 036e DF90      		pop r13
 503 0370 CF90      		pop r12
 504 0372 BF90      		pop r11
 505 0374 AF90      		pop r10
 506 0376 0895      		ret
 507               		.size	AvrTargetSignature, .-AvrTargetSignature
 508               	.global	AvrTargetProgEnable
 509               		.type	AvrTargetProgEnable, @function
 510               	AvrTargetProgEnable:
 511               	/* prologue: function */
 512               	/* frame size = 0 */
 513 0378 60E0      		ldi r22,lo8(-1403846656)
GAS LISTING C:\DOCUME~1\ADMINI~1\LOCALS~1\Temp/ccbcBlAq.s 			page 10


 514 037a 70E0      		ldi r23,hi8(-1403846656)
 515 037c 83E5      		ldi r24,hlo8(-1403846656)
 516 037e 9CEA      		ldi r25,hhi8(-1403846656)
 517 0380 0E94 0000 		call AvrTargetCmd
 518 0384 672F      		mov r22,r23
 519 0386 782F      		mov r23,r24
 520 0388 892F      		mov r24,r25
 521 038a 9927      		clr r25
 522 038c 6335      		cpi r22,lo8(83)
 523 038e 01F4      		brne .L34
 524 0390 20E0      		ldi r18,lo8(0)
 525 0392 30E0      		ldi r19,hi8(0)
 526 0394 00C0      		rjmp .L35
 527               	.L34:
 528 0396 2FEF      		ldi r18,lo8(-1)
 529 0398 3FEF      		ldi r19,hi8(-1)
 530               	.L35:
 531 039a C901      		movw r24,r18
 532               	/* epilogue start */
 533 039c 0895      		ret
 534               		.size	AvrTargetProgEnable, .-AvrTargetProgEnable
 535               	.global	AvrTargetReset
 536               		.type	AvrTargetReset, @function
 537               	AvrTargetReset:
 538               	/* prologue: function */
 539               	/* frame size = 0 */
 540 039e 60E0      		ldi r22,lo8(0)
 541 03a0 8823      		tst r24
 542 03a2 01F4      		brne .L38
 543 03a4 61E0      		ldi r22,lo8(1)
 544               	.L38:
 545 03a6 82E0      		ldi r24,lo8(2)
 546 03a8 0E94 0000 		call Sppi0ChipReset
 547               	/* epilogue start */
 548 03ac 0895      		ret
 549               		.size	AvrTargetReset, .-AvrTargetReset
 550               	.global	AvrTargetSelect
 551               		.type	AvrTargetSelect, @function
 552               	AvrTargetSelect:
 553               	/* prologue: function */
 554               	/* frame size = 0 */
 555 03ae 8823      		tst r24
 556 03b0 01F0      		breq .L41
 557 03b2 82E0      		ldi r24,lo8(2)
 558 03b4 0E94 0000 		call Sppi0NegSelectDevice
 559 03b8 0895      		ret
 560               	.L41:
 561 03ba 82E0      		ldi r24,lo8(2)
 562 03bc 0E94 0000 		call Sppi0NegDeselectDevice
 563 03c0 0895      		ret
 564               		.size	AvrTargetSelect, .-AvrTargetSelect
 565               	.global	AvrTargetInit
 566               		.type	AvrTargetInit, @function
 567               	AvrTargetInit:
 568               	/* prologue: function */
 569               	/* frame size = 0 */
 570 03c2 82E0      		ldi r24,lo8(2)
GAS LISTING C:\DOCUME~1\ADMINI~1\LOCALS~1\Temp/ccbcBlAq.s 			page 11


 571 03c4 60E0      		ldi r22,lo8(0)
 572 03c6 0E94 0000 		call Sppi0SetMode
 573 03ca 892B      		or r24,r25
 574 03cc 01F0      		breq .L45
 575 03ce 2FEF      		ldi r18,lo8(-1)
 576 03d0 3FEF      		ldi r19,hi8(-1)
 577 03d2 00C0      		rjmp .L46
 578               	.L45:
 579 03d4 82E0      		ldi r24,lo8(2)
 580 03d6 40EA      		ldi r20,lo8(100000)
 581 03d8 56E8      		ldi r21,hi8(100000)
 582 03da 61E0      		ldi r22,hlo8(100000)
 583 03dc 70E0      		ldi r23,hhi8(100000)
 584 03de 0E94 0000 		call Sppi0SetSpeed
 585 03e2 82E0      		ldi r24,lo8(2)
 586 03e4 0E94 0000 		call Sppi0NegDeselectDevice
 587 03e8 20E0      		ldi r18,lo8(0)
 588 03ea 30E0      		ldi r19,hi8(0)
 589               	.L46:
 590 03ec C901      		movw r24,r18
 591               	/* epilogue start */
 592 03ee 0895      		ret
 593               		.size	AvrTargetInit, .-AvrTargetInit
GAS LISTING C:\DOCUME~1\ADMINI~1\LOCALS~1\Temp/ccbcBlAq.s 			page 12


DEFINED SYMBOLS
                            *ABS*:00000000 avrtarget.c
C:\DOCUME~1\ADMINI~1\LOCALS~1\Temp/ccbcBlAq.s:2      *ABS*:0000003f __SREG__
C:\DOCUME~1\ADMINI~1\LOCALS~1\Temp/ccbcBlAq.s:3      *ABS*:0000003e __SP_H__
C:\DOCUME~1\ADMINI~1\LOCALS~1\Temp/ccbcBlAq.s:4      *ABS*:0000003d __SP_L__
C:\DOCUME~1\ADMINI~1\LOCALS~1\Temp/ccbcBlAq.s:5      *ABS*:00000034 __CCP__
C:\DOCUME~1\ADMINI~1\LOCALS~1\Temp/ccbcBlAq.s:6      *ABS*:00000000 __tmp_reg__
C:\DOCUME~1\ADMINI~1\LOCALS~1\Temp/ccbcBlAq.s:7      *ABS*:00000001 __zero_reg__
C:\DOCUME~1\ADMINI~1\LOCALS~1\Temp/ccbcBlAq.s:11     .text:00000000 AvrTargetCmd
C:\DOCUME~1\ADMINI~1\LOCALS~1\Temp/ccbcBlAq.s:83     .text:00000082 AvrTargetPageVerify
C:\DOCUME~1\ADMINI~1\LOCALS~1\Temp/ccbcBlAq.s:170    .text:0000011e AvrTargetPageLoad
C:\DOCUME~1\ADMINI~1\LOCALS~1\Temp/ccbcBlAq.s:246    .text:000001aa AvrTargetPollReady
C:\DOCUME~1\ADMINI~1\LOCALS~1\Temp/ccbcBlAq.s:289    .text:000001f0 AvrTargetPageWrite
C:\DOCUME~1\ADMINI~1\LOCALS~1\Temp/ccbcBlAq.s:309    .text:0000020e AvrTargetChipErase
C:\DOCUME~1\ADMINI~1\LOCALS~1\Temp/ccbcBlAq.s:325    .text:00000224 AvrTargetFusesWriteSafe
C:\DOCUME~1\ADMINI~1\LOCALS~1\Temp/ccbcBlAq.s:387    .text:00000298 AvrTargetFusesRead
C:\DOCUME~1\ADMINI~1\LOCALS~1\Temp/ccbcBlAq.s:447    .text:00000308 AvrTargetSignature
C:\DOCUME~1\ADMINI~1\LOCALS~1\Temp/ccbcBlAq.s:510    .text:00000378 AvrTargetProgEnable
C:\DOCUME~1\ADMINI~1\LOCALS~1\Temp/ccbcBlAq.s:537    .text:0000039e AvrTargetReset
C:\DOCUME~1\ADMINI~1\LOCALS~1\Temp/ccbcBlAq.s:552    .text:000003ae AvrTargetSelect
C:\DOCUME~1\ADMINI~1\LOCALS~1\Temp/ccbcBlAq.s:567    .text:000003c2 AvrTargetInit

UNDEFINED SYMBOLS
Sppi0Byte
NutSleep
Sppi0NegSelectDevice
Sppi0ChipReset
Sppi0NegDeselectDevice
Sppi0SetMode
Sppi0SetSpeed
