GAS LISTING C:\DOCUME~1\ADMINI~1\LOCALS~1\Temp/ccdxFczp.s 			page 1


   1               		.file	"jtag_gpio0.c"
   2               	__SREG__ = 0x3f
   3               	__SP_H__ = 0x3e
   4               	__SP_L__ = 0x3d
   5               	__CCP__  = 0x34
   6               	__tmp_reg__ = 0
   7               	__zero_reg__ = 1
   8               		.text
   9               		.type	JtagCable0TmsFlush, @function
  10               	JtagCable0TmsFlush:
  11               	/* prologue: function */
  12               	/* frame size = 0 */
  13 0000 FC01      		movw r30,r24
  14 0002 DC01      		movw r26,r24
  15 0004 AE5F      		subi r26,lo8(-(258))
  16 0006 BE4F      		sbci r27,hi8(-(258))
  17 0008 8D91      		ld r24,X+
  18 000a 9C91      		ld r25,X
  19 000c 1197      		sbiw r26,1
  20 000e 892B      		or r24,r25
  21 0010 01F0      		breq .L2
  22 0012 1D92      		st X+,__zero_reg__
  23 0014 1C92      		st X,__zero_reg__
  24               	.L2:
  25 0016 E050      		subi r30,lo8(-(256))
  26 0018 FF4F      		sbci r31,hi8(-(256))
  27 001a 1182      		std Z+1,__zero_reg__
  28 001c 1082      		st Z,__zero_reg__
  29               	/* epilogue start */
  30 001e 0895      		ret
  31               		.size	JtagCable0TmsFlush, .-JtagCable0TmsFlush
  32               		.type	JtagCable0TargetReset, @function
  33               	JtagCable0TargetReset:
  34               	/* prologue: function */
  35               	/* frame size = 0 */
  36 0020 6623      		tst r22
  37 0022 01F0      		breq .L6
  38 0024 0E94 0000 		call JtagCable0TmsFlush
  39               	.L6:
  40 0028 0895      		ret
  41               		.size	JtagCable0TargetReset, .-JtagCable0TargetReset
  42               		.type	JtagCable0TmsPut, @function
  43               	JtagCable0TmsPut:
  44 002a AF92      		push r10
  45 002c BF92      		push r11
  46 002e CF92      		push r12
  47 0030 DF92      		push r13
  48 0032 EF92      		push r14
  49 0034 FF92      		push r15
  50 0036 0F93      		push r16
  51 0038 1F93      		push r17
  52 003a CF93      		push r28
  53 003c DF93      		push r29
  54               	/* prologue: function */
  55               	/* frame size = 0 */
  56 003e 6C01      		movw r12,r24
  57 0040 E62E      		mov r14,r22
GAS LISTING C:\DOCUME~1\ADMINI~1\LOCALS~1\Temp/ccdxFczp.s 			page 2


  58 0042 F42E      		mov r15,r20
  59 0044 EC01      		movw r28,r24
  60 0046 CE5F      		subi r28,lo8(-(258))
  61 0048 DE4F      		sbci r29,hi8(-(258))
  62 004a 2881      		ld r18,Y
  63 004c 3981      		ldd r19,Y+1
  64 004e C250      		subi r28,lo8(-(-258))
  65 0050 D140      		sbci r29,hi8(-(-258))
  66 0052 8E01      		movw r16,r28
  67 0054 0050      		subi r16,lo8(-(256))
  68 0056 1F4F      		sbci r17,hi8(-(256))
  69 0058 81E0      		ldi r24,lo8(1)
  70 005a A82E      		mov r10,r24
  71 005c B12C      		mov r11,__zero_reg__
  72 005e 00C0      		rjmp .L19
  73               	.L15:
  74 0060 2115      		cp r18,__zero_reg__
  75 0062 3105      		cpc r19,__zero_reg__
  76 0064 01F4      		brne .L9
  77 0066 40E0      		ldi r20,lo8(0)
  78 0068 00C0      		rjmp .L20
  79               	.L9:
  80 006a D801      		movw r26,r16
  81 006c ED91      		ld r30,X+
  82 006e FC91      		ld r31,X
  83 0070 EC0F      		add r30,r28
  84 0072 FD1F      		adc r31,r29
  85 0074 4081      		ld r20,Z
  86 0076 00C0      		rjmp .L20
  87               	.L13:
  88 0078 E0FE      		sbrs r14,0
  89 007a 00C0      		rjmp .L11
  90 007c C501      		movw r24,r10
  91 007e 022E      		mov r0,r18
  92 0080 00C0      		rjmp 2f
  93 0082 880F      	1:	lsl r24
  94 0084 991F      		rol r25
  95 0086 0A94      	2:	dec r0
  96 0088 02F4      		brpl 1b
  97 008a 482B      		or r20,r24
  98               	.L11:
  99 008c E694      		lsr r14
 100 008e 2F5F      		subi r18,lo8(-(1))
 101 0090 3F4F      		sbci r19,hi8(-(1))
 102 0092 FA94      		dec r15
 103 0094 01F0      		breq .L12
 104               	.L20:
 105 0096 2830      		cpi r18,8
 106 0098 3105      		cpc r19,__zero_reg__
 107 009a 04F0      		brlt .L13
 108               	.L12:
 109 009c F801      		movw r30,r16
 110 009e 8081      		ld r24,Z
 111 00a0 9181      		ldd r25,Z+1
 112 00a2 FE01      		movw r30,r28
 113 00a4 E80F      		add r30,r24
 114 00a6 F91F      		adc r31,r25
GAS LISTING C:\DOCUME~1\ADMINI~1\LOCALS~1\Temp/ccdxFczp.s 			page 3


 115 00a8 4083      		st Z,r20
 116 00aa 2830      		cpi r18,8
 117 00ac 3105      		cpc r19,__zero_reg__
 118 00ae 04F0      		brlt .L19
 119 00b0 0196      		adiw r24,1
 120 00b2 D801      		movw r26,r16
 121 00b4 8D93      		st X+,r24
 122 00b6 9C93      		st X,r25
 123 00b8 8F3F      		cpi r24,255
 124 00ba 9105      		cpc r25,__zero_reg__
 125 00bc 01F0      		breq .L21
 126 00be 00F0      		brlo .L21
 127               	.L14:
 128 00c0 C601      		movw r24,r12
 129 00c2 0E94 0000 		call JtagCable0TmsFlush
 130               	.L21:
 131 00c6 20E0      		ldi r18,lo8(0)
 132 00c8 30E0      		ldi r19,hi8(0)
 133               	.L19:
 134 00ca FF20      		tst r15
 135 00cc 01F4      		brne .L15
 136 00ce CE5F      		subi r28,lo8(-(258))
 137 00d0 DE4F      		sbci r29,hi8(-(258))
 138 00d2 3983      		std Y+1,r19
 139 00d4 2883      		st Y,r18
 140               	/* epilogue start */
 141 00d6 DF91      		pop r29
 142 00d8 CF91      		pop r28
 143 00da 1F91      		pop r17
 144 00dc 0F91      		pop r16
 145 00de FF90      		pop r15
 146 00e0 EF90      		pop r14
 147 00e2 DF90      		pop r13
 148 00e4 CF90      		pop r12
 149 00e6 BF90      		pop r11
 150 00e8 AF90      		pop r10
 151 00ea 0895      		ret
 152               		.size	JtagCable0TmsPut, .-JtagCable0TmsPut
 153               		.type	JtagCable0TransferData, @function
 154               	JtagCable0TransferData:
 155 00ec CF92      		push r12
 156 00ee DF92      		push r13
 157 00f0 EF92      		push r14
 158 00f2 FF92      		push r15
 159 00f4 0F93      		push r16
 160 00f6 1F93      		push r17
 161 00f8 CF93      		push r28
 162 00fa DF93      		push r29
 163               	/* prologue: function */
 164               	/* frame size = 0 */
 165 00fc 6B01      		movw r12,r22
 166 00fe EA01      		movw r28,r20
 167 0100 7801      		movw r14,r16
 168 0102 8901      		movw r16,r18
 169 0104 0E94 0000 		call JtagCable0TmsFlush
 170 0108 00C0      		rjmp .L23
 171               	.L29:
GAS LISTING C:\DOCUME~1\ADMINI~1\LOCALS~1\Temp/ccdxFczp.s 			page 4


 172 010a 2097      		sbiw r28,0
 173 010c 01F4      		brne .L24
 174 010e 50E0      		ldi r21,lo8(0)
 175 0110 00C0      		rjmp .L25
 176               	.L24:
 177 0112 5991      		ld r21,Y+
 178               	.L25:
 179 0114 9801      		movw r18,r16
 180 0116 8701      		movw r16,r14
 181 0118 41E0      		ldi r20,lo8(1)
 182 011a D901      		movw r26,r18
 183 011c C801      		movw r24,r16
 184 011e 0897      		sbiw r24,8
 185 0120 A109      		sbc r26,__zero_reg__
 186 0122 B109      		sbc r27,__zero_reg__
 187               	.L27:
 188 0124 0150      		subi r16,lo8(-(-1))
 189 0126 1040      		sbci r17,hi8(-(-1))
 190 0128 2040      		sbci r18,hlo8(-(-1))
 191 012a 3040      		sbci r19,hhi8(-(-1))
 192 012c 542B      		or r21,r20
 193 012e 0115      		cp r16,__zero_reg__
 194 0130 1105      		cpc r17,__zero_reg__
 195 0132 2105      		cpc r18,__zero_reg__
 196 0134 3105      		cpc r19,__zero_reg__
 197 0136 01F0      		breq .L26
 198 0138 440F      		lsl r20
 199 013a 0817      		cp r16,r24
 200 013c 1907      		cpc r17,r25
 201 013e 2A07      		cpc r18,r26
 202 0140 3B07      		cpc r19,r27
 203 0142 01F4      		brne .L27
 204               	.L26:
 205 0144 C114      		cp r12,__zero_reg__
 206 0146 D104      		cpc r13,__zero_reg__
 207 0148 01F0      		breq .L28
 208 014a F601      		movw r30,r12
 209 014c 5193      		st Z+,r21
 210 014e 6F01      		movw r12,r30
 211               	.L28:
 212 0150 7801      		movw r14,r16
 213 0152 8901      		movw r16,r18
 214               	.L23:
 215 0154 E114      		cp r14,__zero_reg__
 216 0156 F104      		cpc r15,__zero_reg__
 217 0158 0105      		cpc r16,__zero_reg__
 218 015a 1105      		cpc r17,__zero_reg__
 219 015c 01F4      		brne .L29
 220               	/* epilogue start */
 221 015e DF91      		pop r29
 222 0160 CF91      		pop r28
 223 0162 1F91      		pop r17
 224 0164 0F91      		pop r16
 225 0166 FF90      		pop r15
 226 0168 EF90      		pop r14
 227 016a DF90      		pop r13
 228 016c CF90      		pop r12
GAS LISTING C:\DOCUME~1\ADMINI~1\LOCALS~1\Temp/ccdxFczp.s 			page 5


 229 016e 0895      		ret
 230               		.size	JtagCable0TransferData, .-JtagCable0TransferData
 231               		.type	JtagCable0Close, @function
 232               	JtagCable0Close:
 233 0170 0F93      		push r16
 234 0172 1F93      		push r17
 235               	/* prologue: function */
 236               	/* frame size = 0 */
 237 0174 8C01      		movw r16,r24
 238 0176 0E94 0000 		call JtagCable0TmsFlush
 239 017a C801      		movw r24,r16
 240 017c 0E94 0000 		call free
 241               	/* epilogue start */
 242 0180 1F91      		pop r17
 243 0182 0F91      		pop r16
 244 0184 0895      		ret
 245               		.size	JtagCable0Close, .-JtagCable0Close
 246               		.type	JtagCable0Open, @function
 247               	JtagCable0Open:
 248               	/* prologue: function */
 249               	/* frame size = 0 */
 250 0186 81E0      		ldi r24,lo8(1)
 251 0188 90E0      		ldi r25,hi8(1)
 252 018a 64E0      		ldi r22,lo8(260)
 253 018c 71E0      		ldi r23,hi8(260)
 254 018e 0E94 0000 		call calloc
 255               	/* epilogue start */
 256 0192 0895      		ret
 257               		.size	JtagCable0Open, .-JtagCable0Open
 258               	.global	jtag_gpio0
 259               		.data
 260               		.type	jtag_gpio0, @object
 261               		.size	jtag_gpio0, 12
 262               	jtag_gpio0:
 263 0000 0000      		.word	gs(JtagCable0Open)
 264 0002 0000      		.word	gs(JtagCable0Close)
 265 0004 0000      		.word	gs(JtagCable0TargetReset)
 266 0006 0000      		.word	gs(JtagCable0TmsPut)
 267 0008 0000      		.word	gs(JtagCable0TmsFlush)
 268 000a 0000      		.word	gs(JtagCable0TransferData)
 269               	.global __do_copy_data
GAS LISTING C:\DOCUME~1\ADMINI~1\LOCALS~1\Temp/ccdxFczp.s 			page 6


DEFINED SYMBOLS
                            *ABS*:00000000 jtag_gpio0.c
C:\DOCUME~1\ADMINI~1\LOCALS~1\Temp/ccdxFczp.s:2      *ABS*:0000003f __SREG__
C:\DOCUME~1\ADMINI~1\LOCALS~1\Temp/ccdxFczp.s:3      *ABS*:0000003e __SP_H__
C:\DOCUME~1\ADMINI~1\LOCALS~1\Temp/ccdxFczp.s:4      *ABS*:0000003d __SP_L__
C:\DOCUME~1\ADMINI~1\LOCALS~1\Temp/ccdxFczp.s:5      *ABS*:00000034 __CCP__
C:\DOCUME~1\ADMINI~1\LOCALS~1\Temp/ccdxFczp.s:6      *ABS*:00000000 __tmp_reg__
C:\DOCUME~1\ADMINI~1\LOCALS~1\Temp/ccdxFczp.s:7      *ABS*:00000001 __zero_reg__
C:\DOCUME~1\ADMINI~1\LOCALS~1\Temp/ccdxFczp.s:10     .text:00000000 JtagCable0TmsFlush
C:\DOCUME~1\ADMINI~1\LOCALS~1\Temp/ccdxFczp.s:33     .text:00000020 JtagCable0TargetReset
C:\DOCUME~1\ADMINI~1\LOCALS~1\Temp/ccdxFczp.s:43     .text:0000002a JtagCable0TmsPut
C:\DOCUME~1\ADMINI~1\LOCALS~1\Temp/ccdxFczp.s:154    .text:000000ec JtagCable0TransferData
C:\DOCUME~1\ADMINI~1\LOCALS~1\Temp/ccdxFczp.s:232    .text:00000170 JtagCable0Close
C:\DOCUME~1\ADMINI~1\LOCALS~1\Temp/ccdxFczp.s:247    .text:00000186 JtagCable0Open
C:\DOCUME~1\ADMINI~1\LOCALS~1\Temp/ccdxFczp.s:262    .data:00000000 jtag_gpio0

UNDEFINED SYMBOLS
free
calloc
__do_copy_data
