GAS LISTING C:\DOCUME~1\ADMINI~1\LOCALS~1\Temp/ccbY36z1.s 			page 1


   1               		.file	"spi_blkio_at45d.c"
   2               	__SREG__ = 0x3f
   3               	__SP_H__ = 0x3e
   4               	__SP_L__ = 0x3d
   5               	__CCP__  = 0x34
   6               	__tmp_reg__ = 0
   7               	__zero_reg__ = 1
   8               		.text
   9               		.type	At45dBlkIoWrite_P, @function
  10               	At45dBlkIoWrite_P:
  11               	/* prologue: function */
  12               	/* frame size = 0 */
  13 0000 8FEF      		ldi r24,lo8(-1)
  14 0002 9FEF      		ldi r25,hi8(-1)
  15               	/* epilogue start */
  16 0004 0895      		ret
  17               		.size	At45dBlkIoWrite_P, .-At45dBlkIoWrite_P
  18               		.type	At45dBlkIoCtl, @function
  19               	At45dBlkIoCtl:
  20               	/* prologue: function */
  21               	/* frame size = 0 */
  22 0006 FA01      		movw r30,r20
  23 0008 82E1      		ldi r24,hi8(4608)
  24 000a 6030      		cpi r22,lo8(4608)
  25 000c 7807      		cpc r23,r24
  26 000e 01F0      		breq .L5
  27 0010 6150      		subi r22,lo8(4609)
  28 0012 7241      		sbci r23,hi8(4609)
  29 0014 01F0      		breq .L6
  30 0016 2FEF      		ldi r18,lo8(-1)
  31 0018 3FEF      		ldi r19,hi8(-1)
  32 001a 00C0      		rjmp .L7
  33               	.L5:
  34 001c 81E0      		ldi r24,lo8(1)
  35 001e 90E0      		ldi r25,hi8(1)
  36 0020 9183      		std Z+1,r25
  37 0022 8083      		st Z,r24
  38 0024 00C0      		rjmp .L9
  39               	.L6:
  40 0026 1182      		std Z+1,__zero_reg__
  41 0028 1082      		st Z,__zero_reg__
  42               	.L9:
  43 002a 20E0      		ldi r18,lo8(0)
  44 002c 30E0      		ldi r19,hi8(0)
  45               	.L7:
  46 002e C901      		movw r24,r18
  47               	/* epilogue start */
  48 0030 0895      		ret
  49               		.size	At45dBlkIoCtl, .-At45dBlkIoCtl
  50               		.type	At45dBlkIoWrite, @function
  51               	At45dBlkIoWrite:
  52 0032 2F92      		push r2
  53 0034 3F92      		push r3
  54 0036 4F92      		push r4
  55 0038 5F92      		push r5
  56 003a 6F92      		push r6
  57 003c 7F92      		push r7
GAS LISTING C:\DOCUME~1\ADMINI~1\LOCALS~1\Temp/ccbY36z1.s 			page 2


  58 003e 8F92      		push r8
  59 0040 9F92      		push r9
  60 0042 AF92      		push r10
  61 0044 BF92      		push r11
  62 0046 CF92      		push r12
  63 0048 DF92      		push r13
  64 004a EF92      		push r14
  65 004c FF92      		push r15
  66 004e 0F93      		push r16
  67 0050 1F93      		push r17
  68 0052 DF93      		push r29
  69 0054 CF93      		push r28
  70 0056 CDB7      		in r28,__SP_L__
  71 0058 DEB7      		in r29,__SP_H__
  72 005a 2A97      		sbiw r28,10
  73 005c 0FB6      		in __tmp_reg__,__SREG__
  74 005e F894      		cli
  75 0060 DEBF      		out __SP_H__,r29
  76 0062 0FBE      		out __SREG__,__tmp_reg__
  77 0064 CDBF      		out __SP_L__,r28
  78               	/* prologue: function */
  79               	/* frame size = 10 */
  80 0066 FC01      		movw r30,r24
  81 0068 3A01      		movw r6,r20
  82 006a 4B01      		movw r8,r22
  83 006c 1887      		std Y+8,r17
  84 006e 0F83      		std Y+7,r16
  85 0070 012B      		or r16,r17
  86 0072 01F4      		brne .+2
  87 0074 00C0      		rjmp .L11
  88 0076 3E83      		std Y+6,r19
  89 0078 2D83      		std Y+5,r18
  90 007a 2784      		ldd r2,Z+15
  91 007c 3088      		ldd r3,Z+16
  92 007e 0188      		ldd __tmp_reg__,Z+17
  93 0080 F289      		ldd r31,Z+18
  94 0082 E02D      		mov r30,__tmp_reg__
  95 0084 2081      		ld r18,Z
  96 0086 3181      		ldd r19,Z+1
  97 0088 D901      		movw r26,r18
  98 008a 1C91      		ld r17,X
  99 008c 1596      		adiw r26,5
 100 008e ED91      		ld r30,X+
 101 0090 FC91      		ld r31,X
 102 0092 1697      		sbiw r26,5+1
 103 0094 FA87      		std Y+10,r31
 104 0096 E987      		std Y+9,r30
 105 0098 1196      		adiw r26,1
 106 009a 8D91      		ld r24,X+
 107 009c 9D91      		ld r25,X+
 108 009e 0D90      		ld __tmp_reg__,X+
 109 00a0 BC91      		ld r27,X
 110 00a2 A02D      		mov r26,__tmp_reg__
 111 00a4 8983      		std Y+1,r24
 112 00a6 9A83      		std Y+2,r25
 113 00a8 AB83      		std Y+3,r26
 114 00aa BC83      		std Y+4,r27
GAS LISTING C:\DOCUME~1\ADMINI~1\LOCALS~1\Temp/ccbY36z1.s 			page 3


 115 00ac 4424      		clr r4
 116 00ae 4A94      		dec r4
 117 00b0 542C      		mov r5,r4
 118               	.L15:
 119 00b2 C101      		movw r24,r2
 120 00b4 0E94 0000 		call At45dNodeLock
 121 00b8 892B      		or r24,r25
 122 00ba 01F0      		breq .+2
 123 00bc 00C0      		rjmp .L12
 124 00be E985      		ldd r30,Y+9
 125 00c0 FA85      		ldd r31,Y+10
 126 00c2 2F81      		ldd r18,Y+7
 127 00c4 3885      		ldd r19,Y+8
 128 00c6 2E17      		cp r18,r30
 129 00c8 3F07      		cpc r19,r31
 130 00ca 04F4      		brge .L13
 131 00cc 3A87      		std Y+10,r19
 132 00ce 2987      		std Y+9,r18
 133               	.L13:
 134 00d0 C101      		movw r24,r2
 135 00d2 64E8      		ldi r22,lo8(-124)
 136 00d4 20E0      		ldi r18,lo8(0)
 137 00d6 30E0      		ldi r19,hi8(0)
 138 00d8 40E0      		ldi r20,hlo8(0)
 139 00da 50E0      		ldi r21,hhi8(0)
 140 00dc 04E0      		ldi r16,lo8(4)
 141 00de ED80      		ldd r14,Y+5
 142 00e0 FE80      		ldd r15,Y+6
 143 00e2 CC24      		clr r12
 144 00e4 DD24      		clr r13
 145 00e6 A984      		ldd r10,Y+9
 146 00e8 BA84      		ldd r11,Y+10
 147 00ea 0E94 0000 		call At45dNodeTransfer
 148 00ee 892B      		or r24,r25
 149 00f0 01F0      		breq .+2
 150 00f2 00C0      		rjmp .L12
 151 00f4 A401      		movw r20,r8
 152 00f6 9301      		movw r18,r6
 153 00f8 012E      		mov r0,r17
 154 00fa 00C0      		rjmp 2f
 155 00fc 220F      	1:	lsl r18
 156 00fe 331F      		rol r19
 157 0100 441F      		rol r20
 158 0102 551F      		rol r21
 159 0104 0A94      	2:	dec r0
 160 0106 02F4      		brpl 1b
 161 0108 C101      		movw r24,r2
 162 010a 63E8      		ldi r22,lo8(-125)
 163 010c 0E94 0000 		call At45dNodeCommand
 164 0110 892B      		or r24,r25
 165 0112 01F4      		brne .L12
 166 0114 C101      		movw r24,r2
 167 0116 48EE      		ldi r20,lo8(1000)
 168 0118 53E0      		ldi r21,hi8(1000)
 169 011a 60E0      		ldi r22,hlo8(1000)
 170 011c 70E0      		ldi r23,hhi8(1000)
 171 011e 21E0      		ldi r18,lo8(1)
GAS LISTING C:\DOCUME~1\ADMINI~1\LOCALS~1\Temp/ccbY36z1.s 			page 4


 172 0120 30E0      		ldi r19,hi8(1)
 173 0122 0E94 0000 		call At45dNodeWaitReady
 174 0126 892B      		or r24,r25
 175 0128 01F4      		brne .L12
 176 012a C101      		movw r24,r2
 177 012c 0E94 0000 		call At45dNodeUnlock
 178 0130 C201      		movw r24,r4
 179 0132 57FE      		sbrs r5,7
 180 0134 00C0      		rjmp .L14
 181 0136 80E0      		ldi r24,lo8(0)
 182 0138 90E0      		ldi r25,hi8(0)
 183               	.L14:
 184 013a 4984      		ldd r4,Y+9
 185 013c 5A84      		ldd r5,Y+10
 186 013e 480E      		add r4,r24
 187 0140 591E      		adc r5,r25
 188 0142 0894      		sec
 189 0144 611C      		adc r6,__zero_reg__
 190 0146 711C      		adc r7,__zero_reg__
 191 0148 811C      		adc r8,__zero_reg__
 192 014a 911C      		adc r9,__zero_reg__
 193 014c 8981      		ldd r24,Y+1
 194 014e 9A81      		ldd r25,Y+2
 195 0150 AB81      		ldd r26,Y+3
 196 0152 BC81      		ldd r27,Y+4
 197 0154 6816      		cp r6,r24
 198 0156 7906      		cpc r7,r25
 199 0158 8A06      		cpc r8,r26
 200 015a 9B06      		cpc r9,r27
 201 015c 00F4      		brsh .L12
 202 015e AF81      		ldd r26,Y+7
 203 0160 B885      		ldd r27,Y+8
 204 0162 E985      		ldd r30,Y+9
 205 0164 FA85      		ldd r31,Y+10
 206 0166 AE1B      		sub r26,r30
 207 0168 BF0B      		sbc r27,r31
 208 016a B887      		std Y+8,r27
 209 016c AF83      		std Y+7,r26
 210 016e AB2B      		or r26,r27
 211 0170 01F0      		breq .L12
 212 0172 2D81      		ldd r18,Y+5
 213 0174 3E81      		ldd r19,Y+6
 214 0176 2E0F      		add r18,r30
 215 0178 3F1F      		adc r19,r31
 216 017a 3E83      		std Y+6,r19
 217 017c 2D83      		std Y+5,r18
 218 017e 00C0      		rjmp .L15
 219               	.L11:
 220 0180 4424      		clr r4
 221 0182 5524      		clr r5
 222               	.L12:
 223 0184 C201      		movw r24,r4
 224               	/* epilogue start */
 225 0186 2A96      		adiw r28,10
 226 0188 0FB6      		in __tmp_reg__,__SREG__
 227 018a F894      		cli
 228 018c DEBF      		out __SP_H__,r29
GAS LISTING C:\DOCUME~1\ADMINI~1\LOCALS~1\Temp/ccbY36z1.s 			page 5


 229 018e 0FBE      		out __SREG__,__tmp_reg__
 230 0190 CDBF      		out __SP_L__,r28
 231 0192 CF91      		pop r28
 232 0194 DF91      		pop r29
 233 0196 1F91      		pop r17
 234 0198 0F91      		pop r16
 235 019a FF90      		pop r15
 236 019c EF90      		pop r14
 237 019e DF90      		pop r13
 238 01a0 CF90      		pop r12
 239 01a2 BF90      		pop r11
 240 01a4 AF90      		pop r10
 241 01a6 9F90      		pop r9
 242 01a8 8F90      		pop r8
 243 01aa 7F90      		pop r7
 244 01ac 6F90      		pop r6
 245 01ae 5F90      		pop r5
 246 01b0 4F90      		pop r4
 247 01b2 3F90      		pop r3
 248 01b4 2F90      		pop r2
 249 01b6 0895      		ret
 250               		.size	At45dBlkIoWrite, .-At45dBlkIoWrite
 251               		.type	At45dBlkIoRead, @function
 252               	At45dBlkIoRead:
 253 01b8 8F92      		push r8
 254 01ba 9F92      		push r9
 255 01bc AF92      		push r10
 256 01be BF92      		push r11
 257 01c0 CF92      		push r12
 258 01c2 DF92      		push r13
 259 01c4 EF92      		push r14
 260 01c6 FF92      		push r15
 261 01c8 0F93      		push r16
 262 01ca 1F93      		push r17
 263 01cc CF93      		push r28
 264 01ce DF93      		push r29
 265               	/* prologue: function */
 266               	/* frame size = 0 */
 267 01d0 EC01      		movw r28,r24
 268 01d2 6A01      		movw r12,r20
 269 01d4 7B01      		movw r14,r22
 270 01d6 5901      		movw r10,r18
 271 01d8 4801      		movw r8,r16
 272 01da E989      		ldd r30,Y+17
 273 01dc FA89      		ldd r31,Y+18
 274 01de 0190      		ld __tmp_reg__,Z+
 275 01e0 F081      		ld r31,Z
 276 01e2 E02D      		mov r30,__tmp_reg__
 277 01e4 8181      		ldd r24,Z+1
 278 01e6 9281      		ldd r25,Z+2
 279 01e8 A381      		ldd r26,Z+3
 280 01ea B481      		ldd r27,Z+4
 281 01ec 4817      		cp r20,r24
 282 01ee 5907      		cpc r21,r25
 283 01f0 6A07      		cpc r22,r26
 284 01f2 7B07      		cpc r23,r27
 285 01f4 00F4      		brsh .L23
GAS LISTING C:\DOCUME~1\ADMINI~1\LOCALS~1\Temp/ccbY36z1.s 			page 6


 286               	.L18:
 287 01f6 1081      		ld r17,Z
 288 01f8 8F85      		ldd r24,Y+15
 289 01fa 9889      		ldd r25,Y+16
 290 01fc 0E94 0000 		call At45dNodeLock
 291 0200 892B      		or r24,r25
 292 0202 01F4      		brne .L20
 293 0204 00C0      		rjmp 2f
 294 0206 CC0C      	1:	lsl r12
 295 0208 DD1C      		rol r13
 296 020a EE1C      		rol r14
 297 020c FF1C      		rol r15
 298 020e 1A95      	2:	dec r17
 299 0210 02F4      		brpl 1b
 300 0212 8F85      		ldd r24,Y+15
 301 0214 9889      		ldd r25,Y+16
 302 0216 68EE      		ldi r22,lo8(-24)
 303 0218 A701      		movw r20,r14
 304 021a 9601      		movw r18,r12
 305 021c 08E0      		ldi r16,lo8(8)
 306 021e EE24      		clr r14
 307 0220 FF24      		clr r15
 308 0222 6501      		movw r12,r10
 309 0224 5401      		movw r10,r8
 310 0226 0E94 0000 		call At45dNodeTransfer
 311 022a 892B      		or r24,r25
 312 022c 01F0      		breq .L21
 313               	.L20:
 314 022e 8F85      		ldd r24,Y+15
 315 0230 9889      		ldd r25,Y+16
 316 0232 0E94 0000 		call At45dNodeUnlock
 317               	.L23:
 318 0236 8824      		clr r8
 319 0238 8A94      		dec r8
 320 023a 982C      		mov r9,r8
 321 023c 00C0      		rjmp .L19
 322               	.L21:
 323 023e 8F85      		ldd r24,Y+15
 324 0240 9889      		ldd r25,Y+16
 325 0242 0E94 0000 		call At45dNodeUnlock
 326               	.L19:
 327 0246 C401      		movw r24,r8
 328               	/* epilogue start */
 329 0248 DF91      		pop r29
 330 024a CF91      		pop r28
 331 024c 1F91      		pop r17
 332 024e 0F91      		pop r16
 333 0250 FF90      		pop r15
 334 0252 EF90      		pop r14
 335 0254 DF90      		pop r13
 336 0256 CF90      		pop r12
 337 0258 BF90      		pop r11
 338 025a AF90      		pop r10
 339 025c 9F90      		pop r9
 340 025e 8F90      		pop r8
 341 0260 0895      		ret
 342               		.size	At45dBlkIoRead, .-At45dBlkIoRead
GAS LISTING C:\DOCUME~1\ADMINI~1\LOCALS~1\Temp/ccbY36z1.s 			page 7


 343               		.type	At45dBlkIoInit, @function
 344               	At45dBlkIoInit:
 345 0262 0F93      		push r16
 346 0264 1F93      		push r17
 347 0266 CF93      		push r28
 348 0268 DF93      		push r29
 349               	/* prologue: function */
 350               	/* frame size = 0 */
 351 026a FC01      		movw r30,r24
 352 026c 1189      		ldd r17,Z+17
 353 026e 0289      		ldd r16,Z+18
 354 0270 8785      		ldd r24,Z+15
 355 0272 9089      		ldd r25,Z+16
 356 0274 0E94 0000 		call At45dNodeProbe
 357 0278 EC01      		movw r28,r24
 358 027a 0097      		sbiw r24,0
 359 027c 01F4      		brne .L25
 360 027e 2FEF      		ldi r18,lo8(-1)
 361 0280 3FEF      		ldi r19,hi8(-1)
 362 0282 00C0      		rjmp .L26
 363               	.L25:
 364 0284 E12F      		mov r30,r17
 365 0286 F02F      		mov r31,r16
 366 0288 9183      		std Z+1,r25
 367 028a 8083      		st Z,r24
 368 028c 8981      		ldd r24,Y+1
 369 028e 9A81      		ldd r25,Y+2
 370 0290 AB81      		ldd r26,Y+3
 371 0292 BC81      		ldd r27,Y+4
 372 0294 8283      		std Z+2,r24
 373 0296 9383      		std Z+3,r25
 374 0298 A483      		std Z+4,r26
 375 029a B583      		std Z+5,r27
 376 029c 8D81      		ldd r24,Y+5
 377 029e 9E81      		ldd r25,Y+6
 378 02a0 A0E0      		ldi r26,lo8(0)
 379 02a2 B0E0      		ldi r27,hi8(0)
 380 02a4 8683      		std Z+6,r24
 381 02a6 9783      		std Z+7,r25
 382 02a8 A087      		std Z+8,r26
 383 02aa B187      		std Z+9,r27
 384 02ac 20E0      		ldi r18,lo8(0)
 385 02ae 30E0      		ldi r19,hi8(0)
 386               	.L26:
 387 02b0 C901      		movw r24,r18
 388               	/* epilogue start */
 389 02b2 DF91      		pop r29
 390 02b4 CF91      		pop r28
 391 02b6 1F91      		pop r17
 392 02b8 0F91      		pop r16
 393 02ba 0895      		ret
 394               		.size	At45dBlkIoInit, .-At45dBlkIoInit
 395               	.global	devSpiBlkAt45d0
 396               		.data
 397               		.type	devSpiBlkAt45d0, @object
 398               		.size	devSpiBlkAt45d0, 35
 399               	devSpiBlkAt45d0:
GAS LISTING C:\DOCUME~1\ADMINI~1\LOCALS~1\Temp/ccbY36z1.s 			page 8


 400 0000 0000      		.word	0
 401 0002 41        		.byte	65
 402 0003 54        		.byte	84
 403 0004 34        		.byte	52
 404 0005 35        		.byte	53
 405 0006 44        		.byte	68
 406 0007 30        		.byte	48
 407 0008 00        		.byte	0
 408 0009 00        		.byte	0
 409 000a 00        		.byte	0
 410 000b 07        		.byte	7
 411 000c 0000      		.word	0
 412 000e 00        		.byte	0
 413 000f 0000      		.word	nodeAt45d0
 414 0011 0000      		.word	blkIoAt45d0
 415 0013 0000      		.word	gs(At45dBlkIoInit)
 416 0015 0000      		.word	gs(NutBlockDeviceIOCtl)
 417 0017 0000      		.word	gs(NutBlockDeviceRead)
 418 0019 0000      		.word	gs(NutBlockDeviceWrite)
 419 001b 0000      		.word	gs(NutBlockDeviceWrite_P)
 420 001d 0000      		.word	gs(NutBlockDeviceOpen)
 421 001f 0000      		.word	gs(NutBlockDeviceClose)
 422 0021 0000      		.word	gs(NutBlockDeviceSize)
 423               	.global	devSpiBlkAt45d1
 424               		.type	devSpiBlkAt45d1, @object
 425               		.size	devSpiBlkAt45d1, 35
 426               	devSpiBlkAt45d1:
 427 0023 0000      		.word	0
 428 0025 41        		.byte	65
 429 0026 54        		.byte	84
 430 0027 34        		.byte	52
 431 0028 35        		.byte	53
 432 0029 44        		.byte	68
 433 002a 31        		.byte	49
 434 002b 00        		.byte	0
 435 002c 00        		.byte	0
 436 002d 00        		.byte	0
 437 002e 07        		.byte	7
 438 002f 0000      		.word	0
 439 0031 00        		.byte	0
 440 0032 0000      		.word	nodeAt45d1
 441 0034 0000      		.word	blkIoAt45d1
 442 0036 0000      		.word	gs(At45dBlkIoInit)
 443 0038 0000      		.word	gs(NutBlockDeviceIOCtl)
 444 003a 0000      		.word	gs(NutBlockDeviceRead)
 445 003c 0000      		.word	gs(NutBlockDeviceWrite)
 446 003e 0000      		.word	gs(NutBlockDeviceWrite_P)
 447 0040 0000      		.word	gs(NutBlockDeviceOpen)
 448 0042 0000      		.word	gs(NutBlockDeviceClose)
 449 0044 0000      		.word	gs(NutBlockDeviceSize)
 450               	.global	devSpiBlkAt45d2
 451               		.type	devSpiBlkAt45d2, @object
 452               		.size	devSpiBlkAt45d2, 35
 453               	devSpiBlkAt45d2:
 454 0046 0000      		.word	0
 455 0048 41        		.byte	65
 456 0049 54        		.byte	84
GAS LISTING C:\DOCUME~1\ADMINI~1\LOCALS~1\Temp/ccbY36z1.s 			page 9


 457 004a 34        		.byte	52
 458 004b 35        		.byte	53
 459 004c 44        		.byte	68
 460 004d 32        		.byte	50
 461 004e 00        		.byte	0
 462 004f 00        		.byte	0
 463 0050 00        		.byte	0
 464 0051 07        		.byte	7
 465 0052 0000      		.word	0
 466 0054 00        		.byte	0
 467 0055 0000      		.word	nodeAt45d2
 468 0057 0000      		.word	blkIoAt45d2
 469 0059 0000      		.word	gs(At45dBlkIoInit)
 470 005b 0000      		.word	gs(NutBlockDeviceIOCtl)
 471 005d 0000      		.word	gs(NutBlockDeviceRead)
 472 005f 0000      		.word	gs(NutBlockDeviceWrite)
 473 0061 0000      		.word	gs(NutBlockDeviceWrite_P)
 474 0063 0000      		.word	gs(NutBlockDeviceOpen)
 475 0065 0000      		.word	gs(NutBlockDeviceClose)
 476 0067 0000      		.word	gs(NutBlockDeviceSize)
 477               	.global	devSpiBlkAt45d3
 478               		.type	devSpiBlkAt45d3, @object
 479               		.size	devSpiBlkAt45d3, 35
 480               	devSpiBlkAt45d3:
 481 0069 0000      		.word	0
 482 006b 41        		.byte	65
 483 006c 54        		.byte	84
 484 006d 34        		.byte	52
 485 006e 35        		.byte	53
 486 006f 44        		.byte	68
 487 0070 33        		.byte	51
 488 0071 00        		.byte	0
 489 0072 00        		.byte	0
 490 0073 00        		.byte	0
 491 0074 07        		.byte	7
 492 0075 0000      		.word	0
 493 0077 00        		.byte	0
 494 0078 0000      		.word	nodeAt45d3
 495 007a 0000      		.word	blkIoAt45d3
 496 007c 0000      		.word	gs(At45dBlkIoInit)
 497 007e 0000      		.word	gs(NutBlockDeviceIOCtl)
 498 0080 0000      		.word	gs(NutBlockDeviceRead)
 499 0082 0000      		.word	gs(NutBlockDeviceWrite)
 500 0084 0000      		.word	gs(NutBlockDeviceWrite_P)
 501 0086 0000      		.word	gs(NutBlockDeviceOpen)
 502 0088 0000      		.word	gs(NutBlockDeviceClose)
 503 008a 0000      		.word	gs(NutBlockDeviceSize)
 504               		.type	blkIoAt45d0, @object
 505               		.size	blkIoAt45d0, 26
 506               	blkIoAt45d0:
 507 008c 0000      		.word	0
 508 008e 00        		.byte	0
 509 008f 00        		.byte	0
 510 0090 00        		.byte	0
 511 0091 00        		.byte	0
 512 0092 00        		.byte	0
 513 0093 00        		.byte	0
GAS LISTING C:\DOCUME~1\ADMINI~1\LOCALS~1\Temp/ccbY36z1.s 			page 10


 514 0094 00        		.byte	0
 515 0095 00        		.byte	0
 516 0096 00        		.byte	0
 517 0097 00        		.byte	0
 518 0098 00        		.byte	0
 519 0099 00        		.byte	0
 520 009a 01        		.byte	1
 521 009b 00        		.byte	0
 522 009c 00        		.byte	0
 523 009d 00        		.byte	0
 524 009e 0000      		.word	gs(At45dBlkIoRead)
 525 00a0 0000      		.word	gs(At45dBlkIoWrite)
 526 00a2 0000      		.word	gs(At45dBlkIoWrite_P)
 527 00a4 0000      		.word	gs(At45dBlkIoCtl)
 528               		.type	blkIoAt45d1, @object
 529               		.size	blkIoAt45d1, 26
 530               	blkIoAt45d1:
 531 00a6 0000      		.word	0
 532 00a8 00        		.byte	0
 533 00a9 00        		.byte	0
 534 00aa 00        		.byte	0
 535 00ab 00        		.byte	0
 536 00ac 00        		.byte	0
 537 00ad 00        		.byte	0
 538 00ae 00        		.byte	0
 539 00af 00        		.byte	0
 540 00b0 00        		.byte	0
 541 00b1 00        		.byte	0
 542 00b2 00        		.byte	0
 543 00b3 00        		.byte	0
 544 00b4 01        		.byte	1
 545 00b5 00        		.byte	0
 546 00b6 00        		.byte	0
 547 00b7 00        		.byte	0
 548 00b8 0000      		.word	gs(At45dBlkIoRead)
 549 00ba 0000      		.word	gs(At45dBlkIoWrite)
 550 00bc 0000      		.word	gs(At45dBlkIoWrite_P)
 551 00be 0000      		.word	gs(At45dBlkIoCtl)
 552               		.type	blkIoAt45d2, @object
 553               		.size	blkIoAt45d2, 26
 554               	blkIoAt45d2:
 555 00c0 0000      		.word	0
 556 00c2 00        		.byte	0
 557 00c3 00        		.byte	0
 558 00c4 00        		.byte	0
 559 00c5 00        		.byte	0
 560 00c6 00        		.byte	0
 561 00c7 00        		.byte	0
 562 00c8 00        		.byte	0
 563 00c9 00        		.byte	0
 564 00ca 00        		.byte	0
 565 00cb 00        		.byte	0
 566 00cc 00        		.byte	0
 567 00cd 00        		.byte	0
 568 00ce 01        		.byte	1
 569 00cf 00        		.byte	0
 570 00d0 00        		.byte	0
GAS LISTING C:\DOCUME~1\ADMINI~1\LOCALS~1\Temp/ccbY36z1.s 			page 11


 571 00d1 00        		.byte	0
 572 00d2 0000      		.word	gs(At45dBlkIoRead)
 573 00d4 0000      		.word	gs(At45dBlkIoWrite)
 574 00d6 0000      		.word	gs(At45dBlkIoWrite_P)
 575 00d8 0000      		.word	gs(At45dBlkIoCtl)
 576               		.type	blkIoAt45d3, @object
 577               		.size	blkIoAt45d3, 26
 578               	blkIoAt45d3:
 579 00da 0000      		.word	0
 580 00dc 00        		.byte	0
 581 00dd 00        		.byte	0
 582 00de 00        		.byte	0
 583 00df 00        		.byte	0
 584 00e0 00        		.byte	0
 585 00e1 00        		.byte	0
 586 00e2 00        		.byte	0
 587 00e3 00        		.byte	0
 588 00e4 00        		.byte	0
 589 00e5 00        		.byte	0
 590 00e6 00        		.byte	0
 591 00e7 00        		.byte	0
 592 00e8 01        		.byte	1
 593 00e9 00        		.byte	0
 594 00ea 00        		.byte	0
 595 00eb 00        		.byte	0
 596 00ec 0000      		.word	gs(At45dBlkIoRead)
 597 00ee 0000      		.word	gs(At45dBlkIoWrite)
 598 00f0 0000      		.word	gs(At45dBlkIoWrite_P)
 599 00f2 0000      		.word	gs(At45dBlkIoCtl)
 600               	.global __do_copy_data
GAS LISTING C:\DOCUME~1\ADMINI~1\LOCALS~1\Temp/ccbY36z1.s 			page 12


DEFINED SYMBOLS
                            *ABS*:00000000 spi_blkio_at45d.c
C:\DOCUME~1\ADMINI~1\LOCALS~1\Temp/ccbY36z1.s:2      *ABS*:0000003f __SREG__
C:\DOCUME~1\ADMINI~1\LOCALS~1\Temp/ccbY36z1.s:3      *ABS*:0000003e __SP_H__
C:\DOCUME~1\ADMINI~1\LOCALS~1\Temp/ccbY36z1.s:4      *ABS*:0000003d __SP_L__
C:\DOCUME~1\ADMINI~1\LOCALS~1\Temp/ccbY36z1.s:5      *ABS*:00000034 __CCP__
C:\DOCUME~1\ADMINI~1\LOCALS~1\Temp/ccbY36z1.s:6      *ABS*:00000000 __tmp_reg__
C:\DOCUME~1\ADMINI~1\LOCALS~1\Temp/ccbY36z1.s:7      *ABS*:00000001 __zero_reg__
C:\DOCUME~1\ADMINI~1\LOCALS~1\Temp/ccbY36z1.s:10     .text:00000000 At45dBlkIoWrite_P
C:\DOCUME~1\ADMINI~1\LOCALS~1\Temp/ccbY36z1.s:19     .text:00000006 At45dBlkIoCtl
C:\DOCUME~1\ADMINI~1\LOCALS~1\Temp/ccbY36z1.s:51     .text:00000032 At45dBlkIoWrite
C:\DOCUME~1\ADMINI~1\LOCALS~1\Temp/ccbY36z1.s:252    .text:000001b8 At45dBlkIoRead
C:\DOCUME~1\ADMINI~1\LOCALS~1\Temp/ccbY36z1.s:344    .text:00000262 At45dBlkIoInit
C:\DOCUME~1\ADMINI~1\LOCALS~1\Temp/ccbY36z1.s:399    .data:00000000 devSpiBlkAt45d0
C:\DOCUME~1\ADMINI~1\LOCALS~1\Temp/ccbY36z1.s:506    .data:0000008c blkIoAt45d0
C:\DOCUME~1\ADMINI~1\LOCALS~1\Temp/ccbY36z1.s:426    .data:00000023 devSpiBlkAt45d1
C:\DOCUME~1\ADMINI~1\LOCALS~1\Temp/ccbY36z1.s:530    .data:000000a6 blkIoAt45d1
C:\DOCUME~1\ADMINI~1\LOCALS~1\Temp/ccbY36z1.s:453    .data:00000046 devSpiBlkAt45d2
C:\DOCUME~1\ADMINI~1\LOCALS~1\Temp/ccbY36z1.s:554    .data:000000c0 blkIoAt45d2
C:\DOCUME~1\ADMINI~1\LOCALS~1\Temp/ccbY36z1.s:480    .data:00000069 devSpiBlkAt45d3
C:\DOCUME~1\ADMINI~1\LOCALS~1\Temp/ccbY36z1.s:578    .data:000000da blkIoAt45d3

UNDEFINED SYMBOLS
At45dNodeLock
At45dNodeTransfer
At45dNodeCommand
At45dNodeWaitReady
At45dNodeUnlock
At45dNodeProbe
nodeAt45d0
NutBlockDeviceIOCtl
NutBlockDeviceRead
NutBlockDeviceWrite
NutBlockDeviceWrite_P
NutBlockDeviceOpen
NutBlockDeviceClose
NutBlockDeviceSize
nodeAt45d1
nodeAt45d2
nodeAt45d3
__do_copy_data
