GAS LISTING C:\DOCUME~1\ADMINI~1\LOCALS~1\Temp/ccgkS2UG.s 			page 1


   1               		.file	"spi_vscodec0.c"
   2               	__SREG__ = 0x3f
   3               	__SP_H__ = 0x3e
   4               	__SP_L__ = 0x3d
   5               	__CCP__  = 0x34
   6               	__tmp_reg__ = 0
   7               	__zero_reg__ = 1
   8               		.text
   9               		.type	VsCodec0Interrupt, @function
  10               	VsCodec0Interrupt:
  11               	/* prologue: function */
  12               	/* frame size = 0 */
  13 0000 FC01      		movw r30,r24
  14 0002 A081      		ld r26,Z
  15 0004 B181      		ldd r27,Z+1
  16 0006 1097      		sbiw r26,0
  17 0008 01F4      		brne .L2
  18 000a 8FEF      		ldi r24,lo8(-1)
  19 000c 9FEF      		ldi r25,hi8(-1)
  20 000e 9183      		std Z+1,r25
  21 0010 8083      		st Z,r24
  22 0012 0895      		ret
  23               	.L2:
  24 0014 8FEF      		ldi r24,hi8(-1)
  25 0016 AF3F      		cpi r26,lo8(-1)
  26 0018 B807      		cpc r27,r24
  27 001a 01F0      		breq .L4
  28 001c 1496      		adiw r26,4
  29 001e 8D91      		ld r24,X+
  30 0020 9C91      		ld r25,X
  31 0022 1597      		sbiw r26,4+1
  32 0024 0196      		adiw r24,1
  33 0026 1596      		adiw r26,4+1
  34 0028 9C93      		st X,r25
  35 002a 8E93      		st -X,r24
  36 002c 1497      		sbiw r26,4
  37               	.L4:
  38 002e 0895      		ret
  39               		.size	VsCodec0Interrupt, .-VsCodec0Interrupt
  40               		.type	VsCodec0SendCmd, @function
  41               	VsCodec0SendCmd:
  42 0030 EF92      		push r14
  43 0032 FF92      		push r15
  44 0034 0F93      		push r16
  45 0036 1F93      		push r17
  46 0038 CF93      		push r28
  47 003a DF93      		push r29
  48               	/* prologue: function */
  49               	/* frame size = 0 */
  50 003c 8C01      		movw r16,r24
  51 003e 7B01      		movw r14,r22
  52 0040 E091 0000 		lds r30,nodeSpiVsCodec0
  53 0044 F091 0000 		lds r31,(nodeSpiVsCodec0)+1
  54 0048 0284      		ldd __tmp_reg__,Z+10
  55 004a F385      		ldd r31,Z+11
  56 004c E02D      		mov r30,__tmp_reg__
  57 004e 80E0      		ldi r24,lo8(nodeSpiVsCodec0)
GAS LISTING C:\DOCUME~1\ADMINI~1\LOCALS~1\Temp/ccgkS2UG.s 			page 2


  58 0050 90E0      		ldi r25,hi8(nodeSpiVsCodec0)
  59 0052 40E0      		ldi r20,lo8(0)
  60 0054 50E0      		ldi r21,hi8(0)
  61 0056 60E0      		ldi r22,hlo8(0)
  62 0058 70E0      		ldi r23,hhi8(0)
  63 005a 0995      		icall
  64 005c EC01      		movw r28,r24
  65 005e 0097      		sbiw r24,0
  66 0060 01F4      		brne .L6
  67 0062 82E0      		ldi r24,lo8(2)
  68 0064 90E0      		ldi r25,hi8(2)
  69 0066 60E0      		ldi r22,lo8(0)
  70 0068 70E0      		ldi r23,hi8(0)
  71 006a 0E94 0000 		call GpioPinSetLow
  72 006e 84E0      		ldi r24,lo8(4)
  73 0070 90E0      		ldi r25,hi8(4)
  74 0072 66E0      		ldi r22,lo8(6)
  75 0074 70E0      		ldi r23,hi8(6)
  76 0076 0E94 0000 		call GpioPinSetLow
  77 007a E091 0000 		lds r30,nodeSpiVsCodec0
  78 007e F091 0000 		lds r31,(nodeSpiVsCodec0)+1
  79 0082 0684      		ldd __tmp_reg__,Z+14
  80 0084 F785      		ldd r31,Z+15
  81 0086 E02D      		mov r30,__tmp_reg__
  82 0088 80E0      		ldi r24,lo8(nodeSpiVsCodec0)
  83 008a 90E0      		ldi r25,hi8(nodeSpiVsCodec0)
  84 008c B801      		movw r22,r16
  85 008e A801      		movw r20,r16
  86 0090 9701      		movw r18,r14
  87 0092 0995      		icall
  88 0094 EC01      		movw r28,r24
  89 0096 84E0      		ldi r24,lo8(4)
  90 0098 90E0      		ldi r25,hi8(4)
  91 009a 66E0      		ldi r22,lo8(6)
  92 009c 70E0      		ldi r23,hi8(6)
  93 009e 0E94 0000 		call GpioPinSetHigh
  94 00a2 82E0      		ldi r24,lo8(2)
  95 00a4 90E0      		ldi r25,hi8(2)
  96 00a6 60E0      		ldi r22,lo8(0)
  97 00a8 70E0      		ldi r23,hi8(0)
  98 00aa 0E94 0000 		call GpioPinSetHigh
  99 00ae E091 0000 		lds r30,nodeSpiVsCodec0
 100 00b2 F091 0000 		lds r31,(nodeSpiVsCodec0)+1
 101 00b6 0484      		ldd __tmp_reg__,Z+12
 102 00b8 F585      		ldd r31,Z+13
 103 00ba E02D      		mov r30,__tmp_reg__
 104 00bc 80E0      		ldi r24,lo8(nodeSpiVsCodec0)
 105 00be 90E0      		ldi r25,hi8(nodeSpiVsCodec0)
 106 00c0 0995      		icall
 107               	.L6:
 108 00c2 CE01      		movw r24,r28
 109               	/* epilogue start */
 110 00c4 DF91      		pop r29
 111 00c6 CF91      		pop r28
 112 00c8 1F91      		pop r17
 113 00ca 0F91      		pop r16
 114 00cc FF90      		pop r15
GAS LISTING C:\DOCUME~1\ADMINI~1\LOCALS~1\Temp/ccgkS2UG.s 			page 3


 115 00ce EF90      		pop r14
 116 00d0 0895      		ret
 117               		.size	VsCodec0SendCmd, .-VsCodec0SendCmd
 118               		.type	VsCodec0ResetHardware, @function
 119               	VsCodec0ResetHardware:
 120               	/* prologue: function */
 121               	/* frame size = 0 */
 122 00d2 892B      		or r24,r25
 123 00d4 01F0      		breq .L9
 124 00d6 82E0      		ldi r24,lo8(2)
 125 00d8 90E0      		ldi r25,hi8(2)
 126 00da 66E0      		ldi r22,lo8(6)
 127 00dc 70E0      		ldi r23,hi8(6)
 128 00de 0E94 0000 		call GpioPinSetLow
 129 00e2 82E0      		ldi r24,lo8(2)
 130 00e4 90E0      		ldi r25,hi8(2)
 131 00e6 66E0      		ldi r22,lo8(6)
 132 00e8 70E0      		ldi r23,hi8(6)
 133 00ea 22E0      		ldi r18,lo8(2)
 134 00ec 30E0      		ldi r19,hi8(2)
 135 00ee 40E0      		ldi r20,hlo8(2)
 136 00f0 50E0      		ldi r21,hhi8(2)
 137 00f2 0E94 0000 		call GpioPinConfigSet
 138 00f6 61E0      		ldi r22,lo8(1)
 139 00f8 70E0      		ldi r23,hi8(1)
 140 00fa 80E0      		ldi r24,hlo8(1)
 141 00fc 90E0      		ldi r25,hhi8(1)
 142 00fe 0E94 0000 		call NutSleep
 143 0102 00C0      		rjmp .L13
 144               	.L9:
 145 0104 82E0      		ldi r24,lo8(2)
 146 0106 90E0      		ldi r25,hi8(2)
 147 0108 66E0      		ldi r22,lo8(6)
 148 010a 70E0      		ldi r23,hi8(6)
 149 010c 0E94 0000 		call GpioPinSetHigh
 150 0110 80E0      		ldi r24,lo8(devSpiVsCodec0)
 151 0112 90E0      		ldi r25,hi8(devSpiVsCodec0)
 152 0114 63E0      		ldi r22,lo8(3)
 153 0116 41E0      		ldi r20,lo8(1)
 154 0118 20E0      		ldi r18,lo8(0)
 155 011a 30E0      		ldi r19,hi8(0)
 156 011c 0E94 0000 		call VsCodecReg
 157 0120 807F      		andi r24,lo8(240)
 158 0122 9070      		andi r25,hi8(240)
 159 0124 8097      		sbiw r24,32
 160 0126 01F0      		breq .L11
 161 0128 2FEF      		ldi r18,lo8(-1)
 162 012a 3FEF      		ldi r19,hi8(-1)
 163 012c 00C0      		rjmp .L10
 164               	.L11:
 165 012e 83EF      		ldi r24,lo8(1011)
 166 0130 93E0      		ldi r25,hi8(1011)
 167 0132 9093 0000 		sts (dcbVsCodec0+40)+1,r25
 168 0136 8093 0000 		sts dcbVsCodec0+40,r24
 169 013a 85E4      		ldi r24,lo8(69)
 170 013c 8093 0000 		sts dcbVsCodec0+42,r24
 171 0140 80E0      		ldi r24,lo8(devSpiVsCodec0)
GAS LISTING C:\DOCUME~1\ADMINI~1\LOCALS~1\Temp/ccgkS2UG.s 			page 4


 172 0142 90E0      		ldi r25,hi8(devSpiVsCodec0)
 173 0144 60E0      		ldi r22,lo8(2048)
 174 0146 78E0      		ldi r23,hi8(2048)
 175 0148 40E0      		ldi r20,lo8(2048)
 176 014a 58E0      		ldi r21,hi8(2048)
 177 014c 0E94 0000 		call VsCodecMode
 178 0150 80E0      		ldi r24,lo8(devSpiVsCodec0)
 179 0152 90E0      		ldi r25,hi8(devSpiVsCodec0)
 180 0154 62E0      		ldi r22,lo8(2)
 181 0156 43E0      		ldi r20,lo8(3)
 182 0158 20E0      		ldi r18,lo8(-26624)
 183 015a 38E9      		ldi r19,hi8(-26624)
 184 015c 0E94 0000 		call VsCodecReg
 185               	.L13:
 186 0160 20E0      		ldi r18,lo8(0)
 187 0162 30E0      		ldi r19,hi8(0)
 188               	.L10:
 189 0164 C901      		movw r24,r18
 190               	/* epilogue start */
 191 0166 0895      		ret
 192               		.size	VsCodec0ResetHardware, .-VsCodec0ResetHardware
 193               		.type	VsCodec0Init, @function
 194               	VsCodec0Init:
 195 0168 CF93      		push r28
 196 016a DF93      		push r29
 197               	/* prologue: function */
 198               	/* frame size = 0 */
 199 016c EC01      		movw r28,r24
 200 016e 81E0      		ldi r24,lo8(1)
 201 0170 90E0      		ldi r25,hi8(1)
 202 0172 0E94 0000 		call VsCodec0ResetHardware
 203 0176 80E0      		ldi r24,lo8(gs(VsCodec0IsReady))
 204 0178 90E0      		ldi r25,hi8(gs(VsCodec0IsReady))
 205 017a 9093 0000 		sts (dcbVsCodec0+59)+1,r25
 206 017e 8093 0000 		sts dcbVsCodec0+59,r24
 207 0182 80E0      		ldi r24,lo8(gs(VsCodec0SendCmd))
 208 0184 90E0      		ldi r25,hi8(gs(VsCodec0SendCmd))
 209 0186 9093 0000 		sts (dcbVsCodec0+61)+1,r25
 210 018a 8093 0000 		sts dcbVsCodec0+61,r24
 211 018e 80E0      		ldi r24,lo8(gs(VsCodec0SendData))
 212 0190 90E0      		ldi r25,hi8(gs(VsCodec0SendData))
 213 0192 9093 0000 		sts (dcbVsCodec0+63)+1,r25
 214 0196 8093 0000 		sts dcbVsCodec0+63,r24
 215 019a 80E0      		ldi r24,lo8(gs(VsCodec0Control))
 216 019c 90E0      		ldi r25,hi8(gs(VsCodec0Control))
 217 019e 9093 0000 		sts (dcbVsCodec0+65)+1,r25
 218 01a2 8093 0000 		sts dcbVsCodec0+65,r24
 219 01a6 82E0      		ldi r24,lo8(28674)
 220 01a8 90E7      		ldi r25,hi8(28674)
 221 01aa A0E0      		ldi r26,hlo8(28674)
 222 01ac B0E0      		ldi r27,hhi8(28674)
 223 01ae 8093 0000 		sts dcbVsCodec0+43,r24
 224 01b2 9093 0000 		sts (dcbVsCodec0+43)+1,r25
 225 01b6 A093 0000 		sts (dcbVsCodec0+43)+2,r26
 226 01ba B093 0000 		sts (dcbVsCodec0+43)+3,r27
 227 01be 1092 0000 		sts dcbVsCodec0+47,__zero_reg__
 228 01c2 1092 0000 		sts (dcbVsCodec0+47)+1,__zero_reg__
GAS LISTING C:\DOCUME~1\ADMINI~1\LOCALS~1\Temp/ccgkS2UG.s 			page 5


 229 01c6 1092 0000 		sts (dcbVsCodec0+47)+2,__zero_reg__
 230 01ca 1092 0000 		sts (dcbVsCodec0+47)+3,__zero_reg__
 231 01ce 85E0      		ldi r24,lo8(5)
 232 01d0 90E0      		ldi r25,hi8(5)
 233 01d2 66E0      		ldi r22,lo8(6)
 234 01d4 70E0      		ldi r23,hi8(6)
 235 01d6 20E0      		ldi r18,lo8(0)
 236 01d8 30E0      		ldi r19,hi8(0)
 237 01da 40E0      		ldi r20,hlo8(0)
 238 01dc 50E0      		ldi r21,hhi8(0)
 239 01de 0E94 0000 		call GpioPinConfigSet
 240 01e2 84E0      		ldi r24,lo8(4)
 241 01e4 90E0      		ldi r25,hi8(4)
 242 01e6 66E0      		ldi r22,lo8(6)
 243 01e8 70E0      		ldi r23,hi8(6)
 244 01ea 0E94 0000 		call GpioPinSetHigh
 245 01ee 84E0      		ldi r24,lo8(4)
 246 01f0 90E0      		ldi r25,hi8(4)
 247 01f2 66E0      		ldi r22,lo8(6)
 248 01f4 70E0      		ldi r23,hi8(6)
 249 01f6 22E0      		ldi r18,lo8(2)
 250 01f8 30E0      		ldi r19,hi8(2)
 251 01fa 40E0      		ldi r20,hlo8(2)
 252 01fc 50E0      		ldi r21,hhi8(2)
 253 01fe 0E94 0000 		call GpioPinConfigSet
 254 0202 82E0      		ldi r24,lo8(2)
 255 0204 90E0      		ldi r25,hi8(2)
 256 0206 65E0      		ldi r22,lo8(5)
 257 0208 70E0      		ldi r23,hi8(5)
 258 020a 0E94 0000 		call GpioPinSetHigh
 259 020e 82E0      		ldi r24,lo8(2)
 260 0210 90E0      		ldi r25,hi8(2)
 261 0212 65E0      		ldi r22,lo8(5)
 262 0214 70E0      		ldi r23,hi8(5)
 263 0216 22E0      		ldi r18,lo8(2)
 264 0218 30E0      		ldi r19,hi8(2)
 265 021a 40E0      		ldi r20,hlo8(2)
 266 021c 50E0      		ldi r21,hhi8(2)
 267 021e 0E94 0000 		call GpioPinConfigSet
 268 0222 82E0      		ldi r24,lo8(2)
 269 0224 90E0      		ldi r25,hi8(2)
 270 0226 60E0      		ldi r22,lo8(0)
 271 0228 70E0      		ldi r23,hi8(0)
 272 022a 0E94 0000 		call GpioPinSetHigh
 273 022e 82E0      		ldi r24,lo8(2)
 274 0230 90E0      		ldi r25,hi8(2)
 275 0232 60E0      		ldi r22,lo8(0)
 276 0234 70E0      		ldi r23,hi8(0)
 277 0236 22E0      		ldi r18,lo8(2)
 278 0238 30E0      		ldi r19,hi8(2)
 279 023a 40E0      		ldi r20,hlo8(2)
 280 023c 50E0      		ldi r21,hhi8(2)
 281 023e 0E94 0000 		call GpioPinConfigSet
 282 0242 80E0      		ldi r24,lo8(sig_INTERRUPT6)
 283 0244 90E0      		ldi r25,hi8(sig_INTERRUPT6)
 284 0246 60E0      		ldi r22,lo8(gs(VsCodec0Interrupt))
 285 0248 70E0      		ldi r23,hi8(gs(VsCodec0Interrupt))
GAS LISTING C:\DOCUME~1\ADMINI~1\LOCALS~1\Temp/ccgkS2UG.s 			page 6


 286 024a 40E0      		ldi r20,lo8(dcbVsCodec0+38)
 287 024c 50E0      		ldi r21,hi8(dcbVsCodec0+38)
 288 024e 0E94 0000 		call NutRegisterIrqHandler
 289 0252 85E0      		ldi r24,lo8(5)
 290 0254 90E0      		ldi r25,hi8(5)
 291 0256 66E0      		ldi r22,lo8(6)
 292 0258 70E0      		ldi r23,hi8(6)
 293 025a 21E0      		ldi r18,lo8(1)
 294 025c 30E0      		ldi r19,hi8(1)
 295 025e 40E0      		ldi r20,hlo8(1)
 296 0260 50E0      		ldi r21,hhi8(1)
 297 0262 0E94 0000 		call GpioPinConfigSet
 298 0266 80E0      		ldi r24,lo8(sig_INTERRUPT6)
 299 0268 90E0      		ldi r25,hi8(sig_INTERRUPT6)
 300 026a 66E0      		ldi r22,lo8(6)
 301 026c 70E0      		ldi r23,hi8(6)
 302 026e 0E94 0000 		call NutIrqSetMode
 303 0272 80E0      		ldi r24,lo8(sig_INTERRUPT6)
 304 0274 90E0      		ldi r25,hi8(sig_INTERRUPT6)
 305 0276 0E94 0000 		call NutIrqEnable
 306 027a 80E0      		ldi r24,lo8(0)
 307 027c 90E0      		ldi r25,hi8(0)
 308 027e 0E94 0000 		call VsCodec0ResetHardware
 309 0282 892B      		or r24,r25
 310 0284 01F4      		brne .L15
 311 0286 80E0      		ldi r24,lo8(heapFreeList)
 312 0288 90E0      		ldi r25,hi8(heapFreeList)
 313 028a 0E94 0000 		call NutHeapRootAvailable
 314 028e AC01      		movw r20,r24
 315 0290 5695      		lsr r21
 316 0292 4795      		ror r20
 317 0294 80E4      		ldi r24,hi8(16385)
 318 0296 4130      		cpi r20,lo8(16385)
 319 0298 5807      		cpc r21,r24
 320 029a 00F0      		brlo .L16
 321 029c 40E0      		ldi r20,lo8(16384)
 322 029e 50E4      		ldi r21,hi8(16384)
 323               	.L16:
 324 02a0 60E0      		ldi r22,lo8(0)
 325 02a2 70E0      		ldi r23,hi8(0)
 326 02a4 CE01      		movw r24,r28
 327 02a6 0E94 0000 		call VsDecoderBufferInit
 328 02aa 892B      		or r24,r25
 329 02ac 01F4      		brne .L15
 330 02ae CE01      		movw r24,r28
 331 02b0 0296      		adiw r24,2
 332 02b2 60E0      		ldi r22,lo8(gs(FeederThread))
 333 02b4 70E0      		ldi r23,hi8(gs(FeederThread))
 334 02b6 AE01      		movw r20,r28
 335 02b8 20E8      		ldi r18,lo8(128)
 336 02ba 30E0      		ldi r19,hi8(128)
 337 02bc 0E94 0000 		call NutThreadCreate
 338 02c0 892B      		or r24,r25
 339 02c2 01F0      		breq .L15
 340 02c4 20E0      		ldi r18,lo8(0)
 341 02c6 30E0      		ldi r19,hi8(0)
 342 02c8 00C0      		rjmp .L17
GAS LISTING C:\DOCUME~1\ADMINI~1\LOCALS~1\Temp/ccgkS2UG.s 			page 7


 343               	.L15:
 344 02ca 2FEF      		ldi r18,lo8(-1)
 345 02cc 3FEF      		ldi r19,hi8(-1)
 346               	.L17:
 347 02ce C901      		movw r24,r18
 348               	/* epilogue start */
 349 02d0 DF91      		pop r29
 350 02d2 CF91      		pop r28
 351 02d4 0895      		ret
 352               		.size	VsCodec0Init, .-VsCodec0Init
 353               		.type	VsCodec0Control, @function
 354               	VsCodec0Control:
 355               	/* prologue: function */
 356               	/* frame size = 0 */
 357 02d6 FB01      		movw r30,r22
 358 02d8 20E3      		ldi r18,hi8(12310)
 359 02da 8631      		cpi r24,lo8(12310)
 360 02dc 9207      		cpc r25,r18
 361 02de 01F0      		breq .L23
 362 02e0 20E3      		ldi r18,hi8(12311)
 363 02e2 8731      		cpi r24,lo8(12311)
 364 02e4 9207      		cpc r25,r18
 365 02e6 04F4      		brge .L25
 366 02e8 20E3      		ldi r18,hi8(12306)
 367 02ea 8231      		cpi r24,lo8(12306)
 368 02ec 9207      		cpc r25,r18
 369 02ee 01F0      		breq .L21
 370 02f0 8351      		subi r24,lo8(12307)
 371 02f2 9043      		sbci r25,hi8(12307)
 372 02f4 01F4      		brne .L20
 373 02f6 00C0      		rjmp .L29
 374               	.L25:
 375 02f8 20E3      		ldi r18,hi8(12311)
 376 02fa 8731      		cpi r24,lo8(12311)
 377 02fc 9207      		cpc r25,r18
 378 02fe 01F0      		breq .L29
 379 0300 8153      		subi r24,lo8(12337)
 380 0302 9043      		sbci r25,hi8(12337)
 381 0304 01F0      		breq .L24
 382               	.L20:
 383 0306 2FEF      		ldi r18,lo8(-1)
 384 0308 3FEF      		ldi r19,hi8(-1)
 385 030a 00C0      		rjmp .L26
 386               	.L21:
 387 030c 82E0      		ldi r24,lo8(28674)
 388 030e 90E7      		ldi r25,hi8(28674)
 389 0310 A0E0      		ldi r26,hlo8(28674)
 390 0312 B0E0      		ldi r27,hhi8(28674)
 391 0314 8083      		st Z,r24
 392 0316 9183      		std Z+1,r25
 393 0318 A283      		std Z+2,r26
 394 031a B383      		std Z+3,r27
 395 031c 00C0      		rjmp .L29
 396               	.L23:
 397 031e 1082      		st Z,__zero_reg__
 398 0320 1182      		std Z+1,__zero_reg__
 399 0322 1282      		std Z+2,__zero_reg__
GAS LISTING C:\DOCUME~1\ADMINI~1\LOCALS~1\Temp/ccgkS2UG.s 			page 8


 400 0324 1382      		std Z+3,__zero_reg__
 401 0326 00C0      		rjmp .L29
 402               	.L24:
 403 0328 8081      		ld r24,Z
 404 032a 9181      		ldd r25,Z+1
 405 032c A281      		ldd r26,Z+2
 406 032e B381      		ldd r27,Z+3
 407 0330 0097      		sbiw r24,0
 408 0332 A105      		cpc r26,__zero_reg__
 409 0334 B105      		cpc r27,__zero_reg__
 410 0336 01F0      		breq .L27
 411 0338 80E0      		ldi r24,lo8(sig_INTERRUPT6)
 412 033a 90E0      		ldi r25,hi8(sig_INTERRUPT6)
 413 033c 0E94 0000 		call NutIrqEnable
 414 0340 00C0      		rjmp .L29
 415               	.L27:
 416 0342 80E0      		ldi r24,lo8(sig_INTERRUPT6)
 417 0344 90E0      		ldi r25,hi8(sig_INTERRUPT6)
 418 0346 0E94 0000 		call NutIrqDisable
 419               	.L29:
 420 034a 20E0      		ldi r18,lo8(0)
 421 034c 30E0      		ldi r19,hi8(0)
 422               	.L26:
 423 034e C901      		movw r24,r18
 424               	/* epilogue start */
 425 0350 0895      		ret
 426               		.size	VsCodec0Control, .-VsCodec0Control
 427               		.type	VsCodec0IsReady, @function
 428               	VsCodec0IsReady:
 429               	/* prologue: function */
 430               	/* frame size = 0 */
 431 0352 85E0      		ldi r24,lo8(5)
 432 0354 90E0      		ldi r25,hi8(5)
 433 0356 66E0      		ldi r22,lo8(6)
 434 0358 70E0      		ldi r23,hi8(6)
 435 035a 0E94 0000 		call GpioPinGet
 436 035e 9C01      		movw r18,r24
 437 0360 0097      		sbiw r24,0
 438 0362 01F0      		breq .L31
 439 0364 21E0      		ldi r18,lo8(1)
 440 0366 30E0      		ldi r19,hi8(1)
 441               	.L31:
 442 0368 C901      		movw r24,r18
 443               	/* epilogue start */
 444 036a 0895      		ret
 445               		.size	VsCodec0IsReady, .-VsCodec0IsReady
 446               		.type	VsCodec0SendData, @function
 447               	VsCodec0SendData:
 448 036c AF92      		push r10
 449 036e BF92      		push r11
 450 0370 CF92      		push r12
 451 0372 DF92      		push r13
 452 0374 EF92      		push r14
 453 0376 FF92      		push r15
 454 0378 0F93      		push r16
 455 037a 1F93      		push r17
 456 037c CF93      		push r28
GAS LISTING C:\DOCUME~1\ADMINI~1\LOCALS~1\Temp/ccgkS2UG.s 			page 9


 457 037e DF93      		push r29
 458               	/* prologue: function */
 459               	/* frame size = 0 */
 460 0380 5C01      		movw r10,r24
 461 0382 6B01      		movw r12,r22
 462 0384 E091 0000 		lds r30,nodeSpiVsCodec0
 463 0388 F091 0000 		lds r31,(nodeSpiVsCodec0)+1
 464 038c 0284      		ldd __tmp_reg__,Z+10
 465 038e F385      		ldd r31,Z+11
 466 0390 E02D      		mov r30,__tmp_reg__
 467 0392 80E0      		ldi r24,lo8(nodeSpiVsCodec0)
 468 0394 90E0      		ldi r25,hi8(nodeSpiVsCodec0)
 469 0396 40E0      		ldi r20,lo8(0)
 470 0398 50E0      		ldi r21,hi8(0)
 471 039a 60E0      		ldi r22,hlo8(0)
 472 039c 70E0      		ldi r23,hhi8(0)
 473 039e 0995      		icall
 474 03a0 892B      		or r24,r25
 475 03a2 01F0      		breq .L34
 476 03a4 EE24      		clr r14
 477 03a6 FF24      		clr r15
 478 03a8 00C0      		rjmp .L35
 479               	.L34:
 480 03aa 82E0      		ldi r24,lo8(2)
 481 03ac 90E0      		ldi r25,hi8(2)
 482 03ae 60E0      		ldi r22,lo8(0)
 483 03b0 70E0      		ldi r23,hi8(0)
 484 03b2 0E94 0000 		call GpioPinSetLow
 485 03b6 82E0      		ldi r24,lo8(2)
 486 03b8 90E0      		ldi r25,hi8(2)
 487 03ba 65E0      		ldi r22,lo8(5)
 488 03bc 70E0      		ldi r23,hi8(5)
 489 03be 0E94 0000 		call GpioPinSetLow
 490 03c2 A114      		cp r10,__zero_reg__
 491 03c4 B104      		cpc r11,__zero_reg__
 492 03c6 01F0      		breq .L36
 493 03c8 8501      		movw r16,r10
 494 03ca 00C0      		rjmp .L37
 495               	.L36:
 496 03cc 00E0      		ldi r16,lo8(zero_chunk)
 497 03ce 10E0      		ldi r17,hi8(zero_chunk)
 498               	.L37:
 499 03d0 EE24      		clr r14
 500 03d2 FF24      		clr r15
 501 03d4 00C0      		rjmp .L38
 502               	.L42:
 503 03d6 E601      		movw r28,r12
 504 03d8 81E2      		ldi r24,lo8(33)
 505 03da C816      		cp r12,r24
 506 03dc D104      		cpc r13,__zero_reg__
 507 03de 00F0      		brlo .L39
 508 03e0 C0E2      		ldi r28,lo8(32)
 509 03e2 D0E0      		ldi r29,hi8(32)
 510               	.L39:
 511 03e4 E091 0000 		lds r30,nodeSpiVsCodec0
 512 03e8 F091 0000 		lds r31,(nodeSpiVsCodec0)+1
 513 03ec 0684      		ldd __tmp_reg__,Z+14
GAS LISTING C:\DOCUME~1\ADMINI~1\LOCALS~1\Temp/ccgkS2UG.s 			page 10


 514 03ee F785      		ldd r31,Z+15
 515 03f0 E02D      		mov r30,__tmp_reg__
 516 03f2 80E0      		ldi r24,lo8(nodeSpiVsCodec0)
 517 03f4 90E0      		ldi r25,hi8(nodeSpiVsCodec0)
 518 03f6 B801      		movw r22,r16
 519 03f8 40E0      		ldi r20,lo8(0)
 520 03fa 50E0      		ldi r21,hi8(0)
 521 03fc 9E01      		movw r18,r28
 522 03fe 0995      		icall
 523 0400 892B      		or r24,r25
 524 0402 01F4      		brne .L40
 525 0404 EC0E      		add r14,r28
 526 0406 FD1E      		adc r15,r29
 527 0408 0E94 0000 		call VsCodec0IsReady
 528 040c 892B      		or r24,r25
 529 040e 01F0      		breq .L40
 530 0410 A114      		cp r10,__zero_reg__
 531 0412 B104      		cpc r11,__zero_reg__
 532 0414 01F0      		breq .L41
 533 0416 0C0F      		add r16,r28
 534 0418 1D1F      		adc r17,r29
 535               	.L41:
 536 041a CC1A      		sub r12,r28
 537 041c DD0A      		sbc r13,r29
 538               	.L38:
 539 041e C114      		cp r12,__zero_reg__
 540 0420 D104      		cpc r13,__zero_reg__
 541 0422 01F4      		brne .L42
 542               	.L40:
 543 0424 82E0      		ldi r24,lo8(2)
 544 0426 90E0      		ldi r25,hi8(2)
 545 0428 65E0      		ldi r22,lo8(5)
 546 042a 70E0      		ldi r23,hi8(5)
 547 042c 0E94 0000 		call GpioPinSetHigh
 548 0430 82E0      		ldi r24,lo8(2)
 549 0432 90E0      		ldi r25,hi8(2)
 550 0434 60E0      		ldi r22,lo8(0)
 551 0436 70E0      		ldi r23,hi8(0)
 552 0438 0E94 0000 		call GpioPinSetHigh
 553 043c E091 0000 		lds r30,nodeSpiVsCodec0
 554 0440 F091 0000 		lds r31,(nodeSpiVsCodec0)+1
 555 0444 0484      		ldd __tmp_reg__,Z+12
 556 0446 F585      		ldd r31,Z+13
 557 0448 E02D      		mov r30,__tmp_reg__
 558 044a 80E0      		ldi r24,lo8(nodeSpiVsCodec0)
 559 044c 90E0      		ldi r25,hi8(nodeSpiVsCodec0)
 560 044e 0995      		icall
 561               	.L35:
 562 0450 C701      		movw r24,r14
 563               	/* epilogue start */
 564 0452 DF91      		pop r29
 565 0454 CF91      		pop r28
 566 0456 1F91      		pop r17
 567 0458 0F91      		pop r16
 568 045a FF90      		pop r15
 569 045c EF90      		pop r14
 570 045e DF90      		pop r13
GAS LISTING C:\DOCUME~1\ADMINI~1\LOCALS~1\Temp/ccgkS2UG.s 			page 11


 571 0460 CF90      		pop r12
 572 0462 BF90      		pop r11
 573 0464 AF90      		pop r10
 574 0466 0895      		ret
 575               		.size	VsCodec0SendData, .-VsCodec0SendData
 576               	.global	devSpiVsCodec0
 577               		.data
 578               		.type	devSpiVsCodec0, @object
 579               		.size	devSpiVsCodec0, 35
 580               	devSpiVsCodec0:
 581 0000 0000      		.word	0
 582 0002 61        		.byte	97
 583 0003 75        		.byte	117
 584 0004 64        		.byte	100
 585 0005 69        		.byte	105
 586 0006 6F        		.byte	111
 587 0007 30        		.byte	48
 588 0008 00        		.byte	0
 589 0009 00        		.byte	0
 590 000a 00        		.byte	0
 591 000b 05        		.byte	5
 592 000c 0000      		.word	0
 593 000e 00        		.byte	0
 594 000f 0000      		.word	nodeSpiVsCodec0
 595 0011 0000      		.word	dcbVsCodec0
 596 0013 0000      		.word	gs(VsCodec0Init)
 597 0015 0000      		.word	gs(VsCodecIOCtl)
 598 0017 0000      		.word	gs(VsCodecRead)
 599 0019 0000      		.word	gs(VsCodecWrite)
 600 001b 0000      		.word	gs(VsCodecWrite_P)
 601 001d 0000      		.word	gs(VsCodecOpen)
 602 001f 0000      		.word	gs(VsCodecClose)
 603 0021 0000      		.word	0
 604               		.type	nodeSpiVsCodec0, @object
 605               		.size	nodeSpiVsCodec0, 14
 606               	nodeSpiVsCodec0:
 607 0023 0000      		.word	0
 608 0025 0000      		.word	0
 609 0027 00        		.byte	0
 610 0028 70        		.byte	112
 611 0029 17        		.byte	23
 612 002a 00        		.byte	0
 613 002b 0000      		.word	0
 614 002d 08        		.byte	8
 615 002e 00        		.byte	0
 616 002f 0000      		.skip 2,0
 617               		.lcomm dcbVsCodec0,67
 618               	.global __do_copy_data
 619               	.global __do_clear_bss
GAS LISTING C:\DOCUME~1\ADMINI~1\LOCALS~1\Temp/ccgkS2UG.s 			page 12


DEFINED SYMBOLS
                            *ABS*:00000000 spi_vscodec0.c
C:\DOCUME~1\ADMINI~1\LOCALS~1\Temp/ccgkS2UG.s:2      *ABS*:0000003f __SREG__
C:\DOCUME~1\ADMINI~1\LOCALS~1\Temp/ccgkS2UG.s:3      *ABS*:0000003e __SP_H__
C:\DOCUME~1\ADMINI~1\LOCALS~1\Temp/ccgkS2UG.s:4      *ABS*:0000003d __SP_L__
C:\DOCUME~1\ADMINI~1\LOCALS~1\Temp/ccgkS2UG.s:5      *ABS*:00000034 __CCP__
C:\DOCUME~1\ADMINI~1\LOCALS~1\Temp/ccgkS2UG.s:6      *ABS*:00000000 __tmp_reg__
C:\DOCUME~1\ADMINI~1\LOCALS~1\Temp/ccgkS2UG.s:7      *ABS*:00000001 __zero_reg__
C:\DOCUME~1\ADMINI~1\LOCALS~1\Temp/ccgkS2UG.s:10     .text:00000000 VsCodec0Interrupt
C:\DOCUME~1\ADMINI~1\LOCALS~1\Temp/ccgkS2UG.s:41     .text:00000030 VsCodec0SendCmd
C:\DOCUME~1\ADMINI~1\LOCALS~1\Temp/ccgkS2UG.s:606    .data:00000023 nodeSpiVsCodec0
C:\DOCUME~1\ADMINI~1\LOCALS~1\Temp/ccgkS2UG.s:119    .text:000000d2 VsCodec0ResetHardware
C:\DOCUME~1\ADMINI~1\LOCALS~1\Temp/ccgkS2UG.s:580    .data:00000000 devSpiVsCodec0
                             .bss:00000000 dcbVsCodec0
C:\DOCUME~1\ADMINI~1\LOCALS~1\Temp/ccgkS2UG.s:194    .text:00000168 VsCodec0Init
C:\DOCUME~1\ADMINI~1\LOCALS~1\Temp/ccgkS2UG.s:428    .text:00000352 VsCodec0IsReady
C:\DOCUME~1\ADMINI~1\LOCALS~1\Temp/ccgkS2UG.s:447    .text:0000036c VsCodec0SendData
C:\DOCUME~1\ADMINI~1\LOCALS~1\Temp/ccgkS2UG.s:354    .text:000002d6 VsCodec0Control

UNDEFINED SYMBOLS
GpioPinSetLow
GpioPinSetHigh
GpioPinConfigSet
NutSleep
VsCodecReg
VsCodecMode
sig_INTERRUPT6
NutRegisterIrqHandler
NutIrqSetMode
NutIrqEnable
heapFreeList
NutHeapRootAvailable
VsDecoderBufferInit
FeederThread
NutThreadCreate
NutIrqDisable
GpioPinGet
zero_chunk
VsCodecIOCtl
VsCodecRead
VsCodecWrite
VsCodecWrite_P
VsCodecOpen
VsCodecClose
__do_copy_data
__do_clear_bss
