GAS LISTING C:\DOCUME~1\ADMINI~1\LOCALS~1\Temp/ccKuFWva.s 			page 1


   1               		.file	"spi_at45dib.c"
   2               	__SREG__ = 0x3f
   3               	__SP_H__ = 0x3e
   4               	__SP_L__ = 0x3d
   5               	__CCP__  = 0x34
   6               	__tmp_reg__ = 0
   7               	__zero_reg__ = 1
   8               		.text
   9               		.type	At45dibTransmitCmd, @function
  10               	At45dibTransmitCmd:
  11 0000 EF92      		push r14
  12 0002 FF92      		push r15
  13 0004 0F93      		push r16
  14 0006 DF93      		push r29
  15 0008 CF93      		push r28
  16 000a CDB7      		in r28,__SP_L__
  17 000c DEB7      		in r29,__SP_H__
  18 000e 2897      		sbiw r28,8
  19 0010 0FB6      		in __tmp_reg__,__SREG__
  20 0012 F894      		cli
  21 0014 DEBF      		out __SP_H__,r29
  22 0016 0FBE      		out __SREG__,__tmp_reg__
  23 0018 CDBF      		out __SP_L__,r28
  24               	/* prologue: function */
  25               	/* frame size = 8 */
  26 001a 7C01      		movw r14,r24
  27 001c FE01      		movw r30,r28
  28 001e 3196      		adiw r30,1
  29 0020 88E0      		ldi r24,lo8(8)
  30 0022 DF01      		movw r26,r30
  31 0024 1D92      		st X+,__zero_reg__
  32 0026 8A95      	        dec r24
  33 0028 01F4      		brne .-6
  34 002a 6983      		std Y+1,r22
  35 002c 2115      		cp r18,__zero_reg__
  36 002e 3105      		cpc r19,__zero_reg__
  37 0030 4105      		cpc r20,__zero_reg__
  38 0032 5105      		cpc r21,__zero_reg__
  39 0034 01F0      		breq .L2
  40 0036 CA01      		movw r24,r20
  41 0038 AA27      		clr r26
  42 003a BB27      		clr r27
  43 003c 8A83      		std Y+2,r24
  44 003e BB27      		clr r27
  45 0040 A52F      		mov r26,r21
  46 0042 942F      		mov r25,r20
  47 0044 832F      		mov r24,r19
  48 0046 8B83      		std Y+3,r24
  49 0048 2C83      		std Y+4,r18
  50               	.L2:
  51 004a D701      		movw r26,r14
  52 004c ED91      		ld r30,X+
  53 004e FC91      		ld r31,X
  54 0050 0684      		ldd __tmp_reg__,Z+14
  55 0052 F785      		ldd r31,Z+15
  56 0054 E02D      		mov r30,__tmp_reg__
  57 0056 C701      		movw r24,r14
GAS LISTING C:\DOCUME~1\ADMINI~1\LOCALS~1\Temp/ccKuFWva.s 			page 2


  58 0058 BE01      		movw r22,r28
  59 005a 6F5F      		subi r22,lo8(-(1))
  60 005c 7F4F      		sbci r23,hi8(-(1))
  61 005e 40E0      		ldi r20,lo8(0)
  62 0060 50E0      		ldi r21,hi8(0)
  63 0062 202F      		mov r18,r16
  64 0064 30E0      		ldi r19,lo8(0)
  65 0066 0995      		icall
  66               	/* epilogue start */
  67 0068 2896      		adiw r28,8
  68 006a 0FB6      		in __tmp_reg__,__SREG__
  69 006c F894      		cli
  70 006e DEBF      		out __SP_H__,r29
  71 0070 0FBE      		out __SREG__,__tmp_reg__
  72 0072 CDBF      		out __SP_L__,r28
  73 0074 CF91      		pop r28
  74 0076 DF91      		pop r29
  75 0078 0F91      		pop r16
  76 007a FF90      		pop r15
  77 007c EF90      		pop r14
  78 007e 0895      		ret
  79               		.size	At45dibTransmitCmd, .-At45dibTransmitCmd
  80               		.type	At45dibTransfer, @function
  81               	At45dibTransfer:
  82 0080 2F92      		push r2
  83 0082 3F92      		push r3
  84 0084 4F92      		push r4
  85 0086 5F92      		push r5
  86 0088 6F92      		push r6
  87 008a 7F92      		push r7
  88 008c 8F92      		push r8
  89 008e 9F92      		push r9
  90 0090 AF92      		push r10
  91 0092 BF92      		push r11
  92 0094 CF92      		push r12
  93 0096 DF92      		push r13
  94 0098 EF92      		push r14
  95 009a FF92      		push r15
  96 009c 0F93      		push r16
  97 009e 1F93      		push r17
  98 00a0 CF93      		push r28
  99 00a2 DF93      		push r29
 100               	/* prologue: function */
 101               	/* frame size = 0 */
 102 00a4 4C01      		movw r8,r24
 103 00a6 162F      		mov r17,r22
 104 00a8 2901      		movw r4,r18
 105 00aa 3A01      		movw r6,r20
 106 00ac 1701      		movw r2,r14
 107 00ae DC01      		movw r26,r24
 108 00b0 ED90      		ld r14,X+
 109 00b2 FC90      		ld r15,X
 110 00b4 D701      		movw r26,r14
 111 00b6 1A96      		adiw r26,10
 112 00b8 ED91      		ld r30,X+
 113 00ba FC91      		ld r31,X
 114 00bc 1B97      		sbiw r26,10+1
GAS LISTING C:\DOCUME~1\ADMINI~1\LOCALS~1\Temp/ccKuFWva.s 			page 3


 115 00be 40E0      		ldi r20,lo8(0)
 116 00c0 50E0      		ldi r21,hi8(0)
 117 00c2 60E0      		ldi r22,hlo8(0)
 118 00c4 70E0      		ldi r23,hhi8(0)
 119 00c6 0995      		icall
 120 00c8 EC01      		movw r28,r24
 121 00ca 0097      		sbiw r24,0
 122 00cc 01F4      		brne .L5
 123 00ce C401      		movw r24,r8
 124 00d0 612F      		mov r22,r17
 125 00d2 A301      		movw r20,r6
 126 00d4 9201      		movw r18,r4
 127 00d6 0E94 0000 		call At45dibTransmitCmd
 128 00da EC01      		movw r28,r24
 129 00dc 0097      		sbiw r24,0
 130 00de 01F4      		brne .L6
 131 00e0 A114      		cp r10,__zero_reg__
 132 00e2 B104      		cpc r11,__zero_reg__
 133 00e4 01F0      		breq .L6
 134 00e6 D701      		movw r26,r14
 135 00e8 1E96      		adiw r26,14
 136 00ea ED91      		ld r30,X+
 137 00ec FC91      		ld r31,X
 138 00ee 1F97      		sbiw r26,14+1
 139 00f0 C401      		movw r24,r8
 140 00f2 B101      		movw r22,r2
 141 00f4 A601      		movw r20,r12
 142 00f6 9501      		movw r18,r10
 143 00f8 0995      		icall
 144 00fa EC01      		movw r28,r24
 145               	.L6:
 146 00fc D701      		movw r26,r14
 147 00fe 1C96      		adiw r26,12
 148 0100 ED91      		ld r30,X+
 149 0102 FC91      		ld r31,X
 150 0104 1D97      		sbiw r26,12+1
 151 0106 C401      		movw r24,r8
 152 0108 0995      		icall
 153               	.L5:
 154 010a CE01      		movw r24,r28
 155               	/* epilogue start */
 156 010c DF91      		pop r29
 157 010e CF91      		pop r28
 158 0110 1F91      		pop r17
 159 0112 0F91      		pop r16
 160 0114 FF90      		pop r15
 161 0116 EF90      		pop r14
 162 0118 DF90      		pop r13
 163 011a CF90      		pop r12
 164 011c BF90      		pop r11
 165 011e AF90      		pop r10
 166 0120 9F90      		pop r9
 167 0122 8F90      		pop r8
 168 0124 7F90      		pop r7
 169 0126 6F90      		pop r6
 170 0128 5F90      		pop r5
 171 012a 4F90      		pop r4
GAS LISTING C:\DOCUME~1\ADMINI~1\LOCALS~1\Temp/ccKuFWva.s 			page 4


 172 012c 3F90      		pop r3
 173 012e 2F90      		pop r2
 174 0130 0895      		ret
 175               		.size	At45dibTransfer, .-At45dibTransfer
 176               		.type	At45dibCompare, @function
 177               	At45dibCompare:
 178 0132 2F92      		push r2
 179 0134 3F92      		push r3
 180 0136 4F92      		push r4
 181 0138 5F92      		push r5
 182 013a 6F92      		push r6
 183 013c 7F92      		push r7
 184 013e 8F92      		push r8
 185 0140 9F92      		push r9
 186 0142 AF92      		push r10
 187 0144 BF92      		push r11
 188 0146 CF92      		push r12
 189 0148 DF92      		push r13
 190 014a EF92      		push r14
 191 014c FF92      		push r15
 192 014e 0F93      		push r16
 193 0150 1F93      		push r17
 194 0152 DF93      		push r29
 195 0154 CF93      		push r28
 196 0156 00D0      		rcall .
 197 0158 0F92      		push __tmp_reg__
 198 015a CDB7      		in r28,__SP_L__
 199 015c DEB7      		in r29,__SP_H__
 200               	/* prologue: function */
 201               	/* frame size = 3 */
 202 015e 3C01      		movw r6,r24
 203 0160 362E      		mov r3,r22
 204 0162 4901      		movw r8,r18
 205 0164 5A01      		movw r10,r20
 206 0166 202E      		mov r2,r16
 207 0168 FB82      		std Y+3,r15
 208 016a EA82      		std Y+2,r14
 209 016c 2601      		movw r4,r12
 210 016e DC01      		movw r26,r24
 211 0170 CD90      		ld r12,X+
 212 0172 DC90      		ld r13,X
 213 0174 D601      		movw r26,r12
 214 0176 1A96      		adiw r26,10
 215 0178 ED91      		ld r30,X+
 216 017a FC91      		ld r31,X
 217 017c 1B97      		sbiw r26,10+1
 218 017e 40E0      		ldi r20,lo8(0)
 219 0180 50E0      		ldi r21,hi8(0)
 220 0182 60E0      		ldi r22,hlo8(0)
 221 0184 70E0      		ldi r23,hhi8(0)
 222 0186 0995      		icall
 223 0188 8C01      		movw r16,r24
 224 018a 0097      		sbiw r24,0
 225 018c 01F4      		brne .L9
 226 018e C301      		movw r24,r6
 227 0190 632D      		mov r22,r3
 228 0192 A501      		movw r20,r10
GAS LISTING C:\DOCUME~1\ADMINI~1\LOCALS~1\Temp/ccKuFWva.s 			page 5


 229 0194 9401      		movw r18,r8
 230 0196 022D      		mov r16,r2
 231 0198 0E94 0000 		call At45dibTransmitCmd
 232 019c 5C01      		movw r10,r24
 233 019e 0097      		sbiw r24,0
 234 01a0 01F4      		brne .L10
 235 01a2 4114      		cp r4,__zero_reg__
 236 01a4 5104      		cpc r5,__zero_reg__
 237 01a6 01F0      		breq .L10
 238 01a8 EE24      		clr r14
 239 01aa FF24      		clr r15
 240 01ac 4E01      		movw r8,r28
 241 01ae 0894      		sec
 242 01b0 811C      		adc r8,__zero_reg__
 243 01b2 911C      		adc r9,__zero_reg__
 244 01b4 00C0      		rjmp .L11
 245               	.L14:
 246 01b6 D601      		movw r26,r12
 247 01b8 1E96      		adiw r26,14
 248 01ba ED91      		ld r30,X+
 249 01bc FC91      		ld r31,X
 250 01be 1F97      		sbiw r26,14+1
 251 01c0 C301      		movw r24,r6
 252 01c2 60E0      		ldi r22,lo8(0)
 253 01c4 70E0      		ldi r23,hi8(0)
 254 01c6 A401      		movw r20,r8
 255 01c8 21E0      		ldi r18,lo8(1)
 256 01ca 30E0      		ldi r19,hi8(1)
 257 01cc 0995      		icall
 258 01ce 8C01      		movw r16,r24
 259 01d0 0097      		sbiw r24,0
 260 01d2 01F4      		brne .L12
 261 01d4 8981      		ldd r24,Y+1
 262 01d6 EA81      		ldd r30,Y+2
 263 01d8 FB81      		ldd r31,Y+3
 264 01da EE0D      		add r30,r14
 265 01dc FF1D      		adc r31,r15
 266 01de E081      		ld r30,Z
 267 01e0 8E17      		cp r24,r30
 268 01e2 01F0      		breq .L13
 269 01e4 082F      		mov r16,r24
 270 01e6 10E0      		ldi r17,lo8(0)
 271 01e8 0E1B      		sub r16,r30
 272 01ea 1109      		sbc r17,__zero_reg__
 273 01ec 00C0      		rjmp .L12
 274               	.L13:
 275 01ee 0894      		sec
 276 01f0 E11C      		adc r14,__zero_reg__
 277 01f2 F11C      		adc r15,__zero_reg__
 278               	.L11:
 279 01f4 E414      		cp r14,r4
 280 01f6 F504      		cpc r15,r5
 281 01f8 04F0      		brlt .L14
 282               	.L10:
 283 01fa 8501      		movw r16,r10
 284               	.L12:
 285 01fc D601      		movw r26,r12
GAS LISTING C:\DOCUME~1\ADMINI~1\LOCALS~1\Temp/ccKuFWva.s 			page 6


 286 01fe 1C96      		adiw r26,12
 287 0200 ED91      		ld r30,X+
 288 0202 FC91      		ld r31,X
 289 0204 1D97      		sbiw r26,12+1
 290 0206 C301      		movw r24,r6
 291 0208 0995      		icall
 292               	.L9:
 293 020a C801      		movw r24,r16
 294               	/* epilogue start */
 295 020c 0F90      		pop __tmp_reg__
 296 020e 0F90      		pop __tmp_reg__
 297 0210 0F90      		pop __tmp_reg__
 298 0212 CF91      		pop r28
 299 0214 DF91      		pop r29
 300 0216 1F91      		pop r17
 301 0218 0F91      		pop r16
 302 021a FF90      		pop r15
 303 021c EF90      		pop r14
 304 021e DF90      		pop r13
 305 0220 CF90      		pop r12
 306 0222 BF90      		pop r11
 307 0224 AF90      		pop r10
 308 0226 9F90      		pop r9
 309 0228 8F90      		pop r8
 310 022a 7F90      		pop r7
 311 022c 6F90      		pop r6
 312 022e 5F90      		pop r5
 313 0230 4F90      		pop r4
 314 0232 3F90      		pop r3
 315 0234 2F90      		pop r2
 316 0236 0895      		ret
 317               		.size	At45dibCompare, .-At45dibCompare
 318               		.type	At45dibUsed, @function
 319               	At45dibUsed:
 320 0238 2F92      		push r2
 321 023a 3F92      		push r3
 322 023c 4F92      		push r4
 323 023e 5F92      		push r5
 324 0240 6F92      		push r6
 325 0242 7F92      		push r7
 326 0244 8F92      		push r8
 327 0246 9F92      		push r9
 328 0248 AF92      		push r10
 329 024a BF92      		push r11
 330 024c CF92      		push r12
 331 024e DF92      		push r13
 332 0250 EF92      		push r14
 333 0252 FF92      		push r15
 334 0254 0F93      		push r16
 335 0256 1F93      		push r17
 336 0258 DF93      		push r29
 337 025a CF93      		push r28
 338 025c 0F92      		push __tmp_reg__
 339 025e CDB7      		in r28,__SP_L__
 340 0260 DEB7      		in r29,__SP_H__
 341               	/* prologue: function */
 342               	/* frame size = 1 */
GAS LISTING C:\DOCUME~1\ADMINI~1\LOCALS~1\Temp/ccKuFWva.s 			page 7


 343 0262 4C01      		movw r8,r24
 344 0264 362E      		mov r3,r22
 345 0266 5901      		movw r10,r18
 346 0268 6A01      		movw r12,r20
 347 026a 202E      		mov r2,r16
 348 026c 2701      		movw r4,r14
 349 026e DC01      		movw r26,r24
 350 0270 6D90      		ld r6,X+
 351 0272 7C90      		ld r7,X
 352 0274 D301      		movw r26,r6
 353 0276 1A96      		adiw r26,10
 354 0278 ED91      		ld r30,X+
 355 027a FC91      		ld r31,X
 356 027c 1B97      		sbiw r26,10+1
 357 027e 40E0      		ldi r20,lo8(0)
 358 0280 50E0      		ldi r21,hi8(0)
 359 0282 60E0      		ldi r22,hlo8(0)
 360 0284 70E0      		ldi r23,hhi8(0)
 361 0286 0995      		icall
 362 0288 8C01      		movw r16,r24
 363 028a 0097      		sbiw r24,0
 364 028c 01F4      		brne .L17
 365 028e C401      		movw r24,r8
 366 0290 632D      		mov r22,r3
 367 0292 A601      		movw r20,r12
 368 0294 9501      		movw r18,r10
 369 0296 022D      		mov r16,r2
 370 0298 0E94 0000 		call At45dibTransmitCmd
 371 029c 8C01      		movw r16,r24
 372 029e 0097      		sbiw r24,0
 373 02a0 01F4      		brne .L18
 374 02a2 E114      		cp r14,__zero_reg__
 375 02a4 F104      		cpc r15,__zero_reg__
 376 02a6 01F0      		breq .L18
 377 02a8 EE24      		clr r14
 378 02aa FF24      		clr r15
 379 02ac CC24      		clr r12
 380 02ae CA94      		dec r12
 381 02b0 DC2C      		mov r13,r12
 382 02b2 5E01      		movw r10,r28
 383 02b4 0894      		sec
 384 02b6 A11C      		adc r10,__zero_reg__
 385 02b8 B11C      		adc r11,__zero_reg__
 386 02ba 00C0      		rjmp .L19
 387               	.L21:
 388 02bc D301      		movw r26,r6
 389 02be 1E96      		adiw r26,14
 390 02c0 ED91      		ld r30,X+
 391 02c2 FC91      		ld r31,X
 392 02c4 1F97      		sbiw r26,14+1
 393 02c6 C401      		movw r24,r8
 394 02c8 60E0      		ldi r22,lo8(0)
 395 02ca 70E0      		ldi r23,hi8(0)
 396 02cc A501      		movw r20,r10
 397 02ce 21E0      		ldi r18,lo8(1)
 398 02d0 30E0      		ldi r19,hi8(1)
 399 02d2 0995      		icall
GAS LISTING C:\DOCUME~1\ADMINI~1\LOCALS~1\Temp/ccKuFWva.s 			page 8


 400 02d4 8C01      		movw r16,r24
 401 02d6 0097      		sbiw r24,0
 402 02d8 01F4      		brne .L18
 403 02da 8981      		ldd r24,Y+1
 404 02dc 8F3F      		cpi r24,lo8(-1)
 405 02de 01F0      		breq .L20
 406 02e0 6701      		movw r12,r14
 407               	.L20:
 408 02e2 0894      		sec
 409 02e4 E11C      		adc r14,__zero_reg__
 410 02e6 F11C      		adc r15,__zero_reg__
 411               	.L19:
 412 02e8 E414      		cp r14,r4
 413 02ea F504      		cpc r15,r5
 414 02ec 04F0      		brlt .L21
 415 02ee 8601      		movw r16,r12
 416 02f0 0F5F      		subi r16,lo8(-(1))
 417 02f2 1F4F      		sbci r17,hi8(-(1))
 418               	.L18:
 419 02f4 D301      		movw r26,r6
 420 02f6 1C96      		adiw r26,12
 421 02f8 ED91      		ld r30,X+
 422 02fa FC91      		ld r31,X
 423 02fc 1D97      		sbiw r26,12+1
 424 02fe C401      		movw r24,r8
 425 0300 0995      		icall
 426               	.L17:
 427 0302 C801      		movw r24,r16
 428               	/* epilogue start */
 429 0304 0F90      		pop __tmp_reg__
 430 0306 CF91      		pop r28
 431 0308 DF91      		pop r29
 432 030a 1F91      		pop r17
 433 030c 0F91      		pop r16
 434 030e FF90      		pop r15
 435 0310 EF90      		pop r14
 436 0312 DF90      		pop r13
 437 0314 CF90      		pop r12
 438 0316 BF90      		pop r11
 439 0318 AF90      		pop r10
 440 031a 9F90      		pop r9
 441 031c 8F90      		pop r8
 442 031e 7F90      		pop r7
 443 0320 6F90      		pop r6
 444 0322 5F90      		pop r5
 445 0324 4F90      		pop r4
 446 0326 3F90      		pop r3
 447 0328 2F90      		pop r2
 448 032a 0895      		ret
 449               		.size	At45dibUsed, .-At45dibUsed
 450               		.type	At45dibStatus, @function
 451               	At45dibStatus:
 452 032c CF92      		push r12
 453 032e DF92      		push r13
 454 0330 EF92      		push r14
 455 0332 FF92      		push r15
 456 0334 0F93      		push r16
GAS LISTING C:\DOCUME~1\ADMINI~1\LOCALS~1\Temp/ccKuFWva.s 			page 9


 457 0336 1F93      		push r17
 458 0338 DF93      		push r29
 459 033a CF93      		push r28
 460 033c 00D0      		rcall .
 461 033e CDB7      		in r28,__SP_L__
 462 0340 DEB7      		in r29,__SP_H__
 463               	/* prologue: function */
 464               	/* frame size = 2 */
 465 0342 6C01      		movw r12,r24
 466 0344 87ED      		ldi r24,lo8(-41)
 467 0346 8983      		std Y+1,r24
 468 0348 8FEF      		ldi r24,lo8(-1)
 469 034a 8A83      		std Y+2,r24
 470 034c D601      		movw r26,r12
 471 034e ED90      		ld r14,X+
 472 0350 FC90      		ld r15,X
 473 0352 D701      		movw r26,r14
 474 0354 1A96      		adiw r26,10
 475 0356 ED91      		ld r30,X+
 476 0358 FC91      		ld r31,X
 477 035a 1B97      		sbiw r26,10+1
 478 035c C601      		movw r24,r12
 479 035e 40E0      		ldi r20,lo8(0)
 480 0360 50E0      		ldi r21,hi8(0)
 481 0362 60E0      		ldi r22,hlo8(0)
 482 0364 70E0      		ldi r23,hhi8(0)
 483 0366 0995      		icall
 484 0368 8C01      		movw r16,r24
 485 036a 0097      		sbiw r24,0
 486 036c 01F4      		brne .L24
 487 036e D701      		movw r26,r14
 488 0370 1E96      		adiw r26,14
 489 0372 ED91      		ld r30,X+
 490 0374 FC91      		ld r31,X
 491 0376 1F97      		sbiw r26,14+1
 492 0378 C601      		movw r24,r12
 493 037a AE01      		movw r20,r28
 494 037c 4F5F      		subi r20,lo8(-(1))
 495 037e 5F4F      		sbci r21,hi8(-(1))
 496 0380 BA01      		movw r22,r20
 497 0382 22E0      		ldi r18,lo8(2)
 498 0384 30E0      		ldi r19,hi8(2)
 499 0386 0995      		icall
 500 0388 8C01      		movw r16,r24
 501 038a 0097      		sbiw r24,0
 502 038c 01F4      		brne .L25
 503 038e D701      		movw r26,r14
 504 0390 5096      		adiw r26,16
 505 0392 ED91      		ld r30,X+
 506 0394 FC91      		ld r31,X
 507 0396 5197      		sbiw r26,16+1
 508 0398 C601      		movw r24,r12
 509 039a 40E0      		ldi r20,lo8(0)
 510 039c 50E0      		ldi r21,hi8(0)
 511 039e 60E0      		ldi r22,hlo8(0)
 512 03a0 70E0      		ldi r23,hhi8(0)
 513 03a2 0995      		icall
GAS LISTING C:\DOCUME~1\ADMINI~1\LOCALS~1\Temp/ccKuFWva.s 			page 10


 514 03a4 8A81      		ldd r24,Y+2
 515 03a6 082F      		mov r16,r24
 516               	.L25:
 517 03a8 D701      		movw r26,r14
 518 03aa 1C96      		adiw r26,12
 519 03ac ED91      		ld r30,X+
 520 03ae FC91      		ld r31,X
 521 03b0 1D97      		sbiw r26,12+1
 522 03b2 C601      		movw r24,r12
 523 03b4 0995      		icall
 524               	.L24:
 525 03b6 802F      		mov r24,r16
 526               	/* epilogue start */
 527 03b8 0F90      		pop __tmp_reg__
 528 03ba 0F90      		pop __tmp_reg__
 529 03bc CF91      		pop r28
 530 03be DF91      		pop r29
 531 03c0 1F91      		pop r17
 532 03c2 0F91      		pop r16
 533 03c4 FF90      		pop r15
 534 03c6 EF90      		pop r14
 535 03c8 DF90      		pop r13
 536 03ca CF90      		pop r12
 537 03cc 0895      		ret
 538               		.size	At45dibStatus, .-At45dibStatus
 539               		.type	At45dibWaitReady, @function
 540               	At45dibWaitReady:
 541 03ce EF92      		push r14
 542 03d0 FF92      		push r15
 543 03d2 0F93      		push r16
 544 03d4 1F93      		push r17
 545 03d6 CF93      		push r28
 546 03d8 DF93      		push r29
 547               	/* prologue: function */
 548               	/* frame size = 0 */
 549 03da EC01      		movw r28,r24
 550 03dc 7A01      		movw r14,r20
 551 03de 8B01      		movw r16,r22
 552 03e0 00C0      		rjmp .L28
 553               	.L31:
 554 03e2 E114      		cp r14,__zero_reg__
 555 03e4 F104      		cpc r15,__zero_reg__
 556 03e6 0105      		cpc r16,__zero_reg__
 557 03e8 1105      		cpc r17,__zero_reg__
 558 03ea 01F4      		brne .L29
 559 03ec 2FEF      		ldi r18,lo8(-1)
 560 03ee 3FEF      		ldi r19,hi8(-1)
 561 03f0 00C0      		rjmp .L30
 562               	.L29:
 563 03f2 0894      		sec
 564 03f4 E108      		sbc r14,__zero_reg__
 565 03f6 F108      		sbc r15,__zero_reg__
 566 03f8 0109      		sbc r16,__zero_reg__
 567 03fa 1109      		sbc r17,__zero_reg__
 568               	.L28:
 569 03fc CE01      		movw r24,r28
 570 03fe 0E94 0000 		call At45dibStatus
GAS LISTING C:\DOCUME~1\ADMINI~1\LOCALS~1\Temp/ccKuFWva.s 			page 11


 571 0402 87FF      		sbrs r24,7
 572 0404 00C0      		rjmp .L31
 573 0406 20E0      		ldi r18,lo8(0)
 574 0408 30E0      		ldi r19,hi8(0)
 575               	.L30:
 576 040a C901      		movw r24,r18
 577               	/* epilogue start */
 578 040c DF91      		pop r29
 579 040e CF91      		pop r28
 580 0410 1F91      		pop r17
 581 0412 0F91      		pop r16
 582 0414 FF90      		pop r15
 583 0416 EF90      		pop r14
 584 0418 0895      		ret
 585               		.size	At45dibWaitReady, .-At45dibWaitReady
 586               		.type	At45dibFlash, @function
 587               	At45dibFlash:
 588 041a 6F92      		push r6
 589 041c 7F92      		push r7
 590 041e 8F92      		push r8
 591 0420 9F92      		push r9
 592 0422 AF92      		push r10
 593 0424 BF92      		push r11
 594 0426 CF92      		push r12
 595 0428 DF92      		push r13
 596 042a EF92      		push r14
 597 042c FF92      		push r15
 598 042e 0F93      		push r16
 599 0430 CF93      		push r28
 600 0432 DF93      		push r29
 601               	/* prologue: function */
 602               	/* frame size = 0 */
 603 0434 EC01      		movw r28,r24
 604 0436 8A80      		ldd r8,Y+2
 605 0438 9B80      		ldd r9,Y+3
 606 043a 662E      		mov r6,r22
 607 043c 7724      		clr r7
 608 043e 67FC      		sbrc r6,7
 609 0440 7094      		com r7
 610 0442 F301      		movw r30,r6
 611 0444 EE0F      		lsl r30
 612 0446 FF1F      		rol r31
 613 0448 E80D      		add r30,r8
 614 044a F91D      		adc r31,r9
 615 044c 2081      		ld r18,Z
 616 044e 3181      		ldd r19,Z+1
 617 0450 F401      		movw r30,r8
 618 0452 7485      		ldd r23,Z+12
 619 0454 8881      		ld r24,Y
 620 0456 9981      		ldd r25,Y+1
 621 0458 6623      		tst r22
 622 045a 01F4      		brne .L34
 623 045c 68E8      		ldi r22,lo8(-120)
 624 045e 00C0      		rjmp .L35
 625               	.L34:
 626 0460 69E8      		ldi r22,lo8(-119)
 627               	.L35:
GAS LISTING C:\DOCUME~1\ADMINI~1\LOCALS~1\Temp/ccKuFWva.s 			page 12


 628 0462 40E0      		ldi r20,lo8(0)
 629 0464 50E0      		ldi r21,hi8(0)
 630 0466 00C0      		rjmp 2f
 631 0468 220F      	1:	lsl r18
 632 046a 331F      		rol r19
 633 046c 441F      		rol r20
 634 046e 551F      		rol r21
 635 0470 7A95      	2:	dec r23
 636 0472 02F4      		brpl 1b
 637 0474 04E0      		ldi r16,lo8(4)
 638 0476 EE24      		clr r14
 639 0478 FF24      		clr r15
 640 047a CC24      		clr r12
 641 047c DD24      		clr r13
 642 047e AA24      		clr r10
 643 0480 BB24      		clr r11
 644 0482 0E94 0000 		call At45dibTransfer
 645 0486 9C01      		movw r18,r24
 646 0488 0097      		sbiw r24,0
 647 048a 01F4      		brne .L36
 648 048c 8881      		ld r24,Y
 649 048e 9981      		ldd r25,Y+1
 650 0490 48EE      		ldi r20,lo8(1000)
 651 0492 53E0      		ldi r21,hi8(1000)
 652 0494 60E0      		ldi r22,hlo8(1000)
 653 0496 70E0      		ldi r23,hhi8(1000)
 654 0498 0E94 0000 		call At45dibWaitReady
 655 049c 9C01      		movw r18,r24
 656 049e F401      		movw r30,r8
 657 04a0 E60D      		add r30,r6
 658 04a2 F71D      		adc r31,r7
 659 04a4 8481      		ldd r24,Z+4
 660 04a6 8E7F      		andi r24,lo8(-2)
 661 04a8 8483      		std Z+4,r24
 662               	.L36:
 663 04aa C901      		movw r24,r18
 664               	/* epilogue start */
 665 04ac DF91      		pop r29
 666 04ae CF91      		pop r28
 667 04b0 0F91      		pop r16
 668 04b2 FF90      		pop r15
 669 04b4 EF90      		pop r14
 670 04b6 DF90      		pop r13
 671 04b8 CF90      		pop r12
 672 04ba BF90      		pop r11
 673 04bc AF90      		pop r10
 674 04be 9F90      		pop r9
 675 04c0 8F90      		pop r8
 676 04c2 7F90      		pop r7
 677 04c4 6F90      		pop r6
 678 04c6 0895      		ret
 679               		.size	At45dibFlash, .-At45dibFlash
 680               		.type	SpiAt45dibCheck, @function
 681               	SpiAt45dibCheck:
 682               	/* prologue: function */
 683               	/* frame size = 0 */
 684 04c8 80E0      		ldi r24,lo8(0)
GAS LISTING C:\DOCUME~1\ADMINI~1\LOCALS~1\Temp/ccKuFWva.s 			page 13


 685 04ca 90E0      		ldi r25,hi8(0)
 686               	/* epilogue start */
 687 04cc 0895      		ret
 688               		.size	SpiAt45dibCheck, .-SpiAt45dibCheck
 689               		.type	SpiAt45dibRead, @function
 690               	SpiAt45dibRead:
 691 04ce AF92      		push r10
 692 04d0 BF92      		push r11
 693 04d2 CF92      		push r12
 694 04d4 DF92      		push r13
 695 04d6 EF92      		push r14
 696 04d8 FF92      		push r15
 697 04da 0F93      		push r16
 698 04dc 1F93      		push r17
 699 04de CF93      		push r28
 700 04e0 DF93      		push r29
 701               	/* prologue: function */
 702               	/* frame size = 0 */
 703 04e2 EC01      		movw r28,r24
 704 04e4 7A01      		movw r14,r20
 705 04e6 6901      		movw r12,r18
 706 04e8 5801      		movw r10,r16
 707 04ea 0115      		cp r16,__zero_reg__
 708 04ec 1105      		cpc r17,__zero_reg__
 709 04ee 01F4      		brne .L41
 710 04f0 20E0      		ldi r18,lo8(0)
 711 04f2 30E0      		ldi r19,hi8(0)
 712 04f4 00C0      		rjmp .L42
 713               	.L41:
 714 04f6 EA81      		ldd r30,Y+2
 715 04f8 FB81      		ldd r31,Y+3
 716 04fa 57FF      		sbrs r21,7
 717 04fc 00C0      		rjmp .L43
 718 04fe 8C81      		ldd r24,Y+4
 719 0500 9D81      		ldd r25,Y+5
 720 0502 E80E      		add r14,r24
 721 0504 F91E      		adc r15,r25
 722               	.L43:
 723 0506 8081      		ld r24,Z
 724 0508 9181      		ldd r25,Z+1
 725 050a 8617      		cp r24,r22
 726 050c 9707      		cpc r25,r23
 727 050e 01F4      		brne .L44
 728 0510 20E0      		ldi r18,lo8(0)
 729 0512 00C0      		rjmp .L45
 730               	.L44:
 731 0514 8281      		ldd r24,Z+2
 732 0516 9381      		ldd r25,Z+3
 733 0518 8617      		cp r24,r22
 734 051a 9707      		cpc r25,r23
 735 051c 01F0      		breq .L46
 736 051e CB01      		movw r24,r22
 737 0520 A0E0      		ldi r26,lo8(0)
 738 0522 B0E0      		ldi r27,hi8(0)
 739 0524 0484      		ldd r0,Z+12
 740 0526 00C0      		rjmp 2f
 741 0528 880F      	1:	lsl r24
GAS LISTING C:\DOCUME~1\ADMINI~1\LOCALS~1\Temp/ccKuFWva.s 			page 14


 742 052a 991F      		rol r25
 743 052c AA1F      		rol r26
 744 052e BB1F      		rol r27
 745 0530 0A94      	2:	dec r0
 746 0532 02F4      		brpl 1b
 747 0534 9701      		movw r18,r14
 748 0536 4427      		clr r20
 749 0538 37FD      		sbrc r19,7
 750 053a 4095      		com r20
 751 053c 542F      		mov r21,r20
 752 053e 282B      		or r18,r24
 753 0540 392B      		or r19,r25
 754 0542 4A2B      		or r20,r26
 755 0544 5B2B      		or r21,r27
 756 0546 8881      		ld r24,Y
 757 0548 9981      		ldd r25,Y+1
 758 054a 62ED      		ldi r22,lo8(-46)
 759 054c 08E0      		ldi r16,lo8(8)
 760 054e 00C0      		rjmp .L50
 761               	.L47:
 762 0550 64ED      		ldi r22,lo8(-44)
 763               	.L48:
 764 0552 9701      		movw r18,r14
 765 0554 4427      		clr r20
 766 0556 37FD      		sbrc r19,7
 767 0558 4095      		com r20
 768 055a 542F      		mov r21,r20
 769 055c 05E0      		ldi r16,lo8(5)
 770               	.L50:
 771 055e EE24      		clr r14
 772 0560 FF24      		clr r15
 773 0562 0E94 0000 		call At45dibTransfer
 774 0566 9C01      		movw r18,r24
 775               	.L42:
 776 0568 C901      		movw r24,r18
 777               	/* epilogue start */
 778 056a DF91      		pop r29
 779 056c CF91      		pop r28
 780 056e 1F91      		pop r17
 781 0570 0F91      		pop r16
 782 0572 FF90      		pop r15
 783 0574 EF90      		pop r14
 784 0576 DF90      		pop r13
 785 0578 CF90      		pop r12
 786 057a BF90      		pop r11
 787 057c AF90      		pop r10
 788 057e 0895      		ret
 789               	.L46:
 790 0580 21E0      		ldi r18,lo8(1)
 791               	.L45:
 792 0582 8881      		ld r24,Y
 793 0584 9981      		ldd r25,Y+1
 794 0586 2223      		tst r18
 795 0588 01F0      		breq .L47
 796 058a 66ED      		ldi r22,lo8(-42)
 797 058c 00C0      		rjmp .L48
 798               		.size	SpiAt45dibRead, .-SpiAt45dibRead
GAS LISTING C:\DOCUME~1\ADMINI~1\LOCALS~1\Temp/ccKuFWva.s 			page 15


 799               		.type	SpiAt45dibCompare, @function
 800               	SpiAt45dibCompare:
 801 058e AF92      		push r10
 802 0590 BF92      		push r11
 803 0592 CF92      		push r12
 804 0594 DF92      		push r13
 805 0596 EF92      		push r14
 806 0598 FF92      		push r15
 807 059a 0F93      		push r16
 808 059c 1F93      		push r17
 809 059e CF93      		push r28
 810 05a0 DF93      		push r29
 811               	/* prologue: function */
 812               	/* frame size = 0 */
 813 05a2 7C01      		movw r14,r24
 814 05a4 EA01      		movw r28,r20
 815 05a6 5901      		movw r10,r18
 816 05a8 6801      		movw r12,r16
 817 05aa 0115      		cp r16,__zero_reg__
 818 05ac 1105      		cpc r17,__zero_reg__
 819 05ae 01F4      		brne .L52
 820 05b0 20E0      		ldi r18,lo8(0)
 821 05b2 30E0      		ldi r19,hi8(0)
 822 05b4 00C0      		rjmp .L53
 823               	.L52:
 824 05b6 DC01      		movw r26,r24
 825 05b8 1296      		adiw r26,2
 826 05ba ED91      		ld r30,X+
 827 05bc FC91      		ld r31,X
 828 05be 1397      		sbiw r26,2+1
 829 05c0 57FF      		sbrs r21,7
 830 05c2 00C0      		rjmp .L54
 831 05c4 1496      		adiw r26,4
 832 05c6 8D91      		ld r24,X+
 833 05c8 9C91      		ld r25,X
 834 05ca 1597      		sbiw r26,4+1
 835 05cc C80F      		add r28,r24
 836 05ce D91F      		adc r29,r25
 837               	.L54:
 838 05d0 8081      		ld r24,Z
 839 05d2 9181      		ldd r25,Z+1
 840 05d4 8617      		cp r24,r22
 841 05d6 9707      		cpc r25,r23
 842 05d8 01F4      		brne .L55
 843 05da 20E0      		ldi r18,lo8(0)
 844 05dc 00C0      		rjmp .L56
 845               	.L55:
 846 05de 8281      		ldd r24,Z+2
 847 05e0 9381      		ldd r25,Z+3
 848 05e2 8617      		cp r24,r22
 849 05e4 9707      		cpc r25,r23
 850 05e6 01F0      		breq .L57
 851 05e8 CB01      		movw r24,r22
 852 05ea A0E0      		ldi r26,lo8(0)
 853 05ec B0E0      		ldi r27,hi8(0)
 854 05ee 0484      		ldd r0,Z+12
 855 05f0 00C0      		rjmp 2f
GAS LISTING C:\DOCUME~1\ADMINI~1\LOCALS~1\Temp/ccKuFWva.s 			page 16


 856 05f2 880F      	1:	lsl r24
 857 05f4 991F      		rol r25
 858 05f6 AA1F      		rol r26
 859 05f8 BB1F      		rol r27
 860 05fa 0A94      	2:	dec r0
 861 05fc 02F4      		brpl 1b
 862 05fe 9E01      		movw r18,r28
 863 0600 4427      		clr r20
 864 0602 37FD      		sbrc r19,7
 865 0604 4095      		com r20
 866 0606 542F      		mov r21,r20
 867 0608 282B      		or r18,r24
 868 060a 392B      		or r19,r25
 869 060c 4A2B      		or r20,r26
 870 060e 5B2B      		or r21,r27
 871 0610 F701      		movw r30,r14
 872 0612 8081      		ld r24,Z
 873 0614 9181      		ldd r25,Z+1
 874 0616 62ED      		ldi r22,lo8(-46)
 875 0618 08E0      		ldi r16,lo8(8)
 876 061a 00C0      		rjmp .L61
 877               	.L58:
 878 061c 64ED      		ldi r22,lo8(-44)
 879               	.L59:
 880 061e 9E01      		movw r18,r28
 881 0620 4427      		clr r20
 882 0622 37FD      		sbrc r19,7
 883 0624 4095      		com r20
 884 0626 542F      		mov r21,r20
 885 0628 05E0      		ldi r16,lo8(5)
 886               	.L61:
 887 062a 7501      		movw r14,r10
 888 062c 0E94 0000 		call At45dibCompare
 889 0630 9C01      		movw r18,r24
 890               	.L53:
 891 0632 C901      		movw r24,r18
 892               	/* epilogue start */
 893 0634 DF91      		pop r29
 894 0636 CF91      		pop r28
 895 0638 1F91      		pop r17
 896 063a 0F91      		pop r16
 897 063c FF90      		pop r15
 898 063e EF90      		pop r14
 899 0640 DF90      		pop r13
 900 0642 CF90      		pop r12
 901 0644 BF90      		pop r11
 902 0646 AF90      		pop r10
 903 0648 0895      		ret
 904               	.L57:
 905 064a 21E0      		ldi r18,lo8(1)
 906               	.L56:
 907 064c D701      		movw r26,r14
 908 064e 8D91      		ld r24,X+
 909 0650 9C91      		ld r25,X
 910 0652 2223      		tst r18
 911 0654 01F0      		breq .L58
 912 0656 66ED      		ldi r22,lo8(-42)
GAS LISTING C:\DOCUME~1\ADMINI~1\LOCALS~1\Temp/ccKuFWva.s 			page 17


 913 0658 00C0      		rjmp .L59
 914               		.size	SpiAt45dibCompare, .-SpiAt45dibCompare
 915               		.type	SpiAt45dibUsed, @function
 916               	SpiAt45dibUsed:
 917 065a EF92      		push r14
 918 065c FF92      		push r15
 919 065e 0F93      		push r16
 920 0660 CF93      		push r28
 921 0662 DF93      		push r29
 922               	/* prologue: function */
 923               	/* frame size = 0 */
 924 0664 EC01      		movw r28,r24
 925 0666 9B01      		movw r18,r22
 926 0668 BA01      		movw r22,r20
 927 066a EA81      		ldd r30,Y+2
 928 066c FB81      		ldd r31,Y+3
 929 066e EC80      		ldd r14,Y+4
 930 0670 FD80      		ldd r15,Y+5
 931 0672 57FF      		sbrs r21,7
 932 0674 00C0      		rjmp .L63
 933 0676 E40E      		add r14,r20
 934 0678 F51E      		adc r15,r21
 935 067a 60E0      		ldi r22,lo8(0)
 936 067c 70E0      		ldi r23,hi8(0)
 937 067e 00C0      		rjmp .L64
 938               	.L63:
 939 0680 E41A      		sub r14,r20
 940 0682 F50A      		sbc r15,r21
 941               	.L64:
 942 0684 8081      		ld r24,Z
 943 0686 9181      		ldd r25,Z+1
 944 0688 8217      		cp r24,r18
 945 068a 9307      		cpc r25,r19
 946 068c 01F4      		brne .L65
 947 068e 20E0      		ldi r18,lo8(0)
 948 0690 00C0      		rjmp .L66
 949               	.L65:
 950 0692 8281      		ldd r24,Z+2
 951 0694 9381      		ldd r25,Z+3
 952 0696 8217      		cp r24,r18
 953 0698 9307      		cpc r25,r19
 954 069a 01F0      		breq .L67
 955 069c C901      		movw r24,r18
 956 069e A0E0      		ldi r26,lo8(0)
 957 06a0 B0E0      		ldi r27,hi8(0)
 958 06a2 0484      		ldd r0,Z+12
 959 06a4 00C0      		rjmp 2f
 960 06a6 880F      	1:	lsl r24
 961 06a8 991F      		rol r25
 962 06aa AA1F      		rol r26
 963 06ac BB1F      		rol r27
 964 06ae 0A94      	2:	dec r0
 965 06b0 02F4      		brpl 1b
 966 06b2 9B01      		movw r18,r22
 967 06b4 4427      		clr r20
 968 06b6 37FD      		sbrc r19,7
 969 06b8 4095      		com r20
GAS LISTING C:\DOCUME~1\ADMINI~1\LOCALS~1\Temp/ccKuFWva.s 			page 18


 970 06ba 542F      		mov r21,r20
 971 06bc 282B      		or r18,r24
 972 06be 392B      		or r19,r25
 973 06c0 4A2B      		or r20,r26
 974 06c2 5B2B      		or r21,r27
 975 06c4 8881      		ld r24,Y
 976 06c6 9981      		ldd r25,Y+1
 977 06c8 62ED      		ldi r22,lo8(-46)
 978 06ca 08E0      		ldi r16,lo8(8)
 979 06cc 00C0      		rjmp .L72
 980               	.L69:
 981 06ce E4ED      		ldi r30,lo8(-44)
 982               	.L70:
 983 06d0 9B01      		movw r18,r22
 984 06d2 4427      		clr r20
 985 06d4 37FD      		sbrc r19,7
 986 06d6 4095      		com r20
 987 06d8 542F      		mov r21,r20
 988 06da 6E2F      		mov r22,r30
 989 06dc 05E0      		ldi r16,lo8(5)
 990               	.L72:
 991 06de 0E94 0000 		call At45dibUsed
 992               	/* epilogue start */
 993 06e2 DF91      		pop r29
 994 06e4 CF91      		pop r28
 995 06e6 0F91      		pop r16
 996 06e8 FF90      		pop r15
 997 06ea EF90      		pop r14
 998 06ec 0895      		ret
 999               	.L67:
 1000 06ee 21E0      		ldi r18,lo8(1)
 1001               	.L66:
 1002 06f0 8881      		ld r24,Y
 1003 06f2 9981      		ldd r25,Y+1
 1004 06f4 2223      		tst r18
 1005 06f6 01F0      		breq .L69
 1006 06f8 E6ED      		ldi r30,lo8(-42)
 1007 06fa 00C0      		rjmp .L70
 1008               		.size	SpiAt45dibUsed, .-SpiAt45dibUsed
 1009               		.type	SpiAt45dibCommit, @function
 1010               	SpiAt45dibCommit:
 1011               	/* prologue: function */
 1012               	/* frame size = 0 */
 1013 06fc DC01      		movw r26,r24
 1014 06fe 1296      		adiw r26,2
 1015 0700 ED91      		ld r30,X+
 1016 0702 FC91      		ld r31,X
 1017 0704 1397      		sbiw r26,2+1
 1018 0706 8081      		ld r24,Z
 1019 0708 9181      		ldd r25,Z+1
 1020 070a 8617      		cp r24,r22
 1021 070c 9707      		cpc r25,r23
 1022 070e 01F4      		brne .L74
 1023 0710 60E0      		ldi r22,lo8(0)
 1024 0712 00C0      		rjmp .L75
 1025               	.L74:
 1026 0714 8281      		ldd r24,Z+2
GAS LISTING C:\DOCUME~1\ADMINI~1\LOCALS~1\Temp/ccKuFWva.s 			page 19


 1027 0716 9381      		ldd r25,Z+3
 1028 0718 8617      		cp r24,r22
 1029 071a 9707      		cpc r25,r23
 1030 071c 01F4      		brne .L76
 1031 071e 00C0      		rjmp .L82
 1032               	.L83:
 1033 0720 CD01      		movw r24,r26
 1034 0722 0E94 0000 		call At45dibFlash
 1035 0726 9C01      		movw r18,r24
 1036 0728 00C0      		rjmp .L78
 1037               	.L76:
 1038 072a 20E0      		ldi r18,lo8(0)
 1039 072c 30E0      		ldi r19,hi8(0)
 1040               	.L78:
 1041 072e C901      		movw r24,r18
 1042               	/* epilogue start */
 1043 0730 0895      		ret
 1044               	.L82:
 1045 0732 61E0      		ldi r22,lo8(1)
 1046               	.L75:
 1047 0734 E60F      		add r30,r22
 1048 0736 F11D      		adc r31,__zero_reg__
 1049 0738 8481      		ldd r24,Z+4
 1050 073a 80FF      		sbrs r24,0
 1051 073c 00C0      		rjmp .L76
 1052 073e 00C0      		rjmp .L83
 1053               		.size	SpiAt45dibCommit, .-SpiAt45dibCommit
 1054               		.type	SpiAt45dibErase, @function
 1055               	SpiAt45dibErase:
 1056 0740 4F92      		push r4
 1057 0742 5F92      		push r5
 1058 0744 6F92      		push r6
 1059 0746 7F92      		push r7
 1060 0748 8F92      		push r8
 1061 074a 9F92      		push r9
 1062 074c AF92      		push r10
 1063 074e BF92      		push r11
 1064 0750 CF92      		push r12
 1065 0752 DF92      		push r13
 1066 0754 EF92      		push r14
 1067 0756 FF92      		push r15
 1068 0758 0F93      		push r16
 1069 075a CF93      		push r28
 1070 075c DF93      		push r29
 1071               	/* prologue: function */
 1072               	/* frame size = 0 */
 1073 075e 2C01      		movw r4,r24
 1074 0760 3A01      		movw r6,r20
 1075 0762 FC01      		movw r30,r24
 1076 0764 C281      		ldd r28,Z+2
 1077 0766 D381      		ldd r29,Z+3
 1078 0768 4881      		ld r20,Y
 1079 076a 5981      		ldd r21,Y+1
 1080 076c 4617      		cp r20,r22
 1081 076e 5707      		cpc r21,r23
 1082 0770 00F0      		brlo .L85
 1083 0772 C301      		movw r24,r6
GAS LISTING C:\DOCUME~1\ADMINI~1\LOCALS~1\Temp/ccKuFWva.s 			page 20


 1084 0774 860F      		add r24,r22
 1085 0776 971F      		adc r25,r23
 1086 0778 4817      		cp r20,r24
 1087 077a 5907      		cpc r21,r25
 1088 077c 00F4      		brsh .L85
 1089 077e 8FEF      		ldi r24,lo8(-1)
 1090 0780 9FEF      		ldi r25,hi8(-1)
 1091 0782 9983      		std Y+1,r25
 1092 0784 8883      		st Y,r24
 1093 0786 8C81      		ldd r24,Y+4
 1094 0788 8E7F      		andi r24,lo8(-2)
 1095 078a 8C83      		std Y+4,r24
 1096               	.L85:
 1097 078c 4A81      		ldd r20,Y+2
 1098 078e 5B81      		ldd r21,Y+3
 1099 0790 4617      		cp r20,r22
 1100 0792 5707      		cpc r21,r23
 1101 0794 00F0      		brlo .L86
 1102 0796 C301      		movw r24,r6
 1103 0798 860F      		add r24,r22
 1104 079a 971F      		adc r25,r23
 1105 079c 4817      		cp r20,r24
 1106 079e 5907      		cpc r21,r25
 1107 07a0 00F4      		brsh .L86
 1108 07a2 8FEF      		ldi r24,lo8(-1)
 1109 07a4 9FEF      		ldi r25,hi8(-1)
 1110 07a6 9B83      		std Y+3,r25
 1111 07a8 8A83      		std Y+2,r24
 1112 07aa 8D81      		ldd r24,Y+5
 1113 07ac 8E7F      		andi r24,lo8(-2)
 1114 07ae 8D83      		std Y+5,r24
 1115               	.L86:
 1116 07b0 4B01      		movw r8,r22
 1117 07b2 0894      		sec
 1118 07b4 8108      		sbc r8,__zero_reg__
 1119 07b6 9108      		sbc r9,__zero_reg__
 1120 07b8 860C      		add r8,r6
 1121 07ba 971C      		adc r9,r7
 1122 07bc 00C0      		rjmp .L87
 1123               	.L89:
 1124 07be 0894      		sec
 1125 07c0 6108      		sbc r6,__zero_reg__
 1126 07c2 7108      		sbc r7,__zero_reg__
 1127 07c4 9401      		movw r18,r8
 1128 07c6 40E0      		ldi r20,lo8(0)
 1129 07c8 50E0      		ldi r21,hi8(0)
 1130 07ca 0C84      		ldd r0,Y+12
 1131 07cc 00C0      		rjmp 2f
 1132 07ce 220F      	1:	lsl r18
 1133 07d0 331F      		rol r19
 1134 07d2 441F      		rol r20
 1135 07d4 551F      		rol r21
 1136 07d6 0A94      	2:	dec r0
 1137 07d8 02F4      		brpl 1b
 1138 07da F201      		movw r30,r4
 1139 07dc 8081      		ld r24,Z
 1140 07de 9181      		ldd r25,Z+1
GAS LISTING C:\DOCUME~1\ADMINI~1\LOCALS~1\Temp/ccKuFWva.s 			page 21


 1141 07e0 61E8      		ldi r22,lo8(-127)
 1142 07e2 04E0      		ldi r16,lo8(4)
 1143 07e4 EE24      		clr r14
 1144 07e6 FF24      		clr r15
 1145 07e8 CC24      		clr r12
 1146 07ea DD24      		clr r13
 1147 07ec AA24      		clr r10
 1148 07ee BB24      		clr r11
 1149 07f0 0E94 0000 		call At45dibTransfer
 1150 07f4 892B      		or r24,r25
 1151 07f6 01F4      		brne .L88
 1152 07f8 F201      		movw r30,r4
 1153 07fa 8081      		ld r24,Z
 1154 07fc 9181      		ldd r25,Z+1
 1155 07fe 48EE      		ldi r20,lo8(1000)
 1156 0800 53E0      		ldi r21,hi8(1000)
 1157 0802 60E0      		ldi r22,hlo8(1000)
 1158 0804 70E0      		ldi r23,hhi8(1000)
 1159 0806 0E94 0000 		call At45dibWaitReady
 1160 080a 0894      		sec
 1161 080c 8108      		sbc r8,__zero_reg__
 1162 080e 9108      		sbc r9,__zero_reg__
 1163 0810 892B      		or r24,r25
 1164 0812 01F4      		brne .L88
 1165               	.L87:
 1166 0814 6114      		cp r6,__zero_reg__
 1167 0816 7104      		cpc r7,__zero_reg__
 1168 0818 01F4      		brne .L89
 1169 081a 20E0      		ldi r18,lo8(0)
 1170 081c 30E0      		ldi r19,hi8(0)
 1171 081e 00C0      		rjmp .L90
 1172               	.L88:
 1173 0820 2FEF      		ldi r18,lo8(-1)
 1174 0822 3FEF      		ldi r19,hi8(-1)
 1175               	.L90:
 1176 0824 C901      		movw r24,r18
 1177               	/* epilogue start */
 1178 0826 DF91      		pop r29
 1179 0828 CF91      		pop r28
 1180 082a 0F91      		pop r16
 1181 082c FF90      		pop r15
 1182 082e EF90      		pop r14
 1183 0830 DF90      		pop r13
 1184 0832 CF90      		pop r12
 1185 0834 BF90      		pop r11
 1186 0836 AF90      		pop r10
 1187 0838 9F90      		pop r9
 1188 083a 8F90      		pop r8
 1189 083c 7F90      		pop r7
 1190 083e 6F90      		pop r6
 1191 0840 5F90      		pop r5
 1192 0842 4F90      		pop r4
 1193 0844 0895      		ret
 1194               		.size	SpiAt45dibErase, .-SpiAt45dibErase
 1195               		.type	At45dibAllocate, @function
 1196               	At45dibAllocate:
 1197 0846 4F92      		push r4
GAS LISTING C:\DOCUME~1\ADMINI~1\LOCALS~1\Temp/ccKuFWva.s 			page 22


 1198 0848 5F92      		push r5
 1199 084a 6F92      		push r6
 1200 084c 7F92      		push r7
 1201 084e 8F92      		push r8
 1202 0850 9F92      		push r9
 1203 0852 AF92      		push r10
 1204 0854 BF92      		push r11
 1205 0856 CF92      		push r12
 1206 0858 DF92      		push r13
 1207 085a EF92      		push r14
 1208 085c FF92      		push r15
 1209 085e 0F93      		push r16
 1210 0860 1F93      		push r17
 1211 0862 CF93      		push r28
 1212 0864 DF93      		push r29
 1213               	/* prologue: function */
 1214               	/* frame size = 0 */
 1215 0866 3C01      		movw r6,r24
 1216 0868 2B01      		movw r4,r22
 1217 086a FC01      		movw r30,r24
 1218 086c C281      		ldd r28,Z+2
 1219 086e D381      		ldd r29,Z+3
 1220 0870 1AE0      		ldi r17,lo8(10)
 1221 0872 E12E      		mov r14,r17
 1222 0874 F12C      		mov r15,__zero_reg__
 1223 0876 EC0E      		add r14,r28
 1224 0878 FD1E      		adc r15,r29
 1225 087a 10E0      		ldi r17,lo8(0)
 1226 087c 00C0      		rjmp .L108
 1227               	.L96:
 1228 087e 212F      		mov r18,r17
 1229 0880 3327      		clr r19
 1230 0882 27FD      		sbrc r18,7
 1231 0884 3095      		com r19
 1232 0886 F901      		movw r30,r18
 1233 0888 EE0F      		lsl r30
 1234 088a FF1F      		rol r31
 1235 088c EC0F      		add r30,r28
 1236 088e FD1F      		adc r31,r29
 1237 0890 8081      		ld r24,Z
 1238 0892 9181      		ldd r25,Z+1
 1239 0894 8415      		cp r24,r4
 1240 0896 9505      		cpc r25,r5
 1241 0898 01F4      		brne .L94
 1242 089a F901      		movw r30,r18
 1243 089c 3396      		adiw r30,3
 1244 089e EE0F      		lsl r30
 1245 08a0 FF1F      		rol r31
 1246 08a2 EC0F      		add r30,r28
 1247 08a4 FD1F      		adc r31,r29
 1248 08a6 8081      		ld r24,Z
 1249 08a8 9181      		ldd r25,Z+1
 1250 08aa 0196      		adiw r24,1
 1251 08ac 9183      		std Z+1,r25
 1252 08ae 8083      		st Z,r24
 1253 08b0 FE01      		movw r30,r28
 1254 08b2 E20F      		add r30,r18
GAS LISTING C:\DOCUME~1\ADMINI~1\LOCALS~1\Temp/ccKuFWva.s 			page 23


 1255 08b4 F31F      		adc r31,r19
 1256 08b6 00C0      		rjmp .L111
 1257               	.L94:
 1258 08b8 1F5F      		subi r17,lo8(-(1))
 1259               	.L108:
 1260 08ba 1230      		cpi r17,lo8(2)
 1261 08bc 04F0      		brlt .L96
 1262 08be 4E81      		ldd r20,Y+6
 1263 08c0 5F81      		ldd r21,Y+7
 1264 08c2 4115      		cp r20,__zero_reg__
 1265 08c4 5105      		cpc r21,__zero_reg__
 1266 08c6 01F4      		brne .L97
 1267 08c8 8C81      		ldd r24,Y+4
 1268 08ca 80FD      		sbrc r24,0
 1269 08cc 00C0      		rjmp .L97
 1270 08ce 60E0      		ldi r22,lo8(0)
 1271 08d0 8824      		clr r8
 1272 08d2 9924      		clr r9
 1273 08d4 10E0      		ldi r17,lo8(0)
 1274 08d6 00C0      		rjmp .L98
 1275               	.L97:
 1276 08d8 2885      		ldd r18,Y+8
 1277 08da 3985      		ldd r19,Y+9
 1278 08dc 2115      		cp r18,__zero_reg__
 1279 08de 3105      		cpc r19,__zero_reg__
 1280 08e0 01F0      		breq .+2
 1281 08e2 00C0      		rjmp .L99
 1282 08e4 8D81      		ldd r24,Y+5
 1283 08e6 80FD      		sbrc r24,0
 1284 08e8 00C0      		rjmp .L99
 1285 08ea 61E0      		ldi r22,lo8(1)
 1286 08ec E1E0      		ldi r30,lo8(1)
 1287 08ee 8E2E      		mov r8,r30
 1288 08f0 912C      		mov r9,__zero_reg__
 1289 08f2 11E0      		ldi r17,lo8(1)
 1290               	.L98:
 1291 08f4 9201      		movw r18,r4
 1292 08f6 40E0      		ldi r20,lo8(0)
 1293 08f8 50E0      		ldi r21,hi8(0)
 1294 08fa 0C84      		ldd r0,Y+12
 1295 08fc 00C0      		rjmp 2f
 1296 08fe 220F      	1:	lsl r18
 1297 0900 331F      		rol r19
 1298 0902 441F      		rol r20
 1299 0904 551F      		rol r21
 1300 0906 0A94      	2:	dec r0
 1301 0908 02F4      		brpl 1b
 1302 090a F401      		movw r30,r8
 1303 090c 3396      		adiw r30,3
 1304 090e EE0F      		lsl r30
 1305 0910 FF1F      		rol r31
 1306 0912 EC0F      		add r30,r28
 1307 0914 FD1F      		adc r31,r29
 1308 0916 81E0      		ldi r24,lo8(1)
 1309 0918 90E0      		ldi r25,hi8(1)
 1310 091a 9183      		std Z+1,r25
 1311 091c 8083      		st Z,r24
GAS LISTING C:\DOCUME~1\ADMINI~1\LOCALS~1\Temp/ccKuFWva.s 			page 24


 1312 091e F301      		movw r30,r6
 1313 0920 8081      		ld r24,Z
 1314 0922 9181      		ldd r25,Z+1
 1315 0924 6623      		tst r22
 1316 0926 01F0      		breq .L100
 1317 0928 65E5      		ldi r22,lo8(85)
 1318 092a 00C0      		rjmp .L110
 1319               	.L100:
 1320 092c 63E5      		ldi r22,lo8(83)
 1321               	.L110:
 1322 092e 04E0      		ldi r16,lo8(4)
 1323 0930 EE24      		clr r14
 1324 0932 FF24      		clr r15
 1325 0934 CC24      		clr r12
 1326 0936 DD24      		clr r13
 1327 0938 AA24      		clr r10
 1328 093a BB24      		clr r11
 1329 093c 0E94 0000 		call At45dibTransfer
 1330 0940 892B      		or r24,r25
 1331 0942 01F4      		brne .L102
 1332 0944 F301      		movw r30,r6
 1333 0946 8081      		ld r24,Z
 1334 0948 9181      		ldd r25,Z+1
 1335 094a 48EE      		ldi r20,lo8(1000)
 1336 094c 53E0      		ldi r21,hi8(1000)
 1337 094e 60E0      		ldi r22,hlo8(1000)
 1338 0950 70E0      		ldi r23,hhi8(1000)
 1339 0952 0E94 0000 		call At45dibWaitReady
 1340 0956 892B      		or r24,r25
 1341 0958 01F4      		brne .L102
 1342 095a F401      		movw r30,r8
 1343 095c EE0F      		lsl r30
 1344 095e FF1F      		rol r31
 1345 0960 EC0F      		add r30,r28
 1346 0962 FD1F      		adc r31,r29
 1347 0964 5182      		std Z+1,r5
 1348 0966 4082      		st Z,r4
 1349 0968 FE01      		movw r30,r28
 1350 096a E80D      		add r30,r8
 1351 096c F91D      		adc r31,r9
 1352               	.L111:
 1353 096e 8481      		ldd r24,Z+4
 1354 0970 8160      		ori r24,lo8(1)
 1355 0972 8483      		std Z+4,r24
 1356 0974 00C0      		rjmp .L95
 1357               	.L102:
 1358 0976 F301      		movw r30,r6
 1359 0978 8281      		ldd r24,Z+2
 1360 097a 9381      		ldd r25,Z+3
 1361 097c F401      		movw r30,r8
 1362 097e 3396      		adiw r30,3
 1363 0980 EE0F      		lsl r30
 1364 0982 FF1F      		rol r31
 1365 0984 E80F      		add r30,r24
 1366 0986 F91F      		adc r31,r25
 1367 0988 2081      		ld r18,Z
 1368 098a 3181      		ldd r19,Z+1
GAS LISTING C:\DOCUME~1\ADMINI~1\LOCALS~1\Temp/ccKuFWva.s 			page 25


 1369 098c 2150      		subi r18,lo8(-(-1))
 1370 098e 3040      		sbci r19,hi8(-(-1))
 1371 0990 3183      		std Z+1,r19
 1372 0992 2083      		st Z,r18
 1373 0994 0A96      		adiw r24,10
 1374 0996 0E94 0000 		call NutEventPost
 1375 099a 00C0      		rjmp .L106
 1376               	.L99:
 1377 099c 452B      		or r20,r21
 1378 099e 01F4      		brne .L103
 1379 09a0 8C81      		ldd r24,Y+4
 1380 09a2 80FF      		sbrs r24,0
 1381 09a4 00C0      		rjmp .L103
 1382 09a6 60E0      		ldi r22,lo8(0)
 1383 09a8 00C0      		rjmp .L104
 1384               	.L103:
 1385 09aa 232B      		or r18,r19
 1386 09ac 01F4      		brne .L105
 1387 09ae 8D81      		ldd r24,Y+5
 1388 09b0 80FF      		sbrs r24,0
 1389 09b2 00C0      		rjmp .L105
 1390 09b4 61E0      		ldi r22,lo8(1)
 1391               	.L104:
 1392 09b6 C301      		movw r24,r6
 1393 09b8 0E94 0000 		call At45dibFlash
 1394 09bc 892B      		or r24,r25
 1395 09be 01F0      		breq .L109
 1396 09c0 00C0      		rjmp .L106
 1397               	.L105:
 1398 09c2 C701      		movw r24,r14
 1399 09c4 40E0      		ldi r20,lo8(0)
 1400 09c6 50E0      		ldi r21,hi8(0)
 1401 09c8 60E0      		ldi r22,hlo8(0)
 1402 09ca 70E0      		ldi r23,hhi8(0)
 1403 09cc 0E94 0000 		call NutEventWait
 1404               	.L109:
 1405 09d0 10E0      		ldi r17,lo8(0)
 1406 09d2 00C0      		rjmp .L96
 1407               	.L106:
 1408 09d4 1FEF      		ldi r17,lo8(-1)
 1409               	.L95:
 1410 09d6 812F      		mov r24,r17
 1411               	/* epilogue start */
 1412 09d8 DF91      		pop r29
 1413 09da CF91      		pop r28
 1414 09dc 1F91      		pop r17
 1415 09de 0F91      		pop r16
 1416 09e0 FF90      		pop r15
 1417 09e2 EF90      		pop r14
 1418 09e4 DF90      		pop r13
 1419 09e6 CF90      		pop r12
 1420 09e8 BF90      		pop r11
 1421 09ea AF90      		pop r10
 1422 09ec 9F90      		pop r9
 1423 09ee 8F90      		pop r8
 1424 09f0 7F90      		pop r7
 1425 09f2 6F90      		pop r6
GAS LISTING C:\DOCUME~1\ADMINI~1\LOCALS~1\Temp/ccKuFWva.s 			page 26


 1426 09f4 5F90      		pop r5
 1427 09f6 4F90      		pop r4
 1428 09f8 0895      		ret
 1429               		.size	At45dibAllocate, .-At45dibAllocate
 1430               		.type	SpiAt45dibCopy, @function
 1431               	SpiAt45dibCopy:
 1432 09fa EF92      		push r14
 1433 09fc FF92      		push r15
 1434 09fe 0F93      		push r16
 1435 0a00 1F93      		push r17
 1436 0a02 CF93      		push r28
 1437 0a04 DF93      		push r29
 1438               	/* prologue: function */
 1439               	/* frame size = 0 */
 1440 0a06 7C01      		movw r14,r24
 1441 0a08 8A01      		movw r16,r20
 1442 0a0a 6417      		cp r22,r20
 1443 0a0c 7507      		cpc r23,r21
 1444 0a0e 01F4      		brne .L113
 1445 0a10 0E94 0000 		call At45dibAllocate
 1446 0a14 E82F      		mov r30,r24
 1447 0a16 8823      		tst r24
 1448 0a18 04F4      		brge .+2
 1449 0a1a 00C0      		rjmp .L115
 1450 0a1c 00C0      		rjmp .L114
 1451               	.L113:
 1452 0a1e DC01      		movw r26,r24
 1453 0a20 1296      		adiw r26,2
 1454 0a22 CD91      		ld r28,X+
 1455 0a24 DC91      		ld r29,X
 1456 0a26 1397      		sbiw r26,2+1
 1457 0a28 8881      		ld r24,Y
 1458 0a2a 9981      		ldd r25,Y+1
 1459 0a2c 8417      		cp r24,r20
 1460 0a2e 9507      		cpc r25,r21
 1461 0a30 01F4      		brne .L116
 1462 0a32 8E81      		ldd r24,Y+6
 1463 0a34 9F81      		ldd r25,Y+7
 1464 0a36 892B      		or r24,r25
 1465 0a38 01F4      		brne .L115
 1466 0a3a 8FEF      		ldi r24,lo8(-1)
 1467 0a3c 9FEF      		ldi r25,hi8(-1)
 1468 0a3e 9983      		std Y+1,r25
 1469 0a40 8883      		st Y,r24
 1470               	.L116:
 1471 0a42 8A81      		ldd r24,Y+2
 1472 0a44 9B81      		ldd r25,Y+3
 1473 0a46 8017      		cp r24,r16
 1474 0a48 9107      		cpc r25,r17
 1475 0a4a 01F4      		brne .L117
 1476 0a4c 8885      		ldd r24,Y+8
 1477 0a4e 9985      		ldd r25,Y+9
 1478 0a50 892B      		or r24,r25
 1479 0a52 01F4      		brne .L115
 1480 0a54 8FEF      		ldi r24,lo8(-1)
 1481 0a56 9FEF      		ldi r25,hi8(-1)
 1482 0a58 9B83      		std Y+3,r25
GAS LISTING C:\DOCUME~1\ADMINI~1\LOCALS~1\Temp/ccKuFWva.s 			page 27


 1483 0a5a 8A83      		std Y+2,r24
 1484               	.L117:
 1485 0a5c C701      		movw r24,r14
 1486 0a5e 0E94 0000 		call At45dibAllocate
 1487 0a62 E82F      		mov r30,r24
 1488 0a64 87FD      		sbrc r24,7
 1489 0a66 00C0      		rjmp .L115
 1490 0a68 9927      		clr r25
 1491 0a6a 87FD      		sbrc r24,7
 1492 0a6c 9095      		com r25
 1493 0a6e 880F      		lsl r24
 1494 0a70 991F      		rol r25
 1495 0a72 C80F      		add r28,r24
 1496 0a74 D91F      		adc r29,r25
 1497 0a76 1983      		std Y+1,r17
 1498 0a78 0883      		st Y,r16
 1499               	.L114:
 1500 0a7a FF27      		clr r31
 1501 0a7c E7FD      		sbrc r30,7
 1502 0a7e F095      		com r31
 1503 0a80 D701      		movw r26,r14
 1504 0a82 1296      		adiw r26,2
 1505 0a84 8D91      		ld r24,X+
 1506 0a86 9C91      		ld r25,X
 1507 0a88 1397      		sbiw r26,2+1
 1508 0a8a 3396      		adiw r30,3
 1509 0a8c EE0F      		lsl r30
 1510 0a8e FF1F      		rol r31
 1511 0a90 E80F      		add r30,r24
 1512 0a92 F91F      		adc r31,r25
 1513 0a94 2081      		ld r18,Z
 1514 0a96 3181      		ldd r19,Z+1
 1515 0a98 2150      		subi r18,lo8(-(-1))
 1516 0a9a 3040      		sbci r19,hi8(-(-1))
 1517 0a9c 3183      		std Z+1,r19
 1518 0a9e 2083      		st Z,r18
 1519 0aa0 0A96      		adiw r24,10
 1520 0aa2 0E94 0000 		call NutEventPost
 1521 0aa6 20E0      		ldi r18,lo8(0)
 1522 0aa8 30E0      		ldi r19,hi8(0)
 1523 0aaa 00C0      		rjmp .L118
 1524               	.L115:
 1525 0aac 2FEF      		ldi r18,lo8(-1)
 1526 0aae 3FEF      		ldi r19,hi8(-1)
 1527               	.L118:
 1528 0ab0 C901      		movw r24,r18
 1529               	/* epilogue start */
 1530 0ab2 DF91      		pop r29
 1531 0ab4 CF91      		pop r28
 1532 0ab6 1F91      		pop r17
 1533 0ab8 0F91      		pop r16
 1534 0aba FF90      		pop r15
 1535 0abc EF90      		pop r14
 1536 0abe 0895      		ret
 1537               		.size	SpiAt45dibCopy, .-SpiAt45dibCopy
 1538               		.type	SpiAt45dibWrite, @function
 1539               	SpiAt45dibWrite:
GAS LISTING C:\DOCUME~1\ADMINI~1\LOCALS~1\Temp/ccKuFWva.s 			page 28


 1540 0ac0 9F92      		push r9
 1541 0ac2 AF92      		push r10
 1542 0ac4 BF92      		push r11
 1543 0ac6 CF92      		push r12
 1544 0ac8 DF92      		push r13
 1545 0aca EF92      		push r14
 1546 0acc FF92      		push r15
 1547 0ace 0F93      		push r16
 1548 0ad0 1F93      		push r17
 1549 0ad2 CF93      		push r28
 1550 0ad4 DF93      		push r29
 1551               	/* prologue: function */
 1552               	/* frame size = 0 */
 1553 0ad6 EC01      		movw r28,r24
 1554 0ad8 6A01      		movw r12,r20
 1555 0ada 7901      		movw r14,r18
 1556 0adc 5801      		movw r10,r16
 1557 0ade 0115      		cp r16,__zero_reg__
 1558 0ae0 1105      		cpc r17,__zero_reg__
 1559 0ae2 01F4      		brne .L121
 1560 0ae4 00E0      		ldi r16,lo8(0)
 1561 0ae6 10E0      		ldi r17,hi8(0)
 1562 0ae8 00C0      		rjmp .L122
 1563               	.L121:
 1564 0aea 57FF      		sbrs r21,7
 1565 0aec 00C0      		rjmp .L123
 1566 0aee 8C81      		ldd r24,Y+4
 1567 0af0 9D81      		ldd r25,Y+5
 1568 0af2 C80E      		add r12,r24
 1569 0af4 D91E      		adc r13,r25
 1570               	.L123:
 1571 0af6 CE01      		movw r24,r28
 1572 0af8 0E94 0000 		call At45dibAllocate
 1573 0afc 982E      		mov r9,r24
 1574 0afe 87FF      		sbrs r24,7
 1575 0b00 00C0      		rjmp .L124
 1576 0b02 0FEF      		ldi r16,lo8(-1)
 1577 0b04 1FEF      		ldi r17,hi8(-1)
 1578 0b06 00C0      		rjmp .L122
 1579               	.L124:
 1580 0b08 8881      		ld r24,Y
 1581 0b0a 9981      		ldd r25,Y+1
 1582 0b0c 9920      		tst r9
 1583 0b0e 01F4      		brne .L125
 1584 0b10 64E8      		ldi r22,lo8(-124)
 1585 0b12 00C0      		rjmp .L126
 1586               	.L125:
 1587 0b14 67E8      		ldi r22,lo8(-121)
 1588               	.L126:
 1589 0b16 9601      		movw r18,r12
 1590 0b18 4427      		clr r20
 1591 0b1a 37FD      		sbrc r19,7
 1592 0b1c 4095      		com r20
 1593 0b1e 542F      		mov r21,r20
 1594 0b20 04E0      		ldi r16,lo8(4)
 1595 0b22 CC24      		clr r12
 1596 0b24 DD24      		clr r13
GAS LISTING C:\DOCUME~1\ADMINI~1\LOCALS~1\Temp/ccKuFWva.s 			page 29


 1597 0b26 0E94 0000 		call At45dibTransfer
 1598 0b2a 8C01      		movw r16,r24
 1599 0b2c E92D      		mov r30,r9
 1600 0b2e FF27      		clr r31
 1601 0b30 E7FD      		sbrc r30,7
 1602 0b32 F095      		com r31
 1603 0b34 8A81      		ldd r24,Y+2
 1604 0b36 9B81      		ldd r25,Y+3
 1605 0b38 3396      		adiw r30,3
 1606 0b3a EE0F      		lsl r30
 1607 0b3c FF1F      		rol r31
 1608 0b3e E80F      		add r30,r24
 1609 0b40 F91F      		adc r31,r25
 1610 0b42 2081      		ld r18,Z
 1611 0b44 3181      		ldd r19,Z+1
 1612 0b46 2150      		subi r18,lo8(-(-1))
 1613 0b48 3040      		sbci r19,hi8(-(-1))
 1614 0b4a 3183      		std Z+1,r19
 1615 0b4c 2083      		st Z,r18
 1616 0b4e 0A96      		adiw r24,10
 1617 0b50 0E94 0000 		call NutEventPost
 1618               	.L122:
 1619 0b54 C801      		movw r24,r16
 1620               	/* epilogue start */
 1621 0b56 DF91      		pop r29
 1622 0b58 CF91      		pop r28
 1623 0b5a 1F91      		pop r17
 1624 0b5c 0F91      		pop r16
 1625 0b5e FF90      		pop r15
 1626 0b60 EF90      		pop r14
 1627 0b62 DF90      		pop r13
 1628 0b64 CF90      		pop r12
 1629 0b66 BF90      		pop r11
 1630 0b68 AF90      		pop r10
 1631 0b6a 9F90      		pop r9
 1632 0b6c 0895      		ret
 1633               		.size	SpiAt45dibWrite, .-SpiAt45dibWrite
 1634               		.type	SpiAt45dibExit, @function
 1635               	SpiAt45dibExit:
 1636               	/* prologue: function */
 1637               	/* frame size = 0 */
 1638 0b6e FC01      		movw r30,r24
 1639 0b70 8281      		ldd r24,Z+2
 1640 0b72 9381      		ldd r25,Z+3
 1641 0b74 0E94 0000 		call free
 1642               	/* epilogue start */
 1643 0b78 0895      		ret
 1644               		.size	SpiAt45dibExit, .-SpiAt45dibExit
 1645               		.type	SpiAt45dibInit, @function
 1646               	SpiAt45dibInit:
 1647 0b7a 0F93      		push r16
 1648 0b7c 1F93      		push r17
 1649 0b7e CF93      		push r28
 1650 0b80 DF93      		push r29
 1651               	/* prologue: function */
 1652               	/* frame size = 0 */
 1653 0b82 EC01      		movw r28,r24
GAS LISTING C:\DOCUME~1\ADMINI~1\LOCALS~1\Temp/ccKuFWva.s 			page 30


 1654 0b84 8881      		ld r24,Y
 1655 0b86 9981      		ldd r25,Y+1
 1656 0b88 0E94 0000 		call At45dibStatus
 1657 0b8c 382F      		mov r19,r24
 1658 0b8e 3D73      		andi r19,lo8(61)
 1659 0b90 2091 0000 		lds r18,at45d_known_types
 1660 0b94 2150      		subi r18,lo8(-(-1))
 1661 0b96 822F      		mov r24,r18
 1662 0b98 9927      		clr r25
 1663 0b9a 87FD      		sbrc r24,7
 1664 0b9c 9095      		com r25
 1665 0b9e 2F5F      		subi r18,lo8(-(1))
 1666 0ba0 FC01      		movw r30,r24
 1667 0ba2 53E0      		ldi r21,3
 1668 0ba4 EE0F      	1:	lsl r30
 1669 0ba6 FF1F      		rol r31
 1670 0ba8 5A95      		dec r21
 1671 0baa 01F4      		brne 1b
 1672 0bac E050      		subi r30,lo8(-(at45d_info+7))
 1673 0bae F040      		sbci r31,hi8(-(at45d_info+7))
 1674 0bb0 40E0      		ldi r20,lo8(0)
 1675 0bb2 50E0      		ldi r21,hi8(0)
 1676 0bb4 BC01      		movw r22,r24
 1677 0bb6 00C0      		rjmp .L131
 1678               	.L134:
 1679 0bb8 8B01      		movw r16,r22
 1680 0bba 041B      		sub r16,r20
 1681 0bbc 150B      		sbc r17,r21
 1682 0bbe 8081      		ld r24,Z
 1683 0bc0 4F5F      		subi r20,lo8(-(1))
 1684 0bc2 5F4F      		sbci r21,hi8(-(1))
 1685 0bc4 3897      		sbiw r30,8
 1686 0bc6 3817      		cp r19,r24
 1687 0bc8 01F4      		brne .L131
 1688 0bca 81E0      		ldi r24,lo8(1)
 1689 0bcc 90E0      		ldi r25,hi8(1)
 1690 0bce 6DE0      		ldi r22,lo8(13)
 1691 0bd0 70E0      		ldi r23,hi8(13)
 1692 0bd2 0E94 0000 		call calloc
 1693 0bd6 DC01      		movw r26,r24
 1694 0bd8 0097      		sbiw r24,0
 1695 0bda 01F0      		breq .L132
 1696 0bdc F801      		movw r30,r16
 1697 0bde 43E0      		ldi r20,3
 1698 0be0 EE0F      	1:	lsl r30
 1699 0be2 FF1F      		rol r31
 1700 0be4 4A95      		dec r20
 1701 0be6 01F4      		brne 1b
 1702 0be8 E050      		subi r30,lo8(-(at45d_info))
 1703 0bea F040      		sbci r31,hi8(-(at45d_info))
 1704 0bec 8081      		ld r24,Z
 1705 0bee 1C96      		adiw r26,12
 1706 0bf0 8C93      		st X,r24
 1707 0bf2 1C97      		sbiw r26,12
 1708 0bf4 8FEF      		ldi r24,lo8(-1)
 1709 0bf6 9FEF      		ldi r25,hi8(-1)
 1710 0bf8 1196      		adiw r26,1
GAS LISTING C:\DOCUME~1\ADMINI~1\LOCALS~1\Temp/ccKuFWva.s 			page 31


 1711 0bfa 9C93      		st X,r25
 1712 0bfc 8E93      		st -X,r24
 1713 0bfe 1396      		adiw r26,2+1
 1714 0c00 9C93      		st X,r25
 1715 0c02 8E93      		st -X,r24
 1716 0c04 1297      		sbiw r26,2
 1717 0c06 BB83      		std Y+3,r27
 1718 0c08 AA83      		std Y+2,r26
 1719 0c0a 8181      		ldd r24,Z+1
 1720 0c0c 9281      		ldd r25,Z+2
 1721 0c0e 9F83      		std Y+7,r25
 1722 0c10 8E83      		std Y+6,r24
 1723 0c12 8581      		ldd r24,Z+5
 1724 0c14 9681      		ldd r25,Z+6
 1725 0c16 9D83      		std Y+5,r25
 1726 0c18 8C83      		std Y+4,r24
 1727 0c1a 20E0      		ldi r18,lo8(0)
 1728 0c1c 30E0      		ldi r19,hi8(0)
 1729 0c1e 00C0      		rjmp .L133
 1730               	.L131:
 1731 0c20 2150      		subi r18,lo8(-(-1))
 1732 0c22 27FF      		sbrs r18,7
 1733 0c24 00C0      		rjmp .L134
 1734               	.L132:
 1735 0c26 2FEF      		ldi r18,lo8(-1)
 1736 0c28 3FEF      		ldi r19,hi8(-1)
 1737               	.L133:
 1738 0c2a C901      		movw r24,r18
 1739               	/* epilogue start */
 1740 0c2c DF91      		pop r29
 1741 0c2e CF91      		pop r28
 1742 0c30 1F91      		pop r17
 1743 0c32 0F91      		pop r16
 1744 0c34 0895      		ret
 1745               		.size	SpiAt45dibInit, .-SpiAt45dibInit
 1746               	.global	flashAt45dib0
 1747               		.data
 1748               		.type	flashAt45dib0, @object
 1749               		.size	flashAt45dib0, 32
 1750               	flashAt45dib0:
 1751 0000 0000      		.word	spiNode0
 1752 0002 0000      		.word	0
 1753 0004 0000      		.word	0
 1754 0006 0000      		.word	0
 1755 0008 0000      		.word	0
 1756 000a 0100      		.word	1
 1757 000c 0000      		.word	gs(SpiAt45dibInit)
 1758 000e 0000      		.word	gs(SpiAt45dibExit)
 1759 0010 0000      		.word	gs(SpiAt45dibCheck)
 1760 0012 0000      		.word	gs(SpiAt45dibRead)
 1761 0014 0000      		.word	gs(SpiAt45dibCompare)
 1762 0016 0000      		.word	gs(SpiAt45dibUsed)
 1763 0018 0000      		.word	gs(SpiAt45dibWrite)
 1764 001a 0000      		.word	gs(SpiAt45dibCopy)
 1765 001c 0000      		.word	gs(SpiAt45dibCommit)
 1766 001e 0000      		.word	gs(SpiAt45dibErase)
 1767               	.global	flashAt45dib1
GAS LISTING C:\DOCUME~1\ADMINI~1\LOCALS~1\Temp/ccKuFWva.s 			page 32


 1768               		.type	flashAt45dib1, @object
 1769               		.size	flashAt45dib1, 32
 1770               	flashAt45dib1:
 1771 0020 0000      		.word	spiNode1
 1772 0022 0000      		.word	0
 1773 0024 0000      		.word	0
 1774 0026 0000      		.word	0
 1775 0028 0000      		.word	0
 1776 002a 0100      		.word	1
 1777 002c 0000      		.word	gs(SpiAt45dibInit)
 1778 002e 0000      		.word	gs(SpiAt45dibExit)
 1779 0030 0000      		.word	gs(SpiAt45dibCheck)
 1780 0032 0000      		.word	gs(SpiAt45dibRead)
 1781 0034 0000      		.word	gs(SpiAt45dibCompare)
 1782 0036 0000      		.word	gs(SpiAt45dibUsed)
 1783 0038 0000      		.word	gs(SpiAt45dibWrite)
 1784 003a 0000      		.word	gs(SpiAt45dibCopy)
 1785 003c 0000      		.word	gs(SpiAt45dibCommit)
 1786 003e 0000      		.word	gs(SpiAt45dibErase)
 1787               		.type	spiNode0, @object
 1788               		.size	spiNode0, 14
 1789               	spiNode0:
 1790 0040 0000      		.word	0
 1791 0042 0000      		.word	0
 1792 0044 40        		.byte	64
 1793 0045 8A        		.byte	-118
 1794 0046 F7        		.byte	-9
 1795 0047 01        		.byte	1
 1796 0048 0340      		.word	16387
 1797 004a 08        		.byte	8
 1798 004b 00        		.byte	0
 1799 004c 0000      		.skip 2,0
 1800               		.type	spiNode1, @object
 1801               		.size	spiNode1, 14
 1802               	spiNode1:
 1803 004e 0000      		.word	0
 1804 0050 0000      		.word	0
 1805 0052 40        		.byte	64
 1806 0053 8A        		.byte	-118
 1807 0054 F7        		.byte	-9
 1808 0055 01        		.byte	1
 1809 0056 0300      		.word	3
 1810 0058 08        		.byte	8
 1811 0059 01        		.byte	1
 1812 005a 0000      		.skip 2,0
 1813               	.global __do_copy_data
GAS LISTING C:\DOCUME~1\ADMINI~1\LOCALS~1\Temp/ccKuFWva.s 			page 33


DEFINED SYMBOLS
                            *ABS*:00000000 spi_at45dib.c
C:\DOCUME~1\ADMINI~1\LOCALS~1\Temp/ccKuFWva.s:2      *ABS*:0000003f __SREG__
C:\DOCUME~1\ADMINI~1\LOCALS~1\Temp/ccKuFWva.s:3      *ABS*:0000003e __SP_H__
C:\DOCUME~1\ADMINI~1\LOCALS~1\Temp/ccKuFWva.s:4      *ABS*:0000003d __SP_L__
C:\DOCUME~1\ADMINI~1\LOCALS~1\Temp/ccKuFWva.s:5      *ABS*:00000034 __CCP__
C:\DOCUME~1\ADMINI~1\LOCALS~1\Temp/ccKuFWva.s:6      *ABS*:00000000 __tmp_reg__
C:\DOCUME~1\ADMINI~1\LOCALS~1\Temp/ccKuFWva.s:7      *ABS*:00000001 __zero_reg__
C:\DOCUME~1\ADMINI~1\LOCALS~1\Temp/ccKuFWva.s:10     .text:00000000 At45dibTransmitCmd
C:\DOCUME~1\ADMINI~1\LOCALS~1\Temp/ccKuFWva.s:81     .text:00000080 At45dibTransfer
C:\DOCUME~1\ADMINI~1\LOCALS~1\Temp/ccKuFWva.s:177    .text:00000132 At45dibCompare
C:\DOCUME~1\ADMINI~1\LOCALS~1\Temp/ccKuFWva.s:319    .text:00000238 At45dibUsed
C:\DOCUME~1\ADMINI~1\LOCALS~1\Temp/ccKuFWva.s:451    .text:0000032c At45dibStatus
C:\DOCUME~1\ADMINI~1\LOCALS~1\Temp/ccKuFWva.s:540    .text:000003ce At45dibWaitReady
C:\DOCUME~1\ADMINI~1\LOCALS~1\Temp/ccKuFWva.s:587    .text:0000041a At45dibFlash
C:\DOCUME~1\ADMINI~1\LOCALS~1\Temp/ccKuFWva.s:681    .text:000004c8 SpiAt45dibCheck
C:\DOCUME~1\ADMINI~1\LOCALS~1\Temp/ccKuFWva.s:690    .text:000004ce SpiAt45dibRead
C:\DOCUME~1\ADMINI~1\LOCALS~1\Temp/ccKuFWva.s:800    .text:0000058e SpiAt45dibCompare
C:\DOCUME~1\ADMINI~1\LOCALS~1\Temp/ccKuFWva.s:916    .text:0000065a SpiAt45dibUsed
C:\DOCUME~1\ADMINI~1\LOCALS~1\Temp/ccKuFWva.s:1010   .text:000006fc SpiAt45dibCommit
C:\DOCUME~1\ADMINI~1\LOCALS~1\Temp/ccKuFWva.s:1055   .text:00000740 SpiAt45dibErase
C:\DOCUME~1\ADMINI~1\LOCALS~1\Temp/ccKuFWva.s:1196   .text:00000846 At45dibAllocate
C:\DOCUME~1\ADMINI~1\LOCALS~1\Temp/ccKuFWva.s:1431   .text:000009fa SpiAt45dibCopy
C:\DOCUME~1\ADMINI~1\LOCALS~1\Temp/ccKuFWva.s:1539   .text:00000ac0 SpiAt45dibWrite
C:\DOCUME~1\ADMINI~1\LOCALS~1\Temp/ccKuFWva.s:1635   .text:00000b6e SpiAt45dibExit
C:\DOCUME~1\ADMINI~1\LOCALS~1\Temp/ccKuFWva.s:1646   .text:00000b7a SpiAt45dibInit
C:\DOCUME~1\ADMINI~1\LOCALS~1\Temp/ccKuFWva.s:1750   .data:00000000 flashAt45dib0
C:\DOCUME~1\ADMINI~1\LOCALS~1\Temp/ccKuFWva.s:1789   .data:00000040 spiNode0
C:\DOCUME~1\ADMINI~1\LOCALS~1\Temp/ccKuFWva.s:1770   .data:00000020 flashAt45dib1
C:\DOCUME~1\ADMINI~1\LOCALS~1\Temp/ccKuFWva.s:1802   .data:0000004e spiNode1

UNDEFINED SYMBOLS
NutEventPost
NutEventWait
free
at45d_known_types
at45d_info
calloc
__do_copy_data
