GAS LISTING C:\DOCUME~1\ADMINI~1\LOCALS~1\Temp/ccmRAl7X.s 			page 1


   1               		.file	"thread.c"
   2               	__SREG__ = 0x3f
   3               	__SP_H__ = 0x3e
   4               	__SP_L__ = 0x3d
   5               	__CCP__  = 0x34
   6               	__tmp_reg__ = 0
   7               	__zero_reg__ = 1
   8               		.text
   9               	.global	NutThreadAddPriQueue
  10               		.type	NutThreadAddPriQueue, @function
  11               	NutThreadAddPriQueue:
  12 0000 CF93      		push r28
  13 0002 DF93      		push r29
  14               	/* prologue: function */
  15               	/* frame size = 0 */
  16 0004 DC01      		movw r26,r24
  17 0006 EB01      		movw r28,r22
  18 0008 5896      		adiw r26,23+1
  19 000a 7C93      		st X,r23
  20 000c 6E93      		st -X,r22
  21 000e 5797      		sbiw r26,23
  22 0010 1596      		adiw r26,4+1
  23 0012 1C92      		st X,__zero_reg__
  24 0014 1E92      		st -X,__zero_reg__
  25 0016 1497      		sbiw r26,4
  26               	/* #APP */
  27               	 ;  301 "../../nut/os/thread.c" 1
  28 0018 0FB6      		in  __tmp_reg__, __SREG__
  29 001a F894      		cli
  30 001c 0F92      		push __tmp_reg__
  31               		
  32               	 ;  0 "" 2
  33               	/* #NOAPP */
  34 001e E881      		ld r30,Y
  35 0020 F981      		ldd r31,Y+1
  36 0022 8FEF      		ldi r24,hi8(-1)
  37 0024 EF3F      		cpi r30,lo8(-1)
  38 0026 F807      		cpc r31,r24
  39 0028 01F4      		brne .L2
  40 002a 1496      		adiw r26,4
  41 002c 8D91      		ld r24,X+
  42 002e 9C91      		ld r25,X
  43 0030 1597      		sbiw r26,4+1
  44 0032 0196      		adiw r24,1
  45 0034 1596      		adiw r26,4+1
  46 0036 9C93      		st X,r25
  47 0038 8E93      		st -X,r24
  48 003a 1497      		sbiw r26,4
  49 003c E0E0      		ldi r30,lo8(0)
  50 003e F0E0      		ldi r31,hi8(0)
  51 0040 00C0      		rjmp .L3
  52               	.L2:
  53 0042 3097      		sbiw r30,0
  54 0044 01F0      		breq .L3
  55               	/* #APP */
  56               	 ;  308 "../../nut/os/thread.c" 1
  57 0046 0F90      		pop __tmp_reg__
GAS LISTING C:\DOCUME~1\ADMINI~1\LOCALS~1\Temp/ccmRAl7X.s 			page 2


  58 0048 0FBE      		out __SREG__, __tmp_reg__
  59               		
  60               	 ;  0 "" 2
  61               	/* #NOAPP */
  62 004a 5296      		adiw r26,18
  63 004c 9C91      		ld r25,X
  64 004e 5297      		sbiw r26,18
  65 0050 00C0      		rjmp .L4
  66               	.L6:
  67 0052 EF01      		movw r28,r30
  68 0054 2296      		adiw r28,2
  69 0056 0280      		ldd __tmp_reg__,Z+2
  70 0058 F381      		ldd r31,Z+3
  71 005a E02D      		mov r30,__tmp_reg__
  72 005c 3097      		sbiw r30,0
  73 005e 01F0      		breq .L5
  74               	.L4:
  75 0060 8289      		ldd r24,Z+18
  76 0062 9817      		cp r25,r24
  77 0064 00F4      		brsh .L6
  78               	.L5:
  79               	/* #APP */
  80               	 ;  316 "../../nut/os/thread.c" 1
  81 0066 0FB6      		in  __tmp_reg__, __SREG__
  82 0068 F894      		cli
  83 006a 0F92      		push __tmp_reg__
  84               		
  85               	 ;  0 "" 2
  86               	/* #NOAPP */
  87               	.L3:
  88 006c 1396      		adiw r26,2+1
  89 006e FC93      		st X,r31
  90 0070 EE93      		st -X,r30
  91 0072 1297      		sbiw r26,2
  92 0074 B983      		std Y+1,r27
  93 0076 A883      		st Y,r26
  94 0078 1296      		adiw r26,2
  95 007a ED91      		ld r30,X+
  96 007c FC91      		ld r31,X
  97 007e 1397      		sbiw r26,2+1
  98 0080 3097      		sbiw r30,0
  99 0082 01F0      		breq .L7
 100 0084 8481      		ldd r24,Z+4
 101 0086 9581      		ldd r25,Z+5
 102 0088 892B      		or r24,r25
 103 008a 01F0      		breq .L7
 104 008c 1496      		adiw r26,4
 105 008e 2D91      		ld r18,X+
 106 0090 3C91      		ld r19,X
 107 0092 1597      		sbiw r26,4+1
 108 0094 8481      		ldd r24,Z+4
 109 0096 9581      		ldd r25,Z+5
 110 0098 820F      		add r24,r18
 111 009a 931F      		adc r25,r19
 112 009c 1596      		adiw r26,4+1
 113 009e 9C93      		st X,r25
 114 00a0 8E93      		st -X,r24
GAS LISTING C:\DOCUME~1\ADMINI~1\LOCALS~1\Temp/ccmRAl7X.s 			page 3


 115 00a2 1497      		sbiw r26,4
 116 00a4 1582      		std Z+5,__zero_reg__
 117 00a6 1482      		std Z+4,__zero_reg__
 118               	.L7:
 119               	/* #APP */
 120               	 ;  326 "../../nut/os/thread.c" 1
 121 00a8 0F90      		pop __tmp_reg__
 122 00aa 0FBE      		out __SREG__, __tmp_reg__
 123               		
 124               	 ;  0 "" 2
 125               	/* epilogue start */
 126               	/* #NOAPP */
 127 00ac DF91      		pop r29
 128 00ae CF91      		pop r28
 129 00b0 0895      		ret
 130               		.size	NutThreadAddPriQueue, .-NutThreadAddPriQueue
 131               	.global	NutThreadRemoveQueue
 132               		.type	NutThreadRemoveQueue, @function
 133               	NutThreadRemoveQueue:
 134 00b2 CF93      		push r28
 135 00b4 DF93      		push r29
 136               	/* prologue: function */
 137               	/* frame size = 0 */
 138 00b6 DC01      		movw r26,r24
 139 00b8 EB01      		movw r28,r22
 140               	/* #APP */
 141               	 ;  343 "../../nut/os/thread.c" 1
 142 00ba 0FB6      		in  __tmp_reg__, __SREG__
 143 00bc F894      		cli
 144 00be 0F92      		push __tmp_reg__
 145               		
 146               	 ;  0 "" 2
 147               	/* #NOAPP */
 148 00c0 E881      		ld r30,Y
 149 00c2 F981      		ldd r31,Y+1
 150               	/* #APP */
 151               	 ;  345 "../../nut/os/thread.c" 1
 152 00c4 0F90      		pop __tmp_reg__
 153 00c6 0FBE      		out __SREG__, __tmp_reg__
 154               		
 155               	 ;  0 "" 2
 156               	/* #NOAPP */
 157 00c8 8FEF      		ldi r24,hi8(-1)
 158 00ca EF3F      		cpi r30,lo8(-1)
 159 00cc F807      		cpc r31,r24
 160 00ce 01F4      		brne .L17
 161 00d0 00C0      		rjmp .L16
 162               	.L15:
 163 00d2 EA17      		cp r30,r26
 164 00d4 FB07      		cpc r31,r27
 165 00d6 01F4      		brne .L12
 166               	/* #APP */
 167               	 ;  350 "../../nut/os/thread.c" 1
 168 00d8 0FB6      		in  __tmp_reg__, __SREG__
 169 00da F894      		cli
 170 00dc 0F92      		push __tmp_reg__
 171               		
GAS LISTING C:\DOCUME~1\ADMINI~1\LOCALS~1\Temp/ccmRAl7X.s 			page 4


 172               	 ;  0 "" 2
 173               	/* #NOAPP */
 174 00de 1296      		adiw r26,2
 175 00e0 8D91      		ld r24,X+
 176 00e2 9C91      		ld r25,X
 177 00e4 1397      		sbiw r26,2+1
 178 00e6 9983      		std Y+1,r25
 179 00e8 8883      		st Y,r24
 180 00ea 1496      		adiw r26,4
 181 00ec 8D91      		ld r24,X+
 182 00ee 9C91      		ld r25,X
 183 00f0 1597      		sbiw r26,4+1
 184 00f2 892B      		or r24,r25
 185 00f4 01F0      		breq .L13
 186 00f6 1296      		adiw r26,2
 187 00f8 ED91      		ld r30,X+
 188 00fa FC91      		ld r31,X
 189 00fc 1397      		sbiw r26,2+1
 190 00fe 3097      		sbiw r30,0
 191 0100 01F0      		breq .L14
 192 0102 1496      		adiw r26,4
 193 0104 8D91      		ld r24,X+
 194 0106 9C91      		ld r25,X
 195 0108 1597      		sbiw r26,4+1
 196 010a 9583      		std Z+5,r25
 197 010c 8483      		std Z+4,r24
 198               	.L14:
 199 010e 1596      		adiw r26,4+1
 200 0110 1C92      		st X,__zero_reg__
 201 0112 1E92      		st -X,__zero_reg__
 202 0114 1497      		sbiw r26,4
 203               	.L13:
 204               	/* #APP */
 205               	 ;  358 "../../nut/os/thread.c" 1
 206 0116 0F90      		pop __tmp_reg__
 207 0118 0FBE      		out __SREG__, __tmp_reg__
 208               		
 209               	 ;  0 "" 2
 210               	/* #NOAPP */
 211 011a 1396      		adiw r26,2+1
 212 011c 1C92      		st X,__zero_reg__
 213 011e 1E92      		st -X,__zero_reg__
 214 0120 1297      		sbiw r26,2
 215 0122 5896      		adiw r26,23+1
 216 0124 1C92      		st X,__zero_reg__
 217 0126 1E92      		st -X,__zero_reg__
 218 0128 5797      		sbiw r26,23
 219 012a 00C0      		rjmp .L16
 220               	.L12:
 221 012c EF01      		movw r28,r30
 222 012e 2296      		adiw r28,2
 223 0130 0280      		ldd __tmp_reg__,Z+2
 224 0132 F381      		ldd r31,Z+3
 225 0134 E02D      		mov r30,__tmp_reg__
 226               	.L17:
 227 0136 3097      		sbiw r30,0
 228 0138 01F4      		brne .L15
GAS LISTING C:\DOCUME~1\ADMINI~1\LOCALS~1\Temp/ccmRAl7X.s 			page 5


 229               	.L16:
 230               	/* epilogue start */
 231 013a DF91      		pop r29
 232 013c CF91      		pop r28
 233 013e 0895      		ret
 234               		.size	NutThreadRemoveQueue, .-NutThreadRemoveQueue
 235               	.global	NutThreadWake
 236               		.type	NutThreadWake, @function
 237               	NutThreadWake:
 238               	/* prologue: function */
 239               	/* frame size = 0 */
 240 0140 FB01      		movw r30,r22
 241 0142 168A      		std Z+22,__zero_reg__
 242 0144 158A      		std Z+21,__zero_reg__
 243 0146 82E0      		ldi r24,lo8(2)
 244 0148 8787      		std Z+15,r24
 245 014a CB01      		movw r24,r22
 246 014c 60E0      		ldi r22,lo8(runQueue)
 247 014e 70E0      		ldi r23,hi8(runQueue)
 248 0150 0E94 0000 		call NutThreadAddPriQueue
 249               	/* epilogue start */
 250 0154 0895      		ret
 251               		.size	NutThreadWake, .-NutThreadWake
 252               	.global	GetThreadByName
 253               		.type	GetThreadByName, @function
 254               	GetThreadByName:
 255 0156 0F93      		push r16
 256 0158 1F93      		push r17
 257 015a CF93      		push r28
 258 015c DF93      		push r29
 259               	/* prologue: function */
 260               	/* frame size = 0 */
 261 015e 8C01      		movw r16,r24
 262 0160 0097      		sbiw r24,0
 263 0162 01F0      		breq .L21
 264 0164 C091 0000 		lds r28,nutThreadList
 265 0168 D091 0000 		lds r29,(nutThreadList)+1
 266 016c 00C0      		rjmp .L22
 267               	.L25:
 268 016e CE01      		movw r24,r28
 269 0170 0696      		adiw r24,6
 270 0172 B801      		movw r22,r16
 271 0174 0E94 0000 		call strcmp
 272 0178 0097      		sbiw r24,0
 273 017a 01F4      		brne .L23
 274 017c 9E01      		movw r18,r28
 275 017e 00C0      		rjmp .L24
 276               	.L23:
 277 0180 0990      		ld __tmp_reg__,Y+
 278 0182 D881      		ld r29,Y
 279 0184 C02D      		mov r28,__tmp_reg__
 280               	.L22:
 281 0186 2097      		sbiw r28,0
 282 0188 01F4      		brne .L25
 283 018a 20E0      		ldi r18,lo8(0)
 284 018c 30E0      		ldi r19,hi8(0)
 285 018e 00C0      		rjmp .L24
GAS LISTING C:\DOCUME~1\ADMINI~1\LOCALS~1\Temp/ccmRAl7X.s 			page 6


 286               	.L21:
 287 0190 2091 0000 		lds r18,runningThread
 288 0194 3091 0000 		lds r19,(runningThread)+1
 289               	.L24:
 290 0198 C901      		movw r24,r18
 291               	/* epilogue start */
 292 019a DF91      		pop r29
 293 019c CF91      		pop r28
 294 019e 1F91      		pop r17
 295 01a0 0F91      		pop r16
 296 01a2 0895      		ret
 297               		.size	GetThreadByName, .-GetThreadByName
 298               	.global	NutThreadDestroy
 299               		.type	NutThreadDestroy, @function
 300               	NutThreadDestroy:
 301               	/* prologue: function */
 302               	/* frame size = 0 */
 303 01a4 E091 0000 		lds r30,killedThread
 304 01a8 F091 0000 		lds r31,(killedThread)+1
 305 01ac 3097      		sbiw r30,0
 306 01ae 01F0      		breq .L29
 307 01b0 6389      		ldd r22,Z+19
 308 01b2 7489      		ldd r23,Z+20
 309 01b4 80E0      		ldi r24,lo8(heapFreeList)
 310 01b6 90E0      		ldi r25,hi8(heapFreeList)
 311 01b8 0E94 0000 		call NutHeapRootFree
 312 01bc 1092 0000 		sts (killedThread)+1,__zero_reg__
 313 01c0 1092 0000 		sts killedThread,__zero_reg__
 314               	.L29:
 315 01c4 0895      		ret
 316               		.size	NutThreadDestroy, .-NutThreadDestroy
 317               	.global	NutThreadKill
 318               		.type	NutThreadKill, @function
 319               	NutThreadKill:
 320 01c6 CF93      		push r28
 321 01c8 DF93      		push r29
 322               	/* prologue: function */
 323               	/* frame size = 0 */
 324 01ca C091 0000 		lds r28,nutThreadList
 325 01ce D091 0000 		lds r29,(nutThreadList)+1
 326 01d2 0E94 0000 		call NutThreadDestroy
 327 01d6 4091 0000 		lds r20,runningThread
 328 01da 5091 0000 		lds r21,(runningThread)+1
 329 01de E0E0      		ldi r30,lo8(nutThreadList)
 330 01e0 F0E0      		ldi r31,hi8(nutThreadList)
 331 01e2 00C0      		rjmp .L31
 332               	.L34:
 333 01e4 2881      		ld r18,Y
 334 01e6 3981      		ldd r19,Y+1
 335 01e8 C417      		cp r28,r20
 336 01ea D507      		cpc r29,r21
 337 01ec 01F4      		brne .L32
 338 01ee 2083      		st Z,r18
 339 01f0 3183      		std Z+1,r19
 340 01f2 00C0      		rjmp .L33
 341               	.L32:
 342 01f4 FE01      		movw r30,r28
GAS LISTING C:\DOCUME~1\ADMINI~1\LOCALS~1\Temp/ccmRAl7X.s 			page 7


 343 01f6 C901      		movw r24,r18
 344 01f8 EC01      		movw r28,r24
 345               	.L31:
 346 01fa 2097      		sbiw r28,0
 347 01fc 01F4      		brne .L34
 348               	.L33:
 349 01fe 8091 0000 		lds r24,runningThread
 350 0202 9091 0000 		lds r25,(runningThread)+1
 351 0206 9093 0000 		sts (killedThread)+1,r25
 352 020a 8093 0000 		sts killedThread,r24
 353               	/* epilogue start */
 354 020e DF91      		pop r29
 355 0210 CF91      		pop r28
 356 0212 0895      		ret
 357               		.size	NutThreadKill, .-NutThreadKill
 358               	.global	NutThreadSetPriority
 359               		.type	NutThreadSetPriority, @function
 360               	NutThreadSetPriority:
 361 0214 0F93      		push r16
 362 0216 1F93      		push r17
 363               	/* prologue: function */
 364               	/* frame size = 0 */
 365 0218 182F      		mov r17,r24
 366 021a E091 0000 		lds r30,runningThread
 367 021e F091 0000 		lds r31,(runningThread)+1
 368 0222 0289      		ldd r16,Z+18
 369 0224 CF01      		movw r24,r30
 370 0226 60E0      		ldi r22,lo8(runQueue)
 371 0228 70E0      		ldi r23,hi8(runQueue)
 372 022a 0E94 0000 		call NutThreadRemoveQueue
 373 022e E091 0000 		lds r30,runningThread
 374 0232 F091 0000 		lds r31,(runningThread)+1
 375 0236 128B      		std Z+18,r17
 376 0238 1F3F      		cpi r17,lo8(-1)
 377 023a 01F0      		breq .L37
 378 023c CF01      		movw r24,r30
 379 023e 60E0      		ldi r22,lo8(runQueue)
 380 0240 70E0      		ldi r23,hi8(runQueue)
 381 0242 0E94 0000 		call NutThreadAddPriQueue
 382 0246 00C0      		rjmp .L38
 383               	.L37:
 384 0248 0E94 0000 		call NutThreadKill
 385               	.L38:
 386 024c E091 0000 		lds r30,runningThread
 387 0250 F091 0000 		lds r31,(runningThread)+1
 388 0254 8091 0000 		lds r24,runQueue
 389 0258 9091 0000 		lds r25,(runQueue)+1
 390 025c E817      		cp r30,r24
 391 025e F907      		cpc r31,r25
 392 0260 01F4      		brne .L39
 393 0262 81E0      		ldi r24,lo8(1)
 394 0264 8787      		std Z+15,r24
 395 0266 00C0      		rjmp .L40
 396               	.L39:
 397 0268 82E0      		ldi r24,lo8(2)
 398 026a 8787      		std Z+15,r24
 399               	/* #APP */
GAS LISTING C:\DOCUME~1\ADMINI~1\LOCALS~1\Temp/ccmRAl7X.s 			page 8


 400               	 ;  545 "../../nut/os/thread.c" 1
 401 026c 0FB6      		in  __tmp_reg__, __SREG__
 402 026e F894      		cli
 403 0270 0F92      		push __tmp_reg__
 404               		
 405               	 ;  0 "" 2
 406               	/* #NOAPP */
 407 0272 0E94 0000 		call NutThreadSwitch
 408               	/* #APP */
 409               	 ;  547 "../../nut/os/thread.c" 1
 410 0276 0F90      		pop __tmp_reg__
 411 0278 0FBE      		out __SREG__, __tmp_reg__
 412               		
 413               	 ;  0 "" 2
 414               	/* #NOAPP */
 415               	.L40:
 416 027a 802F      		mov r24,r16
 417               	/* epilogue start */
 418 027c 1F91      		pop r17
 419 027e 0F91      		pop r16
 420 0280 0895      		ret
 421               		.size	NutThreadSetPriority, .-NutThreadSetPriority
 422               	.global	NutThreadExit
 423               		.type	NutThreadExit, @function
 424               	NutThreadExit:
 425               	/* prologue: function */
 426               	/* frame size = 0 */
 427 0282 8FEF      		ldi r24,lo8(-1)
 428 0284 0E94 0000 		call NutThreadSetPriority
 429               	/* epilogue start */
 430 0288 0895      		ret
 431               		.size	NutThreadExit, .-NutThreadExit
 432               	.global	NutThreadResume
 433               		.type	NutThreadResume, @function
 434               	NutThreadResume:
 435 028a CF93      		push r28
 436 028c DF93      		push r29
 437               	/* prologue: function */
 438               	/* frame size = 0 */
 439 028e C091 0000 		lds r28,nutThreadList
 440 0292 D091 0000 		lds r29,(nutThreadList)+1
 441 0296 00C0      		rjmp .L45
 442               	.L47:
 443               	/* #APP */
 444               	 ;  392 "../../nut/os/thread.c" 1
 445 0298 0FB6      		in  __tmp_reg__, __SREG__
 446 029a F894      		cli
 447 029c 0F92      		push __tmp_reg__
 448               		
 449               	 ;  0 "" 2
 450               	/* #NOAPP */
 451 029e 8C81      		ldd r24,Y+4
 452 02a0 9D81      		ldd r25,Y+5
 453               	/* #APP */
 454               	 ;  394 "../../nut/os/thread.c" 1
 455 02a2 0F90      		pop __tmp_reg__
 456 02a4 0FBE      		out __SREG__, __tmp_reg__
GAS LISTING C:\DOCUME~1\ADMINI~1\LOCALS~1\Temp/ccmRAl7X.s 			page 9


 457               		
 458               	 ;  0 "" 2
 459               	/* #NOAPP */
 460 02a6 892B      		or r24,r25
 461 02a8 01F0      		breq .L46
 462 02aa EF89      		ldd r30,Y+23
 463 02ac F88D      		ldd r31,Y+24
 464               	/* #APP */
 465               	 ;  399 "../../nut/os/thread.c" 1
 466 02ae 0FB6      		in  __tmp_reg__, __SREG__
 467 02b0 F894      		cli
 468 02b2 0F92      		push __tmp_reg__
 469               		
 470               	 ;  0 "" 2
 471               	/* #NOAPP */
 472 02b4 8C81      		ldd r24,Y+4
 473 02b6 9D81      		ldd r25,Y+5
 474 02b8 0197      		sbiw r24,1
 475 02ba 9D83      		std Y+5,r25
 476 02bc 8C83      		std Y+4,r24
 477               	/* #APP */
 478               	 ;  402 "../../nut/os/thread.c" 1
 479 02be 0F90      		pop __tmp_reg__
 480 02c0 0FBE      		out __SREG__, __tmp_reg__
 481               		
 482               	 ;  0 "" 2
 483               	/* #NOAPP */
 484 02c2 8081      		ld r24,Z
 485 02c4 9181      		ldd r25,Z+1
 486 02c6 8F5F      		subi r24,lo8(-1)
 487 02c8 9F4F      		sbci r25,hi8(-1)
 488 02ca 01F0      		breq .L46
 489 02cc CF01      		movw r24,r30
 490 02ce 0E94 0000 		call NutEventPostAsync
 491               	.L46:
 492 02d2 0990      		ld __tmp_reg__,Y+
 493 02d4 D881      		ld r29,Y
 494 02d6 C02D      		mov r28,__tmp_reg__
 495               	.L45:
 496 02d8 2097      		sbiw r28,0
 497 02da 01F4      		brne .L47
 498 02dc 0E94 0000 		call NutTimerProcessElapsed
 499 02e0 E091 0000 		lds r30,runningThread
 500 02e4 F091 0000 		lds r31,(runningThread)+1
 501 02e8 8091 0000 		lds r24,runQueue
 502 02ec 9091 0000 		lds r25,(runQueue)+1
 503 02f0 E817      		cp r30,r24
 504 02f2 F907      		cpc r31,r25
 505 02f4 01F0      		breq .L50
 506 02f6 8785      		ldd r24,Z+15
 507 02f8 8130      		cpi r24,lo8(1)
 508 02fa 01F4      		brne .L49
 509 02fc 82E0      		ldi r24,lo8(2)
 510 02fe 8787      		std Z+15,r24
 511               	.L49:
 512               	/* #APP */
 513               	 ;  425 "../../nut/os/thread.c" 1
GAS LISTING C:\DOCUME~1\ADMINI~1\LOCALS~1\Temp/ccmRAl7X.s 			page 10


 514 0300 0FB6      		in  __tmp_reg__, __SREG__
 515 0302 F894      		cli
 516 0304 0F92      		push __tmp_reg__
 517               		
 518               	 ;  0 "" 2
 519               	/* #NOAPP */
 520 0306 0E94 0000 		call NutThreadSwitch
 521               	/* #APP */
 522               	 ;  427 "../../nut/os/thread.c" 1
 523 030a 0F90      		pop __tmp_reg__
 524 030c 0FBE      		out __SREG__, __tmp_reg__
 525               		
 526               	 ;  0 "" 2
 527               	/* #NOAPP */
 528               	.L50:
 529               	/* epilogue start */
 530 030e DF91      		pop r29
 531 0310 CF91      		pop r28
 532 0312 0895      		ret
 533               		.size	NutThreadResume, .-NutThreadResume
 534               	.global	NutThreadYield
 535               		.type	NutThreadYield, @function
 536               	NutThreadYield:
 537               	/* prologue: function */
 538               	/* frame size = 0 */
 539 0314 E091 0000 		lds r30,runningThread
 540 0318 F091 0000 		lds r31,(runningThread)+1
 541 031c 8281      		ldd r24,Z+2
 542 031e 9381      		ldd r25,Z+3
 543 0320 892B      		or r24,r25
 544 0322 01F0      		breq .L52
 545 0324 CF01      		movw r24,r30
 546 0326 60E0      		ldi r22,lo8(runQueue)
 547 0328 70E0      		ldi r23,hi8(runQueue)
 548 032a 0E94 0000 		call NutThreadRemoveQueue
 549 032e 8091 0000 		lds r24,runningThread
 550 0332 9091 0000 		lds r25,(runningThread)+1
 551 0336 60E0      		ldi r22,lo8(runQueue)
 552 0338 70E0      		ldi r23,hi8(runQueue)
 553 033a 0E94 0000 		call NutThreadAddPriQueue
 554               	.L52:
 555 033e 0E94 0000 		call NutThreadResume
 556               	/* epilogue start */
 557 0342 0895      		ret
 558               		.size	NutThreadYield, .-NutThreadYield
 559               		.comm runningThread,2,1
 560               		.comm nutThreadList,2,1
 561               		.comm runQueue,2,1
 562               		.comm killedThread,2,1
 563               	.global __do_clear_bss
GAS LISTING C:\DOCUME~1\ADMINI~1\LOCALS~1\Temp/ccmRAl7X.s 			page 11


DEFINED SYMBOLS
                            *ABS*:00000000 thread.c
C:\DOCUME~1\ADMINI~1\LOCALS~1\Temp/ccmRAl7X.s:2      *ABS*:0000003f __SREG__
C:\DOCUME~1\ADMINI~1\LOCALS~1\Temp/ccmRAl7X.s:3      *ABS*:0000003e __SP_H__
C:\DOCUME~1\ADMINI~1\LOCALS~1\Temp/ccmRAl7X.s:4      *ABS*:0000003d __SP_L__
C:\DOCUME~1\ADMINI~1\LOCALS~1\Temp/ccmRAl7X.s:5      *ABS*:00000034 __CCP__
C:\DOCUME~1\ADMINI~1\LOCALS~1\Temp/ccmRAl7X.s:6      *ABS*:00000000 __tmp_reg__
C:\DOCUME~1\ADMINI~1\LOCALS~1\Temp/ccmRAl7X.s:7      *ABS*:00000001 __zero_reg__
C:\DOCUME~1\ADMINI~1\LOCALS~1\Temp/ccmRAl7X.s:11     .text:00000000 NutThreadAddPriQueue
C:\DOCUME~1\ADMINI~1\LOCALS~1\Temp/ccmRAl7X.s:133    .text:000000b2 NutThreadRemoveQueue
C:\DOCUME~1\ADMINI~1\LOCALS~1\Temp/ccmRAl7X.s:237    .text:00000140 NutThreadWake
                            *COM*:00000002 runQueue
C:\DOCUME~1\ADMINI~1\LOCALS~1\Temp/ccmRAl7X.s:254    .text:00000156 GetThreadByName
                            *COM*:00000002 nutThreadList
                            *COM*:00000002 runningThread
C:\DOCUME~1\ADMINI~1\LOCALS~1\Temp/ccmRAl7X.s:300    .text:000001a4 NutThreadDestroy
                            *COM*:00000002 killedThread
C:\DOCUME~1\ADMINI~1\LOCALS~1\Temp/ccmRAl7X.s:319    .text:000001c6 NutThreadKill
C:\DOCUME~1\ADMINI~1\LOCALS~1\Temp/ccmRAl7X.s:360    .text:00000214 NutThreadSetPriority
C:\DOCUME~1\ADMINI~1\LOCALS~1\Temp/ccmRAl7X.s:424    .text:00000282 NutThreadExit
C:\DOCUME~1\ADMINI~1\LOCALS~1\Temp/ccmRAl7X.s:434    .text:0000028a NutThreadResume
C:\DOCUME~1\ADMINI~1\LOCALS~1\Temp/ccmRAl7X.s:536    .text:00000314 NutThreadYield

UNDEFINED SYMBOLS
strcmp
heapFreeList
NutHeapRootFree
NutThreadSwitch
NutEventPostAsync
NutTimerProcessElapsed
__do_clear_bss
