GAS LISTING C:\DOCUME~1\ADMINI~1\LOCALS~1\Temp/cclofqpt.s 			page 1


   1               		.file	"arpout.c"
   2               	__SREG__ = 0x3f
   3               	__SP_H__ = 0x3e
   4               	__SP_L__ = 0x3d
   5               	__CCP__  = 0x34
   6               	__tmp_reg__ = 0
   7               	__zero_reg__ = 1
   8               		.text
   9               	.global	NutArpOutput
  10               		.type	NutArpOutput, @function
  11               	NutArpOutput:
  12 0000 0F93      		push r16
  13 0002 1F93      		push r17
  14 0004 CF93      		push r28
  15 0006 DF93      		push r29
  16               	/* prologue: function */
  17               	/* frame size = 0 */
  18 0008 AC01      		movw r20,r24
  19 000a 8B01      		movw r16,r22
  20 000c DB01      		movw r26,r22
  21 000e 1796      		adiw r26,7
  22 0010 CD91      		ld r28,X+
  23 0012 DC91      		ld r29,X
  24 0014 1897      		sbiw r26,7+1
  25 0016 DC01      		movw r26,r24
  26 0018 1F96      		adiw r26,15
  27 001a ED91      		ld r30,X+
  28 001c FC91      		ld r31,X
  29 001e 5097      		sbiw r26,15+1
  30 0020 9E01      		movw r18,r28
  31 0022 285F      		subi r18,lo8(-(8))
  32 0024 3F4F      		sbci r19,hi8(-(8))
  33 0026 BF01      		movw r22,r30
  34 0028 6B5F      		subi r22,lo8(-(5))
  35 002a 7F4F      		sbci r23,hi8(-(5))
  36 002c 86E0      		ldi r24,lo8(6)
  37               	.L2:
  38 002e DB01      		movw r26,r22
  39 0030 0D90      		ld r0,X+
  40 0032 BD01      		movw r22,r26
  41 0034 D901      		movw r26,r18
  42 0036 0D92      		st X+,r0
  43 0038 9D01      		movw r18,r26
  44 003a 8150      		subi r24,lo8(-(-1))
  45 003c 01F4      		brne .L2
  46 003e 8385      		ldd r24,Z+11
  47 0040 9485      		ldd r25,Z+12
  48 0042 A585      		ldd r26,Z+13
  49 0044 B685      		ldd r27,Z+14
  50 0046 8E87      		std Y+14,r24
  51 0048 9F87      		std Y+15,r25
  52 004a A88B      		std Y+16,r26
  53 004c B98B      		std Y+17,r27
  54 004e 6296      		adiw r28,18
  55 0050 03A0      		ldd __tmp_reg__,Z+35
  56 0052 F4A1      		ldd r31,Z+36
  57 0054 E02D      		mov r30,__tmp_reg__
GAS LISTING C:\DOCUME~1\ADMINI~1\LOCALS~1\Temp/cclofqpt.s 			page 2


  58 0056 CA01      		movw r24,r20
  59 0058 66E0      		ldi r22,lo8(2054)
  60 005a 78E0      		ldi r23,hi8(2054)
  61 005c AE01      		movw r20,r28
  62 005e 9801      		movw r18,r16
  63 0060 0995      		icall
  64               	/* epilogue start */
  65 0062 DF91      		pop r29
  66 0064 CF91      		pop r28
  67 0066 1F91      		pop r17
  68 0068 0F91      		pop r16
  69 006a 0895      		ret
  70               		.size	NutArpOutput, .-NutArpOutput
  71               	.global	NutArpAllocNetBuf
  72               		.type	NutArpAllocNetBuf, @function
  73               	NutArpAllocNetBuf:
  74 006c 8F92      		push r8
  75 006e 9F92      		push r9
  76 0070 AF92      		push r10
  77 0072 BF92      		push r11
  78 0074 CF92      		push r12
  79 0076 DF92      		push r13
  80 0078 EF92      		push r14
  81 007a FF92      		push r15
  82 007c 0F93      		push r16
  83 007e 1F93      		push r17
  84 0080 CF93      		push r28
  85 0082 DF93      		push r29
  86               	/* prologue: function */
  87               	/* frame size = 0 */
  88 0084 8C01      		movw r16,r24
  89 0086 4A01      		movw r8,r20
  90 0088 5B01      		movw r10,r22
  91 008a 6901      		movw r12,r18
  92 008c 80E0      		ldi r24,lo8(0)
  93 008e 90E0      		ldi r25,hi8(0)
  94 0090 60E2      		ldi r22,lo8(32)
  95 0092 4CE1      		ldi r20,lo8(28)
  96 0094 50E0      		ldi r21,hi8(28)
  97 0096 0E94 0000 		call NutNetBufAlloc
  98 009a 7C01      		movw r14,r24
  99 009c 0097      		sbiw r24,0
 100 009e 01F4      		brne .+2
 101 00a0 00C0      		rjmp .L6
 102 00a2 FC01      		movw r30,r24
 103 00a4 C781      		ldd r28,Z+7
 104 00a6 D085      		ldd r29,Z+8
 105 00a8 81E0      		ldi r24,lo8(1)
 106 00aa 90E0      		ldi r25,hi8(1)
 107               	/* #APP */
 108               	 ;  305 "../../nut/include/sys/types.h" 1
 109 00ac 082E      		mov __tmp_reg__, r24
 110 00ae 892F      		mov r24, r25
 111 00b0 902D      		mov r25, __tmp_reg__
 112               		
 113               	 ;  0 "" 2
 114               	/* #NOAPP */
GAS LISTING C:\DOCUME~1\ADMINI~1\LOCALS~1\Temp/cclofqpt.s 			page 3


 115 00b2 9983      		std Y+1,r25
 116 00b4 8883      		st Y,r24
 117 00b6 80E0      		ldi r24,lo8(2048)
 118 00b8 98E0      		ldi r25,hi8(2048)
 119               	/* #APP */
 120               	 ;  305 "../../nut/include/sys/types.h" 1
 121 00ba 082E      		mov __tmp_reg__, r24
 122 00bc 892F      		mov r24, r25
 123 00be 902D      		mov r25, __tmp_reg__
 124               		
 125               	 ;  0 "" 2
 126               	/* #NOAPP */
 127 00c0 9B83      		std Y+3,r25
 128 00c2 8A83      		std Y+2,r24
 129 00c4 86E0      		ldi r24,lo8(6)
 130 00c6 8C83      		std Y+4,r24
 131 00c8 84E0      		ldi r24,lo8(4)
 132 00ca 8D83      		std Y+5,r24
 133               	/* #APP */
 134               	 ;  305 "../../nut/include/sys/types.h" 1
 135 00cc 002E      		mov __tmp_reg__, r16
 136 00ce 012F      		mov r16, r17
 137 00d0 102D      		mov r17, __tmp_reg__
 138               		
 139               	 ;  0 "" 2
 140               	/* #NOAPP */
 141 00d2 1F83      		std Y+7,r17
 142 00d4 0E83      		std Y+6,r16
 143 00d6 9E01      		movw r18,r28
 144 00d8 2E5E      		subi r18,lo8(-(18))
 145 00da 3F4F      		sbci r19,hi8(-(18))
 146 00dc C114      		cp r12,__zero_reg__
 147 00de D104      		cpc r13,__zero_reg__
 148 00e0 01F0      		breq .L7
 149 00e2 D901      		movw r26,r18
 150 00e4 F601      		movw r30,r12
 151 00e6 86E0      		ldi r24,lo8(6)
 152               	.L8:
 153 00e8 0190      		ld r0,Z+
 154 00ea 0D92      		st X+,r0
 155 00ec 8150      		subi r24,lo8(-(-1))
 156 00ee 01F4      		brne .L8
 157 00f0 00C0      		rjmp .L9
 158               	.L7:
 159 00f2 C901      		movw r24,r18
 160 00f4 6FEF      		ldi r22,lo8(255)
 161 00f6 70E0      		ldi r23,hi8(255)
 162 00f8 46E0      		ldi r20,lo8(6)
 163 00fa 50E0      		ldi r21,hi8(6)
 164 00fc 0E94 0000 		call memset
 165               	.L9:
 166 0100 888E      		std Y+24,r8
 167 0102 998E      		std Y+25,r9
 168 0104 AA8E      		std Y+26,r10
 169 0106 BB8E      		std Y+27,r11
 170               	.L6:
 171 0108 C701      		movw r24,r14
GAS LISTING C:\DOCUME~1\ADMINI~1\LOCALS~1\Temp/cclofqpt.s 			page 4


 172               	/* epilogue start */
 173 010a DF91      		pop r29
 174 010c CF91      		pop r28
 175 010e 1F91      		pop r17
 176 0110 0F91      		pop r16
 177 0112 FF90      		pop r15
 178 0114 EF90      		pop r14
 179 0116 DF90      		pop r13
 180 0118 CF90      		pop r12
 181 011a BF90      		pop r11
 182 011c AF90      		pop r10
 183 011e 9F90      		pop r9
 184 0120 8F90      		pop r8
 185 0122 0895      		ret
 186               		.size	NutArpAllocNetBuf, .-NutArpAllocNetBuf
GAS LISTING C:\DOCUME~1\ADMINI~1\LOCALS~1\Temp/cclofqpt.s 			page 5


DEFINED SYMBOLS
                            *ABS*:00000000 arpout.c
C:\DOCUME~1\ADMINI~1\LOCALS~1\Temp/cclofqpt.s:2      *ABS*:0000003f __SREG__
C:\DOCUME~1\ADMINI~1\LOCALS~1\Temp/cclofqpt.s:3      *ABS*:0000003e __SP_H__
C:\DOCUME~1\ADMINI~1\LOCALS~1\Temp/cclofqpt.s:4      *ABS*:0000003d __SP_L__
C:\DOCUME~1\ADMINI~1\LOCALS~1\Temp/cclofqpt.s:5      *ABS*:00000034 __CCP__
C:\DOCUME~1\ADMINI~1\LOCALS~1\Temp/cclofqpt.s:6      *ABS*:00000000 __tmp_reg__
C:\DOCUME~1\ADMINI~1\LOCALS~1\Temp/cclofqpt.s:7      *ABS*:00000001 __zero_reg__
C:\DOCUME~1\ADMINI~1\LOCALS~1\Temp/cclofqpt.s:11     .text:00000000 NutArpOutput
C:\DOCUME~1\ADMINI~1\LOCALS~1\Temp/cclofqpt.s:73     .text:0000006c NutArpAllocNetBuf

UNDEFINED SYMBOLS
NutNetBufAlloc
memset
