GAS LISTING C:\DOCUME~1\ADMINI~1\LOCALS~1\Temp/ccta142M.s 			page 1


   1               		.file	"ethout.c"
   2               	__SREG__ = 0x3f
   3               	__SP_H__ = 0x3e
   4               	__SP_L__ = 0x3d
   5               	__CCP__  = 0x34
   6               	__tmp_reg__ = 0
   7               	__zero_reg__ = 1
   8               		.text
   9               	.global	NutEtherOutput
  10               		.type	NutEtherOutput, @function
  11               	NutEtherOutput:
  12 0000 8F92      		push r8
  13 0002 9F92      		push r9
  14 0004 AF92      		push r10
  15 0006 BF92      		push r11
  16 0008 CF92      		push r12
  17 000a DF92      		push r13
  18 000c EF92      		push r14
  19 000e FF92      		push r15
  20 0010 0F93      		push r16
  21 0012 1F93      		push r17
  22 0014 CF93      		push r28
  23 0016 DF93      		push r29
  24               	/* prologue: function */
  25               	/* frame size = 0 */
  26 0018 4C01      		movw r8,r24
  27 001a 7B01      		movw r14,r22
  28 001c 6A01      		movw r12,r20
  29 001e 8901      		movw r16,r18
  30 0020 C901      		movw r24,r18
  31 0022 60E1      		ldi r22,lo8(16)
  32 0024 4EE0      		ldi r20,lo8(14)
  33 0026 50E0      		ldi r21,hi8(14)
  34 0028 0E94 0000 		call NutNetBufAlloc
  35 002c 892B      		or r24,r25
  36 002e 01F4      		brne .+2
  37 0030 00C0      		rjmp .L12
  38               	.L2:
  39 0032 D801      		movw r26,r16
  40 0034 1396      		adiw r26,3
  41 0036 CD91      		ld r28,X+
  42 0038 DC91      		ld r29,X
  43 003a 1497      		sbiw r26,3+1
  44 003c F401      		movw r30,r8
  45 003e A784      		ldd r10,Z+15
  46 0040 B088      		ldd r11,Z+16
  47 0042 DE01      		movw r26,r28
  48 0044 1696      		adiw r26,6
  49 0046 F501      		movw r30,r10
  50 0048 3596      		adiw r30,5
  51 004a 86E0      		ldi r24,lo8(6)
  52               	.L4:
  53 004c 0190      		ld r0,Z+
  54 004e 0D92      		st X+,r0
  55 0050 8150      		subi r24,lo8(-(-1))
  56 0052 01F4      		brne .L4
  57 0054 C114      		cp r12,__zero_reg__
GAS LISTING C:\DOCUME~1\ADMINI~1\LOCALS~1\Temp/ccta142M.s 			page 2


  58 0056 D104      		cpc r13,__zero_reg__
  59 0058 01F0      		breq .L5
  60 005a DE01      		movw r26,r28
  61 005c F601      		movw r30,r12
  62 005e 86E0      		ldi r24,lo8(6)
  63               	.L6:
  64 0060 0190      		ld r0,Z+
  65 0062 0D92      		st X+,r0
  66 0064 8150      		subi r24,lo8(-(-1))
  67 0066 01F4      		brne .L6
  68 0068 00C0      		rjmp .L7
  69               	.L5:
  70 006a CE01      		movw r24,r28
  71 006c 6FEF      		ldi r22,lo8(255)
  72 006e 70E0      		ldi r23,hi8(255)
  73 0070 46E0      		ldi r20,lo8(6)
  74 0072 50E0      		ldi r21,hi8(6)
  75 0074 0E94 0000 		call memset
  76               	.L7:
  77               	/* #APP */
  78               	 ;  305 "../../nut/include/sys/types.h" 1
  79 0078 0E2C      		mov __tmp_reg__, r14
  80 007a EF2C      		mov r14, r15
  81 007c F02C      		mov r15, __tmp_reg__
  82               		
  83               	 ;  0 "" 2
  84               	/* #NOAPP */
  85 007e FD86      		std Y+13,r15
  86 0080 EC86      		std Y+12,r14
  87 0082 D501      		movw r26,r10
  88 0084 9196      		adiw r26,33
  89 0086 ED91      		ld r30,X+
  90 0088 FC91      		ld r31,X
  91 008a 9297      		sbiw r26,33+1
  92 008c C401      		movw r24,r8
  93 008e B801      		movw r22,r16
  94 0090 0995      		icall
  95 0092 892B      		or r24,r25
  96 0094 01F4      		brne .L8
  97 0096 20E0      		ldi r18,lo8(0)
  98 0098 30E0      		ldi r19,hi8(0)
  99 009a 00C0      		rjmp .L3
 100               	.L8:
 101 009c C801      		movw r24,r16
 102 009e 0E94 0000 		call NutNetBufFree
 103               	.L12:
 104 00a2 2FEF      		ldi r18,lo8(-1)
 105 00a4 3FEF      		ldi r19,hi8(-1)
 106               	.L3:
 107 00a6 C901      		movw r24,r18
 108               	/* epilogue start */
 109 00a8 DF91      		pop r29
 110 00aa CF91      		pop r28
 111 00ac 1F91      		pop r17
 112 00ae 0F91      		pop r16
 113 00b0 FF90      		pop r15
 114 00b2 EF90      		pop r14
GAS LISTING C:\DOCUME~1\ADMINI~1\LOCALS~1\Temp/ccta142M.s 			page 3


 115 00b4 DF90      		pop r13
 116 00b6 CF90      		pop r12
 117 00b8 BF90      		pop r11
 118 00ba AF90      		pop r10
 119 00bc 9F90      		pop r9
 120 00be 8F90      		pop r8
 121 00c0 0895      		ret
 122               		.size	NutEtherOutput, .-NutEtherOutput
GAS LISTING C:\DOCUME~1\ADMINI~1\LOCALS~1\Temp/ccta142M.s 			page 4


DEFINED SYMBOLS
                            *ABS*:00000000 ethout.c
C:\DOCUME~1\ADMINI~1\LOCALS~1\Temp/ccta142M.s:2      *ABS*:0000003f __SREG__
C:\DOCUME~1\ADMINI~1\LOCALS~1\Temp/ccta142M.s:3      *ABS*:0000003e __SP_H__
C:\DOCUME~1\ADMINI~1\LOCALS~1\Temp/ccta142M.s:4      *ABS*:0000003d __SP_L__
C:\DOCUME~1\ADMINI~1\LOCALS~1\Temp/ccta142M.s:5      *ABS*:00000034 __CCP__
C:\DOCUME~1\ADMINI~1\LOCALS~1\Temp/ccta142M.s:6      *ABS*:00000000 __tmp_reg__
C:\DOCUME~1\ADMINI~1\LOCALS~1\Temp/ccta142M.s:7      *ABS*:00000001 __zero_reg__
C:\DOCUME~1\ADMINI~1\LOCALS~1\Temp/ccta142M.s:11     .text:00000000 NutEtherOutput

UNDEFINED SYMBOLS
NutNetBufAlloc
memset
NutNetBufFree
