GAS LISTING C:\DOCUME~1\ADMINI~1\LOCALS~1\Temp/ccllSvDg.s 			page 1


   1               		.file	"lcpin.c"
   2               	__SREG__ = 0x3f
   3               	__SP_H__ = 0x3e
   4               	__SP_L__ = 0x3d
   5               	__CCP__  = 0x34
   6               	__tmp_reg__ = 0
   7               	__zero_reg__ = 1
   8               		.text
   9               		.type	LcpRxConfNakRej, @function
  10               	LcpRxConfNakRej:
  11 0000 EF92      		push r14
  12 0002 FF92      		push r15
  13 0004 0F93      		push r16
  14 0006 1F93      		push r17
  15 0008 CF93      		push r28
  16 000a DF93      		push r29
  17               	/* prologue: function */
  18               	/* frame size = 0 */
  19 000c 8C01      		movw r16,r24
  20 000e F62E      		mov r15,r22
  21 0010 DA01      		movw r26,r20
  22 0012 E22E      		mov r14,r18
  23 0014 FC01      		movw r30,r24
  24 0016 C189      		ldd r28,Z+17
  25 0018 D289      		ldd r29,Z+18
  26 001a 8B81      		ldd r24,Y+3
  27 001c 6817      		cp r22,r24
  28 001e 01F4      		brne .L2
  29 0020 8D81      		ldd r24,Y+5
  30 0022 8823      		tst r24
  31 0024 01F0      		breq .L3
  32               	.L2:
  33 0026 CD01      		movw r24,r26
  34 0028 0E94 0000 		call NutNetBufFree
  35 002c 00C0      		rjmp .L12
  36               	.L3:
  37 002e 81E0      		ldi r24,lo8(1)
  38 0030 8D83      		std Y+5,r24
  39 0032 1F96      		adiw r26,15
  40 0034 ED91      		ld r30,X+
  41 0036 FC91      		ld r31,X
  42 0038 5097      		sbiw r26,15+1
  43 003a 5196      		adiw r26,17
  44 003c 2D91      		ld r18,X+
  45 003e 3C91      		ld r19,X
  46 0040 5297      		sbiw r26,17+1
  47 0042 00C0      		rjmp .L5
  48               	.L6:
  49 0044 8181      		ldd r24,Z+1
  50 0046 90E0      		ldi r25,lo8(0)
  51 0048 281B      		sub r18,r24
  52 004a 390B      		sbc r19,r25
  53 004c E80F      		add r30,r24
  54 004e F91F      		adc r31,r25
  55               	.L5:
  56 0050 2230      		cpi r18,2
  57 0052 3105      		cpc r19,__zero_reg__
GAS LISTING C:\DOCUME~1\ADMINI~1\LOCALS~1\Temp/ccllSvDg.s 			page 2


  58 0054 00F4      		brsh .L6
  59 0056 CD01      		movw r24,r26
  60 0058 0E94 0000 		call NutNetBufFree
  61 005c 8A81      		ldd r24,Y+2
  62 005e 8630      		cpi r24,lo8(6)
  63 0060 01F0      		breq .L8
  64 0062 8730      		cpi r24,lo8(7)
  65 0064 00F4      		brsh .L11
  66 0066 8250      		subi r24,lo8(-(-2))
  67 0068 8230      		cpi r24,lo8(2)
  68 006a 00F4      		brsh .L12
  69 006c 00C0      		rjmp .L15
  70               	.L11:
  71 006e 8830      		cpi r24,lo8(8)
  72 0070 01F0      		breq .L8
  73 0072 8830      		cpi r24,lo8(8)
  74 0074 00F0      		brlo .L14
  75 0076 8930      		cpi r24,lo8(9)
  76 0078 01F4      		brne .L12
  77 007a 00C0      		rjmp .L16
  78               	.L15:
  79 007c C801      		movw r24,r16
  80 007e 66E0      		ldi r22,lo8(6)
  81 0080 4F2D      		mov r20,r15
  82 0082 20E0      		ldi r18,lo8(0)
  83 0084 30E0      		ldi r19,hi8(0)
  84 0086 0E94 0000 		call NutLcpOutput
  85 008a 00C0      		rjmp .L12
  86               	.L8:
  87 008c 6B81      		ldd r22,Y+3
  88 008e 6F5F      		subi r22,lo8(-(1))
  89 0090 6B83      		std Y+3,r22
  90 0092 C801      		movw r24,r16
  91 0094 4E2D      		mov r20,r14
  92 0096 0E94 0000 		call LcpTxConfReq
  93 009a 00C0      		rjmp .L12
  94               	.L16:
  95 009c C801      		movw r24,r16
  96 009e 0E94 0000 		call IpcpLowerDown
  97               	.L14:
  98 00a2 6B81      		ldd r22,Y+3
  99 00a4 6F5F      		subi r22,lo8(-(1))
 100 00a6 6B83      		std Y+3,r22
 101 00a8 C801      		movw r24,r16
 102 00aa 40E0      		ldi r20,lo8(0)
 103 00ac 0E94 0000 		call LcpTxConfReq
 104 00b0 86E0      		ldi r24,lo8(6)
 105 00b2 8A83      		std Y+2,r24
 106               	.L12:
 107               	/* epilogue start */
 108 00b4 DF91      		pop r29
 109 00b6 CF91      		pop r28
 110 00b8 1F91      		pop r17
 111 00ba 0F91      		pop r16
 112 00bc FF90      		pop r15
 113 00be EF90      		pop r14
 114 00c0 0895      		ret
GAS LISTING C:\DOCUME~1\ADMINI~1\LOCALS~1\Temp/ccllSvDg.s 			page 3


 115               		.size	LcpRxConfNakRej, .-LcpRxConfNakRej
 116               	.global	NutLcpInput
 117               		.type	NutLcpInput, @function
 118               	NutLcpInput:
 119 00c2 2F92      		push r2
 120 00c4 3F92      		push r3
 121 00c6 4F92      		push r4
 122 00c8 5F92      		push r5
 123 00ca 6F92      		push r6
 124 00cc 7F92      		push r7
 125 00ce 8F92      		push r8
 126 00d0 9F92      		push r9
 127 00d2 AF92      		push r10
 128 00d4 BF92      		push r11
 129 00d6 CF92      		push r12
 130 00d8 DF92      		push r13
 131 00da EF92      		push r14
 132 00dc FF92      		push r15
 133 00de 0F93      		push r16
 134 00e0 1F93      		push r17
 135 00e2 DF93      		push r29
 136 00e4 CF93      		push r28
 137 00e6 CDB7      		in r28,__SP_L__
 138 00e8 DEB7      		in r29,__SP_H__
 139 00ea 2797      		sbiw r28,7
 140 00ec 0FB6      		in __tmp_reg__,__SREG__
 141 00ee F894      		cli
 142 00f0 DEBF      		out __SP_H__,r29
 143 00f2 0FBE      		out __SREG__,__tmp_reg__
 144 00f4 CDBF      		out __SP_L__,r28
 145               	/* prologue: function */
 146               	/* frame size = 7 */
 147 00f6 6C01      		movw r12,r24
 148 00f8 7B01      		movw r14,r22
 149 00fa DC01      		movw r26,r24
 150 00fc 5196      		adiw r26,17
 151 00fe 6D91      		ld r22,X+
 152 0100 7C91      		ld r23,X
 153 0102 5297      		sbiw r26,17+1
 154 0104 F701      		movw r30,r14
 155 0106 4185      		ldd r20,Z+9
 156 0108 5285      		ldd r21,Z+10
 157 010a 4430      		cpi r20,4
 158 010c 5105      		cpc r21,__zero_reg__
 159 010e 00F4      		brsh .+2
 160 0110 00C0      		rjmp .L23
 161               	.L18:
 162 0112 D701      		movw r26,r14
 163 0114 1796      		adiw r26,7
 164 0116 ED91      		ld r30,X+
 165 0118 FC91      		ld r31,X
 166 011a 1897      		sbiw r26,7+1
 167 011c 2281      		ldd r18,Z+2
 168 011e 3381      		ldd r19,Z+3
 169 0120 C901      		movw r24,r18
 170               	/* #APP */
 171               	 ;  305 "../../nut/include/sys/types.h" 1
GAS LISTING C:\DOCUME~1\ADMINI~1\LOCALS~1\Temp/ccllSvDg.s 			page 4


 172 0122 082E      		mov __tmp_reg__, r24
 173 0124 892F      		mov r24, r25
 174 0126 902D      		mov r25, __tmp_reg__
 175               		
 176               	 ;  0 "" 2
 177               	/* #NOAPP */
 178 0128 8430      		cpi r24,4
 179 012a 9105      		cpc r25,__zero_reg__
 180 012c 00F4      		brsh .+2
 181 012e 00C0      		rjmp .L23
 182 0130 4817      		cp r20,r24
 183 0132 5907      		cpc r21,r25
 184 0134 00F4      		brsh .+2
 185 0136 00C0      		rjmp .L23
 186               	.L21:
 187 0138 DB01      		movw r26,r22
 188 013a 1296      		adiw r26,2
 189 013c 8C91      		ld r24,X
 190 013e 8230      		cpi r24,lo8(2)
 191 0140 00F4      		brsh .+2
 192 0142 00C0      		rjmp .L23
 193               	.L22:
 194 0144 3496      		adiw r30,4
 195 0146 D701      		movw r26,r14
 196 0148 5096      		adiw r26,15+1
 197 014a FC93      		st X,r31
 198 014c EE93      		st -X,r30
 199 014e 1F97      		sbiw r26,15
 200 0150 3497      		sbiw r30,4
 201               	/* #APP */
 202               	 ;  305 "../../nut/include/sys/types.h" 1
 203 0152 022E      		mov __tmp_reg__, r18
 204 0154 232F      		mov r18, r19
 205 0156 302D      		mov r19, __tmp_reg__
 206               		
 207               	 ;  0 "" 2
 208               	/* #NOAPP */
 209 0158 2450      		subi r18,lo8(-(-4))
 210 015a 3040      		sbci r19,hi8(-(-4))
 211 015c 5296      		adiw r26,17+1
 212 015e 3C93      		st X,r19
 213 0160 2E93      		st -X,r18
 214 0162 5197      		sbiw r26,17
 215 0164 1081      		ld r17,Z
 216 0166 1530      		cpi r17,lo8(5)
 217 0168 01F4      		brne .+2
 218 016a 00C0      		rjmp .L28
 219 016c 1630      		cpi r17,lo8(6)
 220 016e 00F4      		brsh .L33
 221 0170 1230      		cpi r17,lo8(2)
 222 0172 01F4      		brne .+2
 223 0174 00C0      		rjmp .L25
 224 0176 1330      		cpi r17,lo8(3)
 225 0178 00F4      		brsh .L34
 226 017a 1130      		cpi r17,lo8(1)
 227 017c 01F0      		breq .+2
 228 017e 00C0      		rjmp .L23
GAS LISTING C:\DOCUME~1\ADMINI~1\LOCALS~1\Temp/ccllSvDg.s 			page 5


 229 0180 00C0      		rjmp .L117
 230               	.L34:
 231 0182 1330      		cpi r17,lo8(3)
 232 0184 01F4      		brne .+2
 233 0186 00C0      		rjmp .L26
 234 0188 1430      		cpi r17,lo8(4)
 235 018a 01F0      		breq .+2
 236 018c 00C0      		rjmp .L23
 237 018e 00C0      		rjmp .L118
 238               	.L33:
 239 0190 1930      		cpi r17,lo8(9)
 240 0192 01F4      		brne .+2
 241 0194 00C0      		rjmp .L31
 242 0196 1A30      		cpi r17,lo8(10)
 243 0198 00F0      		brlo .+2
 244 019a 00C0      		rjmp .L23
 245 019c 1630      		cpi r17,lo8(6)
 246 019e 01F4      		brne .+2
 247 01a0 00C0      		rjmp .L29
 248 01a2 1730      		cpi r17,lo8(7)
 249 01a4 01F0      		breq .+2
 250 01a6 00C0      		rjmp .L23
 251 01a8 00C0      		rjmp .L119
 252               	.L117:
 253 01aa B181      		ldd r27,Z+1
 254 01ac B983      		std Y+1,r27
 255 01ae F601      		movw r30,r12
 256 01b0 0189      		ldd r16,Z+17
 257 01b2 1289      		ldd r17,Z+18
 258 01b4 D801      		movw r26,r16
 259 01b6 1296      		adiw r26,2
 260 01b8 8C91      		ld r24,X
 261 01ba 8630      		cpi r24,lo8(6)
 262 01bc 00F4      		brsh .L41
 263 01be 8430      		cpi r24,lo8(4)
 264 01c0 00F0      		brlo .+2
 265 01c2 00C0      		rjmp .L23
 266 01c4 8230      		cpi r24,lo8(2)
 267 01c6 01F0      		breq .L37
 268 01c8 8330      		cpi r24,lo8(3)
 269 01ca 01F4      		brne .L36
 270 01cc 00C0      		rjmp .L120
 271               	.L41:
 272 01ce 8930      		cpi r24,lo8(9)
 273 01d0 01F4      		brne .L36
 274 01d2 00C0      		rjmp .L121
 275               	.L37:
 276 01d4 C701      		movw r24,r14
 277 01d6 0E94 0000 		call NutNetBufFree
 278 01da C601      		movw r24,r12
 279 01dc 66E0      		ldi r22,lo8(6)
 280 01de 4981      		ldd r20,Y+1
 281 01e0 00C0      		rjmp .L116
 282               	.L121:
 283 01e2 C601      		movw r24,r12
 284 01e4 0E94 0000 		call IpcpLowerDown
 285 01e8 F801      		movw r30,r16
GAS LISTING C:\DOCUME~1\ADMINI~1\LOCALS~1\Temp/ccllSvDg.s 			page 6


 286 01ea 6381      		ldd r22,Z+3
 287 01ec 6F5F      		subi r22,lo8(-(1))
 288 01ee 6383      		std Z+3,r22
 289 01f0 C601      		movw r24,r12
 290 01f2 40E0      		ldi r20,lo8(0)
 291 01f4 0E94 0000 		call LcpTxConfReq
 292 01f8 00C0      		rjmp .L36
 293               	.L120:
 294 01fa D801      		movw r26,r16
 295 01fc 1396      		adiw r26,3
 296 01fe 6C91      		ld r22,X
 297 0200 1397      		sbiw r26,3
 298 0202 6F5F      		subi r22,lo8(-(1))
 299 0204 1396      		adiw r26,3
 300 0206 6C93      		st X,r22
 301 0208 C601      		movw r24,r12
 302 020a 40E0      		ldi r20,lo8(0)
 303 020c 0E94 0000 		call LcpTxConfReq
 304 0210 86E0      		ldi r24,lo8(6)
 305 0212 F801      		movw r30,r16
 306 0214 8283      		std Z+2,r24
 307               	.L36:
 308 0216 D701      		movw r26,r14
 309 0218 1F96      		adiw r26,15
 310 021a 6D90      		ld r6,X+
 311 021c 7C90      		ld r7,X
 312 021e 5097      		sbiw r26,15+1
 313 0220 5196      		adiw r26,17
 314 0222 AD90      		ld r10,X+
 315 0224 BC90      		ld r11,X
 316 0226 5297      		sbiw r26,17+1
 317 0228 A301      		movw r20,r6
 318 022a 8824      		clr r8
 319 022c 9924      		clr r9
 320 022e 00C0      		rjmp .L42
 321               	.L54:
 322 0230 F301      		movw r30,r6
 323 0232 9181      		ldd r25,Z+1
 324 0234 292F      		mov r18,r25
 325 0236 30E0      		ldi r19,lo8(0)
 326 0238 A216      		cp r10,r18
 327 023a B306      		cpc r11,r19
 328 023c 00F4      		brsh .L43
 329 023e 9501      		movw r18,r10
 330 0240 00C0      		rjmp .L44
 331               	.L43:
 332 0242 D301      		movw r26,r6
 333 0244 8C91      		ld r24,X
 334 0246 8330      		cpi r24,lo8(3)
 335 0248 01F0      		breq .L48
 336 024a 8430      		cpi r24,lo8(4)
 337 024c 00F4      		brsh .L50
 338 024e 8130      		cpi r24,lo8(1)
 339 0250 01F0      		breq .L46
 340 0252 8230      		cpi r24,lo8(2)
 341 0254 01F4      		brne .L45
 342 0256 00C0      		rjmp .L47
GAS LISTING C:\DOCUME~1\ADMINI~1\LOCALS~1\Temp/ccllSvDg.s 			page 7


 343               	.L50:
 344 0258 8530      		cpi r24,lo8(5)
 345 025a 01F0      		breq .L47
 346 025c 8530      		cpi r24,lo8(5)
 347 025e 00F0      		brlo .L45
 348 0260 8750      		subi r24,lo8(-(-7))
 349 0262 8230      		cpi r24,lo8(2)
 350 0264 00F4      		brsh .L45
 351 0266 00C0      		rjmp .L49
 352               	.L46:
 353 0268 9430      		cpi r25,lo8(4)
 354 026a 01F4      		brne .L45
 355 026c 00C0      		rjmp .L49
 356               	.L47:
 357 026e 9630      		cpi r25,lo8(6)
 358 0270 01F4      		brne .L45
 359 0272 00C0      		rjmp .L49
 360               	.L48:
 361 0274 9430      		cpi r25,lo8(4)
 362 0276 00F4      		brsh .L49
 363               	.L45:
 364 0278 2115      		cp r18,__zero_reg__
 365 027a 3105      		cpc r19,__zero_reg__
 366 027c 01F0      		breq .L49
 367               	.L44:
 368 027e 4615      		cp r20,r6
 369 0280 5705      		cpc r21,r7
 370 0282 01F0      		breq .L51
 371 0284 F301      		movw r30,r6
 372 0286 8081      		ld r24,Z
 373 0288 DA01      		movw r26,r20
 374 028a 8C93      		st X,r24
 375 028c 1196      		adiw r26,1
 376 028e 2C93      		st X,r18
 377 0290 90E0      		ldi r25,lo8(0)
 378 0292 B901      		movw r22,r18
 379 0294 6250      		subi r22,lo8(-(-2))
 380 0296 7040      		sbci r23,hi8(-(-2))
 381 0298 00C0      		rjmp .L52
 382               	.L53:
 383 029a FA01      		movw r30,r20
 384 029c EA0F      		add r30,r26
 385 029e FB1F      		adc r31,r27
 386 02a0 A60D      		add r26,r6
 387 02a2 B71D      		adc r27,r7
 388 02a4 1296      		adiw r26,2
 389 02a6 8C91      		ld r24,X
 390 02a8 8283      		std Z+2,r24
 391 02aa 9F5F      		subi r25,lo8(-(1))
 392               	.L52:
 393 02ac A92F      		mov r26,r25
 394 02ae B0E0      		ldi r27,lo8(0)
 395 02b0 A617      		cp r26,r22
 396 02b2 B707      		cpc r27,r23
 397 02b4 00F0      		brlo .L53
 398               	.L51:
 399 02b6 420F      		add r20,r18
GAS LISTING C:\DOCUME~1\ADMINI~1\LOCALS~1\Temp/ccllSvDg.s 			page 8


 400 02b8 531F      		adc r21,r19
 401 02ba 820E      		add r8,r18
 402 02bc 931E      		adc r9,r19
 403               	.L49:
 404 02be F301      		movw r30,r6
 405 02c0 8181      		ldd r24,Z+1
 406 02c2 90E0      		ldi r25,lo8(0)
 407 02c4 A81A      		sub r10,r24
 408 02c6 B90A      		sbc r11,r25
 409 02c8 680E      		add r6,r24
 410 02ca 791E      		adc r7,r25
 411               	.L42:
 412 02cc F2E0      		ldi r31,lo8(2)
 413 02ce AF16      		cp r10,r31
 414 02d0 B104      		cpc r11,__zero_reg__
 415 02d2 00F0      		brlo .+2
 416 02d4 00C0      		rjmp .L54
 417 02d6 8114      		cp r8,__zero_reg__
 418 02d8 9104      		cpc r9,__zero_reg__
 419 02da 01F0      		breq .L55
 420 02dc D701      		movw r26,r14
 421 02de 5296      		adiw r26,17+1
 422 02e0 9C92      		st X,r9
 423 02e2 8E92      		st -X,r8
 424 02e4 5197      		sbiw r26,17
 425 02e6 44E0      		ldi r20,lo8(4)
 426 02e8 A42E      		mov r10,r20
 427 02ea B12C      		mov r11,__zero_reg__
 428 02ec 00C0      		rjmp .L56
 429               	.L55:
 430 02ee D701      		movw r26,r14
 431 02f0 1F96      		adiw r26,15
 432 02f2 ED91      		ld r30,X+
 433 02f4 FC91      		ld r31,X
 434 02f6 5097      		sbiw r26,15+1
 435 02f8 5196      		adiw r26,17
 436 02fa 6D91      		ld r22,X+
 437 02fc 7C91      		ld r23,X
 438 02fe 5297      		sbiw r26,17+1
 439 0300 4090 0000 		lds r4,new_magic
 440 0304 5090 0000 		lds r5,(new_magic)+1
 441 0308 6090 0000 		lds r6,(new_magic)+2
 442 030c 7090 0000 		lds r7,(new_magic)+3
 443 0310 FB83      		std Y+3,r31
 444 0312 EA83      		std Y+2,r30
 445 0314 33E2      		ldi r19,lo8(-16349)
 446 0316 232E      		mov r2,r19
 447 0318 30EC      		ldi r19,hi8(-16349)
 448 031a 332E      		mov r3,r19
 449 031c 20E8      		ldi r18,lo8(128)
 450 031e A22E      		mov r10,r18
 451 0320 B12C      		mov r11,__zero_reg__
 452 0322 00C0      		rjmp .L57
 453               	.L69:
 454 0324 8081      		ld r24,Z
 455 0326 8330      		cpi r24,lo8(3)
 456 0328 01F4      		brne .+2
GAS LISTING C:\DOCUME~1\ADMINI~1\LOCALS~1\Temp/ccllSvDg.s 			page 9


 457 032a 00C0      		rjmp .L61
 458 032c 8430      		cpi r24,lo8(4)
 459 032e 00F4      		brsh .L65
 460 0330 8130      		cpi r24,lo8(1)
 461 0332 01F0      		breq .L59
 462 0334 8230      		cpi r24,lo8(2)
 463 0336 01F0      		breq .+2
 464 0338 00C0      		rjmp .L58
 465 033a 00C0      		rjmp .L122
 466               	.L65:
 467 033c 8730      		cpi r24,lo8(7)
 468 033e 01F4      		brne .+2
 469 0340 00C0      		rjmp .L63
 470 0342 8830      		cpi r24,lo8(8)
 471 0344 01F4      		brne .+2
 472 0346 00C0      		rjmp .L64
 473 0348 8530      		cpi r24,lo8(5)
 474 034a 01F0      		breq .+2
 475 034c 00C0      		rjmp .L58
 476 034e 00C0      		rjmp .L123
 477               	.L59:
 478 0350 8281      		ldd r24,Z+2
 479 0352 9381      		ldd r25,Z+3
 480               	/* #APP */
 481               	 ;  305 "../../nut/include/sys/types.h" 1
 482 0354 082E      		mov __tmp_reg__, r24
 483 0356 892F      		mov r24, r25
 484 0358 902D      		mov r25, __tmp_reg__
 485               		
 486               	 ;  0 "" 2
 487               	/* #NOAPP */
 488 035a 8038      		cpi r24,128
 489 035c 9105      		cpc r25,__zero_reg__
 490 035e 00F4      		brsh .L66
 491 0360 C501      		movw r24,r10
 492 0362 00C0      		rjmp .L109
 493               	.L66:
 494 0364 D801      		movw r26,r16
 495 0366 1996      		adiw r26,8+1
 496 0368 9C93      		st X,r25
 497 036a 8E93      		st -X,r24
 498 036c 1897      		sbiw r26,8
 499 036e 00C0      		rjmp .L58
 500               	.L122:
 501 0370 2281      		ldd r18,Z+2
 502 0372 3381      		ldd r19,Z+3
 503 0374 4481      		ldd r20,Z+4
 504 0376 5581      		ldd r21,Z+5
 505               	/* #APP */
 506               	 ;  315 "../../nut/include/sys/types.h" 1
 507 0378 022E      		mov __tmp_reg__, r18
 508 037a 252F      		mov r18, r21
 509 037c 502D      		mov r21, __tmp_reg__
 510 037e 032E      		mov __tmp_reg__, r19
 511 0380 342F      		mov r19, r20
 512 0382 402D      		mov r20, __tmp_reg__
 513               		
GAS LISTING C:\DOCUME~1\ADMINI~1\LOCALS~1\Temp/ccllSvDg.s 			page 10


 514               	 ;  0 "" 2
 515               	/* #NOAPP */
 516 0384 D801      		movw r26,r16
 517 0386 1A96      		adiw r26,10
 518 0388 2D93      		st X+,r18
 519 038a 3D93      		st X+,r19
 520 038c 4D93      		st X+,r20
 521 038e 5C93      		st X,r21
 522 0390 1D97      		sbiw r26,10+3
 523 0392 00C0      		rjmp .L58
 524               	.L61:
 525 0394 8281      		ldd r24,Z+2
 526 0396 9381      		ldd r25,Z+3
 527               	/* #APP */
 528               	 ;  305 "../../nut/include/sys/types.h" 1
 529 0398 082E      		mov __tmp_reg__, r24
 530 039a 892F      		mov r24, r25
 531 039c 902D      		mov r25, __tmp_reg__
 532               		
 533               	 ;  0 "" 2
 534               	/* #NOAPP */
 535 039e 8352      		subi r24,lo8(-16349)
 536 03a0 904C      		sbci r25,hi8(-16349)
 537 03a2 01F4      		brne .+2
 538 03a4 00C0      		rjmp .L58
 539 03a6 C101      		movw r24,r2
 540               	.L109:
 541               	/* #APP */
 542               	 ;  305 "../../nut/include/sys/types.h" 1
 543 03a8 082E      		mov __tmp_reg__, r24
 544 03aa 892F      		mov r24, r25
 545 03ac 902D      		mov r25, __tmp_reg__
 546               		
 547               	 ;  0 "" 2
 548               	/* #NOAPP */
 549 03ae AA81      		ldd r26,Y+2
 550 03b0 BB81      		ldd r27,Y+3
 551 03b2 1396      		adiw r26,2+1
 552 03b4 9C93      		st X,r25
 553 03b6 8E93      		st -X,r24
 554 03b8 1297      		sbiw r26,2
 555 03ba 24E0      		ldi r18,lo8(4)
 556 03bc 30E0      		ldi r19,hi8(4)
 557 03be 00C0      		rjmp .L67
 558               	.L123:
 559 03c0 2281      		ldd r18,Z+2
 560 03c2 3381      		ldd r19,Z+3
 561 03c4 4481      		ldd r20,Z+4
 562 03c6 5581      		ldd r21,Z+5
 563 03c8 D801      		movw r26,r16
 564 03ca 5596      		adiw r26,21
 565 03cc 8D91      		ld r24,X+
 566 03ce 9D91      		ld r25,X+
 567 03d0 0D90      		ld __tmp_reg__,X+
 568 03d2 BC91      		ld r27,X
 569 03d4 A02D      		mov r26,__tmp_reg__
 570 03d6 2817      		cp r18,r24
GAS LISTING C:\DOCUME~1\ADMINI~1\LOCALS~1\Temp/ccllSvDg.s 			page 11


 571 03d8 3907      		cpc r19,r25
 572 03da 4A07      		cpc r20,r26
 573 03dc 5B07      		cpc r21,r27
 574 03de 01F0      		breq .L68
 575 03e0 D801      		movw r26,r16
 576 03e2 5196      		adiw r26,17
 577 03e4 8D91      		ld r24,X+
 578 03e6 9D91      		ld r25,X+
 579 03e8 0D90      		ld __tmp_reg__,X+
 580 03ea BC91      		ld r27,X
 581 03ec A02D      		mov r26,__tmp_reg__
 582 03ee 2817      		cp r18,r24
 583 03f0 3907      		cpc r19,r25
 584 03f2 4A07      		cpc r20,r26
 585 03f4 5B07      		cpc r21,r27
 586 03f6 01F4      		brne .L58
 587               	.L68:
 588 03f8 D801      		movw r26,r16
 589 03fa 5996      		adiw r26,25
 590 03fc 4D92      		st X+,r4
 591 03fe 5D92      		st X+,r5
 592 0400 6D92      		st X+,r6
 593 0402 7C92      		st X,r7
 594 0404 5C97      		sbiw r26,25+3
 595 0406 AA81      		ldd r26,Y+2
 596 0408 BB81      		ldd r27,Y+3
 597 040a 1296      		adiw r26,2
 598 040c 4D92      		st X+,r4
 599 040e 5D92      		st X+,r5
 600 0410 6D92      		st X+,r6
 601 0412 7C92      		st X,r7
 602 0414 1597      		sbiw r26,2+3
 603 0416 26E0      		ldi r18,lo8(6)
 604 0418 30E0      		ldi r19,hi8(6)
 605 041a 00C0      		rjmp .L67
 606               	.L63:
 607 041c D801      		movw r26,r16
 608 041e 1E96      		adiw r26,14
 609 0420 8C91      		ld r24,X
 610 0422 1E97      		sbiw r26,14
 611 0424 8160      		ori r24,lo8(1)
 612 0426 00C0      		rjmp .L107
 613               	.L64:
 614 0428 D801      		movw r26,r16
 615 042a 1E96      		adiw r26,14
 616 042c 8C91      		ld r24,X
 617 042e 1E97      		sbiw r26,14
 618 0430 8260      		ori r24,lo8(2)
 619               	.L107:
 620 0432 1E96      		adiw r26,14
 621 0434 8C93      		st X,r24
 622 0436 00C0      		rjmp .L58
 623               	.L102:
 624 0438 8081      		ld r24,Z
 625 043a AA81      		ldd r26,Y+2
 626 043c BB81      		ldd r27,Y+3
 627 043e 8C93      		st X,r24
GAS LISTING C:\DOCUME~1\ADMINI~1\LOCALS~1\Temp/ccllSvDg.s 			page 12


 628 0440 1196      		adiw r26,1
 629 0442 2C93      		st X,r18
 630               	.L103:
 631 0444 8A81      		ldd r24,Y+2
 632 0446 9B81      		ldd r25,Y+3
 633 0448 820F      		add r24,r18
 634 044a 931F      		adc r25,r19
 635 044c 9B83      		std Y+3,r25
 636 044e 8A83      		std Y+2,r24
 637 0450 820E      		add r8,r18
 638 0452 931E      		adc r9,r19
 639               	.L58:
 640 0454 8181      		ldd r24,Z+1
 641 0456 90E0      		ldi r25,lo8(0)
 642 0458 681B      		sub r22,r24
 643 045a 790B      		sbc r23,r25
 644 045c E80F      		add r30,r24
 645 045e F91F      		adc r31,r25
 646               	.L57:
 647 0460 6230      		cpi r22,2
 648 0462 7105      		cpc r23,__zero_reg__
 649 0464 00F0      		brlo .+2
 650 0466 00C0      		rjmp .L69
 651 0468 8114      		cp r8,__zero_reg__
 652 046a 9104      		cpc r9,__zero_reg__
 653 046c 01F4      		brne .L70
 654 046e 92E0      		ldi r25,lo8(2)
 655 0470 A92E      		mov r10,r25
 656 0472 B12C      		mov r11,__zero_reg__
 657 0474 00C0      		rjmp .L56
 658               	.L70:
 659 0476 D701      		movw r26,r14
 660 0478 5296      		adiw r26,17+1
 661 047a 9C92      		st X,r9
 662 047c 8E92      		st -X,r8
 663 047e 5197      		sbiw r26,17
 664 0480 83E0      		ldi r24,lo8(3)
 665 0482 A82E      		mov r10,r24
 666 0484 B12C      		mov r11,__zero_reg__
 667               	.L56:
 668 0486 C601      		movw r24,r12
 669 0488 6A2D      		mov r22,r10
 670 048a 4981      		ldd r20,Y+1
 671 048c 9701      		movw r18,r14
 672 048e 0E94 0000 		call NutLcpOutput
 673 0492 F801      		movw r30,r16
 674 0494 8281      		ldd r24,Z+2
 675 0496 F2E0      		ldi r31,lo8(2)
 676 0498 AF16      		cp r10,r31
 677 049a B104      		cpc r11,__zero_reg__
 678 049c 01F4      		brne .L71
 679 049e 8730      		cpi r24,lo8(7)
 680 04a0 01F4      		brne .L72
 681 04a2 89E0      		ldi r24,lo8(9)
 682 04a4 D801      		movw r26,r16
 683 04a6 1296      		adiw r26,2
 684 04a8 8C93      		st X,r24
GAS LISTING C:\DOCUME~1\ADMINI~1\LOCALS~1\Temp/ccllSvDg.s 			page 13


 685 04aa F801      		movw r30,r16
 686 04ac FF96      		adiw r30,63
 687 04ae A801      		movw r20,r16
 688 04b0 465F      		subi r20,lo8(-(10))
 689 04b2 5F4F      		sbci r21,hi8(-(10))
 690 04b4 8081      		ld r24,Z
 691 04b6 9181      		ldd r25,Z+1
 692 04b8 6CE2      		ldi r22,lo8(300)
 693 04ba 71E0      		ldi r23,hi8(300)
 694 04bc 0E94 0000 		call _ioctl
 695 04c0 F801      		movw r30,r16
 696 04c2 8785      		ldd r24,Z+15
 697 04c4 9089      		ldd r25,Z+16
 698 04c6 8352      		subi r24,lo8(-16349)
 699 04c8 904C      		sbci r25,hi8(-16349)
 700 04ca 01F4      		brne .L73
 701 04cc D801      		movw r26,r16
 702 04ce 1396      		adiw r26,3
 703 04d0 6C91      		ld r22,X
 704 04d2 1397      		sbiw r26,3
 705 04d4 6F5F      		subi r22,lo8(-(1))
 706 04d6 1396      		adiw r26,3
 707 04d8 6C93      		st X,r22
 708 04da C601      		movw r24,r12
 709 04dc 0E94 0000 		call PapTxAuthReq
 710 04e0 00C0      		rjmp .L74
 711               	.L73:
 712 04e2 C601      		movw r24,r12
 713 04e4 0E94 0000 		call IpcpLowerUp
 714 04e8 00C0      		rjmp .L74
 715               	.L72:
 716 04ea 88E0      		ldi r24,lo8(8)
 717 04ec F801      		movw r30,r16
 718 04ee 8283      		std Z+2,r24
 719               	.L74:
 720 04f0 D801      		movw r26,r16
 721 04f2 DA96      		adiw r26,58
 722 04f4 1C92      		st X,__zero_reg__
 723 04f6 00C0      		rjmp .L104
 724               	.L71:
 725 04f8 8730      		cpi r24,lo8(7)
 726 04fa 01F4      		brne .+2
 727 04fc 00C0      		rjmp .L104
 728 04fe 86E0      		ldi r24,lo8(6)
 729 0500 00C0      		rjmp .L115
 730               	.L25:
 731 0502 1181      		ldd r17,Z+1
 732 0504 D601      		movw r26,r12
 733 0506 5196      		adiw r26,17
 734 0508 AD90      		ld r10,X+
 735 050a BC90      		ld r11,X
 736 050c 5297      		sbiw r26,17+1
 737 050e F501      		movw r30,r10
 738 0510 8381      		ldd r24,Z+3
 739 0512 1817      		cp r17,r24
 740 0514 01F0      		breq .+2
 741 0516 00C0      		rjmp .L75
GAS LISTING C:\DOCUME~1\ADMINI~1\LOCALS~1\Temp/ccllSvDg.s 			page 14


 742 0518 8581      		ldd r24,Z+5
 743 051a 8823      		tst r24
 744 051c 01F0      		breq .+2
 745 051e 00C0      		rjmp .L75
 746 0520 81E0      		ldi r24,lo8(1)
 747 0522 8583      		std Z+5,r24
 748 0524 D701      		movw r26,r14
 749 0526 1F96      		adiw r26,15
 750 0528 ED91      		ld r30,X+
 751 052a FC91      		ld r31,X
 752 052c 5097      		sbiw r26,15+1
 753 052e 5196      		adiw r26,17
 754 0530 6D91      		ld r22,X+
 755 0532 7C91      		ld r23,X
 756 0534 5297      		sbiw r26,17+1
 757 0536 00C0      		rjmp .L76
 758               	.L85:
 759 0538 8081      		ld r24,Z
 760 053a 8530      		cpi r24,lo8(5)
 761 053c 01F0      		breq .L80
 762 053e 8630      		cpi r24,lo8(6)
 763 0540 00F4      		brsh .L83
 764 0542 8130      		cpi r24,lo8(1)
 765 0544 01F0      		breq .L78
 766 0546 8330      		cpi r24,lo8(3)
 767 0548 01F0      		breq .+2
 768 054a 00C0      		rjmp .L77
 769 054c 00C0      		rjmp .L124
 770               	.L83:
 771 054e 8730      		cpi r24,lo8(7)
 772 0550 01F0      		breq .L82
 773 0552 8830      		cpi r24,lo8(8)
 774 0554 01F4      		brne .L77
 775 0556 00C0      		rjmp .L82
 776               	.L78:
 777 0558 8281      		ldd r24,Z+2
 778 055a 9381      		ldd r25,Z+3
 779               	/* #APP */
 780               	 ;  305 "../../nut/include/sys/types.h" 1
 781 055c 082E      		mov __tmp_reg__, r24
 782 055e 892F      		mov r24, r25
 783 0560 902D      		mov r25, __tmp_reg__
 784               		
 785               	 ;  0 "" 2
 786               	/* #NOAPP */
 787 0562 8C5D      		subi r24,lo8(1500)
 788 0564 9540      		sbci r25,hi8(1500)
 789 0566 01F4      		brne .L82
 790 0568 00C0      		rjmp .L77
 791               	.L124:
 792 056a 8281      		ldd r24,Z+2
 793 056c 9381      		ldd r25,Z+3
 794               	/* #APP */
 795               	 ;  305 "../../nut/include/sys/types.h" 1
 796 056e 082E      		mov __tmp_reg__, r24
 797 0570 892F      		mov r24, r25
 798 0572 902D      		mov r25, __tmp_reg__
GAS LISTING C:\DOCUME~1\ADMINI~1\LOCALS~1\Temp/ccllSvDg.s 			page 15


 799               		
 800               	 ;  0 "" 2
 801               	/* #NOAPP */
 802 0574 D501      		movw r26,r10
 803 0576 1F96      		adiw r26,15
 804 0578 2D91      		ld r18,X+
 805 057a 3C91      		ld r19,X
 806 057c 5097      		sbiw r26,15+1
 807 057e 8217      		cp r24,r18
 808 0580 9307      		cpc r25,r19
 809 0582 01F4      		brne .L108
 810 0584 00C0      		rjmp .L77
 811               	.L80:
 812 0586 2281      		ldd r18,Z+2
 813 0588 3381      		ldd r19,Z+3
 814 058a 4481      		ldd r20,Z+4
 815 058c 5581      		ldd r21,Z+5
 816 058e D501      		movw r26,r10
 817 0590 5196      		adiw r26,17
 818 0592 6D90      		ld r6,X+
 819 0594 7D90      		ld r7,X+
 820 0596 8D90      		ld r8,X+
 821 0598 9C90      		ld r9,X
 822 059a 5497      		sbiw r26,17+3
 823 059c 2615      		cp r18,r6
 824 059e 3705      		cpc r19,r7
 825 05a0 4805      		cpc r20,r8
 826 05a2 5905      		cpc r21,r9
 827 05a4 01F4      		brne .L82
 828 05a6 5596      		adiw r26,21
 829 05a8 2D93      		st X+,r18
 830 05aa 3D93      		st X+,r19
 831 05ac 4D93      		st X+,r20
 832 05ae 5C93      		st X,r21
 833 05b0 5897      		sbiw r26,21+3
 834 05b2 00C0      		rjmp .L77
 835               	.L82:
 836 05b4 D501      		movw r26,r10
 837               	.L108:
 838 05b6 1596      		adiw r26,5
 839 05b8 1C92      		st X,__zero_reg__
 840               	.L77:
 841 05ba 8181      		ldd r24,Z+1
 842 05bc 90E0      		ldi r25,lo8(0)
 843 05be 681B      		sub r22,r24
 844 05c0 790B      		sbc r23,r25
 845 05c2 E80F      		add r30,r24
 846 05c4 F91F      		adc r31,r25
 847               	.L76:
 848 05c6 6230      		cpi r22,2
 849 05c8 7105      		cpc r23,__zero_reg__
 850 05ca 00F0      		brlo .+2
 851 05cc 00C0      		rjmp .L85
 852               	.L75:
 853 05ce C701      		movw r24,r14
 854 05d0 0E94 0000 		call NutNetBufFree
 855 05d4 F501      		movw r30,r10
GAS LISTING C:\DOCUME~1\ADMINI~1\LOCALS~1\Temp/ccllSvDg.s 			page 16


 856 05d6 8581      		ldd r24,Z+5
 857 05d8 8823      		tst r24
 858 05da 01F4      		brne .+2
 859 05dc 00C0      		rjmp .L104
 860 05de 8281      		ldd r24,Z+2
 861 05e0 8630      		cpi r24,lo8(6)
 862 05e2 01F0      		breq .L87
 863 05e4 8730      		cpi r24,lo8(7)
 864 05e6 00F4      		brsh .L91
 865 05e8 8250      		subi r24,lo8(-(-2))
 866 05ea 8230      		cpi r24,lo8(2)
 867 05ec 00F0      		brlo .+2
 868 05ee 00C0      		rjmp .L104
 869 05f0 00C0      		rjmp .L125
 870               	.L91:
 871 05f2 8830      		cpi r24,lo8(8)
 872 05f4 01F0      		breq .L89
 873 05f6 8830      		cpi r24,lo8(8)
 874 05f8 00F0      		brlo .L88
 875 05fa 8930      		cpi r24,lo8(9)
 876 05fc 01F0      		breq .+2
 877 05fe 00C0      		rjmp .L104
 878 0600 00C0      		rjmp .L126
 879               	.L125:
 880 0602 C601      		movw r24,r12
 881 0604 66E0      		ldi r22,lo8(6)
 882 0606 412F      		mov r20,r17
 883 0608 00C0      		rjmp .L116
 884               	.L87:
 885 060a 87E0      		ldi r24,lo8(7)
 886 060c D501      		movw r26,r10
 887 060e 1296      		adiw r26,2
 888 0610 8C93      		st X,r24
 889 0612 1297      		sbiw r26,2
 890 0614 D996      		adiw r26,57
 891 0616 1C92      		st X,__zero_reg__
 892 0618 00C0      		rjmp .L104
 893               	.L88:
 894 061a F501      		movw r30,r10
 895 061c 6381      		ldd r22,Z+3
 896 061e 6F5F      		subi r22,lo8(-(1))
 897 0620 6383      		std Z+3,r22
 898 0622 C601      		movw r24,r12
 899 0624 40E0      		ldi r20,lo8(0)
 900 0626 0E94 0000 		call LcpTxConfReq
 901 062a 86E0      		ldi r24,lo8(6)
 902 062c D501      		movw r26,r10
 903 062e 00C0      		rjmp .L113
 904               	.L89:
 905 0630 89E0      		ldi r24,lo8(9)
 906 0632 F501      		movw r30,r10
 907 0634 8283      		std Z+2,r24
 908 0636 FF96      		adiw r30,63
 909 0638 A501      		movw r20,r10
 910 063a 465F      		subi r20,lo8(-(10))
 911 063c 5F4F      		sbci r21,hi8(-(10))
 912 063e 8081      		ld r24,Z
GAS LISTING C:\DOCUME~1\ADMINI~1\LOCALS~1\Temp/ccllSvDg.s 			page 17


 913 0640 9181      		ldd r25,Z+1
 914 0642 6CE2      		ldi r22,lo8(300)
 915 0644 71E0      		ldi r23,hi8(300)
 916 0646 0E94 0000 		call _ioctl
 917 064a D501      		movw r26,r10
 918 064c 1F96      		adiw r26,15
 919 064e 8D91      		ld r24,X+
 920 0650 9C91      		ld r25,X
 921 0652 5097      		sbiw r26,15+1
 922 0654 8352      		subi r24,lo8(-16349)
 923 0656 904C      		sbci r25,hi8(-16349)
 924 0658 01F4      		brne .L92
 925 065a F501      		movw r30,r10
 926 065c 6381      		ldd r22,Z+3
 927 065e 6F5F      		subi r22,lo8(-(1))
 928 0660 6383      		std Z+3,r22
 929 0662 C601      		movw r24,r12
 930 0664 0E94 0000 		call PapTxAuthReq
 931 0668 00C0      		rjmp .L104
 932               	.L92:
 933 066a C601      		movw r24,r12
 934 066c 0E94 0000 		call IpcpLowerUp
 935 0670 00C0      		rjmp .L104
 936               	.L126:
 937 0672 C601      		movw r24,r12
 938 0674 0E94 0000 		call IpcpLowerDown
 939 0678 D501      		movw r26,r10
 940 067a 1396      		adiw r26,3
 941 067c 6C91      		ld r22,X
 942 067e 1397      		sbiw r26,3
 943 0680 6F5F      		subi r22,lo8(-(1))
 944 0682 1396      		adiw r26,3
 945 0684 6C93      		st X,r22
 946 0686 C601      		movw r24,r12
 947 0688 40E0      		ldi r20,lo8(0)
 948 068a 0E94 0000 		call LcpTxConfReq
 949 068e 86E0      		ldi r24,lo8(6)
 950 0690 F501      		movw r30,r10
 951 0692 00C0      		rjmp .L111
 952               	.L26:
 953 0694 C601      		movw r24,r12
 954 0696 6181      		ldd r22,Z+1
 955 0698 A701      		movw r20,r14
 956 069a 20E0      		ldi r18,lo8(0)
 957 069c 00C0      		rjmp .L114
 958               	.L118:
 959 069e C601      		movw r24,r12
 960 06a0 6181      		ldd r22,Z+1
 961 06a2 A701      		movw r20,r14
 962 06a4 21E0      		ldi r18,lo8(1)
 963               	.L114:
 964 06a6 0E94 0000 		call LcpRxConfNakRej
 965 06aa 00C0      		rjmp .L104
 966               	.L28:
 967 06ac 0181      		ldd r16,Z+1
 968 06ae D601      		movw r26,r12
 969 06b0 5196      		adiw r26,17
GAS LISTING C:\DOCUME~1\ADMINI~1\LOCALS~1\Temp/ccllSvDg.s 			page 18


 970 06b2 AD90      		ld r10,X+
 971 06b4 BC90      		ld r11,X
 972 06b6 5297      		sbiw r26,17+1
 973 06b8 C701      		movw r24,r14
 974 06ba 0E94 0000 		call NutNetBufFree
 975 06be F501      		movw r30,r10
 976 06c0 8281      		ldd r24,Z+2
 977 06c2 8730      		cpi r24,lo8(7)
 978 06c4 00F0      		brlo .L93
 979 06c6 8930      		cpi r24,lo8(9)
 980 06c8 00F0      		brlo .L94
 981 06ca 8930      		cpi r24,lo8(9)
 982 06cc 01F4      		brne .L93
 983 06ce 00C0      		rjmp .L127
 984               	.L94:
 985 06d0 86E0      		ldi r24,lo8(6)
 986 06d2 D501      		movw r26,r10
 987 06d4 1296      		adiw r26,2
 988 06d6 8C93      		st X,r24
 989 06d8 00C0      		rjmp .L93
 990               	.L127:
 991 06da C601      		movw r24,r12
 992 06dc 0E94 0000 		call IpcpLowerDown
 993 06e0 F501      		movw r30,r10
 994 06e2 1283      		std Z+2,r17
 995               	.L93:
 996 06e4 C601      		movw r24,r12
 997 06e6 66E0      		ldi r22,lo8(6)
 998 06e8 402F      		mov r20,r16
 999               	.L116:
 1000 06ea 20E0      		ldi r18,lo8(0)
 1001 06ec 30E0      		ldi r19,hi8(0)
 1002 06ee 00C0      		rjmp .L110
 1003               	.L29:
 1004 06f0 D601      		movw r26,r12
 1005 06f2 5196      		adiw r26,17
 1006 06f4 0D91      		ld r16,X+
 1007 06f6 1C91      		ld r17,X
 1008 06f8 5297      		sbiw r26,17+1
 1009 06fa C701      		movw r24,r14
 1010 06fc 0E94 0000 		call NutNetBufFree
 1011 0700 F801      		movw r30,r16
 1012 0702 8281      		ldd r24,Z+2
 1013 0704 8530      		cpi r24,lo8(5)
 1014 0706 01F0      		breq .L97
 1015 0708 8630      		cpi r24,lo8(6)
 1016 070a 00F4      		brsh .L100
 1017 070c 8430      		cpi r24,lo8(4)
 1018 070e 01F0      		breq .+2
 1019 0710 00C0      		rjmp .L104
 1020 0712 00C0      		rjmp .L128
 1021               	.L100:
 1022 0714 8730      		cpi r24,lo8(7)
 1023 0716 01F0      		breq .L98
 1024 0718 8930      		cpi r24,lo8(9)
 1025 071a 01F0      		breq .+2
 1026 071c 00C0      		rjmp .L104
GAS LISTING C:\DOCUME~1\ADMINI~1\LOCALS~1\Temp/ccllSvDg.s 			page 19


 1027 071e 00C0      		rjmp .L129
 1028               	.L128:
 1029 0720 82E0      		ldi r24,lo8(2)
 1030 0722 00C0      		rjmp .L112
 1031               	.L97:
 1032 0724 83E0      		ldi r24,lo8(3)
 1033               	.L115:
 1034 0726 F801      		movw r30,r16
 1035 0728 00C0      		rjmp .L111
 1036               	.L98:
 1037 072a 86E0      		ldi r24,lo8(6)
 1038               	.L112:
 1039 072c D801      		movw r26,r16
 1040               	.L113:
 1041 072e 1296      		adiw r26,2
 1042 0730 8C93      		st X,r24
 1043 0732 00C0      		rjmp .L104
 1044               	.L129:
 1045 0734 C601      		movw r24,r12
 1046 0736 0E94 0000 		call IpcpLowerDown
 1047 073a F801      		movw r30,r16
 1048 073c 6381      		ldd r22,Z+3
 1049 073e 6F5F      		subi r22,lo8(-(1))
 1050 0740 6383      		std Z+3,r22
 1051 0742 C601      		movw r24,r12
 1052 0744 40E0      		ldi r20,lo8(0)
 1053 0746 0E94 0000 		call LcpTxConfReq
 1054 074a 00C0      		rjmp .L104
 1055               	.L119:
 1056 074c D601      		movw r26,r12
 1057 074e 5196      		adiw r26,17
 1058 0750 0D91      		ld r16,X+
 1059 0752 1C91      		ld r17,X
 1060 0754 5297      		sbiw r26,17+1
 1061 0756 C701      		movw r24,r14
 1062 0758 0E94 0000 		call NutNetBufFree
 1063 075c F801      		movw r30,r16
 1064 075e 8281      		ldd r24,Z+2
 1065 0760 8730      		cpi r24,lo8(7)
 1066 0762 01F4      		brne .L104
 1067 0764 86E0      		ldi r24,lo8(6)
 1068               	.L111:
 1069 0766 8283      		std Z+2,r24
 1070 0768 00C0      		rjmp .L104
 1071               	.L31:
 1072 076a 4181      		ldd r20,Z+1
 1073 076c D601      		movw r26,r12
 1074 076e 5196      		adiw r26,17
 1075 0770 2D91      		ld r18,X+
 1076 0772 3C91      		ld r19,X
 1077 0774 5297      		sbiw r26,17+1
 1078 0776 D901      		movw r26,r18
 1079 0778 1296      		adiw r26,2
 1080 077a 8C91      		ld r24,X
 1081 077c 8930      		cpi r24,lo8(9)
 1082 077e 01F4      		brne .L23
 1083               	.L101:
GAS LISTING C:\DOCUME~1\ADMINI~1\LOCALS~1\Temp/ccllSvDg.s 			page 20


 1084 0780 D901      		movw r26,r18
 1085 0782 5596      		adiw r26,21
 1086 0784 0D91      		ld r16,X+
 1087 0786 1D91      		ld r17,X+
 1088 0788 2D91      		ld r18,X+
 1089 078a 3C91      		ld r19,X
 1090 078c 5897      		sbiw r26,21+3
 1091 078e 0483      		std Z+4,r16
 1092 0790 1583      		std Z+5,r17
 1093 0792 2683      		std Z+6,r18
 1094 0794 3783      		std Z+7,r19
 1095 0796 C601      		movw r24,r12
 1096 0798 6AE0      		ldi r22,lo8(10)
 1097 079a 9701      		movw r18,r14
 1098               	.L110:
 1099 079c 0E94 0000 		call NutLcpOutput
 1100 07a0 00C0      		rjmp .L104
 1101               	.L23:
 1102 07a2 C701      		movw r24,r14
 1103 07a4 0E94 0000 		call NutNetBufFree
 1104 07a8 00C0      		rjmp .L104
 1105               	.L67:
 1106 07aa 8A81      		ldd r24,Y+2
 1107 07ac 9B81      		ldd r25,Y+3
 1108 07ae 8E17      		cp r24,r30
 1109 07b0 9F07      		cpc r25,r31
 1110 07b2 01F0      		breq .+2
 1111 07b4 00C0      		rjmp .L102
 1112 07b6 00C0      		rjmp .L103
 1113               	.L104:
 1114               	/* epilogue start */
 1115 07b8 2796      		adiw r28,7
 1116 07ba 0FB6      		in __tmp_reg__,__SREG__
 1117 07bc F894      		cli
 1118 07be DEBF      		out __SP_H__,r29
 1119 07c0 0FBE      		out __SREG__,__tmp_reg__
 1120 07c2 CDBF      		out __SP_L__,r28
 1121 07c4 CF91      		pop r28
 1122 07c6 DF91      		pop r29
 1123 07c8 1F91      		pop r17
 1124 07ca 0F91      		pop r16
 1125 07cc FF90      		pop r15
 1126 07ce EF90      		pop r14
 1127 07d0 DF90      		pop r13
 1128 07d2 CF90      		pop r12
 1129 07d4 BF90      		pop r11
 1130 07d6 AF90      		pop r10
 1131 07d8 9F90      		pop r9
 1132 07da 8F90      		pop r8
 1133 07dc 7F90      		pop r7
 1134 07de 6F90      		pop r6
 1135 07e0 5F90      		pop r5
 1136 07e2 4F90      		pop r4
 1137 07e4 3F90      		pop r3
 1138 07e6 2F90      		pop r2
 1139 07e8 0895      		ret
 1140               		.size	NutLcpInput, .-NutLcpInput
GAS LISTING C:\DOCUME~1\ADMINI~1\LOCALS~1\Temp/ccllSvDg.s 			page 21


 1141               	.global	LcpRxProtRej
 1142               		.type	LcpRxProtRej, @function
 1143               	LcpRxProtRej:
 1144 07ea 0F93      		push r16
 1145 07ec 1F93      		push r17
 1146 07ee CF93      		push r28
 1147 07f0 DF93      		push r29
 1148               	/* prologue: function */
 1149               	/* frame size = 0 */
 1150 07f2 EC01      		movw r28,r24
 1151 07f4 0989      		ldd r16,Y+17
 1152 07f6 1A89      		ldd r17,Y+18
 1153 07f8 F801      		movw r30,r16
 1154 07fa 8281      		ldd r24,Z+2
 1155 07fc 8430      		cpi r24,lo8(4)
 1156 07fe 01F0      		breq .L132
 1157 0800 8530      		cpi r24,lo8(5)
 1158 0802 00F4      		brsh .L135
 1159 0804 8230      		cpi r24,lo8(2)
 1160 0806 01F0      		breq .L132
 1161 0808 8330      		cpi r24,lo8(3)
 1162 080a 01F4      		brne .L136
 1163 080c 00C0      		rjmp .L133
 1164               	.L135:
 1165 080e 8930      		cpi r24,lo8(9)
 1166 0810 00F0      		brlo .L133
 1167 0812 8930      		cpi r24,lo8(9)
 1168 0814 01F4      		brne .L136
 1169 0816 00C0      		rjmp .L138
 1170               	.L132:
 1171 0818 82E0      		ldi r24,lo8(2)
 1172 081a 00C0      		rjmp .L137
 1173               	.L133:
 1174 081c 83E0      		ldi r24,lo8(3)
 1175 081e 00C0      		rjmp .L137
 1176               	.L138:
 1177 0820 CE01      		movw r24,r28
 1178 0822 0E94 0000 		call IpcpLowerDown
 1179 0826 CE01      		movw r24,r28
 1180 0828 65E0      		ldi r22,lo8(5)
 1181 082a F801      		movw r30,r16
 1182 082c 4381      		ldd r20,Z+3
 1183 082e 20E0      		ldi r18,lo8(0)
 1184 0830 30E0      		ldi r19,hi8(0)
 1185 0832 0E94 0000 		call NutIpcpOutput
 1186 0836 85E0      		ldi r24,lo8(5)
 1187               	.L137:
 1188 0838 F801      		movw r30,r16
 1189 083a 8283      		std Z+2,r24
 1190               	.L136:
 1191               	/* epilogue start */
 1192 083c DF91      		pop r29
 1193 083e CF91      		pop r28
 1194 0840 1F91      		pop r17
 1195 0842 0F91      		pop r16
 1196 0844 0895      		ret
 1197               		.size	LcpRxProtRej, .-LcpRxProtRej
GAS LISTING C:\DOCUME~1\ADMINI~1\LOCALS~1\Temp/ccllSvDg.s 			page 22


GAS LISTING C:\DOCUME~1\ADMINI~1\LOCALS~1\Temp/ccllSvDg.s 			page 23


DEFINED SYMBOLS
                            *ABS*:00000000 lcpin.c
C:\DOCUME~1\ADMINI~1\LOCALS~1\Temp/ccllSvDg.s:2      *ABS*:0000003f __SREG__
C:\DOCUME~1\ADMINI~1\LOCALS~1\Temp/ccllSvDg.s:3      *ABS*:0000003e __SP_H__
C:\DOCUME~1\ADMINI~1\LOCALS~1\Temp/ccllSvDg.s:4      *ABS*:0000003d __SP_L__
C:\DOCUME~1\ADMINI~1\LOCALS~1\Temp/ccllSvDg.s:5      *ABS*:00000034 __CCP__
C:\DOCUME~1\ADMINI~1\LOCALS~1\Temp/ccllSvDg.s:6      *ABS*:00000000 __tmp_reg__
C:\DOCUME~1\ADMINI~1\LOCALS~1\Temp/ccllSvDg.s:7      *ABS*:00000001 __zero_reg__
C:\DOCUME~1\ADMINI~1\LOCALS~1\Temp/ccllSvDg.s:10     .text:00000000 LcpRxConfNakRej
C:\DOCUME~1\ADMINI~1\LOCALS~1\Temp/ccllSvDg.s:118    .text:000000c2 NutLcpInput
C:\DOCUME~1\ADMINI~1\LOCALS~1\Temp/ccllSvDg.s:1143   .text:000007ea LcpRxProtRej

UNDEFINED SYMBOLS
NutNetBufFree
NutLcpOutput
LcpTxConfReq
IpcpLowerDown
new_magic
_ioctl
PapTxAuthReq
IpcpLowerUp
NutIpcpOutput
