GAS LISTING C:\DOCUME~1\ADMINI~1\LOCALS~1\Temp/ccyOgKkn.s 			page 1


   1               		.file	"pppout.c"
   2               	__SREG__ = 0x3f
   3               	__SP_H__ = 0x3e
   4               	__SP_L__ = 0x3d
   5               	__CCP__  = 0x34
   6               	__tmp_reg__ = 0
   7               	__zero_reg__ = 1
   8               		.text
   9               	.global	NutPppOutput
  10               		.type	NutPppOutput, @function
  11               	NutPppOutput:
  12 0000 CF92      		push r12
  13 0002 DF92      		push r13
  14 0004 EF92      		push r14
  15 0006 FF92      		push r15
  16 0008 0F93      		push r16
  17 000a 1F93      		push r17
  18 000c CF93      		push r28
  19 000e DF93      		push r29
  20               	/* prologue: function */
  21               	/* frame size = 0 */
  22 0010 FC01      		movw r30,r24
  23 0012 EB01      		movw r28,r22
  24 0014 7901      		movw r14,r18
  25 0016 C784      		ldd r12,Z+15
  26 0018 D088      		ldd r13,Z+16
  27 001a 0189      		ldd r16,Z+17
  28 001c 1289      		ldd r17,Z+18
  29 001e C901      		movw r24,r18
  30 0020 60E1      		ldi r22,lo8(16)
  31 0022 44E0      		ldi r20,lo8(4)
  32 0024 50E0      		ldi r21,hi8(4)
  33 0026 0E94 0000 		call NutNetBufAlloc
  34 002a 892B      		or r24,r25
  35 002c 01F0      		breq .L6
  36               	.L2:
  37 002e D701      		movw r26,r14
  38 0030 1396      		adiw r26,3
  39 0032 ED91      		ld r30,X+
  40 0034 FC91      		ld r31,X
  41 0036 1497      		sbiw r26,3+1
  42 0038 8FEF      		ldi r24,lo8(-1)
  43 003a 8083      		st Z,r24
  44 003c 83E0      		ldi r24,lo8(3)
  45 003e 8183      		std Z+1,r24
  46               	/* #APP */
  47               	 ;  305 "../../nut/include/sys/types.h" 1
  48 0040 0C2E      		mov __tmp_reg__, r28
  49 0042 CD2F      		mov r28, r29
  50 0044 D02D      		mov r29, __tmp_reg__
  51               		
  52               	 ;  0 "" 2
  53               	/* #NOAPP */
  54 0046 D383      		std Z+3,r29
  55 0048 C283      		std Z+2,r28
  56 004a F601      		movw r30,r12
  57 004c 21A1      		ldd r18,Z+33
GAS LISTING C:\DOCUME~1\ADMINI~1\LOCALS~1\Temp/ccyOgKkn.s 			page 2


  58 004e 32A1      		ldd r19,Z+34
  59 0050 2115      		cp r18,__zero_reg__
  60 0052 3105      		cpc r19,__zero_reg__
  61 0054 01F0      		breq .L4
  62 0056 015C      		subi r16,lo8(-(63))
  63 0058 1F4F      		sbci r17,hi8(-(63))
  64 005a D801      		movw r26,r16
  65 005c ED91      		ld r30,X+
  66 005e FC91      		ld r31,X
  67 0060 8281      		ldd r24,Z+2
  68 0062 9381      		ldd r25,Z+3
  69 0064 B701      		movw r22,r14
  70 0066 F901      		movw r30,r18
  71 0068 0995      		icall
  72 006a 892B      		or r24,r25
  73 006c 01F4      		brne .L4
  74 006e 20E0      		ldi r18,lo8(0)
  75 0070 30E0      		ldi r19,hi8(0)
  76 0072 00C0      		rjmp .L3
  77               	.L4:
  78 0074 C701      		movw r24,r14
  79 0076 0E94 0000 		call NutNetBufFree
  80               	.L6:
  81 007a 2FEF      		ldi r18,lo8(-1)
  82 007c 3FEF      		ldi r19,hi8(-1)
  83               	.L3:
  84 007e C901      		movw r24,r18
  85               	/* epilogue start */
  86 0080 DF91      		pop r29
  87 0082 CF91      		pop r28
  88 0084 1F91      		pop r17
  89 0086 0F91      		pop r16
  90 0088 FF90      		pop r15
  91 008a EF90      		pop r14
  92 008c DF90      		pop r13
  93 008e CF90      		pop r12
  94 0090 0895      		ret
  95               		.size	NutPppOutput, .-NutPppOutput
GAS LISTING C:\DOCUME~1\ADMINI~1\LOCALS~1\Temp/ccyOgKkn.s 			page 3


DEFINED SYMBOLS
                            *ABS*:00000000 pppout.c
C:\DOCUME~1\ADMINI~1\LOCALS~1\Temp/ccyOgKkn.s:2      *ABS*:0000003f __SREG__
C:\DOCUME~1\ADMINI~1\LOCALS~1\Temp/ccyOgKkn.s:3      *ABS*:0000003e __SP_H__
C:\DOCUME~1\ADMINI~1\LOCALS~1\Temp/ccyOgKkn.s:4      *ABS*:0000003d __SP_L__
C:\DOCUME~1\ADMINI~1\LOCALS~1\Temp/ccyOgKkn.s:5      *ABS*:00000034 __CCP__
C:\DOCUME~1\ADMINI~1\LOCALS~1\Temp/ccyOgKkn.s:6      *ABS*:00000000 __tmp_reg__
C:\DOCUME~1\ADMINI~1\LOCALS~1\Temp/ccyOgKkn.s:7      *ABS*:00000001 __zero_reg__
C:\DOCUME~1\ADMINI~1\LOCALS~1\Temp/ccyOgKkn.s:11     .text:00000000 NutPppOutput

UNDEFINED SYMBOLS
NutNetBufAlloc
NutNetBufFree
