GAS LISTING C:\DOCUME~1\ADMINI~1\LOCALS~1\Temp/ccYn36z1.s 			page 1


   1               		.file	"udpsock.c"
   2               	__SREG__ = 0x3f
   3               	__SP_H__ = 0x3e
   4               	__SP_L__ = 0x3d
   5               	__CCP__  = 0x34
   6               	__tmp_reg__ = 0
   7               	__zero_reg__ = 1
   8               		.text
   9               	.global	NutUdpError
  10               		.type	NutUdpError, @function
  11               	NutUdpError:
  12 0000 CF93      		push r28
  13 0002 DF93      		push r29
  14               	/* prologue: function */
  15               	/* frame size = 0 */
  16 0004 FC01      		movw r30,r24
  17 0006 EB01      		movw r28,r22
  18 0008 DA01      		movw r26,r20
  19 000a 0097      		sbiw r24,0
  20 000c 01F4      		brne .L2
  21 000e 26E2      		ldi r18,lo8(38)
  22 0010 30E0      		ldi r19,hi8(38)
  23 0012 00C0      		rjmp .L3
  24               	.L2:
  25 0014 8485      		ldd r24,Z+12
  26 0016 9585      		ldd r25,Z+13
  27 0018 0097      		sbiw r24,0
  28 001a 01F4      		brne .L4
  29 001c 20E0      		ldi r18,lo8(0)
  30 001e 30E0      		ldi r19,hi8(0)
  31 0020 00C0      		rjmp .L3
  32               	.L4:
  33 0022 9C01      		movw r18,r24
  34 0024 8289      		ldd r24,Z+18
  35 0026 9389      		ldd r25,Z+19
  36               	/* #APP */
  37               	 ;  305 "../../nut/include/sys/types.h" 1
  38 0028 082E      		mov __tmp_reg__, r24
  39 002a 892F      		mov r24, r25
  40 002c 902D      		mov r25, __tmp_reg__
  41               		
  42               	 ;  0 "" 2
  43               	/* #NOAPP */
  44 002e 8D93      		st X+,r24
  45 0030 9C93      		st X,r25
  46 0032 8685      		ldd r24,Z+14
  47 0034 9785      		ldd r25,Z+15
  48 0036 A089      		ldd r26,Z+16
  49 0038 B189      		ldd r27,Z+17
  50 003a 8883      		st Y,r24
  51 003c 9983      		std Y+1,r25
  52 003e AA83      		std Y+2,r26
  53 0040 BB83      		std Y+3,r27
  54 0042 1586      		std Z+13,__zero_reg__
  55 0044 1486      		std Z+12,__zero_reg__
  56 0046 138A      		std Z+19,__zero_reg__
  57 0048 128A      		std Z+18,__zero_reg__
GAS LISTING C:\DOCUME~1\ADMINI~1\LOCALS~1\Temp/ccYn36z1.s 			page 2


  58 004a 1686      		std Z+14,__zero_reg__
  59 004c 1786      		std Z+15,__zero_reg__
  60 004e 108A      		std Z+16,__zero_reg__
  61 0050 118A      		std Z+17,__zero_reg__
  62               	.L3:
  63 0052 C901      		movw r24,r18
  64               	/* epilogue start */
  65 0054 DF91      		pop r29
  66 0056 CF91      		pop r28
  67 0058 0895      		ret
  68               		.size	NutUdpError, .-NutUdpError
  69               	.global	NutUdpFindSocket
  70               		.type	NutUdpFindSocket, @function
  71               	NutUdpFindSocket:
  72               	/* prologue: function */
  73               	/* frame size = 0 */
  74 005a 9C01      		movw r18,r24
  75 005c E091 0000 		lds r30,udpSocketList
  76 0060 F091 0000 		lds r31,(udpSocketList)+1
  77 0064 00C0      		rjmp .L7
  78               	.L10:
  79 0066 8281      		ldd r24,Z+2
  80 0068 9381      		ldd r25,Z+3
  81 006a 8217      		cp r24,r18
  82 006c 9307      		cpc r25,r19
  83 006e 01F4      		brne .L8
  84 0070 9F01      		movw r18,r30
  85 0072 00C0      		rjmp .L9
  86               	.L8:
  87 0074 0190      		ld __tmp_reg__,Z+
  88 0076 F081      		ld r31,Z
  89 0078 E02D      		mov r30,__tmp_reg__
  90               	.L7:
  91 007a 3097      		sbiw r30,0
  92 007c 01F4      		brne .L10
  93 007e 20E0      		ldi r18,lo8(0)
  94 0080 30E0      		ldi r19,hi8(0)
  95               	.L9:
  96 0082 C901      		movw r24,r18
  97               	/* epilogue start */
  98 0084 0895      		ret
  99               		.size	NutUdpFindSocket, .-NutUdpFindSocket
 100               	.global	NutUdpSetSockOpt
 101               		.type	NutUdpSetSockOpt, @function
 102               	NutUdpSetSockOpt:
 103               	/* prologue: function */
 104               	/* frame size = 0 */
 105 0086 DC01      		movw r26,r24
 106 0088 FA01      		movw r30,r20
 107 008a 0097      		sbiw r24,0
 108 008c 01F0      		breq .L13
 109 008e 6250      		subi r22,lo8(4098)
 110 0090 7041      		sbci r23,hi8(4098)
 111 0092 01F4      		brne .L13
 112 0094 4115      		cp r20,__zero_reg__
 113 0096 5105      		cpc r21,__zero_reg__
 114 0098 01F0      		breq .L13
GAS LISTING C:\DOCUME~1\ADMINI~1\LOCALS~1\Temp/ccYn36z1.s 			page 3


 115 009a 2230      		cpi r18,2
 116 009c 3105      		cpc r19,__zero_reg__
 117 009e 01F4      		brne .L13
 118 00a0 8081      		ld r24,Z
 119 00a2 9181      		ldd r25,Z+1
 120 00a4 1B96      		adiw r26,10+1
 121 00a6 9C93      		st X,r25
 122 00a8 8E93      		st -X,r24
 123 00aa 1A97      		sbiw r26,10
 124 00ac 20E0      		ldi r18,lo8(0)
 125 00ae 30E0      		ldi r19,hi8(0)
 126 00b0 00C0      		rjmp .L15
 127               	.L13:
 128 00b2 2FEF      		ldi r18,lo8(-1)
 129 00b4 3FEF      		ldi r19,hi8(-1)
 130               	.L15:
 131 00b6 C901      		movw r24,r18
 132               	/* epilogue start */
 133 00b8 0895      		ret
 134               		.size	NutUdpSetSockOpt, .-NutUdpSetSockOpt
 135               	.global	NutUdpGetSockOpt
 136               		.type	NutUdpGetSockOpt, @function
 137               	NutUdpGetSockOpt:
 138               	/* prologue: function */
 139               	/* frame size = 0 */
 140 00ba DC01      		movw r26,r24
 141 00bc FA01      		movw r30,r20
 142 00be 0097      		sbiw r24,0
 143 00c0 01F0      		breq .L18
 144 00c2 6250      		subi r22,lo8(4098)
 145 00c4 7041      		sbci r23,hi8(4098)
 146 00c6 01F4      		brne .L18
 147 00c8 4115      		cp r20,__zero_reg__
 148 00ca 5105      		cpc r21,__zero_reg__
 149 00cc 01F0      		breq .L18
 150 00ce 2230      		cpi r18,2
 151 00d0 3105      		cpc r19,__zero_reg__
 152 00d2 01F4      		brne .L18
 153 00d4 1A96      		adiw r26,10
 154 00d6 8D91      		ld r24,X+
 155 00d8 9C91      		ld r25,X
 156 00da 1B97      		sbiw r26,10+1
 157 00dc 9183      		std Z+1,r25
 158 00de 8083      		st Z,r24
 159 00e0 20E0      		ldi r18,lo8(0)
 160 00e2 30E0      		ldi r19,hi8(0)
 161 00e4 00C0      		rjmp .L20
 162               	.L18:
 163 00e6 2FEF      		ldi r18,lo8(-1)
 164 00e8 3FEF      		ldi r19,hi8(-1)
 165               	.L20:
 166 00ea C901      		movw r24,r18
 167               	/* epilogue start */
 168 00ec 0895      		ret
 169               		.size	NutUdpGetSockOpt, .-NutUdpGetSockOpt
 170               	.global	NutUdpSetSocketError
 171               		.type	NutUdpSetSocketError, @function
GAS LISTING C:\DOCUME~1\ADMINI~1\LOCALS~1\Temp/ccYn36z1.s 			page 4


 172               	NutUdpSetSocketError:
 173 00ee 0F93      		push r16
 174 00f0 1F93      		push r17
 175               	/* prologue: function */
 176               	/* frame size = 0 */
 177 00f2 FC01      		movw r30,r24
 178 00f4 0097      		sbiw r24,0
 179 00f6 01F4      		brne .L23
 180 00f8 2FEF      		ldi r18,lo8(-1)
 181 00fa 3FEF      		ldi r19,hi8(-1)
 182 00fc 00C0      		rjmp .L24
 183               	.L23:
 184 00fe 4687      		std Z+14,r20
 185 0100 5787      		std Z+15,r21
 186 0102 608B      		std Z+16,r22
 187 0104 718B      		std Z+17,r23
 188 0106 338B      		std Z+19,r19
 189 0108 228B      		std Z+18,r18
 190 010a 1587      		std Z+13,r17
 191 010c 0487      		std Z+12,r16
 192 010e 8681      		ldd r24,Z+6
 193 0110 9781      		ldd r25,Z+7
 194 0112 892B      		or r24,r25
 195 0114 01F0      		breq .L27
 196               	.L25:
 197 0116 CF01      		movw r24,r30
 198 0118 0696      		adiw r24,6
 199 011a 0E94 0000 		call NutEventPost
 200               	.L27:
 201 011e 20E0      		ldi r18,lo8(0)
 202 0120 30E0      		ldi r19,hi8(0)
 203               	.L24:
 204 0122 C901      		movw r24,r18
 205               	/* epilogue start */
 206 0124 1F91      		pop r17
 207 0126 0F91      		pop r16
 208 0128 0895      		ret
 209               		.size	NutUdpSetSocketError, .-NutUdpSetSocketError
 210               	.global	NutUdpDestroySocket
 211               		.type	NutUdpDestroySocket, @function
 212               	NutUdpDestroySocket:
 213 012a CF93      		push r28
 214 012c DF93      		push r29
 215               	/* prologue: function */
 216               	/* frame size = 0 */
 217 012e EC01      		movw r28,r24
 218 0130 E091 0000 		lds r30,udpSocketList
 219 0134 F091 0000 		lds r31,(udpSocketList)+1
 220 0138 A0E0      		ldi r26,lo8(udpSocketList)
 221 013a B0E0      		ldi r27,hi8(udpSocketList)
 222 013c 00C0      		rjmp .L29
 223               	.L34:
 224 013e EC17      		cp r30,r28
 225 0140 FD07      		cpc r31,r29
 226 0142 01F4      		brne .L30
 227 0144 8881      		ld r24,Y
 228 0146 9981      		ldd r25,Y+1
GAS LISTING C:\DOCUME~1\ADMINI~1\LOCALS~1\Temp/ccYn36z1.s 			page 5


 229 0148 8D93      		st X+,r24
 230 014a 9C93      		st X,r25
 231 014c 00C0      		rjmp .L31
 232               	.L32:
 233 014e 8081      		ld r24,Z
 234 0150 9181      		ldd r25,Z+1
 235 0152 9D83      		std Y+5,r25
 236 0154 8C83      		std Y+4,r24
 237 0156 CF01      		movw r24,r30
 238 0158 0E94 0000 		call NutNetBufFree
 239               	.L31:
 240 015c EC81      		ldd r30,Y+4
 241 015e FD81      		ldd r31,Y+5
 242 0160 3097      		sbiw r30,0
 243 0162 01F4      		brne .L32
 244 0164 CE01      		movw r24,r28
 245 0166 0E94 0000 		call free
 246 016a 20E0      		ldi r18,lo8(0)
 247 016c 30E0      		ldi r19,hi8(0)
 248 016e 00C0      		rjmp .L33
 249               	.L30:
 250 0170 DF01      		movw r26,r30
 251 0172 0190      		ld __tmp_reg__,Z+
 252 0174 F081      		ld r31,Z
 253 0176 E02D      		mov r30,__tmp_reg__
 254               	.L29:
 255 0178 3097      		sbiw r30,0
 256 017a 01F4      		brne .L34
 257 017c 2FEF      		ldi r18,lo8(-1)
 258 017e 3FEF      		ldi r19,hi8(-1)
 259               	.L33:
 260 0180 C901      		movw r24,r18
 261               	/* epilogue start */
 262 0182 DF91      		pop r29
 263 0184 CF91      		pop r28
 264 0186 0895      		ret
 265               		.size	NutUdpDestroySocket, .-NutUdpDestroySocket
 266               	.global	NutUdpReceiveFrom
 267               		.type	NutUdpReceiveFrom, @function
 268               	NutUdpReceiveFrom:
 269 0188 4F92      		push r4
 270 018a 5F92      		push r5
 271 018c 6F92      		push r6
 272 018e 7F92      		push r7
 273 0190 8F92      		push r8
 274 0192 9F92      		push r9
 275 0194 AF92      		push r10
 276 0196 BF92      		push r11
 277 0198 CF92      		push r12
 278 019a DF92      		push r13
 279 019c EF92      		push r14
 280 019e FF92      		push r15
 281 01a0 0F93      		push r16
 282 01a2 1F93      		push r17
 283 01a4 CF93      		push r28
 284 01a6 DF93      		push r29
 285               	/* prologue: function */
GAS LISTING C:\DOCUME~1\ADMINI~1\LOCALS~1\Temp/ccYn36z1.s 			page 6


 286               	/* frame size = 0 */
 287 01a8 5C01      		movw r10,r24
 288 01aa 4B01      		movw r8,r22
 289 01ac 3A01      		movw r6,r20
 290 01ae 522E      		mov r5,r18
 291 01b0 432E      		mov r4,r19
 292 01b2 FC01      		movw r30,r24
 293 01b4 8481      		ldd r24,Z+4
 294 01b6 9581      		ldd r25,Z+5
 295 01b8 892B      		or r24,r25
 296 01ba 01F4      		brne .L37
 297 01bc C501      		movw r24,r10
 298 01be 0696      		adiw r24,6
 299 01c0 B701      		movw r22,r14
 300 01c2 A601      		movw r20,r12
 301 01c4 0E94 0000 		call NutEventWait
 302               	.L37:
 303 01c8 F501      		movw r30,r10
 304 01ca C481      		ldd r28,Z+4
 305 01cc D581      		ldd r29,Z+5
 306 01ce 2097      		sbiw r28,0
 307 01d0 01F4      		brne .L38
 308 01d2 00E0      		ldi r16,lo8(0)
 309 01d4 10E0      		ldi r17,hi8(0)
 310 01d6 00C0      		rjmp .L39
 311               	.L38:
 312 01d8 8881      		ld r24,Y
 313 01da 9981      		ldd r25,Y+1
 314 01dc F501      		movw r30,r10
 315 01de 9583      		std Z+5,r25
 316 01e0 8483      		std Z+4,r24
 317 01e2 EF81      		ldd r30,Y+7
 318 01e4 F885      		ldd r31,Y+8
 319 01e6 8485      		ldd r24,Z+12
 320 01e8 9585      		ldd r25,Z+13
 321 01ea A685      		ldd r26,Z+14
 322 01ec B785      		ldd r27,Z+15
 323 01ee F401      		movw r30,r8
 324 01f0 8083      		st Z,r24
 325 01f2 9183      		std Z+1,r25
 326 01f4 A283      		std Z+2,r26
 327 01f6 B383      		std Z+3,r27
 328 01f8 EB85      		ldd r30,Y+11
 329 01fa FC85      		ldd r31,Y+12
 330 01fc 8081      		ld r24,Z
 331 01fe 9181      		ldd r25,Z+1
 332               	/* #APP */
 333               	 ;  305 "../../nut/include/sys/types.h" 1
 334 0200 082E      		mov __tmp_reg__, r24
 335 0202 892F      		mov r24, r25
 336 0204 902D      		mov r25, __tmp_reg__
 337               		
 338               	 ;  0 "" 2
 339               	/* #NOAPP */
 340 0206 F301      		movw r30,r6
 341 0208 9183      		std Z+1,r25
 342 020a 8083      		st Z,r24
GAS LISTING C:\DOCUME~1\ADMINI~1\LOCALS~1\Temp/ccYn36z1.s 			page 7


 343 020c 4989      		ldd r20,Y+17
 344 020e 5A89      		ldd r21,Y+18
 345 0210 4017      		cp r20,r16
 346 0212 5107      		cpc r21,r17
 347 0214 04F4      		brge .L40
 348 0216 8A01      		movw r16,r20
 349               	.L40:
 350 0218 F501      		movw r30,r10
 351 021a 8085      		ldd r24,Z+8
 352 021c 9185      		ldd r25,Z+9
 353 021e 841B      		sub r24,r20
 354 0220 950B      		sbc r25,r21
 355 0222 9187      		std Z+9,r25
 356 0224 8087      		std Z+8,r24
 357 0226 6F85      		ldd r22,Y+15
 358 0228 7889      		ldd r23,Y+16
 359 022a 852D      		mov r24,r5
 360 022c 942D      		mov r25,r4
 361 022e A801      		movw r20,r16
 362 0230 0E94 0000 		call memcpy
 363 0234 CE01      		movw r24,r28
 364 0236 0E94 0000 		call NutNetBufFree
 365               	.L39:
 366 023a C801      		movw r24,r16
 367               	/* epilogue start */
 368 023c DF91      		pop r29
 369 023e CF91      		pop r28
 370 0240 1F91      		pop r17
 371 0242 0F91      		pop r16
 372 0244 FF90      		pop r15
 373 0246 EF90      		pop r14
 374 0248 DF90      		pop r13
 375 024a CF90      		pop r12
 376 024c BF90      		pop r11
 377 024e AF90      		pop r10
 378 0250 9F90      		pop r9
 379 0252 8F90      		pop r8
 380 0254 7F90      		pop r7
 381 0256 6F90      		pop r6
 382 0258 5F90      		pop r5
 383 025a 4F90      		pop r4
 384 025c 0895      		ret
 385               		.size	NutUdpReceiveFrom, .-NutUdpReceiveFrom
 386               	.global	NutUdpSendTo
 387               		.type	NutUdpSendTo, @function
 388               	NutUdpSendTo:
 389 025e 6F92      		push r6
 390 0260 7F92      		push r7
 391 0262 8F92      		push r8
 392 0264 9F92      		push r9
 393 0266 AF92      		push r10
 394 0268 BF92      		push r11
 395 026a CF92      		push r12
 396 026c DF92      		push r13
 397 026e EF92      		push r14
 398 0270 FF92      		push r15
 399 0272 0F93      		push r16
GAS LISTING C:\DOCUME~1\ADMINI~1\LOCALS~1\Temp/ccYn36z1.s 			page 8


 400 0274 1F93      		push r17
 401 0276 CF93      		push r28
 402 0278 DF93      		push r29
 403               	/* prologue: function */
 404               	/* frame size = 0 */
 405 027a 4C01      		movw r8,r24
 406 027c 5A01      		movw r10,r20
 407 027e 6B01      		movw r12,r22
 408 0280 3901      		movw r6,r18
 409 0282 80E0      		ldi r24,lo8(0)
 410 0284 90E0      		ldi r25,hi8(0)
 411 0286 60E8      		ldi r22,lo8(-128)
 412 0288 A701      		movw r20,r14
 413 028a 0E94 0000 		call NutNetBufAlloc
 414 028e EC01      		movw r28,r24
 415 0290 0097      		sbiw r24,0
 416 0292 01F4      		brne .L44
 417 0294 8CE0      		ldi r24,lo8(12)
 418 0296 90E0      		ldi r25,hi8(12)
 419 0298 F401      		movw r30,r8
 420 029a 9587      		std Z+13,r25
 421 029c 8487      		std Z+12,r24
 422 029e 0FEF      		ldi r16,lo8(-1)
 423 02a0 1FEF      		ldi r17,hi8(-1)
 424 02a2 00C0      		rjmp .L45
 425               	.L44:
 426 02a4 8F85      		ldd r24,Y+15
 427 02a6 9889      		ldd r25,Y+16
 428 02a8 B801      		movw r22,r16
 429 02aa A701      		movw r20,r14
 430 02ac 0E94 0000 		call memcpy
 431 02b0 C401      		movw r24,r8
 432 02b2 B601      		movw r22,r12
 433 02b4 A501      		movw r20,r10
 434 02b6 9301      		movw r18,r6
 435 02b8 8E01      		movw r16,r28
 436 02ba 0E94 0000 		call NutUdpOutput
 437 02be 8C01      		movw r16,r24
 438 02c0 0097      		sbiw r24,0
 439 02c2 01F4      		brne .L45
 440 02c4 CE01      		movw r24,r28
 441 02c6 0E94 0000 		call NutNetBufFree
 442               	.L45:
 443 02ca C801      		movw r24,r16
 444               	/* epilogue start */
 445 02cc DF91      		pop r29
 446 02ce CF91      		pop r28
 447 02d0 1F91      		pop r17
 448 02d2 0F91      		pop r16
 449 02d4 FF90      		pop r15
 450 02d6 EF90      		pop r14
 451 02d8 DF90      		pop r13
 452 02da CF90      		pop r12
 453 02dc BF90      		pop r11
 454 02de AF90      		pop r10
 455 02e0 9F90      		pop r9
 456 02e2 8F90      		pop r8
GAS LISTING C:\DOCUME~1\ADMINI~1\LOCALS~1\Temp/ccYn36z1.s 			page 9


 457 02e4 7F90      		pop r7
 458 02e6 6F90      		pop r6
 459 02e8 0895      		ret
 460               		.size	NutUdpSendTo, .-NutUdpSendTo
 461               	.global	NutUdpCreateSocket
 462               		.type	NutUdpCreateSocket, @function
 463               	NutUdpCreateSocket:
 464 02ea CF93      		push r28
 465 02ec DF93      		push r29
 466               	/* prologue: function */
 467               	/* frame size = 0 */
 468 02ee EC01      		movw r28,r24
 469 02f0 8091 0000 		lds r24,registered
 470 02f4 8823      		tst r24
 471 02f6 01F4      		brne .L49
 472 02f8 81E1      		ldi r24,lo8(17)
 473 02fa 60E0      		ldi r22,lo8(gs(NutUdpInput))
 474 02fc 70E0      		ldi r23,hi8(gs(NutUdpInput))
 475 02fe 0E94 0000 		call NutRegisterIpHandler
 476 0302 892B      		or r24,r25
 477 0304 01F0      		breq .L50
 478 0306 20E0      		ldi r18,lo8(0)
 479 0308 30E0      		ldi r19,hi8(0)
 480 030a 00C0      		rjmp .L51
 481               	.L50:
 482 030c 81E0      		ldi r24,lo8(1)
 483 030e 8093 0000 		sts registered,r24
 484               	.L49:
 485 0312 2097      		sbiw r28,0
 486 0314 01F4      		brne .L52
 487 0316 7091 0000 		lds r23,udpSocketList
 488 031a 6091 0000 		lds r22,udpSocketList+1
 489 031e C091 0000 		lds r28,last_local_port
 490 0322 D091 0000 		lds r29,(last_local_port)+1
 491               	.L55:
 492 0326 2196      		adiw r28,1
 493 0328 01F4      		brne .L53
 494 032a C0E0      		ldi r28,lo8(4096)
 495 032c D0E1      		ldi r29,hi8(4096)
 496               	.L53:
 497 032e AE01      		movw r20,r28
 498               	/* #APP */
 499               	 ;  305 "../../nut/include/sys/types.h" 1
 500 0330 042E      		mov __tmp_reg__, r20
 501 0332 452F      		mov r20, r21
 502 0334 502D      		mov r21, __tmp_reg__
 503               		
 504               	 ;  0 "" 2
 505               	/* #NOAPP */
 506 0336 872F      		mov r24,r23
 507 0338 962F      		mov r25,r22
 508 033a 9C01      		movw r18,r24
 509 033c F901      		movw r30,r18
 510 033e 00C0      		rjmp .L54
 511               	.L56:
 512 0340 8281      		ldd r24,Z+2
 513 0342 9381      		ldd r25,Z+3
GAS LISTING C:\DOCUME~1\ADMINI~1\LOCALS~1\Temp/ccYn36z1.s 			page 10


 514 0344 8417      		cp r24,r20
 515 0346 9507      		cpc r25,r21
 516 0348 01F0      		breq .L55
 517 034a 0190      		ld __tmp_reg__,Z+
 518 034c F081      		ld r31,Z
 519 034e E02D      		mov r30,__tmp_reg__
 520               	.L54:
 521 0350 3097      		sbiw r30,0
 522 0352 01F4      		brne .L56
 523 0354 C093 0000 		sts last_local_port,r28
 524 0358 D093 0000 		sts last_local_port+1,r29
 525               	.L52:
 526 035c 81E0      		ldi r24,lo8(1)
 527 035e 90E0      		ldi r25,hi8(1)
 528 0360 64E1      		ldi r22,lo8(20)
 529 0362 70E0      		ldi r23,hi8(20)
 530 0364 0E94 0000 		call calloc
 531 0368 FC01      		movw r30,r24
 532 036a 9C01      		movw r18,r24
 533 036c 0097      		sbiw r24,0
 534 036e 01F0      		breq .L51
 535               	/* #APP */
 536               	 ;  305 "../../nut/include/sys/types.h" 1
 537 0370 0C2E      		mov __tmp_reg__, r28
 538 0372 CD2F      		mov r28, r29
 539 0374 D02D      		mov r29, __tmp_reg__
 540               		
 541               	 ;  0 "" 2
 542               	/* #NOAPP */
 543 0376 D383      		std Z+3,r29
 544 0378 C283      		std Z+2,r28
 545 037a 8091 0000 		lds r24,udpSocketList
 546 037e 9091 0000 		lds r25,(udpSocketList)+1
 547 0382 9183      		std Z+1,r25
 548 0384 8083      		st Z,r24
 549 0386 F093 0000 		sts (udpSocketList)+1,r31
 550 038a E093 0000 		sts udpSocketList,r30
 551               	.L51:
 552 038e C901      		movw r24,r18
 553               	/* epilogue start */
 554 0390 DF91      		pop r29
 555 0392 CF91      		pop r28
 556 0394 0895      		ret
 557               		.size	NutUdpCreateSocket, .-NutUdpCreateSocket
 558               		.data
 559               		.type	last_local_port, @object
 560               		.size	last_local_port, 2
 561               	last_local_port:
 562 0000 0010      		.word	4096
 563               		.lcomm registered,1
 564               		.comm udpSocketList,2,1
 565               	.global __do_copy_data
 566               	.global __do_clear_bss
GAS LISTING C:\DOCUME~1\ADMINI~1\LOCALS~1\Temp/ccYn36z1.s 			page 11


DEFINED SYMBOLS
                            *ABS*:00000000 udpsock.c
C:\DOCUME~1\ADMINI~1\LOCALS~1\Temp/ccYn36z1.s:2      *ABS*:0000003f __SREG__
C:\DOCUME~1\ADMINI~1\LOCALS~1\Temp/ccYn36z1.s:3      *ABS*:0000003e __SP_H__
C:\DOCUME~1\ADMINI~1\LOCALS~1\Temp/ccYn36z1.s:4      *ABS*:0000003d __SP_L__
C:\DOCUME~1\ADMINI~1\LOCALS~1\Temp/ccYn36z1.s:5      *ABS*:00000034 __CCP__
C:\DOCUME~1\ADMINI~1\LOCALS~1\Temp/ccYn36z1.s:6      *ABS*:00000000 __tmp_reg__
C:\DOCUME~1\ADMINI~1\LOCALS~1\Temp/ccYn36z1.s:7      *ABS*:00000001 __zero_reg__
C:\DOCUME~1\ADMINI~1\LOCALS~1\Temp/ccYn36z1.s:11     .text:00000000 NutUdpError
C:\DOCUME~1\ADMINI~1\LOCALS~1\Temp/ccYn36z1.s:71     .text:0000005a NutUdpFindSocket
                            *COM*:00000002 udpSocketList
C:\DOCUME~1\ADMINI~1\LOCALS~1\Temp/ccYn36z1.s:102    .text:00000086 NutUdpSetSockOpt
C:\DOCUME~1\ADMINI~1\LOCALS~1\Temp/ccYn36z1.s:137    .text:000000ba NutUdpGetSockOpt
C:\DOCUME~1\ADMINI~1\LOCALS~1\Temp/ccYn36z1.s:172    .text:000000ee NutUdpSetSocketError
C:\DOCUME~1\ADMINI~1\LOCALS~1\Temp/ccYn36z1.s:212    .text:0000012a NutUdpDestroySocket
C:\DOCUME~1\ADMINI~1\LOCALS~1\Temp/ccYn36z1.s:268    .text:00000188 NutUdpReceiveFrom
C:\DOCUME~1\ADMINI~1\LOCALS~1\Temp/ccYn36z1.s:388    .text:0000025e NutUdpSendTo
C:\DOCUME~1\ADMINI~1\LOCALS~1\Temp/ccYn36z1.s:463    .text:000002ea NutUdpCreateSocket
                             .bss:00000000 registered
C:\DOCUME~1\ADMINI~1\LOCALS~1\Temp/ccYn36z1.s:561    .data:00000000 last_local_port

UNDEFINED SYMBOLS
NutEventPost
NutNetBufFree
free
NutEventWait
memcpy
NutNetBufAlloc
NutUdpOutput
NutUdpInput
NutRegisterIpHandler
calloc
__do_copy_data
__do_clear_bss
